ARM GAS  /tmp/ccDJIZwS.s 			page 1


   1              		.syntax unified
   2              		.cpu cortex-m4
   3              		.fpu softvfp
   4              		.eabi_attribute 20, 1
   5              		.eabi_attribute 21, 1
   6              		.eabi_attribute 23, 3
   7              		.eabi_attribute 24, 1
   8              		.eabi_attribute 25, 1
   9              		.eabi_attribute 26, 1
  10              		.eabi_attribute 30, 2
  11              		.eabi_attribute 34, 1
  12              		.eabi_attribute 18, 4
  13              		.thumb
  14              		.file	"can.c"
  15              		.text
  16              	.Ltext0:
  17              		.cfi_sections	.debug_frame
  18              		.section	.text.canInit,"ax",%progbits
  19              		.align	2
  20              		.p2align 4,,15
  21              		.global	canInit
  22              		.thumb
  23              		.thumb_func
  24              		.type	canInit, %function
  25              	canInit:
  26              	.LFB118:
  27              		.file 1 "../../../os/hal/src/can.c"
  28              		.loc 1 68 0
  29              		.cfi_startproc
  30              		@ args = 0, pretend = 0, frame = 0
  31              		@ frame_needed = 0, uses_anonymous_args = 0
  32              		@ link register save eliminated.
  33              		.loc 1 70 0
  34 0000 FFF7FEBF 		b	can_lld_init
  35              	.LVL0:
  36              		.cfi_endproc
  37              	.LFE118:
  38              		.size	canInit, .-canInit
  39 0004 AFF30080 		.section	.text.canObjectInit,"ax",%progbits
  39      AFF30080 
  39      AFF30080 
  40              		.align	2
  41              		.p2align 4,,15
  42              		.global	canObjectInit
  43              		.thumb
  44              		.thumb_func
  45              		.type	canObjectInit, %function
  46              	canObjectInit:
  47              	.LFB119:
  48              		.loc 1 80 0
  49              		.cfi_startproc
  50              		@ args = 0, pretend = 0, frame = 0
  51              		@ frame_needed = 0, uses_anonymous_args = 0
  52              	.LVL1:
  53 0000 38B5     		push	{r3, r4, r5, lr}
  54              		.cfi_def_cfa_offset 16
  55              		.cfi_offset 3, -16
ARM GAS  /tmp/ccDJIZwS.s 			page 2


  56              		.cfi_offset 4, -12
  57              		.cfi_offset 5, -8
  58              		.cfi_offset 14, -4
  59              		.loc 1 82 0
  60 0002 0123     		movs	r3, #1
  61              		.loc 1 83 0
  62 0004 0025     		movs	r5, #0
  63              		.loc 1 80 0
  64 0006 0446     		mov	r4, r0
  65              		.loc 1 82 0
  66 0008 0370     		strb	r3, [r0]
  67              		.loc 1 83 0
  68 000a 4560     		str	r5, [r0, #4]
  69              		.loc 1 84 0
  70 000c 2946     		mov	r1, r5
  71 000e 0830     		adds	r0, r0, #8
  72              	.LVL2:
  73 0010 FFF7FEFF 		bl	chSemInit
  74              	.LVL3:
  75              		.loc 1 85 0
  76 0014 2946     		mov	r1, r5
  77 0016 04F11400 		add	r0, r4, #20
  78 001a FFF7FEFF 		bl	chSemInit
  79              	.LVL4:
  80              		.loc 1 86 0
  81 001e 04F12005 		add	r5, r4, #32
  82              		.loc 1 87 0
  83 0022 04F12400 		add	r0, r4, #36
  84              		.loc 1 88 0
  85 0026 04F12801 		add	r1, r4, #40
  86              		.loc 1 90 0
  87 002a 04F12C02 		add	r2, r4, #44
  88              		.loc 1 91 0
  89 002e 04F13003 		add	r3, r4, #48
  90              		.loc 1 86 0
  91 0032 2562     		str	r5, [r4, #32]
  92              		.loc 1 87 0
  93 0034 6062     		str	r0, [r4, #36]
  94              		.loc 1 88 0
  95 0036 A162     		str	r1, [r4, #40]
  96              		.loc 1 90 0
  97 0038 E262     		str	r2, [r4, #44]
  98              		.loc 1 91 0
  99 003a 2363     		str	r3, [r4, #48]
 100 003c 38BD     		pop	{r3, r4, r5, pc}
 101              		.cfi_endproc
 102              	.LFE119:
 103              		.size	canObjectInit, .-canObjectInit
 104 003e 00BF     		.section	.text.canStart,"ax",%progbits
 105              		.align	2
 106              		.p2align 4,,15
 107              		.global	canStart
 108              		.thumb
 109              		.thumb_func
 110              		.type	canStart, %function
 111              	canStart:
 112              	.LFB120:
ARM GAS  /tmp/ccDJIZwS.s 			page 3


 113              		.loc 1 107 0
 114              		.cfi_startproc
 115              		@ args = 0, pretend = 0, frame = 0
 116              		@ frame_needed = 0, uses_anonymous_args = 0
 117              	.LVL5:
 118 0000 38B5     		push	{r3, r4, r5, lr}
 119              		.cfi_def_cfa_offset 16
 120              		.cfi_offset 3, -16
 121              		.cfi_offset 4, -12
 122              		.cfi_offset 5, -8
 123              		.cfi_offset 14, -4
 124              		.loc 1 107 0
 125 0002 0446     		mov	r4, r0
 126 0004 0D46     		mov	r5, r1
 127              	.LBB2:
 128              		.loc 1 111 0
 129 0006 2023     		movs	r3, #32
 130              	@ 111 "../../../os/hal/src/can.c" 1
 131 0008 83F31188 		msr     BASEPRI, r3
 132              	@ 0 "" 2
 133              		.thumb
 134              	.LBE2:
 135              		.loc 1 116 0
 136 000c 0378     		ldrb	r3, [r0]	@ zero_extendqisi2
 137 000e 022B     		cmp	r3, #2
 138 0010 06D1     		bne	.L5
 139              	.LVL6:
 140              	.L6:
 141              		.loc 1 117 0
 142 0012 0620     		movs	r0, #6
 143 0014 0121     		movs	r1, #1
 144 0016 FFF7FEFF 		bl	chSchGoSleepTimeoutS
 145              	.LVL7:
 146              		.loc 1 116 0
 147 001a 2378     		ldrb	r3, [r4]	@ zero_extendqisi2
 148 001c 022B     		cmp	r3, #2
 149 001e F8D0     		beq	.L6
 150              	.L5:
 151              		.loc 1 118 0
 152 0020 012B     		cmp	r3, #1
 153 0022 03D0     		beq	.L12
 154              	.LBB3:
 155              		.loc 1 123 0
 156 0024 0023     		movs	r3, #0
 157              	@ 123 "../../../os/hal/src/can.c" 1
 158 0026 83F31188 		msr     BASEPRI, r3
 159              	@ 0 "" 2
 160              		.thumb
 161 002a 38BD     		pop	{r3, r4, r5, pc}
 162              	.LVL8:
 163              	.L12:
 164              	.LBE3:
 165              		.loc 1 119 0
 166 002c 6560     		str	r5, [r4, #4]
 167              		.loc 1 120 0
 168 002e 2046     		mov	r0, r4
 169 0030 FFF7FEFF 		bl	can_lld_start
ARM GAS  /tmp/ccDJIZwS.s 			page 4


 170              	.LVL9:
 171              		.loc 1 121 0
 172 0034 0323     		movs	r3, #3
 173 0036 2370     		strb	r3, [r4]
 174              	.LBB4:
 175              		.loc 1 123 0
 176 0038 0023     		movs	r3, #0
 177              	@ 123 "../../../os/hal/src/can.c" 1
 178 003a 83F31188 		msr     BASEPRI, r3
 179              	@ 0 "" 2
 180              		.thumb
 181 003e 38BD     		pop	{r3, r4, r5, pc}
 182              	.LBE4:
 183              		.cfi_endproc
 184              	.LFE120:
 185              		.size	canStart, .-canStart
 186              		.section	.text.canStop,"ax",%progbits
 187              		.align	2
 188              		.p2align 4,,15
 189              		.global	canStop
 190              		.thumb
 191              		.thumb_func
 192              		.type	canStop, %function
 193              	canStop:
 194              	.LFB121:
 195              		.loc 1 133 0
 196              		.cfi_startproc
 197              		@ args = 0, pretend = 0, frame = 0
 198              		@ frame_needed = 0, uses_anonymous_args = 0
 199              	.LVL10:
 200 0000 10B5     		push	{r4, lr}
 201              		.cfi_def_cfa_offset 8
 202              		.cfi_offset 4, -8
 203              		.cfi_offset 14, -4
 204              	.LBB5:
 205              		.loc 1 137 0
 206 0002 2023     		movs	r3, #32
 207              	.LBE5:
 208              		.loc 1 133 0
 209 0004 0446     		mov	r4, r0
 210              	.LBB6:
 211              		.loc 1 137 0
 212              	@ 137 "../../../os/hal/src/can.c" 1
 213 0006 83F31188 		msr     BASEPRI, r3
 214              	@ 0 "" 2
 215              		.thumb
 216              	.LBE6:
 217              		.loc 1 140 0
 218 000a FFF7FEFF 		bl	can_lld_stop
 219              	.LVL11:
 220              		.loc 1 141 0
 221 000e 2046     		mov	r0, r4
 222 0010 0123     		movs	r3, #1
 223 0012 00F8143B 		strb	r3, [r0], #20
 224              		.loc 1 142 0
 225 0016 0021     		movs	r1, #0
 226 0018 FFF7FEFF 		bl	chSemResetI
ARM GAS  /tmp/ccDJIZwS.s 			page 5


 227              	.LVL12:
 228              		.loc 1 143 0
 229 001c 04F10800 		add	r0, r4, #8
 230 0020 0021     		movs	r1, #0
 231 0022 FFF7FEFF 		bl	chSemResetI
 232              	.LVL13:
 233              		.loc 1 144 0
 234 0026 FFF7FEFF 		bl	chSchRescheduleS
 235              	.LVL14:
 236              	.LBB7:
 237              		.loc 1 145 0
 238 002a 0023     		movs	r3, #0
 239              	@ 145 "../../../os/hal/src/can.c" 1
 240 002c 83F31188 		msr     BASEPRI, r3
 241              	@ 0 "" 2
 242              		.thumb
 243 0030 10BD     		pop	{r4, pc}
 244              	.LBE7:
 245              		.cfi_endproc
 246              	.LFE121:
 247              		.size	canStop, .-canStop
 248 0032 00BFAFF3 		.section	.text.canTransmit,"ax",%progbits
 248      0080AFF3 
 248      0080AFF3 
 248      0080
 249              		.align	2
 250              		.p2align 4,,15
 251              		.global	canTransmit
 252              		.thumb
 253              		.thumb_func
 254              		.type	canTransmit, %function
 255              	canTransmit:
 256              	.LFB122:
 257              		.loc 1 172 0
 258              		.cfi_startproc
 259              		@ args = 0, pretend = 0, frame = 0
 260              		@ frame_needed = 0, uses_anonymous_args = 0
 261              	.LVL15:
 262 0000 2DE9F843 		push	{r3, r4, r5, r6, r7, r8, r9, lr}
 263              		.cfi_def_cfa_offset 32
 264              		.cfi_offset 3, -32
 265              		.cfi_offset 4, -28
 266              		.cfi_offset 5, -24
 267              		.cfi_offset 6, -20
 268              		.cfi_offset 7, -16
 269              		.cfi_offset 8, -12
 270              		.cfi_offset 9, -8
 271              		.cfi_offset 14, -4
 272              		.loc 1 172 0
 273 0004 9846     		mov	r8, r3
 274 0006 0446     		mov	r4, r0
 275 0008 0E46     		mov	r6, r1
 276 000a 9146     		mov	r9, r2
 277              	.LBB8:
 278              		.loc 1 177 0
 279 000c 2023     		movs	r3, #32
 280              	.LVL16:
ARM GAS  /tmp/ccDJIZwS.s 			page 6


 281              	@ 177 "../../../os/hal/src/can.c" 1
 282 000e 83F31188 		msr     BASEPRI, r3
 283              	@ 0 "" 2
 284              		.thumb
 285              	.LBE8:
 286              	.LBB9:
 287              		.loc 1 181 0
 288 0012 00F10807 		add	r7, r0, #8
 289              	.LVL17:
 290              	.L16:
 291              	.LBE9:
 292              		.loc 1 180 0
 293 0016 2578     		ldrb	r5, [r4]	@ zero_extendqisi2
 294 0018 042D     		cmp	r5, #4
 295 001a 3146     		mov	r1, r6
 296 001c 2046     		mov	r0, r4
 297 001e 02D0     		beq	.L18
 298              	.LVL18:
 299              		.loc 1 180 0 is_stmt 0 discriminator 1
 300 0020 FFF7FEFF 		bl	can_lld_is_tx_empty
 301              	.LVL19:
 302 0024 50B9     		cbnz	r0, .L28
 303              	.L18:
 304              	.LBB11:
 305              		.loc 1 181 0 is_stmt 1
 306 0026 3846     		mov	r0, r7
 307 0028 4146     		mov	r1, r8
 308 002a FFF7FEFF 		bl	chSemWaitTimeoutS
 309              	.LVL20:
 310              		.loc 1 182 0
 311 002e 0028     		cmp	r0, #0
 312 0030 F1D0     		beq	.L16
 313              	.LBB10:
 314              		.loc 1 183 0
 315 0032 0023     		movs	r3, #0
 316              	@ 183 "../../../os/hal/src/can.c" 1
 317 0034 83F31188 		msr     BASEPRI, r3
 318              	@ 0 "" 2
 319              		.thumb
 320              	.LBE10:
 321              		.loc 1 184 0
 322 0038 BDE8F883 		pop	{r3, r4, r5, r6, r7, r8, r9, pc}
 323              	.LVL21:
 324              	.L28:
 325              	.LBE11:
 326              		.loc 1 187 0
 327 003c 2046     		mov	r0, r4
 328 003e 3146     		mov	r1, r6
 329 0040 4A46     		mov	r2, r9
 330 0042 FFF7FEFF 		bl	can_lld_transmit
 331              	.LVL22:
 332              	.LBB12:
 333              		.loc 1 188 0
 334 0046 0023     		movs	r3, #0
 335              	@ 188 "../../../os/hal/src/can.c" 1
 336 0048 83F31188 		msr     BASEPRI, r3
 337              	@ 0 "" 2
ARM GAS  /tmp/ccDJIZwS.s 			page 7


 338              		.thumb
 339              	.LBE12:
 340              		.loc 1 189 0
 341 004c 1846     		mov	r0, r3
 342              		.loc 1 190 0
 343 004e BDE8F883 		pop	{r3, r4, r5, r6, r7, r8, r9, pc}
 344              		.cfi_endproc
 345              	.LFE122:
 346              		.size	canTransmit, .-canTransmit
 347 0052 00BFAFF3 		.section	.text.canReceive,"ax",%progbits
 347      0080AFF3 
 347      0080AFF3 
 347      0080
 348              		.align	2
 349              		.p2align 4,,15
 350              		.global	canReceive
 351              		.thumb
 352              		.thumb_func
 353              		.type	canReceive, %function
 354              	canReceive:
 355              	.LFB123:
 356              		.loc 1 217 0
 357              		.cfi_startproc
 358              		@ args = 0, pretend = 0, frame = 0
 359              		@ frame_needed = 0, uses_anonymous_args = 0
 360              	.LVL23:
 361 0000 2DE9F843 		push	{r3, r4, r5, r6, r7, r8, r9, lr}
 362              		.cfi_def_cfa_offset 32
 363              		.cfi_offset 3, -32
 364              		.cfi_offset 4, -28
 365              		.cfi_offset 5, -24
 366              		.cfi_offset 6, -20
 367              		.cfi_offset 7, -16
 368              		.cfi_offset 8, -12
 369              		.cfi_offset 9, -8
 370              		.cfi_offset 14, -4
 371              		.loc 1 217 0
 372 0004 9846     		mov	r8, r3
 373 0006 0446     		mov	r4, r0
 374 0008 0E46     		mov	r6, r1
 375 000a 9146     		mov	r9, r2
 376              	.LBB13:
 377              		.loc 1 222 0
 378 000c 2023     		movs	r3, #32
 379              	.LVL24:
 380              	@ 222 "../../../os/hal/src/can.c" 1
 381 000e 83F31188 		msr     BASEPRI, r3
 382              	@ 0 "" 2
 383              		.thumb
 384              	.LBE13:
 385              	.LBB14:
 386              		.loc 1 226 0
 387 0012 00F11407 		add	r7, r0, #20
 388              	.LVL25:
 389              	.L30:
 390              	.LBE14:
 391              		.loc 1 225 0
ARM GAS  /tmp/ccDJIZwS.s 			page 8


 392 0016 2578     		ldrb	r5, [r4]	@ zero_extendqisi2
 393 0018 042D     		cmp	r5, #4
 394 001a 3146     		mov	r1, r6
 395 001c 2046     		mov	r0, r4
 396 001e 02D0     		beq	.L32
 397              	.LVL26:
 398              		.loc 1 225 0 is_stmt 0 discriminator 1
 399 0020 FFF7FEFF 		bl	can_lld_is_rx_nonempty
 400              	.LVL27:
 401 0024 50B9     		cbnz	r0, .L42
 402              	.L32:
 403              	.LBB16:
 404              		.loc 1 226 0 is_stmt 1
 405 0026 3846     		mov	r0, r7
 406 0028 4146     		mov	r1, r8
 407 002a FFF7FEFF 		bl	chSemWaitTimeoutS
 408              	.LVL28:
 409              		.loc 1 227 0
 410 002e 0028     		cmp	r0, #0
 411 0030 F1D0     		beq	.L30
 412              	.LBB15:
 413              		.loc 1 228 0
 414 0032 0023     		movs	r3, #0
 415              	@ 228 "../../../os/hal/src/can.c" 1
 416 0034 83F31188 		msr     BASEPRI, r3
 417              	@ 0 "" 2
 418              		.thumb
 419              	.LBE15:
 420              		.loc 1 229 0
 421 0038 BDE8F883 		pop	{r3, r4, r5, r6, r7, r8, r9, pc}
 422              	.LVL29:
 423              	.L42:
 424              	.LBE16:
 425              		.loc 1 232 0
 426 003c 2046     		mov	r0, r4
 427 003e 3146     		mov	r1, r6
 428 0040 4A46     		mov	r2, r9
 429 0042 FFF7FEFF 		bl	can_lld_receive
 430              	.LVL30:
 431              	.LBB17:
 432              		.loc 1 233 0
 433 0046 0023     		movs	r3, #0
 434              	@ 233 "../../../os/hal/src/can.c" 1
 435 0048 83F31188 		msr     BASEPRI, r3
 436              	@ 0 "" 2
 437              		.thumb
 438              	.LBE17:
 439              		.loc 1 234 0
 440 004c 1846     		mov	r0, r3
 441              		.loc 1 235 0
 442 004e BDE8F883 		pop	{r3, r4, r5, r6, r7, r8, r9, pc}
 443              		.cfi_endproc
 444              	.LFE123:
 445              		.size	canReceive, .-canReceive
 446 0052 00BFAFF3 		.section	.text.canSleep,"ax",%progbits
 446      0080AFF3 
 446      0080AFF3 
ARM GAS  /tmp/ccDJIZwS.s 			page 9


 446      0080
 447              		.align	2
 448              		.p2align 4,,15
 449              		.global	canSleep
 450              		.thumb
 451              		.thumb_func
 452              		.type	canSleep, %function
 453              	canSleep:
 454              	.LFB124:
 455              		.loc 1 250 0
 456              		.cfi_startproc
 457              		@ args = 0, pretend = 0, frame = 0
 458              		@ frame_needed = 0, uses_anonymous_args = 0
 459              	.LVL31:
 460              	.LBB18:
 461              		.loc 1 254 0
 462 0000 2023     		movs	r3, #32
 463              	@ 254 "../../../os/hal/src/can.c" 1
 464 0002 83F31188 		msr     BASEPRI, r3
 465              	@ 0 "" 2
 466              		.thumb
 467              	.LBE18:
 468              		.loc 1 257 0
 469 0006 0378     		ldrb	r3, [r0]	@ zero_extendqisi2
 470 0008 032B     		cmp	r3, #3
 471 000a 03D0     		beq	.L47
 472              	.LBB19:
 473              		.loc 1 263 0
 474 000c 0023     		movs	r3, #0
 475              	@ 263 "../../../os/hal/src/can.c" 1
 476 000e 83F31188 		msr     BASEPRI, r3
 477              	@ 0 "" 2
 478              		.thumb
 479 0012 7047     		bx	lr
 480              	.L47:
 481              	.LBE19:
 482              		.loc 1 250 0
 483 0014 10B5     		push	{r4, lr}
 484              		.cfi_def_cfa_offset 8
 485              		.cfi_offset 4, -8
 486              		.cfi_offset 14, -4
 487 0016 0446     		mov	r4, r0
 488              		.loc 1 258 0
 489 0018 FFF7FEFF 		bl	can_lld_sleep
 490              	.LVL32:
 491              		.loc 1 259 0
 492 001c 2046     		mov	r0, r4
 493 001e 0423     		movs	r3, #4
 494 0020 00F82C3B 		strb	r3, [r0], #44
 495              		.loc 1 260 0
 496 0024 0021     		movs	r1, #0
 497 0026 FFF7FEFF 		bl	chEvtBroadcastFlagsI
 498              	.LVL33:
 499              		.loc 1 261 0
 500 002a FFF7FEFF 		bl	chSchRescheduleS
 501              	.LVL34:
 502              	.LBB20:
ARM GAS  /tmp/ccDJIZwS.s 			page 10


 503              		.loc 1 263 0
 504 002e 0023     		movs	r3, #0
 505              	@ 263 "../../../os/hal/src/can.c" 1
 506 0030 83F31188 		msr     BASEPRI, r3
 507              	@ 0 "" 2
 508              		.thumb
 509 0034 10BD     		pop	{r4, pc}
 510              	.LBE20:
 511              		.cfi_endproc
 512              	.LFE124:
 513              		.size	canSleep, .-canSleep
 514 0036 00BFAFF3 		.section	.text.canWakeup,"ax",%progbits
 514      0080AFF3 
 514      0080
 515              		.align	2
 516              		.p2align 4,,15
 517              		.global	canWakeup
 518              		.thumb
 519              		.thumb_func
 520              		.type	canWakeup, %function
 521              	canWakeup:
 522              	.LFB125:
 523              		.loc 1 273 0
 524              		.cfi_startproc
 525              		@ args = 0, pretend = 0, frame = 0
 526              		@ frame_needed = 0, uses_anonymous_args = 0
 527              	.LVL35:
 528              	.LBB21:
 529              		.loc 1 277 0
 530 0000 2023     		movs	r3, #32
 531              	@ 277 "../../../os/hal/src/can.c" 1
 532 0002 83F31188 		msr     BASEPRI, r3
 533              	@ 0 "" 2
 534              		.thumb
 535              	.LBE21:
 536              		.loc 1 280 0
 537 0006 0378     		ldrb	r3, [r0]	@ zero_extendqisi2
 538 0008 042B     		cmp	r3, #4
 539 000a 03D0     		beq	.L52
 540              	.LBB22:
 541              		.loc 1 286 0
 542 000c 0023     		movs	r3, #0
 543              	@ 286 "../../../os/hal/src/can.c" 1
 544 000e 83F31188 		msr     BASEPRI, r3
 545              	@ 0 "" 2
 546              		.thumb
 547 0012 7047     		bx	lr
 548              	.L52:
 549              	.LBE22:
 550              		.loc 1 273 0
 551 0014 10B5     		push	{r4, lr}
 552              		.cfi_def_cfa_offset 8
 553              		.cfi_offset 4, -8
 554              		.cfi_offset 14, -4
 555 0016 0446     		mov	r4, r0
 556              		.loc 1 281 0
 557 0018 FFF7FEFF 		bl	can_lld_wakeup
ARM GAS  /tmp/ccDJIZwS.s 			page 11


 558              	.LVL36:
 559              		.loc 1 282 0
 560 001c 2046     		mov	r0, r4
 561 001e 0323     		movs	r3, #3
 562 0020 00F8303B 		strb	r3, [r0], #48
 563              		.loc 1 283 0
 564 0024 0021     		movs	r1, #0
 565 0026 FFF7FEFF 		bl	chEvtBroadcastFlagsI
 566              	.LVL37:
 567              		.loc 1 284 0
 568 002a FFF7FEFF 		bl	chSchRescheduleS
 569              	.LVL38:
 570              	.LBB23:
 571              		.loc 1 286 0
 572 002e 0023     		movs	r3, #0
 573              	@ 286 "../../../os/hal/src/can.c" 1
 574 0030 83F31188 		msr     BASEPRI, r3
 575              	@ 0 "" 2
 576              		.thumb
 577 0034 10BD     		pop	{r4, pc}
 578              	.LBE23:
 579              		.cfi_endproc
 580              	.LFE125:
 581              		.size	canWakeup, .-canWakeup
 582 0036 00BFAFF3 		.text
 582      0080AFF3 
 582      0080
 583              	.Letext0:
 584              		.file 2 "/usr/arm-none-eabi/include/machine/_default_types.h"
 585              		.file 3 "/usr/arm-none-eabi/include/stdint.h"
 586              		.file 4 "../../../os/ports/GCC/ARMCMx/chtypes.h"
 587              		.file 5 "../../../os/kernel/include/chlists.h"
 588              		.file 6 "../../../os/kernel/include/chthreads.h"
 589              		.file 7 "../../../os/ports/GCC/ARMCMx/chcore_v7m.h"
 590              		.file 8 "../../../os/kernel/include/chsem.h"
 591              		.file 9 "../../../os/kernel/include/chmtx.h"
 592              		.file 10 "../../../os/kernel/include/chevents.h"
 593              		.file 11 "../../../os/hal/platforms/STM32F4xx/stm32f4xx.h"
 594              		.file 12 "../../../os/hal/include/can.h"
 595              		.file 13 "../../../os/hal/platforms/STM32/can_lld.h"
 596              		.file 14 "../../../os/kernel/include/chschd.h"
 597              		.file 15 "../../../os/ports/common/ARMCMx/CMSIS/include/core_cm4.h"