ARM GAS  /tmp/ccS8l9A9.s 			page 1


   1              		.syntax unified
   2              		.cpu cortex-m4
   3              		.fpu softvfp
   4              		.eabi_attribute 20, 1
   5              		.eabi_attribute 21, 1
   6              		.eabi_attribute 23, 3
   7              		.eabi_attribute 24, 1
   8              		.eabi_attribute 25, 1
   9              		.eabi_attribute 26, 1
  10              		.eabi_attribute 30, 2
  11              		.eabi_attribute 34, 1
  12              		.eabi_attribute 18, 4
  13              		.thumb
  14              		.file	"can_lld.c"
  15              		.text
  16              	.Ltext0:
  17              		.cfi_sections	.debug_frame
  18              		.section	.text.can_lld_set_filters,"ax",%progbits
  19              		.align	2
  20              		.p2align 4,,15
  21              		.thumb
  22              		.thumb_func
  23              		.type	can_lld_set_filters, %function
  24              	can_lld_set_filters:
  25              	.LFB118:
  26              		.file 1 "../../../os/hal/platforms/STM32/can_lld.c"
  27              		.loc 1 69 0
  28              		.cfi_startproc
  29              		@ args = 0, pretend = 0, frame = 0
  30              		@ frame_needed = 0, uses_anonymous_args = 0
  31              	.LVL0:
  32 0000 F0B5     		push	{r4, r5, r6, r7, lr}
  33              		.cfi_def_cfa_offset 20
  34              		.cfi_offset 4, -20
  35              		.cfi_offset 5, -16
  36              		.cfi_offset 6, -12
  37              		.cfi_offset 7, -8
  38              		.cfi_offset 14, -4
  39              		.loc 1 72 0
  40 0002 434C     		ldr	r4, .L22
  41              		.loc 1 75 0
  42 0004 434D     		ldr	r5, .L22+4
  43              		.loc 1 72 0
  44 0006 236C     		ldr	r3, [r4, #64]
  45 0008 43F00073 		orr	r3, r3, #33554432
  46 000c 2364     		str	r3, [r4, #64]
  47              		.loc 1 75 0
  48 000e D5F80032 		ldr	r3, [r5, #512]
  49 0012 1B0C     		lsrs	r3, r3, #16
  50 0014 1B04     		lsls	r3, r3, #16
  51 0016 43F00103 		orr	r3, r3, #1
  52 001a 43EA0023 		orr	r3, r3, r0, lsl #8
  53 001e C5F80032 		str	r3, [r5, #512]
  54              		.loc 1 76 0
  55 0022 0029     		cmp	r1, #0
  56 0024 4ED0     		beq	.L2
  57              	.LBB15:
ARM GAS  /tmp/ccS8l9A9.s 			page 2


  58              		.loc 1 80 0
  59 0026 0023     		movs	r3, #0
  60 0028 C5F81C32 		str	r3, [r5, #540]
  61              		.loc 1 84 0
  62 002c 1846     		mov	r0, r3
  63              	.LVL1:
  64              		.loc 1 81 0
  65 002e C5F80432 		str	r3, [r5, #516]
  66              		.loc 1 85 0
  67 0032 1C46     		mov	r4, r3
  68              		.loc 1 82 0
  69 0034 C5F80C32 		str	r3, [r5, #524]
  70              		.loc 1 83 0
  71 0038 C5F81432 		str	r3, [r5, #532]
  72              	.LVL2:
  73              	.L3:
  74 003c C300     		lsls	r3, r0, #3
  75 003e 03F18043 		add	r3, r3, #1073741824
  76 0042 03F5C843 		add	r3, r3, #25600
  77              		.loc 1 84 0 discriminator 3
  78 0046 0130     		adds	r0, r0, #1
  79              	.LVL3:
  80 0048 1C28     		cmp	r0, #28
  81              		.loc 1 85 0 discriminator 3
  82 004a C3F84042 		str	r4, [r3, #576]
  83              		.loc 1 86 0 discriminator 3
  84 004e C3F84442 		str	r4, [r3, #580]
  85              		.loc 1 84 0 discriminator 3
  86 0052 F3D1     		bne	.L3
  87              		.loc 1 93 0
  88 0054 2F48     		ldr	r0, .L22+4
  89              	.LVL4:
  90              		.loc 1 84 0
  91 0056 0026     		movs	r6, #0
  92              		.loc 1 91 0
  93 0058 0127     		movs	r7, #1
  94              	.L7:
  95              	.LVL5:
  96 005a 1568     		ldr	r5, [r2]
  97              		.loc 1 92 0
  98 005c 1479     		ldrb	r4, [r2, #4]	@ zero_extendqisi2
  99 005e EB00     		lsls	r3, r5, #3
 100 0060 03F18043 		add	r3, r3, #1073741824
 101 0064 14F0010F 		tst	r4, #1
 102 0068 03F5C843 		add	r3, r3, #25600
 103              		.loc 1 90 0
 104 006c 06F10106 		add	r6, r6, #1
 105              	.LVL6:
 106              		.loc 1 91 0
 107 0070 07FA05F5 		lsl	r5, r7, r5
 108              	.LVL7:
 109              		.loc 1 92 0
 110 0074 05D0     		beq	.L4
 111              		.loc 1 93 0
 112 0076 D0F804E2 		ldr	lr, [r0, #516]
 113 007a 45EA0E0E 		orr	lr, r5, lr
 114 007e C0F804E2 		str	lr, [r0, #516]
ARM GAS  /tmp/ccS8l9A9.s 			page 3


 115              	.L4:
 116              		.loc 1 94 0
 117 0082 14F0020F 		tst	r4, #2
 118 0086 05D0     		beq	.L5
 119              		.loc 1 95 0
 120 0088 D0F80CE2 		ldr	lr, [r0, #524]
 121 008c 45EA0E0E 		orr	lr, r5, lr
 122 0090 C0F80CE2 		str	lr, [r0, #524]
 123              	.L5:
 124              		.loc 1 96 0
 125 0094 6407     		lsls	r4, r4, #29
 126 0096 04D5     		bpl	.L6
 127              		.loc 1 97 0
 128 0098 D0F81442 		ldr	r4, [r0, #532]
 129 009c 2C43     		orrs	r4, r4, r5
 130 009e C0F81442 		str	r4, [r0, #532]
 131              	.L6:
 132              		.loc 1 98 0 discriminator 2
 133 00a2 9468     		ldr	r4, [r2, #8]
 134 00a4 C3F84042 		str	r4, [r3, #576]
 135              		.loc 1 99 0 discriminator 2
 136 00a8 D468     		ldr	r4, [r2, #12]
 137 00aa C3F84442 		str	r4, [r3, #580]
 138              		.loc 1 100 0 discriminator 2
 139 00ae D0F81C32 		ldr	r3, [r0, #540]
 140              		.loc 1 90 0 discriminator 2
 141 00b2 8E42     		cmp	r6, r1
 142              		.loc 1 100 0 discriminator 2
 143 00b4 43EA0503 		orr	r3, r3, r5
 144              		.loc 1 101 0 discriminator 2
 145 00b8 02F11002 		add	r2, r2, #16
 146              	.LVL8:
 147              		.loc 1 100 0 discriminator 2
 148 00bc C0F81C32 		str	r3, [r0, #540]
 149              		.loc 1 90 0 discriminator 2
 150 00c0 CBD1     		bne	.L7
 151 00c2 18E0     		b	.L8
 152              	.LVL9:
 153              	.L2:
 154 00c4 C200     		lsls	r2, r0, #3
 155              	.LVL10:
 156 00c6 02F18042 		add	r2, r2, #1073741824
 157              	.LBE15:
 158              		.loc 1 116 0
 159 00ca 0123     		movs	r3, #1
 160 00cc 02F5C842 		add	r2, r2, #25600
 161 00d0 8340     		lsls	r3, r3, r0
 162 00d2 43F00103 		orr	r3, r3, #1
 163              		.loc 1 107 0
 164 00d6 C5F84012 		str	r1, [r5, #576]
 165              		.loc 1 108 0
 166 00da C5F84412 		str	r1, [r5, #580]
 167              		.loc 1 110 0
 168 00de C2F84012 		str	r1, [r2, #576]
 169              		.loc 1 111 0
 170 00e2 C2F84412 		str	r1, [r2, #580]
 171              		.loc 1 113 0
ARM GAS  /tmp/ccS8l9A9.s 			page 4


 172 00e6 C5F80412 		str	r1, [r5, #516]
 173              		.loc 1 114 0
 174 00ea C5F81412 		str	r1, [r5, #532]
 175              		.loc 1 116 0
 176 00ee C5F80C32 		str	r3, [r5, #524]
 177              		.loc 1 117 0
 178 00f2 C5F81C32 		str	r3, [r5, #540]
 179              	.LVL11:
 180              	.L8:
 181              		.loc 1 123 0
 182 00f6 0749     		ldr	r1, .L22+4
 183              	.LVL12:
 184              		.loc 1 126 0
 185 00f8 054A     		ldr	r2, .L22
 186              		.loc 1 123 0
 187 00fa D1F80032 		ldr	r3, [r1, #512]
 188 00fe 23F00103 		bic	r3, r3, #1
 189 0102 C1F80032 		str	r3, [r1, #512]
 190              		.loc 1 126 0
 191 0106 136C     		ldr	r3, [r2, #64]
 192 0108 23F00073 		bic	r3, r3, #33554432
 193 010c 1364     		str	r3, [r2, #64]
 194 010e F0BD     		pop	{r4, r5, r6, r7, pc}
 195              	.L23:
 196              		.align	2
 197              	.L22:
 198 0110 00380240 		.word	1073887232
 199 0114 00640040 		.word	1073767424
 200              		.cfi_endproc
 201              	.LFE118:
 202              		.size	can_lld_set_filters, .-can_lld_set_filters
 203 0118 AFF30080 		.section	.text.can_lld_tx_handler,"ax",%progbits
 203      AFF30080 
 204              		.align	2
 205              		.p2align 4,,15
 206              		.thumb
 207              		.thumb_func
 208              		.type	can_lld_tx_handler, %function
 209              	can_lld_tx_handler:
 210              	.LFB119:
 211              		.loc 1 136 0
 212              		.cfi_startproc
 213              		@ args = 0, pretend = 0, frame = 0
 214              		@ frame_needed = 0, uses_anonymous_args = 0
 215              	.LVL13:
 216              		.loc 1 139 0
 217 0000 426B     		ldr	r2, [r0, #52]
 218 0002 0E49     		ldr	r1, .L31
 219              		.loc 1 136 0
 220 0004 38B5     		push	{r3, r4, r5, lr}
 221              		.cfi_def_cfa_offset 16
 222              		.cfi_offset 3, -16
 223              		.cfi_offset 4, -12
 224              		.cfi_offset 5, -8
 225              		.cfi_offset 14, -4
 226              		.loc 1 136 0
 227 0006 0446     		mov	r4, r0
ARM GAS  /tmp/ccS8l9A9.s 			page 5


 228              	.LBB16:
 229              		.loc 1 140 0
 230 0008 2023     		movs	r3, #32
 231              	.LBE16:
 232              		.loc 1 139 0
 233 000a 9160     		str	r1, [r2, #8]
 234              	.LBB17:
 235              		.loc 1 140 0
 236              	@ 140 "../../../os/hal/platforms/STM32/can_lld.c" 1
 237 000c 83F31188 		msr     BASEPRI, r3
 238              	@ 0 "" 2
 239              		.thumb
 240              	.LBE17:
 241              		.loc 1 141 0
 242 0010 0369     		ldr	r3, [r0, #16]
 243 0012 002B     		cmp	r3, #0
 244 0014 B8BF     		it	lt
 245 0016 00F10805 		addlt	r5, r0, #8
 246 001a 05DA     		bge	.L27
 247              	.LVL14:
 248              	.L26:
 249              		.loc 1 142 0
 250 001c 2846     		mov	r0, r5
 251 001e FFF7FEFF 		bl	chSemSignalI
 252              	.LVL15:
 253              		.loc 1 141 0
 254 0022 2369     		ldr	r3, [r4, #16]
 255 0024 002B     		cmp	r3, #0
 256 0026 F9DB     		blt	.L26
 257              	.L27:
 258              		.loc 1 143 0
 259 0028 04F12400 		add	r0, r4, #36
 260 002c 0121     		movs	r1, #1
 261 002e FFF7FEFF 		bl	chEvtBroadcastFlagsI
 262              	.LVL16:
 263              	.LBB18:
 264              		.loc 1 144 0
 265 0032 0023     		movs	r3, #0
 266              	@ 144 "../../../os/hal/platforms/STM32/can_lld.c" 1
 267 0034 83F31188 		msr     BASEPRI, r3
 268              	@ 0 "" 2
 269              		.thumb
 270 0038 38BD     		pop	{r3, r4, r5, pc}
 271              	.LVL17:
 272              	.L32:
 273 003a 00BF     		.align	2
 274              	.L31:
 275 003c 01010100 		.word	65793
 276              	.LBE18:
 277              		.cfi_endproc
 278              	.LFE119:
 279              		.size	can_lld_tx_handler, .-can_lld_tx_handler
 280              		.section	.text.can_lld_rx0_handler,"ax",%progbits
 281              		.align	2
 282              		.p2align 4,,15
 283              		.thumb
 284              		.thumb_func
ARM GAS  /tmp/ccS8l9A9.s 			page 6


 285              		.type	can_lld_rx0_handler, %function
 286              	can_lld_rx0_handler:
 287              	.LFB120:
 288              		.loc 1 154 0
 289              		.cfi_startproc
 290              		@ args = 0, pretend = 0, frame = 0
 291              		@ frame_needed = 0, uses_anonymous_args = 0
 292              	.LVL18:
 293              		.loc 1 157 0
 294 0000 436B     		ldr	r3, [r0, #52]
 295              		.loc 1 154 0
 296 0002 70B5     		push	{r4, r5, r6, lr}
 297              		.cfi_def_cfa_offset 16
 298              		.cfi_offset 4, -16
 299              		.cfi_offset 5, -12
 300              		.cfi_offset 6, -8
 301              		.cfi_offset 14, -4
 302              		.loc 1 157 0
 303 0004 DE68     		ldr	r6, [r3, #12]
 304              	.LVL19:
 305              		.loc 1 158 0
 306 0006 B207     		lsls	r2, r6, #30
 307              		.loc 1 154 0
 308 0008 0446     		mov	r4, r0
 309              		.loc 1 158 0
 310 000a 1AD0     		beq	.L34
 311              		.loc 1 160 0
 312 000c 5A69     		ldr	r2, [r3, #20]
 313 000e 22F00202 		bic	r2, r2, #2
 314 0012 5A61     		str	r2, [r3, #20]
 315              	.LBB27:
 316              		.loc 1 161 0
 317 0014 2023     		movs	r3, #32
 318              	@ 161 "../../../os/hal/platforms/STM32/can_lld.c" 1
 319 0016 83F31188 		msr     BASEPRI, r3
 320              	@ 0 "" 2
 321              		.thumb
 322              	.LBE27:
 323              		.loc 1 162 0
 324 001a C369     		ldr	r3, [r0, #28]
 325 001c 002B     		cmp	r3, #0
 326 001e B8BF     		it	lt
 327 0020 00F11405 		addlt	r5, r0, #20
 328 0024 05DA     		bge	.L37
 329              	.LVL20:
 330              	.L36:
 331              		.loc 1 163 0
 332 0026 2846     		mov	r0, r5
 333 0028 FFF7FEFF 		bl	chSemSignalI
 334              	.LVL21:
 335              		.loc 1 162 0
 336 002c E369     		ldr	r3, [r4, #28]
 337 002e 002B     		cmp	r3, #0
 338 0030 F9DB     		blt	.L36
 339              	.L37:
 340              		.loc 1 164 0
 341 0032 04F12000 		add	r0, r4, #32
ARM GAS  /tmp/ccS8l9A9.s 			page 7


 342 0036 0121     		movs	r1, #1
 343 0038 FFF7FEFF 		bl	chEvtBroadcastFlagsI
 344              	.LVL22:
 345              	.LBB28:
 346              		.loc 1 165 0
 347 003c 0023     		movs	r3, #0
 348              	@ 165 "../../../os/hal/platforms/STM32/can_lld.c" 1
 349 003e 83F31188 		msr     BASEPRI, r3
 350              	@ 0 "" 2
 351              		.thumb
 352              	.L34:
 353              	.LBE28:
 354              		.loc 1 167 0
 355 0042 F306     		lsls	r3, r6, #27
 356 0044 0CD5     		bpl	.L33
 357              	.LVL23:
 358              	.LBB29:
 359              	.LBB30:
 360              		.loc 1 169 0
 361 0046 636B     		ldr	r3, [r4, #52]
 362 0048 1021     		movs	r1, #16
 363 004a D960     		str	r1, [r3, #12]
 364              	.LBB31:
 365              		.loc 1 170 0
 366 004c 2023     		movs	r3, #32
 367              	@ 170 "../../../os/hal/platforms/STM32/can_lld.c" 1
 368 004e 83F31188 		msr     BASEPRI, r3
 369              	@ 0 "" 2
 370              		.thumb
 371              	.LBE31:
 372              		.loc 1 171 0
 373 0052 04F12800 		add	r0, r4, #40
 374 0056 FFF7FEFF 		bl	chEvtBroadcastFlagsI
 375              	.LVL24:
 376              	.LBB32:
 377              		.loc 1 172 0
 378 005a 0023     		movs	r3, #0
 379              	@ 172 "../../../os/hal/platforms/STM32/can_lld.c" 1
 380 005c 83F31188 		msr     BASEPRI, r3
 381              	@ 0 "" 2
 382              	.LVL25:
 383              		.thumb
 384              	.L33:
 385 0060 70BD     		pop	{r4, r5, r6, pc}
 386              	.LBE32:
 387              	.LBE30:
 388              	.LBE29:
 389              		.cfi_endproc
 390              	.LFE120:
 391              		.size	can_lld_rx0_handler, .-can_lld_rx0_handler
 392 0062 00BFAFF3 		.section	.text.can_lld_rx1_handler,"ax",%progbits
 392      0080AFF3 
 392      0080AFF3 
 392      0080
 393              		.align	2
 394              		.p2align 4,,15
 395              		.thumb
ARM GAS  /tmp/ccS8l9A9.s 			page 8


 396              		.thumb_func
 397              		.type	can_lld_rx1_handler, %function
 398              	can_lld_rx1_handler:
 399              	.LFB121:
 400              		.loc 1 183 0
 401              		.cfi_startproc
 402              		@ args = 0, pretend = 0, frame = 0
 403              		@ frame_needed = 0, uses_anonymous_args = 0
 404              	.LVL26:
 405              		.loc 1 186 0
 406 0000 436B     		ldr	r3, [r0, #52]
 407              		.loc 1 183 0
 408 0002 70B5     		push	{r4, r5, r6, lr}
 409              		.cfi_def_cfa_offset 16
 410              		.cfi_offset 4, -16
 411              		.cfi_offset 5, -12
 412              		.cfi_offset 6, -8
 413              		.cfi_offset 14, -4
 414              		.loc 1 186 0
 415 0004 1E69     		ldr	r6, [r3, #16]
 416              	.LVL27:
 417              		.loc 1 187 0
 418 0006 B207     		lsls	r2, r6, #30
 419              		.loc 1 183 0
 420 0008 0446     		mov	r4, r0
 421              		.loc 1 187 0
 422 000a 1AD0     		beq	.L48
 423              		.loc 1 189 0
 424 000c 5A69     		ldr	r2, [r3, #20]
 425 000e 22F01002 		bic	r2, r2, #16
 426 0012 5A61     		str	r2, [r3, #20]
 427              	.LBB41:
 428              		.loc 1 190 0
 429 0014 2023     		movs	r3, #32
 430              	@ 190 "../../../os/hal/platforms/STM32/can_lld.c" 1
 431 0016 83F31188 		msr     BASEPRI, r3
 432              	@ 0 "" 2
 433              		.thumb
 434              	.LBE41:
 435              		.loc 1 191 0
 436 001a C369     		ldr	r3, [r0, #28]
 437 001c 002B     		cmp	r3, #0
 438 001e B8BF     		it	lt
 439 0020 00F11405 		addlt	r5, r0, #20
 440 0024 05DA     		bge	.L51
 441              	.LVL28:
 442              	.L50:
 443              		.loc 1 192 0
 444 0026 2846     		mov	r0, r5
 445 0028 FFF7FEFF 		bl	chSemSignalI
 446              	.LVL29:
 447              		.loc 1 191 0
 448 002c E369     		ldr	r3, [r4, #28]
 449 002e 002B     		cmp	r3, #0
 450 0030 F9DB     		blt	.L50
 451              	.L51:
 452              		.loc 1 193 0
ARM GAS  /tmp/ccS8l9A9.s 			page 9


 453 0032 04F12000 		add	r0, r4, #32
 454 0036 0221     		movs	r1, #2
 455 0038 FFF7FEFF 		bl	chEvtBroadcastFlagsI
 456              	.LVL30:
 457              	.LBB42:
 458              		.loc 1 194 0
 459 003c 0023     		movs	r3, #0
 460              	@ 194 "../../../os/hal/platforms/STM32/can_lld.c" 1
 461 003e 83F31188 		msr     BASEPRI, r3
 462              	@ 0 "" 2
 463              		.thumb
 464              	.L48:
 465              	.LBE42:
 466              		.loc 1 196 0
 467 0042 F306     		lsls	r3, r6, #27
 468 0044 0CD5     		bpl	.L47
 469              	.LVL31:
 470              	.LBB43:
 471              	.LBB44:
 472              		.loc 1 198 0
 473 0046 636B     		ldr	r3, [r4, #52]
 474 0048 1021     		movs	r1, #16
 475 004a 1961     		str	r1, [r3, #16]
 476              	.LBB45:
 477              		.loc 1 199 0
 478 004c 2023     		movs	r3, #32
 479              	@ 199 "../../../os/hal/platforms/STM32/can_lld.c" 1
 480 004e 83F31188 		msr     BASEPRI, r3
 481              	@ 0 "" 2
 482              		.thumb
 483              	.LBE45:
 484              		.loc 1 200 0
 485 0052 04F12800 		add	r0, r4, #40
 486 0056 FFF7FEFF 		bl	chEvtBroadcastFlagsI
 487              	.LVL32:
 488              	.LBB46:
 489              		.loc 1 201 0
 490 005a 0023     		movs	r3, #0
 491              	@ 201 "../../../os/hal/platforms/STM32/can_lld.c" 1
 492 005c 83F31188 		msr     BASEPRI, r3
 493              	@ 0 "" 2
 494              	.LVL33:
 495              		.thumb
 496              	.L47:
 497 0060 70BD     		pop	{r4, r5, r6, pc}
 498              	.LBE46:
 499              	.LBE44:
 500              	.LBE43:
 501              		.cfi_endproc
 502              	.LFE121:
 503              		.size	can_lld_rx1_handler, .-can_lld_rx1_handler
 504 0062 00BFAFF3 		.section	.text.can_lld_sce_handler,"ax",%progbits
 504      0080AFF3 
 504      0080AFF3 
 504      0080
 505              		.align	2
 506              		.p2align 4,,15
ARM GAS  /tmp/ccS8l9A9.s 			page 10


 507              		.thumb
 508              		.thumb_func
 509              		.type	can_lld_sce_handler, %function
 510              	can_lld_sce_handler:
 511              	.LFB122:
 512              		.loc 1 212 0
 513              		.cfi_startproc
 514              		@ args = 0, pretend = 0, frame = 0
 515              		@ frame_needed = 0, uses_anonymous_args = 0
 516              	.LVL34:
 517              		.loc 1 215 0
 518 0000 426B     		ldr	r2, [r0, #52]
 519              		.loc 1 212 0
 520 0002 38B5     		push	{r3, r4, r5, lr}
 521              		.cfi_def_cfa_offset 16
 522              		.cfi_offset 3, -16
 523              		.cfi_offset 4, -12
 524              		.cfi_offset 5, -8
 525              		.cfi_offset 14, -4
 526              		.loc 1 215 0
 527 0004 5568     		ldr	r5, [r2, #4]
 528              	.LVL35:
 529              		.loc 1 216 0
 530 0006 1C23     		movs	r3, #28
 531              		.loc 1 219 0
 532 0008 2907     		lsls	r1, r5, #28
 533              		.loc 1 212 0
 534 000a 0446     		mov	r4, r0
 535              		.loc 1 216 0
 536 000c 5360     		str	r3, [r2, #4]
 537              		.loc 1 219 0
 538 000e 1BD4     		bmi	.L75
 539              	.LVL36:
 540              	.L62:
 541              		.loc 1 228 0
 542 0010 6B07     		lsls	r3, r5, #29
 543 0012 18D5     		bpl	.L61
 544              	.LVL37:
 545              	.LBB56:
 546              	.LBB57:
 547              	.LBB58:
 548              		.loc 1 230 0
 549 0014 636B     		ldr	r3, [r4, #52]
 550 0016 9A69     		ldr	r2, [r3, #24]
 551              	.LVL38:
 552              		.loc 1 232 0
 553 0018 9969     		ldr	r1, [r3, #24]
 554 001a 21F07001 		bic	r1, r1, #112
 555 001e 9961     		str	r1, [r3, #24]
 556              		.loc 1 234 0
 557 0020 12F0700F 		tst	r2, #112
 558              		.loc 1 233 0
 559 0024 02F00701 		and	r1, r2, #7
 560              	.LVL39:
 561              		.loc 1 235 0
 562 0028 18BF     		it	ne
 563 002a 41F00801 		orrne	r1, r1, #8
ARM GAS  /tmp/ccS8l9A9.s 			page 11


 564              	.LVL40:
 565              	.LBB59:
 566              		.loc 1 237 0
 567 002e 2023     		movs	r3, #32
 568              	@ 237 "../../../os/hal/platforms/STM32/can_lld.c" 1
 569 0030 83F31188 		msr     BASEPRI, r3
 570              	@ 0 "" 2
 571              		.thumb
 572              	.LBE59:
 573              		.loc 1 240 0
 574 0034 04F12800 		add	r0, r4, #40
 575 0038 41EA0241 		orr	r1, r1, r2, lsl #16
 576              	.LVL41:
 577 003c FFF7FEFF 		bl	chEvtBroadcastFlagsI
 578              	.LVL42:
 579              	.LBB60:
 580              		.loc 1 241 0
 581 0040 0023     		movs	r3, #0
 582              	@ 241 "../../../os/hal/platforms/STM32/can_lld.c" 1
 583 0042 83F31188 		msr     BASEPRI, r3
 584              	@ 0 "" 2
 585              	.LVL43:
 586              		.thumb
 587              	.L61:
 588 0046 38BD     		pop	{r3, r4, r5, pc}
 589              	.LVL44:
 590              	.L75:
 591              	.LBE60:
 592              	.LBE58:
 593              	.LBE57:
 594              	.LBE56:
 595              		.loc 1 221 0
 596 0048 1168     		ldr	r1, [r2]
 597              		.loc 1 220 0
 598 004a 0323     		movs	r3, #3
 599              		.loc 1 221 0
 600 004c 21F00201 		bic	r1, r1, #2
 601              		.loc 1 220 0
 602 0050 00F8303B 		strb	r3, [r0], #48
 603              	.LVL45:
 604              	.LBB61:
 605              		.loc 1 222 0
 606 0054 2023     		movs	r3, #32
 607              	.LBE61:
 608              		.loc 1 221 0
 609 0056 1160     		str	r1, [r2]
 610              	.LBB62:
 611              		.loc 1 222 0
 612              	@ 222 "../../../os/hal/platforms/STM32/can_lld.c" 1
 613 0058 83F31188 		msr     BASEPRI, r3
 614              	@ 0 "" 2
 615              		.thumb
 616              	.LBE62:
 617              		.loc 1 223 0
 618 005c 0021     		movs	r1, #0
 619 005e FFF7FEFF 		bl	chEvtBroadcastFlagsI
 620              	.LVL46:
ARM GAS  /tmp/ccS8l9A9.s 			page 12


 621              	.LBB63:
 622              		.loc 1 224 0
 623 0062 0023     		movs	r3, #0
 624              	@ 224 "../../../os/hal/platforms/STM32/can_lld.c" 1
 625 0064 83F31188 		msr     BASEPRI, r3
 626              	@ 0 "" 2
 627              		.thumb
 628 0068 D2E7     		b	.L62
 629              	.LBE63:
 630              		.cfi_endproc
 631              	.LFE122:
 632              		.size	can_lld_sce_handler, .-can_lld_sce_handler
 633 006a 00BFAFF3 		.section	.text.Vector8C,"ax",%progbits
 633      0080
 634              		.align	2
 635              		.p2align 4,,15
 636              		.global	Vector8C
 637              		.thumb
 638              		.thumb_func
 639              		.type	Vector8C, %function
 640              	Vector8C:
 641              	.LFB123:
 642              		.loc 1 255 0
 643              		.cfi_startproc
 644              		@ args = 0, pretend = 0, frame = 0
 645              		@ frame_needed = 0, uses_anonymous_args = 0
 646 0000 08B5     		push	{r3, lr}
 647              		.cfi_def_cfa_offset 8
 648              		.cfi_offset 3, -8
 649              		.cfi_offset 14, -4
 650              		.loc 1 259 0
 651 0002 0348     		ldr	r0, .L78
 652 0004 FFF7FEFF 		bl	can_lld_tx_handler
 653              	.LVL47:
 654              		.loc 1 262 0
 655 0008 BDE80840 		pop	{r3, lr}
 656              		.cfi_restore 14
 657              		.cfi_restore 3
 658              		.cfi_def_cfa_offset 0
 659              		.loc 1 261 0
 660 000c FFF7FEBF 		b	_port_irq_epilogue
 661              	.LVL48:
 662              	.L79:
 663              		.align	2
 664              	.L78:
 665 0010 00000000 		.word	.LANCHOR0
 666              		.cfi_endproc
 667              	.LFE123:
 668              		.size	Vector8C, .-Vector8C
 669 0014 AFF30080 		.section	.text.Vector90,"ax",%progbits
 669      AFF30080 
 669      AFF30080 
 670              		.align	2
 671              		.p2align 4,,15
 672              		.global	Vector90
 673              		.thumb
 674              		.thumb_func
ARM GAS  /tmp/ccS8l9A9.s 			page 13


 675              		.type	Vector90, %function
 676              	Vector90:
 677              	.LFB124:
 678              		.loc 1 269 0
 679              		.cfi_startproc
 680              		@ args = 0, pretend = 0, frame = 0
 681              		@ frame_needed = 0, uses_anonymous_args = 0
 682 0000 08B5     		push	{r3, lr}
 683              		.cfi_def_cfa_offset 8
 684              		.cfi_offset 3, -8
 685              		.cfi_offset 14, -4
 686              		.loc 1 273 0
 687 0002 0348     		ldr	r0, .L82
 688 0004 FFF7FEFF 		bl	can_lld_rx0_handler
 689              	.LVL49:
 690              		.loc 1 276 0
 691 0008 BDE80840 		pop	{r3, lr}
 692              		.cfi_restore 14
 693              		.cfi_restore 3
 694              		.cfi_def_cfa_offset 0
 695              		.loc 1 275 0
 696 000c FFF7FEBF 		b	_port_irq_epilogue
 697              	.LVL50:
 698              	.L83:
 699              		.align	2
 700              	.L82:
 701 0010 00000000 		.word	.LANCHOR0
 702              		.cfi_endproc
 703              	.LFE124:
 704              		.size	Vector90, .-Vector90
 705 0014 AFF30080 		.section	.text.Vector94,"ax",%progbits
 705      AFF30080 
 705      AFF30080 
 706              		.align	2
 707              		.p2align 4,,15
 708              		.global	Vector94
 709              		.thumb
 710              		.thumb_func
 711              		.type	Vector94, %function
 712              	Vector94:
 713              	.LFB125:
 714              		.loc 1 283 0
 715              		.cfi_startproc
 716              		@ args = 0, pretend = 0, frame = 0
 717              		@ frame_needed = 0, uses_anonymous_args = 0
 718 0000 08B5     		push	{r3, lr}
 719              		.cfi_def_cfa_offset 8
 720              		.cfi_offset 3, -8
 721              		.cfi_offset 14, -4
 722              		.loc 1 287 0
 723 0002 0348     		ldr	r0, .L86
 724 0004 FFF7FEFF 		bl	can_lld_rx1_handler
 725              	.LVL51:
 726              		.loc 1 290 0
 727 0008 BDE80840 		pop	{r3, lr}
 728              		.cfi_restore 14
 729              		.cfi_restore 3
ARM GAS  /tmp/ccS8l9A9.s 			page 14


 730              		.cfi_def_cfa_offset 0
 731              		.loc 1 289 0
 732 000c FFF7FEBF 		b	_port_irq_epilogue
 733              	.LVL52:
 734              	.L87:
 735              		.align	2
 736              	.L86:
 737 0010 00000000 		.word	.LANCHOR0
 738              		.cfi_endproc
 739              	.LFE125:
 740              		.size	Vector94, .-Vector94
 741 0014 AFF30080 		.section	.text.Vector98,"ax",%progbits
 741      AFF30080 
 741      AFF30080 
 742              		.align	2
 743              		.p2align 4,,15
 744              		.global	Vector98
 745              		.thumb
 746              		.thumb_func
 747              		.type	Vector98, %function
 748              	Vector98:
 749              	.LFB126:
 750              		.loc 1 297 0
 751              		.cfi_startproc
 752              		@ args = 0, pretend = 0, frame = 0
 753              		@ frame_needed = 0, uses_anonymous_args = 0
 754 0000 08B5     		push	{r3, lr}
 755              		.cfi_def_cfa_offset 8
 756              		.cfi_offset 3, -8
 757              		.cfi_offset 14, -4
 758              		.loc 1 301 0
 759 0002 0348     		ldr	r0, .L90
 760 0004 FFF7FEFF 		bl	can_lld_sce_handler
 761              	.LVL53:
 762              		.loc 1 304 0
 763 0008 BDE80840 		pop	{r3, lr}
 764              		.cfi_restore 14
 765              		.cfi_restore 3
 766              		.cfi_def_cfa_offset 0
 767              		.loc 1 303 0
 768 000c FFF7FEBF 		b	_port_irq_epilogue
 769              	.LVL54:
 770              	.L91:
 771              		.align	2
 772              	.L90:
 773 0010 00000000 		.word	.LANCHOR0
 774              		.cfi_endproc
 775              	.LFE126:
 776              		.size	Vector98, .-Vector98
 777 0014 AFF30080 		.section	.text.Vector13C,"ax",%progbits
 777      AFF30080 
 777      AFF30080 
 778              		.align	2
 779              		.p2align 4,,15
 780              		.global	Vector13C
 781              		.thumb
 782              		.thumb_func
ARM GAS  /tmp/ccS8l9A9.s 			page 15


 783              		.type	Vector13C, %function
 784              	Vector13C:
 785              	.LFB127:
 786              		.loc 1 313 0
 787              		.cfi_startproc
 788              		@ args = 0, pretend = 0, frame = 0
 789              		@ frame_needed = 0, uses_anonymous_args = 0
 790 0000 08B5     		push	{r3, lr}
 791              		.cfi_def_cfa_offset 8
 792              		.cfi_offset 3, -8
 793              		.cfi_offset 14, -4
 794              		.loc 1 317 0
 795 0002 0348     		ldr	r0, .L94
 796 0004 FFF7FEFF 		bl	can_lld_tx_handler
 797              	.LVL55:
 798              		.loc 1 320 0
 799 0008 BDE80840 		pop	{r3, lr}
 800              		.cfi_restore 14
 801              		.cfi_restore 3
 802              		.cfi_def_cfa_offset 0
 803              		.loc 1 319 0
 804 000c FFF7FEBF 		b	_port_irq_epilogue
 805              	.LVL56:
 806              	.L95:
 807              		.align	2
 808              	.L94:
 809 0010 00000000 		.word	.LANCHOR1
 810              		.cfi_endproc
 811              	.LFE127:
 812              		.size	Vector13C, .-Vector13C
 813 0014 AFF30080 		.section	.text.Vector140,"ax",%progbits
 813      AFF30080 
 813      AFF30080 
 814              		.align	2
 815              		.p2align 4,,15
 816              		.global	Vector140
 817              		.thumb
 818              		.thumb_func
 819              		.type	Vector140, %function
 820              	Vector140:
 821              	.LFB128:
 822              		.loc 1 327 0
 823              		.cfi_startproc
 824              		@ args = 0, pretend = 0, frame = 0
 825              		@ frame_needed = 0, uses_anonymous_args = 0
 826 0000 08B5     		push	{r3, lr}
 827              		.cfi_def_cfa_offset 8
 828              		.cfi_offset 3, -8
 829              		.cfi_offset 14, -4
 830              		.loc 1 331 0
 831 0002 0348     		ldr	r0, .L98
 832 0004 FFF7FEFF 		bl	can_lld_rx0_handler
 833              	.LVL57:
 834              		.loc 1 334 0
 835 0008 BDE80840 		pop	{r3, lr}
 836              		.cfi_restore 14
 837              		.cfi_restore 3
ARM GAS  /tmp/ccS8l9A9.s 			page 16


 838              		.cfi_def_cfa_offset 0
 839              		.loc 1 333 0
 840 000c FFF7FEBF 		b	_port_irq_epilogue
 841              	.LVL58:
 842              	.L99:
 843              		.align	2
 844              	.L98:
 845 0010 00000000 		.word	.LANCHOR1
 846              		.cfi_endproc
 847              	.LFE128:
 848              		.size	Vector140, .-Vector140
 849 0014 AFF30080 		.section	.text.Vector144,"ax",%progbits
 849      AFF30080 
 849      AFF30080 
 850              		.align	2
 851              		.p2align 4,,15
 852              		.global	Vector144
 853              		.thumb
 854              		.thumb_func
 855              		.type	Vector144, %function
 856              	Vector144:
 857              	.LFB129:
 858              		.loc 1 341 0
 859              		.cfi_startproc
 860              		@ args = 0, pretend = 0, frame = 0
 861              		@ frame_needed = 0, uses_anonymous_args = 0
 862 0000 08B5     		push	{r3, lr}
 863              		.cfi_def_cfa_offset 8
 864              		.cfi_offset 3, -8
 865              		.cfi_offset 14, -4
 866              		.loc 1 345 0
 867 0002 0348     		ldr	r0, .L102
 868 0004 FFF7FEFF 		bl	can_lld_rx1_handler
 869              	.LVL59:
 870              		.loc 1 348 0
 871 0008 BDE80840 		pop	{r3, lr}
 872              		.cfi_restore 14
 873              		.cfi_restore 3
 874              		.cfi_def_cfa_offset 0
 875              		.loc 1 347 0
 876 000c FFF7FEBF 		b	_port_irq_epilogue
 877              	.LVL60:
 878              	.L103:
 879              		.align	2
 880              	.L102:
 881 0010 00000000 		.word	.LANCHOR1
 882              		.cfi_endproc
 883              	.LFE129:
 884              		.size	Vector144, .-Vector144
 885 0014 AFF30080 		.section	.text.Vector148,"ax",%progbits
 885      AFF30080 
 885      AFF30080 
 886              		.align	2
 887              		.p2align 4,,15
 888              		.global	Vector148
 889              		.thumb
 890              		.thumb_func
ARM GAS  /tmp/ccS8l9A9.s 			page 17


 891              		.type	Vector148, %function
 892              	Vector148:
 893              	.LFB130:
 894              		.loc 1 355 0
 895              		.cfi_startproc
 896              		@ args = 0, pretend = 0, frame = 0
 897              		@ frame_needed = 0, uses_anonymous_args = 0
 898 0000 08B5     		push	{r3, lr}
 899              		.cfi_def_cfa_offset 8
 900              		.cfi_offset 3, -8
 901              		.cfi_offset 14, -4
 902              		.loc 1 359 0
 903 0002 0348     		ldr	r0, .L106
 904 0004 FFF7FEFF 		bl	can_lld_sce_handler
 905              	.LVL61:
 906              		.loc 1 362 0
 907 0008 BDE80840 		pop	{r3, lr}
 908              		.cfi_restore 14
 909              		.cfi_restore 3
 910              		.cfi_def_cfa_offset 0
 911              		.loc 1 361 0
 912 000c FFF7FEBF 		b	_port_irq_epilogue
 913              	.LVL62:
 914              	.L107:
 915              		.align	2
 916              	.L106:
 917 0010 00000000 		.word	.LANCHOR1
 918              		.cfi_endproc
 919              	.LFE130:
 920              		.size	Vector148, .-Vector148
 921 0014 AFF30080 		.section	.text.can_lld_init,"ax",%progbits
 921      AFF30080 
 921      AFF30080 
 922              		.align	2
 923              		.p2align 4,,15
 924              		.global	can_lld_init
 925              		.thumb
 926              		.thumb_func
 927              		.type	can_lld_init, %function
 928              	can_lld_init:
 929              	.LFB131:
 930              		.loc 1 374 0
 931              		.cfi_startproc
 932              		@ args = 0, pretend = 0, frame = 0
 933              		@ frame_needed = 0, uses_anonymous_args = 0
 934 0000 38B5     		push	{r3, r4, r5, lr}
 935              		.cfi_def_cfa_offset 16
 936              		.cfi_offset 3, -16
 937              		.cfi_offset 4, -12
 938              		.cfi_offset 5, -8
 939              		.cfi_offset 14, -4
 940              		.loc 1 378 0
 941 0002 094D     		ldr	r5, .L110
 942              		.loc 1 383 0
 943 0004 094C     		ldr	r4, .L110+4
 944              		.loc 1 378 0
 945 0006 2846     		mov	r0, r5
ARM GAS  /tmp/ccS8l9A9.s 			page 18


 946 0008 FFF7FEFF 		bl	canObjectInit
 947              	.LVL63:
 948              		.loc 1 379 0
 949 000c 084B     		ldr	r3, .L110+8
 950 000e 6B63     		str	r3, [r5, #52]
 951              		.loc 1 383 0
 952 0010 2046     		mov	r0, r4
 953 0012 FFF7FEFF 		bl	canObjectInit
 954              	.LVL64:
 955              		.loc 1 384 0
 956 0016 074B     		ldr	r3, .L110+12
 957 0018 6363     		str	r3, [r4, #52]
 958              		.loc 1 389 0
 959 001a 0021     		movs	r1, #0
 960 001c 0A46     		mov	r2, r1
 961 001e 0E20     		movs	r0, #14
 962              		.loc 1 393 0
 963 0020 BDE83840 		pop	{r3, r4, r5, lr}
 964              		.cfi_restore 14
 965              		.cfi_restore 5
 966              		.cfi_restore 4
 967              		.cfi_restore 3
 968              		.cfi_def_cfa_offset 0
 969              		.loc 1 389 0
 970 0024 FFF7FEBF 		b	can_lld_set_filters
 971              	.LVL65:
 972              	.L111:
 973              		.align	2
 974              	.L110:
 975 0028 00000000 		.word	.LANCHOR0
 976 002c 00000000 		.word	.LANCHOR1
 977 0030 00640040 		.word	1073767424
 978 0034 00680040 		.word	1073768448
 979              		.cfi_endproc
 980              	.LFE131:
 981              		.size	can_lld_init, .-can_lld_init
 982 0038 AFF30080 		.section	.text.can_lld_start,"ax",%progbits
 982      AFF30080 
 983              		.align	2
 984              		.p2align 4,,15
 985              		.global	can_lld_start
 986              		.thumb
 987              		.thumb_func
 988              		.type	can_lld_start, %function
 989              	can_lld_start:
 990              	.LFB132:
 991              		.loc 1 402 0
 992              		.cfi_startproc
 993              		@ args = 0, pretend = 0, frame = 0
 994              		@ frame_needed = 0, uses_anonymous_args = 0
 995              	.LVL66:
 996              		.loc 1 406 0
 997 0000 254B     		ldr	r3, .L122
 998 0002 9842     		cmp	r0, r3
 999              		.loc 1 402 0
 1000 0004 10B5     		push	{r4, lr}
 1001              		.cfi_def_cfa_offset 8
ARM GAS  /tmp/ccS8l9A9.s 			page 19


 1002              		.cfi_offset 4, -8
 1003              		.cfi_offset 14, -4
 1004              		.loc 1 402 0
 1005 0006 0446     		mov	r4, r0
 1006              		.loc 1 406 0
 1007 0008 1AD0     		beq	.L120
 1008              		.loc 1 419 0
 1009 000a 244B     		ldr	r3, .L122+4
 1010 000c 9842     		cmp	r0, r3
 1011 000e 2DD0     		beq	.L121
 1012              	.LVL67:
 1013              	.L114:
 1014              		.loc 1 438 0
 1015 0010 636B     		ldr	r3, [r4, #52]
 1016              		.loc 1 437 0
 1017 0012 0221     		movs	r1, #2
 1018              		.loc 1 438 0
 1019 0014 0122     		movs	r2, #1
 1020              		.loc 1 437 0
 1021 0016 2170     		strb	r1, [r4]
 1022              		.loc 1 438 0
 1023 0018 1A60     		str	r2, [r3]
 1024              		.loc 1 439 0
 1025 001a 5A68     		ldr	r2, [r3, #4]
 1026 001c D107     		lsls	r1, r2, #31
 1027 001e 07D4     		bmi	.L115
 1028              	.L116:
 1029              		.loc 1 440 0
 1030 0020 0620     		movs	r0, #6
 1031 0022 0121     		movs	r1, #1
 1032 0024 FFF7FEFF 		bl	chSchGoSleepTimeoutS
 1033              	.LVL68:
 1034              		.loc 1 439 0
 1035 0028 636B     		ldr	r3, [r4, #52]
 1036 002a 5A68     		ldr	r2, [r3, #4]
 1037 002c D207     		lsls	r2, r2, #31
 1038 002e F7D5     		bpl	.L116
 1039              	.L115:
 1040              		.loc 1 442 0
 1041 0030 6268     		ldr	r2, [r4, #4]
 1042              		.loc 1 447 0
 1043 0032 1B49     		ldr	r1, .L122+8
 1044              		.loc 1 442 0
 1045 0034 5068     		ldr	r0, [r2, #4]
 1046              		.loc 1 444 0
 1047 0036 1268     		ldr	r2, [r2]
 1048              		.loc 1 442 0
 1049 0038 D861     		str	r0, [r3, #28]
 1050              		.loc 1 444 0
 1051 003a 1A60     		str	r2, [r3]
 1052              		.loc 1 447 0
 1053 003c 5961     		str	r1, [r3, #20]
 1054 003e 10BD     		pop	{r4, pc}
 1055              	.LVL69:
 1056              	.L120:
 1057              		.loc 1 407 0
 1058 0040 1320     		movs	r0, #19
ARM GAS  /tmp/ccS8l9A9.s 			page 20


 1059              	.LVL70:
 1060 0042 B021     		movs	r1, #176
 1061 0044 FFF7FEFF 		bl	nvicEnableVector
 1062              	.LVL71:
 1063              		.loc 1 409 0
 1064 0048 1420     		movs	r0, #20
 1065 004a B021     		movs	r1, #176
 1066 004c FFF7FEFF 		bl	nvicEnableVector
 1067              	.LVL72:
 1068              		.loc 1 411 0
 1069 0050 1520     		movs	r0, #21
 1070 0052 B021     		movs	r1, #176
 1071 0054 FFF7FEFF 		bl	nvicEnableVector
 1072              	.LVL73:
 1073              		.loc 1 413 0
 1074 0058 1620     		movs	r0, #22
 1075 005a B021     		movs	r1, #176
 1076 005c FFF7FEFF 		bl	nvicEnableVector
 1077              	.LVL74:
 1078              		.loc 1 415 0
 1079 0060 104A     		ldr	r2, .L122+12
 1080 0062 136C     		ldr	r3, [r2, #64]
 1081 0064 43F00073 		orr	r3, r3, #33554432
 1082 0068 1364     		str	r3, [r2, #64]
 1083 006a D1E7     		b	.L114
 1084              	.LVL75:
 1085              	.L121:
 1086              		.loc 1 424 0
 1087 006c 3F20     		movs	r0, #63
 1088              	.LVL76:
 1089 006e B021     		movs	r1, #176
 1090 0070 FFF7FEFF 		bl	nvicEnableVector
 1091              	.LVL77:
 1092              		.loc 1 426 0
 1093 0074 4020     		movs	r0, #64
 1094 0076 B021     		movs	r1, #176
 1095 0078 FFF7FEFF 		bl	nvicEnableVector
 1096              	.LVL78:
 1097              		.loc 1 428 0
 1098 007c 4120     		movs	r0, #65
 1099 007e B021     		movs	r1, #176
 1100 0080 FFF7FEFF 		bl	nvicEnableVector
 1101              	.LVL79:
 1102              		.loc 1 430 0
 1103 0084 4220     		movs	r0, #66
 1104 0086 B021     		movs	r1, #176
 1105 0088 FFF7FEFF 		bl	nvicEnableVector
 1106              	.LVL80:
 1107              		.loc 1 432 0
 1108 008c 054A     		ldr	r2, .L122+12
 1109 008e 136C     		ldr	r3, [r2, #64]
 1110 0090 43F08063 		orr	r3, r3, #67108864
 1111 0094 1364     		str	r3, [r2, #64]
 1112 0096 BBE7     		b	.L114
 1113              	.L123:
 1114              		.align	2
 1115              	.L122:
ARM GAS  /tmp/ccS8l9A9.s 			page 21


 1116 0098 00000000 		.word	.LANCHOR0
 1117 009c 00000000 		.word	.LANCHOR1
 1118 00a0 5B8F0100 		.word	102235
 1119 00a4 00380240 		.word	1073887232
 1120              		.cfi_endproc
 1121              	.LFE132:
 1122              		.size	can_lld_start, .-can_lld_start
 1123 00a8 AFF30080 		.section	.text.can_lld_stop,"ax",%progbits
 1123      AFF30080 
 1124              		.align	2
 1125              		.p2align 4,,15
 1126              		.global	can_lld_stop
 1127              		.thumb
 1128              		.thumb_func
 1129              		.type	can_lld_stop, %function
 1130              	can_lld_stop:
 1131              	.LFB133:
 1132              		.loc 1 460 0
 1133              		.cfi_startproc
 1134              		@ args = 0, pretend = 0, frame = 0
 1135              		@ frame_needed = 0, uses_anonymous_args = 0
 1136              	.LVL81:
 1137 0000 08B5     		push	{r3, lr}
 1138              		.cfi_def_cfa_offset 8
 1139              		.cfi_offset 3, -8
 1140              		.cfi_offset 14, -4
 1141              		.loc 1 463 0
 1142 0002 0378     		ldrb	r3, [r0]	@ zero_extendqisi2
 1143 0004 032B     		cmp	r3, #3
 1144 0006 00D0     		beq	.L128
 1145              	.LVL82:
 1146              	.L124:
 1147 0008 08BD     		pop	{r3, pc}
 1148              	.LVL83:
 1149              	.L128:
 1150              		.loc 1 465 0
 1151 000a 1A4B     		ldr	r3, .L130
 1152 000c 9842     		cmp	r0, r3
 1153 000e 19D0     		beq	.L129
 1154              		.loc 1 482 0
 1155 0010 194B     		ldr	r3, .L130+4
 1156 0012 9842     		cmp	r0, r3
 1157 0014 F8D1     		bne	.L124
 1158              		.loc 1 483 0
 1159 0016 194B     		ldr	r3, .L130+8
 1160 0018 194A     		ldr	r2, .L130+12
 1161 001a 1A60     		str	r2, [r3]
 1162              		.loc 1 484 0
 1163 001c 0022     		movs	r2, #0
 1164 001e 5A61     		str	r2, [r3, #20]
 1165              		.loc 1 485 0
 1166 0020 3F20     		movs	r0, #63
 1167              	.LVL84:
 1168 0022 FFF7FEFF 		bl	nvicDisableVector
 1169              	.LVL85:
 1170              		.loc 1 486 0
 1171 0026 4020     		movs	r0, #64
ARM GAS  /tmp/ccS8l9A9.s 			page 22


 1172 0028 FFF7FEFF 		bl	nvicDisableVector
 1173              	.LVL86:
 1174              		.loc 1 487 0
 1175 002c 4120     		movs	r0, #65
 1176 002e FFF7FEFF 		bl	nvicDisableVector
 1177              	.LVL87:
 1178              		.loc 1 488 0
 1179 0032 4220     		movs	r0, #66
 1180 0034 FFF7FEFF 		bl	nvicDisableVector
 1181              	.LVL88:
 1182              		.loc 1 489 0
 1183 0038 124A     		ldr	r2, .L130+16
 1184 003a 136C     		ldr	r3, [r2, #64]
 1185 003c 23F08063 		bic	r3, r3, #67108864
 1186 0040 1364     		str	r3, [r2, #64]
 1187 0042 E1E7     		b	.L124
 1188              	.LVL89:
 1189              	.L129:
 1190              		.loc 1 472 0
 1191 0044 104B     		ldr	r3, .L130+20
 1192 0046 0E4A     		ldr	r2, .L130+12
 1193 0048 1A60     		str	r2, [r3]
 1194              		.loc 1 473 0
 1195 004a 0022     		movs	r2, #0
 1196 004c 5A61     		str	r2, [r3, #20]
 1197              		.loc 1 474 0
 1198 004e 1320     		movs	r0, #19
 1199              	.LVL90:
 1200 0050 FFF7FEFF 		bl	nvicDisableVector
 1201              	.LVL91:
 1202              		.loc 1 475 0
 1203 0054 1420     		movs	r0, #20
 1204 0056 FFF7FEFF 		bl	nvicDisableVector
 1205              	.LVL92:
 1206              		.loc 1 476 0
 1207 005a 1520     		movs	r0, #21
 1208 005c FFF7FEFF 		bl	nvicDisableVector
 1209              	.LVL93:
 1210              		.loc 1 477 0
 1211 0060 1620     		movs	r0, #22
 1212 0062 FFF7FEFF 		bl	nvicDisableVector
 1213              	.LVL94:
 1214              		.loc 1 478 0
 1215 0066 074A     		ldr	r2, .L130+16
 1216 0068 136C     		ldr	r3, [r2, #64]
 1217 006a 23F00073 		bic	r3, r3, #33554432
 1218 006e 1364     		str	r3, [r2, #64]
 1219 0070 08BD     		pop	{r3, pc}
 1220              	.L131:
 1221 0072 00BF     		.align	2
 1222              	.L130:
 1223 0074 00000000 		.word	.LANCHOR0
 1224 0078 00000000 		.word	.LANCHOR1
 1225 007c 00680040 		.word	1073768448
 1226 0080 02000100 		.word	65538
 1227 0084 00380240 		.word	1073887232
 1228 0088 00640040 		.word	1073767424
ARM GAS  /tmp/ccS8l9A9.s 			page 23


 1229              		.cfi_endproc
 1230              	.LFE133:
 1231              		.size	can_lld_stop, .-can_lld_stop
 1232 008c AFF30080 		.section	.text.can_lld_is_tx_empty,"ax",%progbits
 1233              		.align	2
 1234              		.p2align 4,,15
 1235              		.global	can_lld_is_tx_empty
 1236              		.thumb
 1237              		.thumb_func
 1238              		.type	can_lld_is_tx_empty, %function
 1239              	can_lld_is_tx_empty:
 1240              	.LFB134:
 1241              		.loc 1 507 0
 1242              		.cfi_startproc
 1243              		@ args = 0, pretend = 0, frame = 0
 1244              		@ frame_needed = 0, uses_anonymous_args = 0
 1245              		@ link register save eliminated.
 1246              	.LVL95:
 1247              		.loc 1 509 0
 1248 0000 0329     		cmp	r1, #3
 1249 0002 1AD8     		bhi	.L139
 1250 0004 DFE801F0 		tbb	[pc, r1]
 1251              	.L135:
 1252 0008 11       		.byte	(.L134-.L135)/2
 1253 0009 0C       		.byte	(.L136-.L135)/2
 1254 000a 07       		.byte	(.L137-.L135)/2
 1255 000b 02       		.byte	(.L138-.L135)/2
 1256              		.p2align 1
 1257              	.L138:
 1258              		.loc 1 517 0
 1259 000c 436B     		ldr	r3, [r0, #52]
 1260 000e 9868     		ldr	r0, [r3, #8]
 1261              	.LVL96:
 1262 0010 C0F30070 		ubfx	r0, r0, #28, #1
 1263 0014 7047     		bx	lr
 1264              	.LVL97:
 1265              	.L137:
 1266              		.loc 1 515 0
 1267 0016 436B     		ldr	r3, [r0, #52]
 1268 0018 9868     		ldr	r0, [r3, #8]
 1269              	.LVL98:
 1270 001a C0F3C060 		ubfx	r0, r0, #27, #1
 1271 001e 7047     		bx	lr
 1272              	.LVL99:
 1273              	.L136:
 1274              		.loc 1 513 0
 1275 0020 436B     		ldr	r3, [r0, #52]
 1276 0022 9868     		ldr	r0, [r3, #8]
 1277              	.LVL100:
 1278 0024 C0F38060 		ubfx	r0, r0, #26, #1
 1279 0028 7047     		bx	lr
 1280              	.LVL101:
 1281              	.L134:
 1282              		.loc 1 511 0
 1283 002a 436B     		ldr	r3, [r0, #52]
 1284 002c 9B68     		ldr	r3, [r3, #8]
 1285 002e 13F0E05F 		tst	r3, #469762048
ARM GAS  /tmp/ccS8l9A9.s 			page 24


 1286 0032 14BF     		ite	ne
 1287 0034 0120     		movne	r0, #1
 1288              	.LVL102:
 1289 0036 0020     		moveq	r0, #0
 1290 0038 7047     		bx	lr
 1291              	.LVL103:
 1292              	.L139:
 1293              		.loc 1 519 0
 1294 003a 0020     		movs	r0, #0
 1295              	.LVL104:
 1296              		.loc 1 521 0
 1297 003c 7047     		bx	lr
 1298              		.cfi_endproc
 1299              	.LFE134:
 1300              		.size	can_lld_is_tx_empty, .-can_lld_is_tx_empty
 1301 003e 00BF     		.section	.text.can_lld_transmit,"ax",%progbits
 1302              		.align	2
 1303              		.p2align 4,,15
 1304              		.global	can_lld_transmit
 1305              		.thumb
 1306              		.thumb_func
 1307              		.type	can_lld_transmit, %function
 1308              	can_lld_transmit:
 1309              	.LFB135:
 1310              		.loc 1 534 0
 1311              		.cfi_startproc
 1312              		@ args = 0, pretend = 0, frame = 0
 1313              		@ frame_needed = 0, uses_anonymous_args = 0
 1314              		@ link register save eliminated.
 1315              	.LVL105:
 1316 0000 10B4     		push	{r4}
 1317              		.cfi_def_cfa_offset 4
 1318              		.cfi_offset 4, -4
 1319              		.loc 1 539 0
 1320 0002 0329     		cmp	r1, #3
 1321 0004 1BD8     		bhi	.L140
 1322 0006 DFE801F0 		tbb	[pc, r1]
 1323              	.L143:
 1324 000a 2E       		.byte	(.L142-.L143)/2
 1325 000b 2A       		.byte	(.L144-.L143)/2
 1326 000c 1D       		.byte	(.L145-.L143)/2
 1327 000d 02       		.byte	(.L146-.L143)/2
 1328              		.p2align 1
 1329              	.L146:
 1330              		.loc 1 550 0
 1331 000e 406B     		ldr	r0, [r0, #52]
 1332              	.LVL106:
 1333 0010 00F5D070 		add	r0, r0, #416
 1334              	.LVL107:
 1335              	.L147:
 1336              		.loc 1 557 0
 1337 0014 1478     		ldrb	r4, [r2]	@ zero_extendqisi2
 1338 0016 A306     		lsls	r3, r4, #26
 1339 0018 1AD5     		bpl	.L148
 1340              	.L151:
 1341              		.loc 1 558 0
 1342 001a C4F30013 		ubfx	r3, r4, #4, #1
ARM GAS  /tmp/ccS8l9A9.s 			page 25


 1343 001e 5168     		ldr	r1, [r2, #4]
 1344              	.LVL108:
 1345 0020 5B00     		lsls	r3, r3, #1
 1346 0022 43EAC103 		orr	r3, r3, r1, lsl #3
 1347 0026 43F00403 		orr	r3, r3, #4
 1348              	.LVL109:
 1349              	.L149:
 1350              		.loc 1 562 0
 1351 002a 04F00F04 		and	r4, r4, #15
 1352 002e 4460     		str	r4, [r0, #4]
 1353              		.loc 1 563 0
 1354 0030 9168     		ldr	r1, [r2, #8]
 1355 0032 8160     		str	r1, [r0, #8]
 1356              		.loc 1 564 0
 1357 0034 D268     		ldr	r2, [r2, #12]
 1358              	.LVL110:
 1359 0036 C260     		str	r2, [r0, #12]
 1360              		.loc 1 565 0
 1361 0038 43F00103 		orr	r3, r3, #1
 1362              	.LVL111:
 1363 003c 0360     		str	r3, [r0]
 1364              	.LVL112:
 1365              	.L140:
 1366              		.loc 1 566 0
 1367 003e 5DF8044B 		ldr	r4, [sp], #4
 1368              		.cfi_remember_state
 1369              		.cfi_restore 4
 1370              		.cfi_def_cfa_offset 0
 1371 0042 7047     		bx	lr
 1372              	.LVL113:
 1373              	.L145:
 1374              		.cfi_restore_state
 1375              		.loc 1 557 0
 1376 0044 1478     		ldrb	r4, [r2]	@ zero_extendqisi2
 1377              		.loc 1 547 0
 1378 0046 406B     		ldr	r0, [r0, #52]
 1379              	.LVL114:
 1380              		.loc 1 557 0
 1381 0048 A306     		lsls	r3, r4, #26
 1382              		.loc 1 547 0
 1383 004a 00F5C870 		add	r0, r0, #400
 1384              	.LVL115:
 1385              		.loc 1 557 0
 1386 004e E4D4     		bmi	.L151
 1387              	.L148:
 1388              		.loc 1 561 0
 1389 0050 9188     		ldrh	r1, [r2, #4]
 1390              	.LVL116:
 1391 0052 C4F30013 		ubfx	r3, r4, #4, #1
 1392 0056 4905     		lsls	r1, r1, #21
 1393 0058 41EA4303 		orr	r3, r1, r3, lsl #1
 1394              	.LVL117:
 1395 005c E5E7     		b	.L149
 1396              	.LVL118:
 1397              	.L144:
 1398              		.loc 1 544 0
 1399 005e 406B     		ldr	r0, [r0, #52]
ARM GAS  /tmp/ccS8l9A9.s 			page 26


 1400              	.LVL119:
 1401 0060 00F5C070 		add	r0, r0, #384
 1402              	.LVL120:
 1403              		.loc 1 545 0
 1404 0064 D6E7     		b	.L147
 1405              	.LVL121:
 1406              	.L142:
 1407              		.loc 1 541 0
 1408 0066 406B     		ldr	r0, [r0, #52]
 1409              	.LVL122:
 1410 0068 8368     		ldr	r3, [r0, #8]
 1411 006a C3F30163 		ubfx	r3, r3, #24, #2
 1412 006e 1833     		adds	r3, r3, #24
 1413 0070 00EB0310 		add	r0, r0, r3, lsl #4
 1414              	.LVL123:
 1415              		.loc 1 542 0
 1416 0074 CEE7     		b	.L147
 1417              		.cfi_endproc
 1418              	.LFE135:
 1419              		.size	can_lld_transmit, .-can_lld_transmit
 1420 0076 00BFAFF3 		.section	.text.can_lld_is_rx_nonempty,"ax",%progbits
 1420      0080AFF3 
 1420      0080
 1421              		.align	2
 1422              		.p2align 4,,15
 1423              		.global	can_lld_is_rx_nonempty
 1424              		.thumb
 1425              		.thumb_func
 1426              		.type	can_lld_is_rx_nonempty, %function
 1427              	can_lld_is_rx_nonempty:
 1428              	.LFB136:
 1429              		.loc 1 580 0
 1430              		.cfi_startproc
 1431              		@ args = 0, pretend = 0, frame = 0
 1432              		@ frame_needed = 0, uses_anonymous_args = 0
 1433              		@ link register save eliminated.
 1434              	.LVL124:
 1435              		.loc 1 582 0
 1436 0000 0129     		cmp	r1, #1
 1437 0002 11D0     		beq	.L154
 1438 0004 0AD3     		bcc	.L155
 1439 0006 0229     		cmp	r1, #2
 1440 0008 06D1     		bne	.L163
 1441              		.loc 1 589 0
 1442 000a 436B     		ldr	r3, [r0, #52]
 1443              	.L161:
 1444 000c 1869     		ldr	r0, [r3, #16]
 1445              	.LVL125:
 1446 000e 10F00300 		ands	r0, r0, #3
 1447 0012 18BF     		it	ne
 1448 0014 0120     		movne	r0, #1
 1449 0016 7047     		bx	lr
 1450              	.LVL126:
 1451              	.L163:
 1452              		.loc 1 591 0
 1453 0018 0020     		movs	r0, #0
 1454              	.LVL127:
ARM GAS  /tmp/ccS8l9A9.s 			page 27


 1455              		.loc 1 593 0
 1456 001a 7047     		bx	lr
 1457              	.LVL128:
 1458              	.L155:
 1459              		.loc 1 584 0
 1460 001c 436B     		ldr	r3, [r0, #52]
 1461 001e DA68     		ldr	r2, [r3, #12]
 1462 0020 9207     		lsls	r2, r2, #30
 1463 0022 F3D0     		beq	.L161
 1464 0024 0120     		movs	r0, #1
 1465              	.LVL129:
 1466 0026 7047     		bx	lr
 1467              	.LVL130:
 1468              	.L154:
 1469              		.loc 1 587 0
 1470 0028 436B     		ldr	r3, [r0, #52]
 1471 002a D868     		ldr	r0, [r3, #12]
 1472              	.LVL131:
 1473 002c 10F00300 		ands	r0, r0, #3
 1474 0030 18BF     		it	ne
 1475 0032 0120     		movne	r0, #1
 1476 0034 7047     		bx	lr
 1477              		.cfi_endproc
 1478              	.LFE136:
 1479              		.size	can_lld_is_rx_nonempty, .-can_lld_is_rx_nonempty
 1480 0036 00BFAFF3 		.section	.text.can_lld_receive,"ax",%progbits
 1480      0080AFF3 
 1480      0080
 1481              		.align	2
 1482              		.p2align 4,,15
 1483              		.global	can_lld_receive
 1484              		.thumb
 1485              		.thumb_func
 1486              		.type	can_lld_receive, %function
 1487              	can_lld_receive:
 1488              	.LFB137:
 1489              		.loc 1 606 0
 1490              		.cfi_startproc
 1491              		@ args = 0, pretend = 0, frame = 0
 1492              		@ frame_needed = 0, uses_anonymous_args = 0
 1493              		@ link register save eliminated.
 1494              	.LVL132:
 1495 0000 10B4     		push	{r4}
 1496              		.cfi_def_cfa_offset 4
 1497              		.cfi_offset 4, -4
 1498              		.loc 1 609 0
 1499 0002 0029     		cmp	r1, #0
 1500 0004 30D1     		bne	.L165
 1501              		.loc 1 610 0
 1502 0006 436B     		ldr	r3, [r0, #52]
 1503 0008 D968     		ldr	r1, [r3, #12]
 1504              	.LVL133:
 1505 000a 8907     		lsls	r1, r1, #30
 1506 000c 33D0     		beq	.L175
 1507              	.L166:
 1508              	.LVL134:
 1509              		.loc 1 622 0
ARM GAS  /tmp/ccS8l9A9.s 			page 28


 1510 000e D3F8B041 		ldr	r4, [r3, #432]
 1511              	.LVL135:
 1512              		.loc 1 623 0
 1513 0012 D3F8B411 		ldr	r1, [r3, #436]
 1514              	.LVL136:
 1515              		.loc 1 624 0
 1516 0016 D3F8B831 		ldr	r3, [r3, #440]
 1517 001a D360     		str	r3, [r2, #12]
 1518              		.loc 1 625 0
 1519 001c 436B     		ldr	r3, [r0, #52]
 1520 001e D3F8BC31 		ldr	r3, [r3, #444]
 1521 0022 1361     		str	r3, [r2, #16]
 1522              		.loc 1 628 0
 1523 0024 436B     		ldr	r3, [r0, #52]
 1524 0026 2020     		movs	r0, #32
 1525              	.LVL137:
 1526 0028 D860     		str	r0, [r3, #12]
 1527              		.loc 1 632 0
 1528 002a D868     		ldr	r0, [r3, #12]
 1529 002c 8007     		lsls	r0, r0, #30
 1530 002e 41D0     		beq	.L176
 1531              	.L171:
 1532              		.loc 1 656 0
 1533 0030 1379     		ldrb	r3, [r2, #4]	@ zero_extendqisi2
 1534 0032 C4F34000 		ubfx	r0, r4, #1, #1
 1535 0036 60F30413 		bfi	r3, r0, #4, #1
 1536              		.loc 1 657 0
 1537 003a C4F38000 		ubfx	r0, r4, #2, #1
 1538 003e 60F34513 		bfi	r3, r0, #5, #1
 1539 0042 1371     		strb	r3, [r2, #4]
 1540              		.loc 1 658 0
 1541 0044 9B06     		lsls	r3, r3, #26
 1542 0046 2FD5     		bpl	.L172
 1543              		.loc 1 659 0
 1544 0048 9368     		ldr	r3, [r2, #8]
 1545 004a E408     		lsrs	r4, r4, #3
 1546              	.LVL138:
 1547 004c 64F31C03 		bfi	r3, r4, #0, #29
 1548 0050 9360     		str	r3, [r2, #8]
 1549              	.L173:
 1550              		.loc 1 662 0
 1551 0052 1379     		ldrb	r3, [r2, #4]	@ zero_extendqisi2
 1552              		.loc 1 665 0
 1553 0054 5DF8044B 		ldr	r4, [sp], #4
 1554              		.cfi_remember_state
 1555              		.cfi_restore 4
 1556              		.cfi_def_cfa_offset 0
 1557              		.loc 1 663 0
 1558 0058 080A     		lsrs	r0, r1, #8
 1559              		.loc 1 662 0
 1560 005a 61F30303 		bfi	r3, r1, #0, #4
 1561              		.loc 1 664 0
 1562 005e 090C     		lsrs	r1, r1, #16
 1563              	.LVL139:
 1564              		.loc 1 662 0
 1565 0060 1371     		strb	r3, [r2, #4]
 1566              		.loc 1 663 0
ARM GAS  /tmp/ccS8l9A9.s 			page 29


 1567 0062 1070     		strb	r0, [r2]
 1568              		.loc 1 664 0
 1569 0064 5180     		strh	r1, [r2, #2]	@ movhi
 1570              		.loc 1 665 0
 1571 0066 7047     		bx	lr
 1572              	.LVL140:
 1573              	.L165:
 1574              		.cfi_restore_state
 1575              		.loc 1 619 0
 1576 0068 0129     		cmp	r1, #1
 1577 006a 28D0     		beq	.L169
 1578 006c 0229     		cmp	r1, #2
 1579 006e 28D0     		beq	.L177
 1580              	.LVL141:
 1581              	.L164:
 1582              		.loc 1 665 0
 1583 0070 5DF8044B 		ldr	r4, [sp], #4
 1584              		.cfi_remember_state
 1585              		.cfi_restore 4
 1586              		.cfi_def_cfa_offset 0
 1587 0074 7047     		bx	lr
 1588              	.L175:
 1589              		.cfi_restore_state
 1590              		.loc 1 612 0
 1591 0076 1969     		ldr	r1, [r3, #16]
 1592 0078 8C07     		lsls	r4, r1, #30
 1593 007a F9D0     		beq	.L164
 1594              	.L167:
 1595              	.LVL142:
 1596              		.loc 1 637 0
 1597 007c D3F8C041 		ldr	r4, [r3, #448]
 1598              	.LVL143:
 1599              		.loc 1 638 0
 1600 0080 D3F8C411 		ldr	r1, [r3, #452]
 1601              	.LVL144:
 1602              		.loc 1 639 0
 1603 0084 D3F8C831 		ldr	r3, [r3, #456]
 1604 0088 D360     		str	r3, [r2, #12]
 1605              		.loc 1 640 0
 1606 008a 436B     		ldr	r3, [r0, #52]
 1607 008c D3F8CC31 		ldr	r3, [r3, #460]
 1608 0090 1361     		str	r3, [r2, #16]
 1609              		.loc 1 643 0
 1610 0092 436B     		ldr	r3, [r0, #52]
 1611 0094 2020     		movs	r0, #32
 1612              	.LVL145:
 1613 0096 1861     		str	r0, [r3, #16]
 1614              		.loc 1 647 0
 1615 0098 1869     		ldr	r0, [r3, #16]
 1616 009a 8007     		lsls	r0, r0, #30
 1617 009c C8D1     		bne	.L171
 1618              		.loc 1 648 0
 1619 009e 5869     		ldr	r0, [r3, #20]
 1620 00a0 40F01000 		orr	r0, r0, #16
 1621 00a4 5861     		str	r0, [r3, #20]
 1622 00a6 C3E7     		b	.L171
 1623              	.L172:
ARM GAS  /tmp/ccS8l9A9.s 			page 30


 1624              		.loc 1 661 0
 1625 00a8 1389     		ldrh	r3, [r2, #8]
 1626 00aa 640D     		lsrs	r4, r4, #21
 1627              	.LVL146:
 1628 00ac 64F30A03 		bfi	r3, r4, #0, #11
 1629 00b0 1381     		strh	r3, [r2, #8]	@ movhi
 1630 00b2 CEE7     		b	.L173
 1631              	.LVL147:
 1632              	.L176:
 1633              		.loc 1 633 0
 1634 00b4 5869     		ldr	r0, [r3, #20]
 1635 00b6 40F00200 		orr	r0, r0, #2
 1636 00ba 5861     		str	r0, [r3, #20]
 1637 00bc B8E7     		b	.L171
 1638              	.LVL148:
 1639              	.L169:
 1640 00be 436B     		ldr	r3, [r0, #52]
 1641 00c0 A5E7     		b	.L166
 1642              	.L177:
 1643 00c2 436B     		ldr	r3, [r0, #52]
 1644 00c4 DAE7     		b	.L167
 1645              		.cfi_endproc
 1646              	.LFE137:
 1647              		.size	can_lld_receive, .-can_lld_receive
 1648              		.section	.text.can_lld_sleep,"ax",%progbits
 1649              		.align	2
 1650              		.p2align 4,,15
 1651              		.global	can_lld_sleep
 1652              		.thumb
 1653              		.thumb_func
 1654              		.type	can_lld_sleep, %function
 1655              	can_lld_sleep:
 1656              	.LFB138:
 1657              		.loc 1 675 0
 1658              		.cfi_startproc
 1659              		@ args = 0, pretend = 0, frame = 0
 1660              		@ frame_needed = 0, uses_anonymous_args = 0
 1661              		@ link register save eliminated.
 1662              	.LVL149:
 1663              		.loc 1 677 0
 1664 0000 426B     		ldr	r2, [r0, #52]
 1665 0002 1368     		ldr	r3, [r2]
 1666 0004 43F00203 		orr	r3, r3, #2
 1667 0008 1360     		str	r3, [r2]
 1668 000a 7047     		bx	lr
 1669              		.cfi_endproc
 1670              	.LFE138:
 1671              		.size	can_lld_sleep, .-can_lld_sleep
 1672 000c AFF30080 		.section	.text.can_lld_wakeup,"ax",%progbits
 1673              		.align	2
 1674              		.p2align 4,,15
 1675              		.global	can_lld_wakeup
 1676              		.thumb
 1677              		.thumb_func
 1678              		.type	can_lld_wakeup, %function
 1679              	can_lld_wakeup:
 1680              	.LFB139:
ARM GAS  /tmp/ccS8l9A9.s 			page 31


 1681              		.loc 1 687 0
 1682              		.cfi_startproc
 1683              		@ args = 0, pretend = 0, frame = 0
 1684              		@ frame_needed = 0, uses_anonymous_args = 0
 1685              		@ link register save eliminated.
 1686              	.LVL150:
 1687              		.loc 1 689 0
 1688 0000 426B     		ldr	r2, [r0, #52]
 1689 0002 1368     		ldr	r3, [r2]
 1690 0004 23F00203 		bic	r3, r3, #2
 1691 0008 1360     		str	r3, [r2]
 1692 000a 7047     		bx	lr
 1693              		.cfi_endproc
 1694              	.LFE139:
 1695              		.size	can_lld_wakeup, .-can_lld_wakeup
 1696 000c AFF30080 		.section	.text.canSTM32SetFilters,"ax",%progbits
 1697              		.align	2
 1698              		.p2align 4,,15
 1699              		.global	canSTM32SetFilters
 1700              		.thumb
 1701              		.thumb_func
 1702              		.type	canSTM32SetFilters, %function
 1703              	canSTM32SetFilters:
 1704              	.LFB140:
 1705              		.loc 1 705 0
 1706              		.cfi_startproc
 1707              		@ args = 0, pretend = 0, frame = 0
 1708              		@ frame_needed = 0, uses_anonymous_args = 0
 1709              		@ link register save eliminated.
 1710              	.LVL151:
 1711              		.loc 1 720 0
 1712 0000 FFF7FEBF 		b	can_lld_set_filters
 1713              	.LVL152:
 1714              		.cfi_endproc
 1715              	.LFE140:
 1716              		.size	canSTM32SetFilters, .-canSTM32SetFilters
 1717              		.global	CAND2
 1718              		.global	CAND1
 1719 0004 AFF30080 		.section	.bss.CAND1,"aw",%nobits
 1719      AFF30080 
 1719      AFF30080 
 1720              		.align	2
 1721              		.set	.LANCHOR0,. + 0
 1722              		.type	CAND1, %object
 1723              		.size	CAND1, 56
 1724              	CAND1:
 1725 0000 00000000 		.space	56
 1725      00000000 
 1725      00000000 
 1725      00000000 
 1725      00000000 
 1726              		.section	.bss.CAND2,"aw",%nobits
 1727              		.align	2
 1728              		.set	.LANCHOR1,. + 0
 1729              		.type	CAND2, %object
 1730              		.size	CAND2, 56
 1731              	CAND2:
ARM GAS  /tmp/ccS8l9A9.s 			page 32


 1732 0000 00000000 		.space	56
 1732      00000000 
 1732      00000000 
 1732      00000000 
 1732      00000000 
 1733              		.text
 1734              	.Letext0:
 1735              		.file 2 "/usr/arm-none-eabi/include/machine/_default_types.h"
 1736              		.file 3 "/usr/arm-none-eabi/include/stdint.h"
 1737              		.file 4 "../../../os/ports/GCC/ARMCMx/chtypes.h"
 1738              		.file 5 "../../../os/kernel/include/chlists.h"
 1739              		.file 6 "../../../os/kernel/include/chthreads.h"
 1740              		.file 7 "../../../os/ports/GCC/ARMCMx/chcore_v7m.h"
 1741              		.file 8 "../../../os/kernel/include/chsem.h"
 1742              		.file 9 "../../../os/kernel/include/chmtx.h"
 1743              		.file 10 "../../../os/kernel/include/chevents.h"
 1744              		.file 11 "../../../os/hal/platforms/STM32F4xx/stm32f4xx.h"
 1745              		.file 12 "../../../os/hal/include/can.h"
 1746              		.file 13 "../../../os/hal/platforms/STM32/can_lld.h"
 1747              		.file 14 "../../../os/ports/common/ARMCMx/CMSIS/include/core_cm4.h"
 1748              		.file 15 "../../../os/ports/common/ARMCMx/nvic.h"
 1749              		.file 16 "../../../os/kernel/include/chschd.h"