ARM GAS  /tmp/ccPhvQ2x.s 			page 1


   1              		.syntax unified
   2              		.cpu cortex-m4
   3              		.fpu softvfp
   4              		.eabi_attribute 20, 1
   5              		.eabi_attribute 21, 1
   6              		.eabi_attribute 23, 3
   7              		.eabi_attribute 24, 1
   8              		.eabi_attribute 25, 1
   9              		.eabi_attribute 26, 1
  10              		.eabi_attribute 30, 2
  11              		.eabi_attribute 34, 1
  12              		.eabi_attribute 18, 4
  13              		.thumb
  14              		.file	"chcore_v7m.c"
  15              		.text
  16              	.Ltext0:
  17              		.cfi_sections	.debug_frame
  18              		.section	.text._port_switch_from_isr,"ax",%progbits
  19              		.align	2
  20              		.p2align 4,,15
  21              		.global	_port_switch_from_isr
  22              		.thumb
  23              		.thumb_func
  24              		.type	_port_switch_from_isr, %function
  25              	_port_switch_from_isr:
  26              	.LFB11:
  27              		.file 1 "../../../os/ports/GCC/ARMCMx/chcore_v7m.c"
  28              		.loc 1 200 0
  29              		.cfi_startproc
  30              		@ Naked Function: prologue and epilogue provided by programmer.
  31              		@ args = 0, pretend = 0, frame = 0
  32              		@ frame_needed = 0, uses_anonymous_args = 0
  33              		.loc 1 203 0
  34 0000 FFF7FEFF 		bl	chSchDoReschedule
  35              	.LVL0:
  36              		.loc 1 205 0
  37              	@ 205 "../../../os/ports/GCC/ARMCMx/chcore_v7m.c" 1
  38              		_port_exit_from_isr:
  39              	@ 0 "" 2
  40              		.loc 1 207 0
  41              	@ 207 "../../../os/ports/GCC/ARMCMx/chcore_v7m.c" 1
  42 0004 00DF     		svc     #0
  43              	@ 0 "" 2
  44              		.loc 1 214 0
  45              		.thumb
  46              		.cfi_endproc
  47              	.LFE11:
  48              		.size	_port_switch_from_isr, .-_port_switch_from_isr
  49 0006 00BFAFF3 		.section	.text.SVCallVector,"ax",%progbits
  49      0080AFF3 
  49      0080
  50              		.align	2
  51              		.p2align 4,,15
  52              		.global	SVCallVector
  53              		.thumb
  54              		.thumb_func
  55              		.type	SVCallVector, %function
ARM GAS  /tmp/ccPhvQ2x.s 			page 2


  56              	SVCallVector:
  57              	.LFB8:
  58              		.loc 1 65 0
  59              		.cfi_startproc
  60              		@ args = 0, pretend = 0, frame = 0
  61              		@ frame_needed = 0, uses_anonymous_args = 0
  62              		@ link register save eliminated.
  63              		.loc 1 74 0
  64              	@ 74 "../../../os/ports/GCC/ARMCMx/chcore_v7m.c" 1
  65 0000 EFF30983 		mrs     r3, PSP
  66              	@ 0 "" 2
  67              	.LVL1:
  68              		.loc 1 78 0
  69              		.thumb
  70 0004 2033     		adds	r3, r3, #32
  71              	.LVL2:
  72              		.loc 1 81 0
  73              	@ 81 "../../../os/ports/GCC/ARMCMx/chcore_v7m.c" 1
  74 0006 83F30988 		msr     PSP, r3
  75              	@ 0 "" 2
  76              		.thumb
  77              	.LBB5:
  78              		.loc 1 82 0
  79 000a 0023     		movs	r3, #0
  80              	.LVL3:
  81              	@ 82 "../../../os/ports/GCC/ARMCMx/chcore_v7m.c" 1
  82 000c 83F31188 		msr     BASEPRI, r3
  83              	@ 0 "" 2
  84              		.thumb
  85 0010 7047     		bx	lr
  86              	.LBE5:
  87              		.cfi_endproc
  88              	.LFE8:
  89              		.size	SVCallVector, .-SVCallVector
  90 0012 00BFAFF3 		.section	.text._port_init,"ax",%progbits
  90      0080AFF3 
  90      0080AFF3 
  90      0080
  91              		.align	2
  92              		.p2align 4,,15
  93              		.global	_port_init
  94              		.thumb
  95              		.thumb_func
  96              		.type	_port_init, %function
  97              	_port_init:
  98              	.LFB9:
  99              		.loc 1 120 0
 100              		.cfi_startproc
 101              		@ args = 0, pretend = 0, frame = 0
 102              		@ frame_needed = 0, uses_anonymous_args = 0
 103 0000 08B5     		push	{r3, lr}
 104              		.cfi_def_cfa_offset 8
 105              		.cfi_offset 3, -8
 106              		.cfi_offset 14, -4
 107              		.loc 1 123 0
 108 0002 094B     		ldr	r3, .L5
 109              		.loc 1 124 0
ARM GAS  /tmp/ccPhvQ2x.s 			page 3


 110 0004 094A     		ldr	r2, .L5+4
 111              		.loc 1 123 0
 112 0006 0021     		movs	r1, #0
 113 0008 9960     		str	r1, [r3, #8]
 114              		.loc 1 127 0
 115 000a 0720     		movs	r0, #7
 116              		.loc 1 124 0
 117 000c DA60     		str	r2, [r3, #12]
 118              		.loc 1 127 0
 119 000e 1021     		movs	r1, #16
 120 0010 FFF7FEFF 		bl	nvicSetSystemHandlerPriority
 121              	.LVL4:
 122              		.loc 1 129 0
 123 0014 0A20     		movs	r0, #10
 124 0016 2021     		movs	r1, #32
 125 0018 FFF7FEFF 		bl	nvicSetSystemHandlerPriority
 126              	.LVL5:
 127              		.loc 1 131 0
 128 001c 0B20     		movs	r0, #11
 129 001e 8021     		movs	r1, #128
 130              		.loc 1 133 0
 131 0020 BDE80840 		pop	{r3, lr}
 132              		.cfi_restore 14
 133              		.cfi_restore 3
 134              		.cfi_def_cfa_offset 0
 135              		.loc 1 131 0
 136 0024 FFF7FEBF 		b	nvicSetSystemHandlerPriority
 137              	.LVL6:
 138              	.L6:
 139              		.align	2
 140              	.L5:
 141 0028 00ED00E0 		.word	-536810240
 142 002c 0003FA05 		.word	100270848
 143              		.cfi_endproc
 144              	.LFE9:
 145              		.size	_port_init, .-_port_init
 146              		.section	.text._port_irq_epilogue,"ax",%progbits
 147              		.align	2
 148              		.p2align 4,,15
 149              		.global	_port_irq_epilogue
 150              		.thumb
 151              		.thumb_func
 152              		.type	_port_irq_epilogue, %function
 153              	_port_irq_epilogue:
 154              	.LFB10:
 155              		.loc 1 150 0
 156              		.cfi_startproc
 157              		@ args = 0, pretend = 0, frame = 0
 158              		@ frame_needed = 0, uses_anonymous_args = 0
 159              		@ link register save eliminated.
 160              	.LBB14:
 161              		.loc 1 152 0
 162 0000 2023     		movs	r3, #32
 163              	@ 152 "../../../os/ports/GCC/ARMCMx/chcore_v7m.c" 1
 164 0002 83F31188 		msr     BASEPRI, r3
 165              	@ 0 "" 2
 166              		.thumb
ARM GAS  /tmp/ccPhvQ2x.s 			page 4


 167              	.LBE14:
 168              		.loc 1 153 0
 169 0006 174B     		ldr	r3, .L15
 170 0008 5B68     		ldr	r3, [r3, #4]
 171 000a 13F40063 		ands	r3, r3, #2048
 172 000e 19D0     		beq	.L8
 173              	.LBB15:
 174              	.LBB16:
 175              		.loc 1 163 0
 176              	@ 163 "../../../os/ports/GCC/ARMCMx/chcore_v7m.c" 1
 177 0010 EFF30983 		mrs     r3, PSP
 178              	@ 0 "" 2
 179              	.LVL7:
 180              		.loc 1 168 0
 181              		.thumb
 182 0014 4FF08072 		mov	r2, #16777216
 183 0018 43F8042C 		str	r2, [r3, #-4]
 184              		.loc 1 167 0
 185 001c A3F12002 		sub	r2, r3, #32
 186              	.LVL8:
 187              		.loc 1 172 0
 188              	@ 172 "../../../os/ports/GCC/ARMCMx/chcore_v7m.c" 1
 189 0020 82F30988 		msr     PSP, r2
 190              	@ 0 "" 2
 191              		.loc 1 176 0
 192              		.thumb
 193 0024 1049     		ldr	r1, .L15+4
 194 0026 8A69     		ldr	r2, [r1, #24]
 195              	.LVL9:
 196 0028 D07F     		ldrb	r0, [r2, #31]	@ zero_extendqisi2
 197 002a 70B1     		cbz	r0, .L9
 198 002c 0868     		ldr	r0, [r1]
 199 002e 9168     		ldr	r1, [r2, #8]
 200 0030 8268     		ldr	r2, [r0, #8]
 201 0032 8A42     		cmp	r2, r1
 202 0034 94BF     		ite	ls
 203 0036 0022     		movls	r2, #0
 204 0038 0122     		movhi	r2, #1
 205 003a 7AB1     		cbz	r2, .L11
 206              	.L14:
 207              		.loc 1 178 0
 208 003c 0B4A     		ldr	r2, .L15+8
 209 003e 43F8082C 		str	r2, [r3, #-8]
 210 0042 7047     		bx	lr
 211              	.LVL10:
 212              	.L8:
 213              	.LBE16:
 214              	.LBE15:
 215              	.LBB18:
 216              		.loc 1 190 0
 217              	@ 190 "../../../os/ports/GCC/ARMCMx/chcore_v7m.c" 1
 218 0044 83F31188 		msr     BASEPRI, r3
 219              	@ 0 "" 2
 220              		.thumb
 221 0048 7047     		bx	lr
 222              	.LVL11:
 223              	.L9:
ARM GAS  /tmp/ccPhvQ2x.s 			page 5


 224              	.LBE18:
 225              	.LBB19:
 226              	.LBB17:
 227              		.loc 1 176 0
 228 004a 0868     		ldr	r0, [r1]
 229 004c 9168     		ldr	r1, [r2, #8]
 230 004e 8268     		ldr	r2, [r0, #8]
 231 0050 8A42     		cmp	r2, r1
 232 0052 34BF     		ite	cc
 233 0054 0022     		movcc	r2, #0
 234 0056 0122     		movcs	r2, #1
 235 0058 002A     		cmp	r2, #0
 236 005a EFD1     		bne	.L14
 237              	.L11:
 238              		.loc 1 183 0
 239 005c 044A     		ldr	r2, .L15+12
 240 005e 43F8082C 		str	r2, [r3, #-8]
 241 0062 7047     		bx	lr
 242              	.L16:
 243              		.align	2
 244              	.L15:
 245 0064 00ED00E0 		.word	-536810240
 246 0068 00000000 		.word	rlist
 247 006c 00000000 		.word	_port_switch_from_isr
 248 0070 04000000 		.word	_port_exit_from_isr
 249              	.LBE17:
 250              	.LBE19:
 251              		.cfi_endproc
 252              	.LFE10:
 253              		.size	_port_irq_epilogue, .-_port_irq_epilogue
 254 0074 AFF30080 		.section	.text.SysTickVector,"ax",%progbits
 254      AFF30080 
 254      AFF30080 
 255              		.align	2
 256              		.p2align 4,,15
 257              		.global	SysTickVector
 258              		.thumb
 259              		.thumb_func
 260              		.type	SysTickVector, %function
 261              	SysTickVector:
 262              	.LFB7:
 263              		.loc 1 47 0
 264              		.cfi_startproc
 265              		@ args = 0, pretend = 0, frame = 0
 266              		@ frame_needed = 0, uses_anonymous_args = 0
 267 0000 08B5     		push	{r3, lr}
 268              		.cfi_def_cfa_offset 8
 269              		.cfi_offset 3, -8
 270              		.cfi_offset 14, -4
 271              	.LBB20:
 272              		.loc 1 51 0
 273 0002 2023     		movs	r3, #32
 274              	@ 51 "../../../os/ports/GCC/ARMCMx/chcore_v7m.c" 1
 275 0004 83F31188 		msr     BASEPRI, r3
 276              	@ 0 "" 2
 277              		.thumb
 278              	.LBE20:
ARM GAS  /tmp/ccPhvQ2x.s 			page 6


 279              		.loc 1 52 0
 280 0008 FFF7FEFF 		bl	chSysTimerHandlerI
 281              	.LVL12:
 282              	.LBB21:
 283              		.loc 1 53 0
 284 000c 0023     		movs	r3, #0
 285              	@ 53 "../../../os/ports/GCC/ARMCMx/chcore_v7m.c" 1
 286 000e 83F31188 		msr     BASEPRI, r3
 287              	@ 0 "" 2
 288              		.thumb
 289              	.LBE21:
 290              		.loc 1 56 0
 291 0012 BDE80840 		pop	{r3, lr}
 292              		.cfi_restore 14
 293              		.cfi_restore 3
 294              		.cfi_def_cfa_offset 0
 295              		.loc 1 55 0
 296 0016 FFF7FEBF 		b	_port_irq_epilogue
 297              	.LVL13:
 298              		.cfi_endproc
 299              	.LFE7:
 300              		.size	SysTickVector, .-SysTickVector
 301 001a 00BFAFF3 		.section	.text._port_switch,"ax",%progbits
 301      0080
 302              		.align	2
 303              		.p2align 4,,15
 304              		.global	_port_switch
 305              		.thumb
 306              		.thumb_func
 307              		.type	_port_switch, %function
 308              	_port_switch:
 309              	.LFB12:
 310              		.loc 1 229 0
 311              		.cfi_startproc
 312              		@ Naked Function: prologue and epilogue provided by programmer.
 313              		@ args = 0, pretend = 0, frame = 0
 314              		@ frame_needed = 0, uses_anonymous_args = 0
 315              	.LVL14:
 316              		.loc 1 231 0
 317              	@ 231 "../../../os/ports/GCC/ARMCMx/chcore_v7m.c" 1
 318 0000 2DE9F04F 		push    {r4, r5, r6, r7, r8, r9, r10, r11, lr}
 319              	@ 0 "" 2
 320              		.loc 1 237 0
 321              	@ 237 "../../../os/ports/GCC/ARMCMx/chcore_v7m.c" 1
 322 0004 C1F80CD0 		str     sp, [r1, #12]                          
 323 0008 D0F80CD0 		ldr     sp, [r0, #12]
 324              	@ 0 "" 2
 325              		.loc 1 243 0
 326              	@ 243 "../../../os/ports/GCC/ARMCMx/chcore_v7m.c" 1
 327 000c BDE8F08F 		pop     {r4, r5, r6, r7, r8, r9, r10, r11, pc}
 328              	@ 0 "" 2
 329              		.loc 1 245 0
 330              		.thumb
 331              		.cfi_endproc
 332              	.LFE12:
 333              		.size	_port_switch, .-_port_switch
 334              		.section	.text._port_thread_start,"ax",%progbits
ARM GAS  /tmp/ccPhvQ2x.s 			page 7


 335              		.align	2
 336              		.p2align 4,,15
 337              		.global	_port_thread_start
 338              		.thumb
 339              		.thumb_func
 340              		.type	_port_thread_start, %function
 341              	_port_thread_start:
 342              	.LFB13:
 343              		.loc 1 252 0
 344              		.cfi_startproc
 345              		@ args = 0, pretend = 0, frame = 0
 346              		@ frame_needed = 0, uses_anonymous_args = 0
 347              		@ link register save eliminated.
 348              	.LBB22:
 349              		.loc 1 254 0
 350 0000 0023     		movs	r3, #0
 351              	@ 254 "../../../os/ports/GCC/ARMCMx/chcore_v7m.c" 1
 352 0002 83F31188 		msr     BASEPRI, r3
 353              	@ 0 "" 2
 354              		.thumb
 355              	.LBE22:
 356              		.loc 1 255 0
 357              	@ 255 "../../../os/ports/GCC/ARMCMx/chcore_v7m.c" 1
 358 0006 2846     		mov     r0, r5                                 
 359 0008 A047     		blx     r4                                     
 360 000a FFF7FEFF 		bl      chThdExit
 361              	@ 0 "" 2
 362              		.thumb
 363 000e 7047     		bx	lr
 364              		.cfi_endproc
 365              	.LFE13:
 366              		.size	_port_thread_start, .-_port_thread_start
 367              		.text
 368              	.Letext0:
 369              		.file 2 "/usr/arm-none-eabi/include/machine/_default_types.h"
 370              		.file 3 "/usr/arm-none-eabi/include/stdint.h"
 371              		.file 4 "../../../os/ports/GCC/ARMCMx/chtypes.h"
 372              		.file 5 "../../../os/kernel/include/chlists.h"
 373              		.file 6 "../../../os/kernel/include/chthreads.h"
 374              		.file 7 "../../../os/ports/GCC/ARMCMx/chcore_v7m.h"
 375              		.file 8 "../../../os/ports/common/ARMCMx/nvic.h"
 376              		.file 9 "../../../os/kernel/include/chschd.h"
 377              		.file 10 "../../../os/kernel/include/chmtx.h"
 378              		.file 11 "../../../os/kernel/include/chsys.h"