ARM GAS  /tmp/ccGWgG1S.s 			page 1


   1              		.syntax unified
   2              		.cpu cortex-m4
   3              		.fpu softvfp
   4              		.eabi_attribute 20, 1
   5              		.eabi_attribute 21, 1
   6              		.eabi_attribute 23, 3
   7              		.eabi_attribute 24, 1
   8              		.eabi_attribute 25, 1
   9              		.eabi_attribute 26, 1
  10              		.eabi_attribute 30, 2
  11              		.eabi_attribute 34, 1
  12              		.eabi_attribute 18, 4
  13              		.thumb
  14              		.file	"chdynamic.c"
  15              		.text
  16              	.Ltext0:
  17              		.cfi_sections	.debug_frame
  18              		.section	.text.chThdAddRef,"ax",%progbits
  19              		.align	2
  20              		.p2align 4,,15
  21              		.global	chThdAddRef
  22              		.thumb
  23              		.thumb_func
  24              		.type	chThdAddRef, %function
  25              	chThdAddRef:
  26              	.LFB7:
  27              		.file 1 "../../../os/kernel/src/chdynamic.c"
  28              		.loc 1 52 0
  29              		.cfi_startproc
  30              		@ args = 0, pretend = 0, frame = 0
  31              		@ frame_needed = 0, uses_anonymous_args = 0
  32              		@ link register save eliminated.
  33              	.LVL0:
  34              	.LBB2:
  35              		.loc 1 54 0
  36 0000 2023     		movs	r3, #32
  37              	@ 54 "../../../os/kernel/src/chdynamic.c" 1
  38 0002 83F31188 		msr     BASEPRI, r3
  39              	@ 0 "" 2
  40              		.thumb
  41              	.LBE2:
  42              		.loc 1 56 0
  43 0006 837F     		ldrb	r3, [r0, #30]	@ zero_extendqisi2
  44 0008 0133     		adds	r3, r3, #1
  45 000a 8377     		strb	r3, [r0, #30]
  46              	.LBB3:
  47              		.loc 1 57 0
  48 000c 0023     		movs	r3, #0
  49              	@ 57 "../../../os/kernel/src/chdynamic.c" 1
  50 000e 83F31188 		msr     BASEPRI, r3
  51              	@ 0 "" 2
  52              		.thumb
  53              	.LBE3:
  54              		.loc 1 59 0
  55 0012 7047     		bx	lr
  56              		.cfi_endproc
  57              	.LFE7:
ARM GAS  /tmp/ccGWgG1S.s 			page 2


  58              		.size	chThdAddRef, .-chThdAddRef
  59 0014 AFF30080 		.section	.text.chThdRelease,"ax",%progbits
  59      AFF30080 
  59      AFF30080 
  60              		.align	2
  61              		.p2align 4,,15
  62              		.global	chThdRelease
  63              		.thumb
  64              		.thumb_func
  65              		.type	chThdRelease, %function
  66              	chThdRelease:
  67              	.LFB8:
  68              		.loc 1 74 0
  69              		.cfi_startproc
  70              		@ args = 0, pretend = 0, frame = 0
  71              		@ frame_needed = 0, uses_anonymous_args = 0
  72              		@ link register save eliminated.
  73              	.LVL1:
  74              		.loc 1 74 0
  75 0000 0146     		mov	r1, r0
  76              	.LBB4:
  77              		.loc 1 77 0
  78 0002 2023     		movs	r3, #32
  79              	@ 77 "../../../os/kernel/src/chdynamic.c" 1
  80 0004 83F31188 		msr     BASEPRI, r3
  81              	@ 0 "" 2
  82              		.thumb
  83              	.LBE4:
  84              		.loc 1 79 0
  85 0008 827F     		ldrb	r2, [r0, #30]	@ zero_extendqisi2
  86 000a 013A     		subs	r2, r2, #1
  87 000c D2B2     		uxtb	r2, r2
  88 000e 8277     		strb	r2, [r0, #30]
  89              	.LVL2:
  90              	.LBB5:
  91              		.loc 1 80 0
  92 0010 0023     		movs	r3, #0
  93              	@ 80 "../../../os/kernel/src/chdynamic.c" 1
  94 0012 83F31188 		msr     BASEPRI, r3
  95              	@ 0 "" 2
  96              		.thumb
  97              	.LBE5:
  98              		.loc 1 85 0
  99 0016 12B9     		cbnz	r2, .L2
 100              		.loc 1 85 0 is_stmt 0 discriminator 1
 101 0018 037F     		ldrb	r3, [r0, #28]	@ zero_extendqisi2
 102 001a 0E2B     		cmp	r3, #14
 103 001c 00D0     		beq	.L7
 104              	.L2:
 105 001e 7047     		bx	lr
 106              	.L7:
 107              		.loc 1 86 0 is_stmt 1
 108 0020 437F     		ldrb	r3, [r0, #29]	@ zero_extendqisi2
 109 0022 03F00303 		and	r3, r3, #3
 110 0026 012B     		cmp	r3, #1
 111 0028 02D0     		beq	.L4
 112 002a 022B     		cmp	r3, #2
ARM GAS  /tmp/ccGWgG1S.s 			page 3


 113 002c 07D0     		beq	.L5
 114 002e 7047     		bx	lr
 115              	.L4:
 116              		.loc 1 90 0
 117 0030 4369     		ldr	r3, [r0, #20]
 118 0032 0269     		ldr	r2, [r0, #16]
 119              	.LVL3:
 120 0034 1A61     		str	r2, [r3, #16]
 121 0036 0269     		ldr	r2, [r0, #16]
 122 0038 5361     		str	r3, [r2, #20]
 123              		.loc 1 92 0
 124 003a FFF7FEBF 		b	chHeapFree
 125              	.LVL4:
 126              	.L5:
 127              		.loc 1 98 0
 128 003e 4369     		ldr	r3, [r0, #20]
 129 0040 0269     		ldr	r2, [r0, #16]
 130              	.LVL5:
 131 0042 1A61     		str	r2, [r3, #16]
 132 0044 0269     		ldr	r2, [r0, #16]
 133              		.loc 1 100 0
 134 0046 406C     		ldr	r0, [r0, #68]
 135              	.LVL6:
 136              		.loc 1 98 0
 137 0048 5361     		str	r3, [r2, #20]
 138              		.loc 1 100 0
 139 004a FFF7FEBF 		b	chPoolFree
 140              	.LVL7:
 141              		.cfi_endproc
 142              	.LFE8:
 143              		.size	chThdRelease, .-chThdRelease
 144 004e 00BF     		.section	.text.chThdCreateFromHeap,"ax",%progbits
 145              		.align	2
 146              		.p2align 4,,15
 147              		.global	chThdCreateFromHeap
 148              		.thumb
 149              		.thumb_func
 150              		.type	chThdCreateFromHeap, %function
 151              	chThdCreateFromHeap:
 152              	.LFB9:
 153              		.loc 1 131 0
 154              		.cfi_startproc
 155              		@ args = 4, pretend = 0, frame = 0
 156              		@ frame_needed = 0, uses_anonymous_args = 0
 157              	.LVL8:
 158 0000 F0B5     		push	{r4, r5, r6, r7, lr}
 159              		.cfi_def_cfa_offset 20
 160              		.cfi_offset 4, -20
 161              		.cfi_offset 5, -16
 162              		.cfi_offset 6, -12
 163              		.cfi_offset 7, -8
 164              		.cfi_offset 14, -4
 165 0002 83B0     		sub	sp, sp, #12
 166              		.cfi_def_cfa_offset 32
 167              		.loc 1 131 0
 168 0004 1646     		mov	r6, r2
 169 0006 1D46     		mov	r5, r3
ARM GAS  /tmp/ccGWgG1S.s 			page 4


 170 0008 0F46     		mov	r7, r1
 171              		.loc 1 135 0
 172 000a FFF7FEFF 		bl	chHeapAlloc
 173              	.LVL9:
 174              		.loc 1 136 0
 175 000e 98B1     		cbz	r0, .L9
 176              	.LBB6:
 177              		.loc 1 148 0
 178 0010 2023     		movs	r3, #32
 179              	@ 148 "../../../os/kernel/src/chdynamic.c" 1
 180 0012 83F31188 		msr     BASEPRI, r3
 181              	@ 0 "" 2
 182              		.thumb
 183              	.LBE6:
 184              		.loc 1 149 0
 185 0016 089B     		ldr	r3, [sp, #32]
 186 0018 0093     		str	r3, [sp]
 187 001a 3946     		mov	r1, r7
 188 001c 3246     		mov	r2, r6
 189 001e 2B46     		mov	r3, r5
 190 0020 FFF7FEFF 		bl	chThdCreateI
 191              	.LVL10:
 192              		.loc 1 150 0
 193 0024 0123     		movs	r3, #1
 194 0026 4377     		strb	r3, [r0, #29]
 195              		.loc 1 151 0
 196 0028 0021     		movs	r1, #0
 197              		.loc 1 149 0
 198 002a 0446     		mov	r4, r0
 199              	.LVL11:
 200              		.loc 1 151 0
 201 002c FFF7FEFF 		bl	chSchWakeupS
 202              	.LVL12:
 203              	.LBB7:
 204              		.loc 1 152 0
 205 0030 0023     		movs	r3, #0
 206              	@ 152 "../../../os/kernel/src/chdynamic.c" 1
 207 0032 83F31188 		msr     BASEPRI, r3
 208              	@ 0 "" 2
 209              		.thumb
 210              	.LBE7:
 211              		.loc 1 153 0
 212 0036 2046     		mov	r0, r4
 213              	.LVL13:
 214              	.L9:
 215              		.loc 1 154 0
 216 0038 03B0     		add	sp, sp, #12
 217              		.cfi_def_cfa_offset 20
 218              		@ sp needed
 219 003a F0BD     		pop	{r4, r5, r6, r7, pc}
 220              		.cfi_endproc
 221              	.LFE9:
 222              		.size	chThdCreateFromHeap, .-chThdCreateFromHeap
 223 003c AFF30080 		.section	.text.chThdCreateFromMemoryPool,"ax",%progbits
 224              		.align	2
 225              		.p2align 4,,15
 226              		.global	chThdCreateFromMemoryPool
ARM GAS  /tmp/ccGWgG1S.s 			page 5


 227              		.thumb
 228              		.thumb_func
 229              		.type	chThdCreateFromMemoryPool, %function
 230              	chThdCreateFromMemoryPool:
 231              	.LFB10:
 232              		.loc 1 180 0
 233              		.cfi_startproc
 234              		@ args = 0, pretend = 0, frame = 0
 235              		@ frame_needed = 0, uses_anonymous_args = 0
 236              	.LVL14:
 237 0000 2DE9F041 		push	{r4, r5, r6, r7, r8, lr}
 238              		.cfi_def_cfa_offset 24
 239              		.cfi_offset 4, -24
 240              		.cfi_offset 5, -20
 241              		.cfi_offset 6, -16
 242              		.cfi_offset 7, -12
 243              		.cfi_offset 8, -8
 244              		.cfi_offset 14, -4
 245 0004 82B0     		sub	sp, sp, #8
 246              		.cfi_def_cfa_offset 32
 247              		.loc 1 180 0
 248 0006 0F46     		mov	r7, r1
 249 0008 1646     		mov	r6, r2
 250 000a 9846     		mov	r8, r3
 251 000c 0546     		mov	r5, r0
 252              		.loc 1 186 0
 253 000e FFF7FEFF 		bl	chPoolAlloc
 254              	.LVL15:
 255              		.loc 1 187 0
 256 0012 A0B1     		cbz	r0, .L13
 257              	.LBB8:
 258              		.loc 1 199 0
 259 0014 2023     		movs	r3, #32
 260              	@ 199 "../../../os/kernel/src/chdynamic.c" 1
 261 0016 83F31188 		msr     BASEPRI, r3
 262              	@ 0 "" 2
 263              		.thumb
 264              	.LBE8:
 265              		.loc 1 200 0
 266 001a 6968     		ldr	r1, [r5, #4]
 267 001c CDF80080 		str	r8, [sp]
 268 0020 3A46     		mov	r2, r7
 269 0022 3346     		mov	r3, r6
 270 0024 FFF7FEFF 		bl	chThdCreateI
 271              	.LVL16:
 272              		.loc 1 201 0
 273 0028 0223     		movs	r3, #2
 274 002a 4377     		strb	r3, [r0, #29]
 275              		.loc 1 202 0
 276 002c 4564     		str	r5, [r0, #68]
 277              		.loc 1 203 0
 278 002e 0021     		movs	r1, #0
 279              		.loc 1 200 0
 280 0030 0446     		mov	r4, r0
 281              	.LVL17:
 282              		.loc 1 203 0
 283 0032 FFF7FEFF 		bl	chSchWakeupS
ARM GAS  /tmp/ccGWgG1S.s 			page 6


 284              	.LVL18:
 285              	.LBB9:
 286              		.loc 1 204 0
 287 0036 0023     		movs	r3, #0
 288              	@ 204 "../../../os/kernel/src/chdynamic.c" 1
 289 0038 83F31188 		msr     BASEPRI, r3
 290              	@ 0 "" 2
 291              		.thumb
 292              	.LBE9:
 293              		.loc 1 205 0
 294 003c 2046     		mov	r0, r4
 295              	.LVL19:
 296              	.L13:
 297              		.loc 1 206 0
 298 003e 02B0     		add	sp, sp, #8
 299              		.cfi_def_cfa_offset 24
 300              		@ sp needed
 301 0040 BDE8F081 		pop	{r4, r5, r6, r7, r8, pc}
 302              		.cfi_endproc
 303              	.LFE10:
 304              		.size	chThdCreateFromMemoryPool, .-chThdCreateFromMemoryPool
 305 0044 AFF30080 		.text
 305      AFF30080 
 305      AFF30080 
 306              	.Letext0:
 307              		.file 2 "/usr/lib/gcc/arm-none-eabi/4.9.2/include/stddef.h"
 308              		.file 3 "/usr/arm-none-eabi/include/machine/_default_types.h"
 309              		.file 4 "/usr/arm-none-eabi/include/stdint.h"
 310              		.file 5 "../../../os/ports/GCC/ARMCMx/chtypes.h"
 311              		.file 6 "../../../os/kernel/include/chlists.h"
 312              		.file 7 "../../../os/kernel/include/chthreads.h"
 313              		.file 8 "../../../os/ports/GCC/ARMCMx/chcore_v7m.h"
 314              		.file 9 "../../../os/kernel/include/chmtx.h"
 315              		.file 10 "../../../os/kernel/include/chmemcore.h"
 316              		.file 11 "../../../os/kernel/include/chheap.h"
 317              		.file 12 "../../../os/kernel/include/chmempools.h"
 318              		.file 13 "../../../os/kernel/include/chschd.h"