ARM GAS  /tmp/ccILw1Vl.s 			page 1


   1              		.syntax unified
   2              		.cpu cortex-m4
   3              		.fpu softvfp
   4              		.eabi_attribute 20, 1
   5              		.eabi_attribute 21, 1
   6              		.eabi_attribute 23, 3
   7              		.eabi_attribute 24, 1
   8              		.eabi_attribute 25, 1
   9              		.eabi_attribute 26, 1
  10              		.eabi_attribute 30, 2
  11              		.eabi_attribute 34, 1
  12              		.eabi_attribute 18, 4
  13              		.thumb
  14              		.file	"chevents.c"
  15              		.text
  16              	.Ltext0:
  17              		.cfi_sections	.debug_frame
  18              		.section	.text.chEvtRegisterMask,"ax",%progbits
  19              		.align	2
  20              		.p2align 4,,15
  21              		.global	chEvtRegisterMask
  22              		.thumb
  23              		.thumb_func
  24              		.type	chEvtRegisterMask, %function
  25              	chEvtRegisterMask:
  26              	.LFB7:
  27              		.file 1 "../../../os/kernel/src/chevents.c"
  28              		.loc 1 85 0
  29              		.cfi_startproc
  30              		@ args = 0, pretend = 0, frame = 0
  31              		@ frame_needed = 0, uses_anonymous_args = 0
  32              		@ link register save eliminated.
  33              	.LVL0:
  34 0000 30B4     		push	{r4, r5}
  35              		.cfi_def_cfa_offset 8
  36              		.cfi_offset 4, -8
  37              		.cfi_offset 5, -4
  38              	.LBB2:
  39              		.loc 1 89 0
  40 0002 2023     		movs	r3, #32
  41              	@ 89 "../../../os/kernel/src/chevents.c" 1
  42 0004 83F31188 		msr     BASEPRI, r3
  43              	@ 0 "" 2
  44              		.thumb
  45              	.LBE2:
  46              		.loc 1 92 0
  47 0008 064C     		ldr	r4, .L3
  48              		.loc 1 90 0
  49 000a 0368     		ldr	r3, [r0]
  50              		.loc 1 92 0
  51 000c A569     		ldr	r5, [r4, #24]
  52              		.loc 1 90 0
  53 000e 0B60     		str	r3, [r1]
  54              		.loc 1 94 0
  55 0010 0024     		movs	r4, #0
  56              		.loc 1 91 0
  57 0012 0160     		str	r1, [r0]
ARM GAS  /tmp/ccILw1Vl.s 			page 2


  58              	.LBB3:
  59              		.loc 1 95 0
  60 0014 2346     		mov	r3, r4
  61              	.LBE3:
  62              		.loc 1 92 0
  63 0016 4D60     		str	r5, [r1, #4]
  64              		.loc 1 93 0
  65 0018 8A60     		str	r2, [r1, #8]
  66              		.loc 1 94 0
  67 001a CC60     		str	r4, [r1, #12]
  68              	.LBB4:
  69              		.loc 1 95 0
  70              	@ 95 "../../../os/kernel/src/chevents.c" 1
  71 001c 83F31188 		msr     BASEPRI, r3
  72              	@ 0 "" 2
  73              		.thumb
  74              	.LBE4:
  75              		.loc 1 96 0
  76 0020 30BC     		pop	{r4, r5}
  77              		.cfi_restore 5
  78              		.cfi_restore 4
  79              		.cfi_def_cfa_offset 0
  80 0022 7047     		bx	lr
  81              	.L4:
  82              		.align	2
  83              	.L3:
  84 0024 00000000 		.word	rlist
  85              		.cfi_endproc
  86              	.LFE7:
  87              		.size	chEvtRegisterMask, .-chEvtRegisterMask
  88 0028 AFF30080 		.section	.text.chEvtUnregister,"ax",%progbits
  88      AFF30080 
  89              		.align	2
  90              		.p2align 4,,15
  91              		.global	chEvtUnregister
  92              		.thumb
  93              		.thumb_func
  94              		.type	chEvtUnregister, %function
  95              	chEvtUnregister:
  96              	.LFB8:
  97              		.loc 1 111 0
  98              		.cfi_startproc
  99              		@ args = 0, pretend = 0, frame = 0
 100              		@ frame_needed = 0, uses_anonymous_args = 0
 101              		@ link register save eliminated.
 102              	.LVL1:
 103              	.LBB5:
 104              		.loc 1 117 0
 105 0000 2023     		movs	r3, #32
 106              	@ 117 "../../../os/kernel/src/chevents.c" 1
 107 0002 83F31188 		msr     BASEPRI, r3
 108              	@ 0 "" 2
 109              		.thumb
 110              	.LBE5:
 111              		.loc 1 116 0
 112 0006 0246     		mov	r2, r0
 113              		.loc 1 118 0
ARM GAS  /tmp/ccILw1Vl.s 			page 3


 114 0008 02E0     		b	.L6
 115              	.LVL2:
 116              	.L8:
 117              		.loc 1 119 0
 118 000a 9942     		cmp	r1, r3
 119 000c 07D0     		beq	.L11
 120 000e 1A46     		mov	r2, r3
 121              	.LVL3:
 122              	.L6:
 123              		.loc 1 118 0
 124 0010 1368     		ldr	r3, [r2]
 125 0012 8342     		cmp	r3, r0
 126 0014 F9D1     		bne	.L8
 127              	.LBB6:
 128              		.loc 1 125 0
 129 0016 0023     		movs	r3, #0
 130              	@ 125 "../../../os/kernel/src/chevents.c" 1
 131 0018 83F31188 		msr     BASEPRI, r3
 132              	@ 0 "" 2
 133              		.thumb
 134 001c 7047     		bx	lr
 135              	.L11:
 136              	.LBE6:
 137              		.loc 1 120 0
 138 001e 0B68     		ldr	r3, [r1]
 139 0020 1360     		str	r3, [r2]
 140              	.LBB7:
 141              		.loc 1 125 0
 142 0022 0023     		movs	r3, #0
 143              	@ 125 "../../../os/kernel/src/chevents.c" 1
 144 0024 83F31188 		msr     BASEPRI, r3
 145              	@ 0 "" 2
 146              		.thumb
 147 0028 7047     		bx	lr
 148              	.LBE7:
 149              		.cfi_endproc
 150              	.LFE8:
 151              		.size	chEvtUnregister, .-chEvtUnregister
 152 002a 00BFAFF3 		.section	.text.chEvtGetAndClearEvents,"ax",%progbits
 152      0080
 153              		.align	2
 154              		.p2align 4,,15
 155              		.global	chEvtGetAndClearEvents
 156              		.thumb
 157              		.thumb_func
 158              		.type	chEvtGetAndClearEvents, %function
 159              	chEvtGetAndClearEvents:
 160              	.LFB9:
 161              		.loc 1 136 0
 162              		.cfi_startproc
 163              		@ args = 0, pretend = 0, frame = 0
 164              		@ frame_needed = 0, uses_anonymous_args = 0
 165              		@ link register save eliminated.
 166              	.LVL4:
 167              	.LBB8:
 168              		.loc 1 139 0
 169 0000 2023     		movs	r3, #32
ARM GAS  /tmp/ccILw1Vl.s 			page 4


 170              	@ 139 "../../../os/kernel/src/chevents.c" 1
 171 0002 83F31188 		msr     BASEPRI, r3
 172              	@ 0 "" 2
 173              		.thumb
 174              	.LBE8:
 175              		.loc 1 141 0
 176 0006 054B     		ldr	r3, .L13
 177 0008 9B69     		ldr	r3, [r3, #24]
 178 000a 9A6B     		ldr	r2, [r3, #56]
 179              	.LVL5:
 180              		.loc 1 142 0
 181 000c 22EA0001 		bic	r1, r2, r0
 182 0010 9963     		str	r1, [r3, #56]
 183              	.LBB9:
 184              		.loc 1 144 0
 185 0012 0023     		movs	r3, #0
 186              	@ 144 "../../../os/kernel/src/chevents.c" 1
 187 0014 83F31188 		msr     BASEPRI, r3
 188              	@ 0 "" 2
 189              		.thumb
 190              	.LBE9:
 191              		.loc 1 146 0
 192 0018 1040     		ands	r0, r0, r2
 193              	.LVL6:
 194 001a 7047     		bx	lr
 195              	.L14:
 196              		.align	2
 197              	.L13:
 198 001c 00000000 		.word	rlist
 199              		.cfi_endproc
 200              	.LFE9:
 201              		.size	chEvtGetAndClearEvents, .-chEvtGetAndClearEvents
 202              		.section	.text.chEvtAddEvents,"ax",%progbits
 203              		.align	2
 204              		.p2align 4,,15
 205              		.global	chEvtAddEvents
 206              		.thumb
 207              		.thumb_func
 208              		.type	chEvtAddEvents, %function
 209              	chEvtAddEvents:
 210              	.LFB10:
 211              		.loc 1 157 0
 212              		.cfi_startproc
 213              		@ args = 0, pretend = 0, frame = 0
 214              		@ frame_needed = 0, uses_anonymous_args = 0
 215              		@ link register save eliminated.
 216              	.LVL7:
 217              	.LBB10:
 218              		.loc 1 159 0
 219 0000 2023     		movs	r3, #32
 220              	@ 159 "../../../os/kernel/src/chevents.c" 1
 221 0002 83F31188 		msr     BASEPRI, r3
 222              	@ 0 "" 2
 223              		.thumb
 224              	.LBE10:
 225              		.loc 1 161 0
 226 0006 044B     		ldr	r3, .L16
ARM GAS  /tmp/ccILw1Vl.s 			page 5


 227 0008 9A69     		ldr	r2, [r3, #24]
 228 000a 936B     		ldr	r3, [r2, #56]
 229 000c 1843     		orrs	r0, r0, r3
 230              	.LVL8:
 231 000e 9063     		str	r0, [r2, #56]
 232              	.LVL9:
 233              	.LBB11:
 234              		.loc 1 163 0
 235 0010 0023     		movs	r3, #0
 236              	@ 163 "../../../os/kernel/src/chevents.c" 1
 237 0012 83F31188 		msr     BASEPRI, r3
 238              	@ 0 "" 2
 239              		.thumb
 240              	.LBE11:
 241              		.loc 1 165 0
 242 0016 7047     		bx	lr
 243              	.L17:
 244              		.align	2
 245              	.L16:
 246 0018 00000000 		.word	rlist
 247              		.cfi_endproc
 248              	.LFE10:
 249              		.size	chEvtAddEvents, .-chEvtAddEvents
 250 001c AFF30080 		.section	.text.chEvtGetAndClearFlags,"ax",%progbits
 251              		.align	2
 252              		.p2align 4,,15
 253              		.global	chEvtGetAndClearFlags
 254              		.thumb
 255              		.thumb_func
 256              		.type	chEvtGetAndClearFlags, %function
 257              	chEvtGetAndClearFlags:
 258              	.LFB12:
 259              		.loc 1 209 0
 260              		.cfi_startproc
 261              		@ args = 0, pretend = 0, frame = 0
 262              		@ frame_needed = 0, uses_anonymous_args = 0
 263              		@ link register save eliminated.
 264              	.LVL10:
 265              		.loc 1 209 0
 266 0000 0246     		mov	r2, r0
 267              	.LBB12:
 268              		.loc 1 212 0
 269 0002 2023     		movs	r3, #32
 270              	@ 212 "../../../os/kernel/src/chevents.c" 1
 271 0004 83F31188 		msr     BASEPRI, r3
 272              	@ 0 "" 2
 273              		.thumb
 274              	.LBE12:
 275              		.loc 1 215 0
 276 0008 0023     		movs	r3, #0
 277              		.loc 1 214 0
 278 000a C068     		ldr	r0, [r0, #12]
 279              	.LVL11:
 280              		.loc 1 215 0
 281 000c D360     		str	r3, [r2, #12]
 282              	.LBB13:
 283              		.loc 1 217 0
ARM GAS  /tmp/ccILw1Vl.s 			page 6


 284              	@ 217 "../../../os/kernel/src/chevents.c" 1
 285 000e 83F31188 		msr     BASEPRI, r3
 286              	@ 0 "" 2
 287              		.thumb
 288              	.LBE13:
 289              		.loc 1 219 0
 290 0012 7047     		bx	lr
 291              		.cfi_endproc
 292              	.LFE12:
 293              		.size	chEvtGetAndClearFlags, .-chEvtGetAndClearFlags
 294 0014 AFF30080 		.section	.text.chEvtSignalI,"ax",%progbits
 294      AFF30080 
 294      AFF30080 
 295              		.align	2
 296              		.p2align 4,,15
 297              		.global	chEvtSignalI
 298              		.thumb
 299              		.thumb_func
 300              		.type	chEvtSignalI, %function
 301              	chEvtSignalI:
 302              	.LFB14:
 303              		.loc 1 251 0
 304              		.cfi_startproc
 305              		@ args = 0, pretend = 0, frame = 0
 306              		@ frame_needed = 0, uses_anonymous_args = 0
 307              	.LVL12:
 308 0000 08B5     		push	{r3, lr}
 309              		.cfi_def_cfa_offset 8
 310              		.cfi_offset 3, -8
 311              		.cfi_offset 14, -4
 312              		.loc 1 256 0
 313 0002 836B     		ldr	r3, [r0, #56]
 314              		.loc 1 258 0
 315 0004 027F     		ldrb	r2, [r0, #28]	@ zero_extendqisi2
 316              		.loc 1 256 0
 317 0006 1943     		orrs	r1, r1, r3
 318              	.LVL13:
 319              		.loc 1 258 0
 320 0008 082A     		cmp	r2, #8
 321              		.loc 1 256 0
 322 000a 8163     		str	r1, [r0, #56]
 323              		.loc 1 258 0
 324 000c 0BD0     		beq	.L24
 325              		.loc 1 259 0
 326 000e 092A     		cmp	r2, #9
 327 0010 00D0     		beq	.L25
 328              	.L19:
 329 0012 08BD     		pop	{r3, pc}
 330              	.L25:
 331              		.loc 1 261 0
 332 0014 436A     		ldr	r3, [r0, #36]
 333 0016 1940     		ands	r1, r1, r3
 334              		.loc 1 260 0
 335 0018 8B42     		cmp	r3, r1
 336 001a FAD1     		bne	.L19
 337              	.L21:
 338              	.LVL14:
ARM GAS  /tmp/ccILw1Vl.s 			page 7


 339              	.LBB16:
 340              	.LBB17:
 341              		.loc 1 262 0
 342 001c FFF7FEFF 		bl	chSchReadyI
 343              	.LVL15:
 344 0020 0023     		movs	r3, #0
 345 0022 4362     		str	r3, [r0, #36]
 346 0024 08BD     		pop	{r3, pc}
 347              	.LVL16:
 348              	.L24:
 349              	.LBE17:
 350              	.LBE16:
 351              		.loc 1 259 0 discriminator 1
 352 0026 436A     		ldr	r3, [r0, #36]
 353              		.loc 1 258 0 discriminator 1
 354 0028 1942     		tst	r1, r3
 355 002a F7D1     		bne	.L21
 356 002c 08BD     		pop	{r3, pc}
 357              		.cfi_endproc
 358              	.LFE14:
 359              		.size	chEvtSignalI, .-chEvtSignalI
 360 002e 00BF     		.section	.text.chEvtBroadcastFlagsI,"ax",%progbits
 361              		.align	2
 362              		.p2align 4,,15
 363              		.global	chEvtBroadcastFlagsI
 364              		.thumb
 365              		.thumb_func
 366              		.type	chEvtBroadcastFlagsI, %function
 367              	chEvtBroadcastFlagsI:
 368              	.LFB11:
 369              		.loc 1 184 0
 370              		.cfi_startproc
 371              		@ args = 0, pretend = 0, frame = 0
 372              		@ frame_needed = 0, uses_anonymous_args = 0
 373              	.LVL17:
 374 0000 70B5     		push	{r4, r5, r6, lr}
 375              		.cfi_def_cfa_offset 16
 376              		.cfi_offset 4, -16
 377              		.cfi_offset 5, -12
 378              		.cfi_offset 6, -8
 379              		.cfi_offset 14, -4
 380              		.loc 1 190 0
 381 0002 0468     		ldr	r4, [r0]
 382              	.LVL18:
 383              		.loc 1 191 0
 384 0004 A042     		cmp	r0, r4
 385              		.loc 1 184 0
 386 0006 0546     		mov	r5, r0
 387 0008 0E46     		mov	r6, r1
 388              		.loc 1 191 0
 389 000a 08D0     		beq	.L26
 390              	.LVL19:
 391              	.L28:
 392              		.loc 1 193 0
 393 000c 201D     		adds	r0, r4, #4
 394 000e 0BC8     		ldmia	r0, {r0, r1, r3}
 395              		.loc 1 192 0
ARM GAS  /tmp/ccILw1Vl.s 			page 8


 396 0010 3343     		orrs	r3, r3, r6
 397 0012 E360     		str	r3, [r4, #12]
 398              		.loc 1 193 0
 399 0014 FFF7FEFF 		bl	chEvtSignalI
 400              	.LVL20:
 401              		.loc 1 194 0
 402 0018 2468     		ldr	r4, [r4]
 403              	.LVL21:
 404              		.loc 1 191 0
 405 001a A542     		cmp	r5, r4
 406 001c F6D1     		bne	.L28
 407              	.L26:
 408 001e 70BD     		pop	{r4, r5, r6, pc}
 409              		.cfi_endproc
 410              	.LFE11:
 411              		.size	chEvtBroadcastFlagsI, .-chEvtBroadcastFlagsI
 412              		.section	.text.chEvtSignal,"ax",%progbits
 413              		.align	2
 414              		.p2align 4,,15
 415              		.global	chEvtSignal
 416              		.thumb
 417              		.thumb_func
 418              		.type	chEvtSignal, %function
 419              	chEvtSignal:
 420              	.LFB13:
 421              		.loc 1 229 0
 422              		.cfi_startproc
 423              		@ args = 0, pretend = 0, frame = 0
 424              		@ frame_needed = 0, uses_anonymous_args = 0
 425              	.LVL22:
 426 0000 08B5     		push	{r3, lr}
 427              		.cfi_def_cfa_offset 8
 428              		.cfi_offset 3, -8
 429              		.cfi_offset 14, -4
 430              	.LBB18:
 431              		.loc 1 233 0
 432 0002 2023     		movs	r3, #32
 433              	@ 233 "../../../os/kernel/src/chevents.c" 1
 434 0004 83F31188 		msr     BASEPRI, r3
 435              	@ 0 "" 2
 436              		.thumb
 437              	.LBE18:
 438              		.loc 1 234 0
 439 0008 FFF7FEFF 		bl	chEvtSignalI
 440              	.LVL23:
 441              		.loc 1 235 0
 442 000c FFF7FEFF 		bl	chSchRescheduleS
 443              	.LVL24:
 444              	.LBB19:
 445              		.loc 1 236 0
 446 0010 0023     		movs	r3, #0
 447              	@ 236 "../../../os/kernel/src/chevents.c" 1
 448 0012 83F31188 		msr     BASEPRI, r3
 449              	@ 0 "" 2
 450              		.thumb
 451 0016 08BD     		pop	{r3, pc}
 452              	.LBE19:
ARM GAS  /tmp/ccILw1Vl.s 			page 9


 453              		.cfi_endproc
 454              	.LFE13:
 455              		.size	chEvtSignal, .-chEvtSignal
 456 0018 AFF30080 		.section	.text.chEvtBroadcastFlags,"ax",%progbits
 456      AFF30080 
 457              		.align	2
 458              		.p2align 4,,15
 459              		.global	chEvtBroadcastFlags
 460              		.thumb
 461              		.thumb_func
 462              		.type	chEvtBroadcastFlags, %function
 463              	chEvtBroadcastFlags:
 464              	.LFB15:
 465              		.loc 1 278 0
 466              		.cfi_startproc
 467              		@ args = 0, pretend = 0, frame = 0
 468              		@ frame_needed = 0, uses_anonymous_args = 0
 469              	.LVL25:
 470 0000 08B5     		push	{r3, lr}
 471              		.cfi_def_cfa_offset 8
 472              		.cfi_offset 3, -8
 473              		.cfi_offset 14, -4
 474              	.LBB20:
 475              		.loc 1 280 0
 476 0002 2023     		movs	r3, #32
 477              	@ 280 "../../../os/kernel/src/chevents.c" 1
 478 0004 83F31188 		msr     BASEPRI, r3
 479              	@ 0 "" 2
 480              		.thumb
 481              	.LBE20:
 482              		.loc 1 281 0
 483 0008 FFF7FEFF 		bl	chEvtBroadcastFlagsI
 484              	.LVL26:
 485              		.loc 1 282 0
 486 000c FFF7FEFF 		bl	chSchRescheduleS
 487              	.LVL27:
 488              	.LBB21:
 489              		.loc 1 283 0
 490 0010 0023     		movs	r3, #0
 491              	@ 283 "../../../os/kernel/src/chevents.c" 1
 492 0012 83F31188 		msr     BASEPRI, r3
 493              	@ 0 "" 2
 494              		.thumb
 495 0016 08BD     		pop	{r3, pc}
 496              	.LBE21:
 497              		.cfi_endproc
 498              	.LFE15:
 499              		.size	chEvtBroadcastFlags, .-chEvtBroadcastFlags
 500 0018 AFF30080 		.section	.text.chEvtGetAndClearFlagsI,"ax",%progbits
 500      AFF30080 
 501              		.align	2
 502              		.p2align 4,,15
 503              		.global	chEvtGetAndClearFlagsI
 504              		.thumb
 505              		.thumb_func
 506              		.type	chEvtGetAndClearFlagsI, %function
 507              	chEvtGetAndClearFlagsI:
ARM GAS  /tmp/ccILw1Vl.s 			page 10


 508              	.LFB16:
 509              		.loc 1 297 0
 510              		.cfi_startproc
 511              		@ args = 0, pretend = 0, frame = 0
 512              		@ frame_needed = 0, uses_anonymous_args = 0
 513              		@ link register save eliminated.
 514              	.LVL28:
 515              		.loc 1 297 0
 516 0000 0346     		mov	r3, r0
 517              		.loc 1 301 0
 518 0002 0022     		movs	r2, #0
 519              		.loc 1 300 0
 520 0004 C068     		ldr	r0, [r0, #12]
 521              	.LVL29:
 522              		.loc 1 301 0
 523 0006 DA60     		str	r2, [r3, #12]
 524              		.loc 1 304 0
 525 0008 7047     		bx	lr
 526              		.cfi_endproc
 527              	.LFE16:
 528              		.size	chEvtGetAndClearFlagsI, .-chEvtGetAndClearFlagsI
 529 000a 00BFAFF3 		.section	.text.chEvtDispatch,"ax",%progbits
 529      0080
 530              		.align	2
 531              		.p2align 4,,15
 532              		.global	chEvtDispatch
 533              		.thumb
 534              		.thumb_func
 535              		.type	chEvtDispatch, %function
 536              	chEvtDispatch:
 537              	.LFB17:
 538              		.loc 1 315 0
 539              		.cfi_startproc
 540              		@ args = 0, pretend = 0, frame = 0
 541              		@ frame_needed = 0, uses_anonymous_args = 0
 542              	.LVL30:
 543 0000 F8B5     		push	{r3, r4, r5, r6, r7, lr}
 544              		.cfi_def_cfa_offset 24
 545              		.cfi_offset 3, -24
 546              		.cfi_offset 4, -20
 547              		.cfi_offset 5, -16
 548              		.cfi_offset 6, -12
 549              		.cfi_offset 7, -8
 550              		.cfi_offset 14, -4
 551              		.loc 1 321 0
 552 0002 0D46     		mov	r5, r1
 553 0004 A9B1     		cbz	r1, .L37
 554 0006 0746     		mov	r7, r0
 555 0008 0024     		movs	r4, #0
 556              		.loc 1 322 0
 557 000a 0126     		movs	r6, #1
 558              	.LVL31:
 559              	.L39:
 560 000c 06FA04F3 		lsl	r3, r6, r4
 561 0010 2B42     		tst	r3, r5
 562 0012 04D1     		bne	.L44
 563              	.L40:
ARM GAS  /tmp/ccILw1Vl.s 			page 11


 564              		.loc 1 329 0
 565 0014 0134     		adds	r4, r4, #1
 566              	.LVL32:
 567              		.loc 1 322 0
 568 0016 06FA04F3 		lsl	r3, r6, r4
 569 001a 2B42     		tst	r3, r5
 570 001c FAD0     		beq	.L40
 571              	.L44:
 572              		.loc 1 327 0
 573 001e 2046     		mov	r0, r4
 574              		.loc 1 326 0
 575 0020 25EA0305 		bic	r5, r5, r3
 576              	.LVL33:
 577              		.loc 1 327 0
 578 0024 57F82430 		ldr	r3, [r7, r4, lsl #2]
 579 0028 9847     		blx	r3
 580              	.LVL34:
 581              		.loc 1 329 0
 582 002a 0134     		adds	r4, r4, #1
 583              	.LVL35:
 584              		.loc 1 321 0
 585 002c 002D     		cmp	r5, #0
 586 002e EDD1     		bne	.L39
 587 0030 F8BD     		pop	{r3, r4, r5, r6, r7, pc}
 588              	.LVL36:
 589              	.L37:
 590 0032 F8BD     		pop	{r3, r4, r5, r6, r7, pc}
 591              		.cfi_endproc
 592              	.LFE17:
 593              		.size	chEvtDispatch, .-chEvtDispatch
 594 0034 AFF30080 		.section	.text.chEvtWaitOne,"ax",%progbits
 594      AFF30080 
 594      AFF30080 
 595              		.align	2
 596              		.p2align 4,,15
 597              		.global	chEvtWaitOne
 598              		.thumb
 599              		.thumb_func
 600              		.type	chEvtWaitOne, %function
 601              	chEvtWaitOne:
 602              	.LFB18:
 603              		.loc 1 350 0
 604              		.cfi_startproc
 605              		@ args = 0, pretend = 0, frame = 0
 606              		@ frame_needed = 0, uses_anonymous_args = 0
 607              	.LVL37:
 608 0000 38B5     		push	{r3, r4, r5, lr}
 609              		.cfi_def_cfa_offset 16
 610              		.cfi_offset 3, -16
 611              		.cfi_offset 4, -12
 612              		.cfi_offset 5, -8
 613              		.cfi_offset 14, -4
 614              		.loc 1 351 0
 615 0002 0D4B     		ldr	r3, .L48
 616 0004 9D69     		ldr	r5, [r3, #24]
 617              	.LVL38:
 618              	.LBB22:
ARM GAS  /tmp/ccILw1Vl.s 			page 12


 619              		.loc 1 354 0
 620 0006 2023     		movs	r3, #32
 621              	@ 354 "../../../os/kernel/src/chevents.c" 1
 622 0008 83F31188 		msr     BASEPRI, r3
 623              	@ 0 "" 2
 624              		.thumb
 625              	.LBE22:
 626              		.loc 1 356 0
 627 000c AB6B     		ldr	r3, [r5, #56]
 628              	.LVL39:
 629 000e 10EA0302 		ands	r2, r0, r3
 630              	.LVL40:
 631 0012 07D1     		bne	.L46
 632 0014 0446     		mov	r4, r0
 633              		.loc 1 357 0
 634 0016 6862     		str	r0, [r5, #36]
 635              		.loc 1 358 0
 636 0018 0820     		movs	r0, #8
 637              	.LVL41:
 638 001a FFF7FEFF 		bl	chSchGoSleepS
 639              	.LVL42:
 640              		.loc 1 359 0
 641 001e AB6B     		ldr	r3, [r5, #56]
 642 0020 04EA0302 		and	r2, r4, r3
 643              	.LVL43:
 644              	.L46:
 645              		.loc 1 361 0
 646 0024 5042     		negs	r0, r2
 647 0026 1040     		ands	r0, r0, r2
 648              	.LVL44:
 649              		.loc 1 362 0
 650 0028 23EA0003 		bic	r3, r3, r0
 651 002c AB63     		str	r3, [r5, #56]
 652              	.LBB23:
 653              		.loc 1 364 0
 654 002e 0023     		movs	r3, #0
 655              	@ 364 "../../../os/kernel/src/chevents.c" 1
 656 0030 83F31188 		msr     BASEPRI, r3
 657              	@ 0 "" 2
 658              		.thumb
 659              	.LBE23:
 660              		.loc 1 366 0
 661 0034 38BD     		pop	{r3, r4, r5, pc}
 662              	.LVL45:
 663              	.L49:
 664 0036 00BF     		.align	2
 665              	.L48:
 666 0038 00000000 		.word	rlist
 667              		.cfi_endproc
 668              	.LFE18:
 669              		.size	chEvtWaitOne, .-chEvtWaitOne
 670 003c AFF30080 		.section	.text.chEvtWaitAny,"ax",%progbits
 671              		.align	2
 672              		.p2align 4,,15
 673              		.global	chEvtWaitAny
 674              		.thumb
 675              		.thumb_func
ARM GAS  /tmp/ccILw1Vl.s 			page 13


 676              		.type	chEvtWaitAny, %function
 677              	chEvtWaitAny:
 678              	.LFB19:
 679              		.loc 1 379 0
 680              		.cfi_startproc
 681              		@ args = 0, pretend = 0, frame = 0
 682              		@ frame_needed = 0, uses_anonymous_args = 0
 683              	.LVL46:
 684 0000 38B5     		push	{r3, r4, r5, lr}
 685              		.cfi_def_cfa_offset 16
 686              		.cfi_offset 3, -16
 687              		.cfi_offset 4, -12
 688              		.cfi_offset 5, -8
 689              		.cfi_offset 14, -4
 690              		.loc 1 380 0
 691 0002 0C4B     		ldr	r3, .L53
 692 0004 9D69     		ldr	r5, [r3, #24]
 693              	.LVL47:
 694              	.LBB24:
 695              		.loc 1 383 0
 696 0006 2023     		movs	r3, #32
 697              	@ 383 "../../../os/kernel/src/chevents.c" 1
 698 0008 83F31188 		msr     BASEPRI, r3
 699              	@ 0 "" 2
 700              		.thumb
 701              	.LBE24:
 702              		.loc 1 385 0
 703 000c AB6B     		ldr	r3, [r5, #56]
 704              	.LVL48:
 705 000e 10EA0304 		ands	r4, r0, r3
 706              	.LVL49:
 707 0012 06D1     		bne	.L51
 708 0014 0446     		mov	r4, r0
 709              	.LVL50:
 710              		.loc 1 386 0
 711 0016 6862     		str	r0, [r5, #36]
 712              		.loc 1 387 0
 713 0018 0820     		movs	r0, #8
 714              	.LVL51:
 715 001a FFF7FEFF 		bl	chSchGoSleepS
 716              	.LVL52:
 717              		.loc 1 388 0
 718 001e AB6B     		ldr	r3, [r5, #56]
 719 0020 1C40     		ands	r4, r4, r3
 720              	.LVL53:
 721              	.L51:
 722              		.loc 1 390 0
 723 0022 23EA0403 		bic	r3, r3, r4
 724 0026 AB63     		str	r3, [r5, #56]
 725              	.LBB25:
 726              		.loc 1 392 0
 727 0028 0023     		movs	r3, #0
 728              	@ 392 "../../../os/kernel/src/chevents.c" 1
 729 002a 83F31188 		msr     BASEPRI, r3
 730              	@ 0 "" 2
 731              		.thumb
 732              	.LBE25:
ARM GAS  /tmp/ccILw1Vl.s 			page 14


 733              		.loc 1 394 0
 734 002e 2046     		mov	r0, r4
 735 0030 38BD     		pop	{r3, r4, r5, pc}
 736              	.LVL54:
 737              	.L54:
 738 0032 00BF     		.align	2
 739              	.L53:
 740 0034 00000000 		.word	rlist
 741              		.cfi_endproc
 742              	.LFE19:
 743              		.size	chEvtWaitAny, .-chEvtWaitAny
 744 0038 AFF30080 		.section	.text.chEvtWaitAll,"ax",%progbits
 744      AFF30080 
 745              		.align	2
 746              		.p2align 4,,15
 747              		.global	chEvtWaitAll
 748              		.thumb
 749              		.thumb_func
 750              		.type	chEvtWaitAll, %function
 751              	chEvtWaitAll:
 752              	.LFB20:
 753              		.loc 1 407 0
 754              		.cfi_startproc
 755              		@ args = 0, pretend = 0, frame = 0
 756              		@ frame_needed = 0, uses_anonymous_args = 0
 757              	.LVL55:
 758 0000 38B5     		push	{r3, r4, r5, lr}
 759              		.cfi_def_cfa_offset 16
 760              		.cfi_offset 3, -16
 761              		.cfi_offset 4, -12
 762              		.cfi_offset 5, -8
 763              		.cfi_offset 14, -4
 764              		.loc 1 408 0
 765 0002 0C4B     		ldr	r3, .L58
 766              		.loc 1 407 0
 767 0004 0446     		mov	r4, r0
 768              		.loc 1 408 0
 769 0006 9D69     		ldr	r5, [r3, #24]
 770              	.LVL56:
 771              	.LBB26:
 772              		.loc 1 410 0
 773 0008 2023     		movs	r3, #32
 774              	@ 410 "../../../os/kernel/src/chevents.c" 1
 775 000a 83F31188 		msr     BASEPRI, r3
 776              	@ 0 "" 2
 777              		.thumb
 778              	.LBE26:
 779              		.loc 1 412 0
 780 000e AB6B     		ldr	r3, [r5, #56]
 781 0010 00EA0302 		and	r2, r0, r3
 782 0014 8242     		cmp	r2, r0
 783 0016 04D0     		beq	.L56
 784              		.loc 1 413 0
 785 0018 6862     		str	r0, [r5, #36]
 786              		.loc 1 414 0
 787 001a 0920     		movs	r0, #9
 788              	.LVL57:
ARM GAS  /tmp/ccILw1Vl.s 			page 15


 789 001c FFF7FEFF 		bl	chSchGoSleepS
 790              	.LVL58:
 791 0020 AB6B     		ldr	r3, [r5, #56]
 792              	.L56:
 793              		.loc 1 416 0
 794 0022 23EA0403 		bic	r3, r3, r4
 795 0026 AB63     		str	r3, [r5, #56]
 796              	.LBB27:
 797              		.loc 1 418 0
 798 0028 0023     		movs	r3, #0
 799              	@ 418 "../../../os/kernel/src/chevents.c" 1
 800 002a 83F31188 		msr     BASEPRI, r3
 801              	@ 0 "" 2
 802              		.thumb
 803              	.LBE27:
 804              		.loc 1 420 0
 805 002e 2046     		mov	r0, r4
 806 0030 38BD     		pop	{r3, r4, r5, pc}
 807              	.LVL59:
 808              	.L59:
 809 0032 00BF     		.align	2
 810              	.L58:
 811 0034 00000000 		.word	rlist
 812              		.cfi_endproc
 813              	.LFE20:
 814              		.size	chEvtWaitAll, .-chEvtWaitAll
 815 0038 AFF30080 		.section	.text.chEvtWaitOneTimeout,"ax",%progbits
 815      AFF30080 
 816              		.align	2
 817              		.p2align 4,,15
 818              		.global	chEvtWaitOneTimeout
 819              		.thumb
 820              		.thumb_func
 821              		.type	chEvtWaitOneTimeout, %function
 822              	chEvtWaitOneTimeout:
 823              	.LFB21:
 824              		.loc 1 446 0
 825              		.cfi_startproc
 826              		@ args = 0, pretend = 0, frame = 0
 827              		@ frame_needed = 0, uses_anonymous_args = 0
 828              	.LVL60:
 829              		.loc 1 447 0
 830 0000 134B     		ldr	r3, .L67
 831              		.loc 1 446 0
 832 0002 70B5     		push	{r4, r5, r6, lr}
 833              		.cfi_def_cfa_offset 16
 834              		.cfi_offset 4, -16
 835              		.cfi_offset 5, -12
 836              		.cfi_offset 6, -8
 837              		.cfi_offset 14, -4
 838              		.loc 1 447 0
 839 0004 9E69     		ldr	r6, [r3, #24]
 840              	.LVL61:
 841              	.LBB28:
 842              		.loc 1 450 0
 843 0006 2023     		movs	r3, #32
 844              	@ 450 "../../../os/kernel/src/chevents.c" 1
ARM GAS  /tmp/ccILw1Vl.s 			page 16


 845 0008 83F31188 		msr     BASEPRI, r3
 846              	@ 0 "" 2
 847              		.thumb
 848              	.LBE28:
 849              		.loc 1 452 0
 850 000c B26B     		ldr	r2, [r6, #56]
 851              	.LVL62:
 852 000e 10EA0204 		ands	r4, r0, r2
 853              	.LVL63:
 854 0012 0FD1     		bne	.L61
 855              		.loc 1 453 0
 856 0014 21B9     		cbnz	r1, .L62
 857              	.LBB29:
 858              		.loc 1 454 0
 859 0016 0B46     		mov	r3, r1
 860              	@ 454 "../../../os/kernel/src/chevents.c" 1
 861 0018 83F31188 		msr     BASEPRI, r3
 862              	@ 0 "" 2
 863              		.thumb
 864              	.LBE29:
 865              		.loc 1 455 0
 866 001c 0846     		mov	r0, r1
 867              	.LVL64:
 868 001e 70BD     		pop	{r4, r5, r6, pc}
 869              	.LVL65:
 870              	.L62:
 871              		.loc 1 457 0
 872 0020 7062     		str	r0, [r6, #36]
 873 0022 0546     		mov	r5, r0
 874              		.loc 1 458 0
 875 0024 0820     		movs	r0, #8
 876              	.LVL66:
 877 0026 FFF7FEFF 		bl	chSchGoSleepTimeoutS
 878              	.LVL67:
 879 002a 0028     		cmp	r0, #0
 880 002c 0BDB     		blt	.L66
 881              		.loc 1 462 0
 882 002e B26B     		ldr	r2, [r6, #56]
 883 0030 05EA0204 		and	r4, r5, r2
 884              	.LVL68:
 885              	.L61:
 886              		.loc 1 464 0
 887 0034 6042     		negs	r0, r4
 888 0036 2040     		ands	r0, r0, r4
 889              	.LVL69:
 890              		.loc 1 465 0
 891 0038 22EA0002 		bic	r2, r2, r0
 892 003c B263     		str	r2, [r6, #56]
 893              	.LBB30:
 894              		.loc 1 467 0
 895 003e 0023     		movs	r3, #0
 896              	@ 467 "../../../os/kernel/src/chevents.c" 1
 897 0040 83F31188 		msr     BASEPRI, r3
 898              	@ 0 "" 2
 899              		.thumb
 900              	.LBE30:
 901              		.loc 1 469 0
ARM GAS  /tmp/ccILw1Vl.s 			page 17


 902 0044 70BD     		pop	{r4, r5, r6, pc}
 903              	.LVL70:
 904              	.L66:
 905              	.LBB31:
 906              		.loc 1 459 0
 907 0046 2346     		mov	r3, r4
 908              	@ 459 "../../../os/kernel/src/chevents.c" 1
 909 0048 83F31188 		msr     BASEPRI, r3
 910              	@ 0 "" 2
 911              		.thumb
 912              	.LBE31:
 913              		.loc 1 460 0
 914 004c 2046     		mov	r0, r4
 915 004e 70BD     		pop	{r4, r5, r6, pc}
 916              	.LVL71:
 917              	.L68:
 918              		.align	2
 919              	.L67:
 920 0050 00000000 		.word	rlist
 921              		.cfi_endproc
 922              	.LFE21:
 923              		.size	chEvtWaitOneTimeout, .-chEvtWaitOneTimeout
 924 0054 AFF30080 		.section	.text.chEvtWaitAnyTimeout,"ax",%progbits
 924      AFF30080 
 924      AFF30080 
 925              		.align	2
 926              		.p2align 4,,15
 927              		.global	chEvtWaitAnyTimeout
 928              		.thumb
 929              		.thumb_func
 930              		.type	chEvtWaitAnyTimeout, %function
 931              	chEvtWaitAnyTimeout:
 932              	.LFB22:
 933              		.loc 1 489 0
 934              		.cfi_startproc
 935              		@ args = 0, pretend = 0, frame = 0
 936              		@ frame_needed = 0, uses_anonymous_args = 0
 937              	.LVL72:
 938              		.loc 1 490 0
 939 0000 134B     		ldr	r3, .L76
 940              		.loc 1 489 0
 941 0002 70B5     		push	{r4, r5, r6, lr}
 942              		.cfi_def_cfa_offset 16
 943              		.cfi_offset 4, -16
 944              		.cfi_offset 5, -12
 945              		.cfi_offset 6, -8
 946              		.cfi_offset 14, -4
 947              		.loc 1 490 0
 948 0004 9E69     		ldr	r6, [r3, #24]
 949              	.LVL73:
 950              	.LBB32:
 951              		.loc 1 493 0
 952 0006 2023     		movs	r3, #32
 953              	@ 493 "../../../os/kernel/src/chevents.c" 1
 954 0008 83F31188 		msr     BASEPRI, r3
 955              	@ 0 "" 2
 956              		.thumb
ARM GAS  /tmp/ccILw1Vl.s 			page 18


 957              	.LBE32:
 958              		.loc 1 495 0
 959 000c B26B     		ldr	r2, [r6, #56]
 960              	.LVL74:
 961 000e 10EA0204 		ands	r4, r0, r2
 962              	.LVL75:
 963 0012 0FD1     		bne	.L70
 964              		.loc 1 496 0
 965 0014 21B9     		cbnz	r1, .L71
 966              	.LBB33:
 967              		.loc 1 497 0
 968 0016 0B46     		mov	r3, r1
 969              	@ 497 "../../../os/kernel/src/chevents.c" 1
 970 0018 83F31188 		msr     BASEPRI, r3
 971              	@ 0 "" 2
 972              		.thumb
 973              	.LBE33:
 974              		.loc 1 498 0
 975 001c 0846     		mov	r0, r1
 976              	.LVL76:
 977 001e 70BD     		pop	{r4, r5, r6, pc}
 978              	.LVL77:
 979              	.L71:
 980              		.loc 1 500 0
 981 0020 7062     		str	r0, [r6, #36]
 982 0022 0546     		mov	r5, r0
 983              		.loc 1 501 0
 984 0024 0820     		movs	r0, #8
 985              	.LVL78:
 986 0026 FFF7FEFF 		bl	chSchGoSleepTimeoutS
 987              	.LVL79:
 988 002a 0028     		cmp	r0, #0
 989 002c 0ADB     		blt	.L75
 990              		.loc 1 505 0
 991 002e B26B     		ldr	r2, [r6, #56]
 992 0030 05EA0204 		and	r4, r5, r2
 993              	.LVL80:
 994              	.L70:
 995              		.loc 1 507 0
 996 0034 22EA0402 		bic	r2, r2, r4
 997 0038 B263     		str	r2, [r6, #56]
 998              	.LBB34:
 999              		.loc 1 509 0
 1000 003a 0023     		movs	r3, #0
 1001              	@ 509 "../../../os/kernel/src/chevents.c" 1
 1002 003c 83F31188 		msr     BASEPRI, r3
 1003              	@ 0 "" 2
 1004              		.thumb
 1005              	.LBE34:
 1006              		.loc 1 510 0
 1007 0040 2046     		mov	r0, r4
 1008              		.loc 1 511 0
 1009 0042 70BD     		pop	{r4, r5, r6, pc}
 1010              	.LVL81:
 1011              	.L75:
 1012              	.LBB35:
 1013              		.loc 1 502 0
ARM GAS  /tmp/ccILw1Vl.s 			page 19


 1014 0044 2346     		mov	r3, r4
 1015              	@ 502 "../../../os/kernel/src/chevents.c" 1
 1016 0046 83F31188 		msr     BASEPRI, r3
 1017              	@ 0 "" 2
 1018              		.thumb
 1019              	.LBE35:
 1020              		.loc 1 503 0
 1021 004a 2046     		mov	r0, r4
 1022 004c 70BD     		pop	{r4, r5, r6, pc}
 1023              	.LVL82:
 1024              	.L77:
 1025 004e 00BF     		.align	2
 1026              	.L76:
 1027 0050 00000000 		.word	rlist
 1028              		.cfi_endproc
 1029              	.LFE22:
 1030              		.size	chEvtWaitAnyTimeout, .-chEvtWaitAnyTimeout
 1031 0054 AFF30080 		.section	.text.chEvtWaitAllTimeout,"ax",%progbits
 1031      AFF30080 
 1031      AFF30080 
 1032              		.align	2
 1033              		.p2align 4,,15
 1034              		.global	chEvtWaitAllTimeout
 1035              		.thumb
 1036              		.thumb_func
 1037              		.type	chEvtWaitAllTimeout, %function
 1038              	chEvtWaitAllTimeout:
 1039              	.LFB23:
 1040              		.loc 1 530 0
 1041              		.cfi_startproc
 1042              		@ args = 0, pretend = 0, frame = 0
 1043              		@ frame_needed = 0, uses_anonymous_args = 0
 1044              	.LVL83:
 1045 0000 38B5     		push	{r3, r4, r5, lr}
 1046              		.cfi_def_cfa_offset 16
 1047              		.cfi_offset 3, -16
 1048              		.cfi_offset 4, -12
 1049              		.cfi_offset 5, -8
 1050              		.cfi_offset 14, -4
 1051              		.loc 1 531 0
 1052 0002 124B     		ldr	r3, .L84
 1053              		.loc 1 530 0
 1054 0004 0446     		mov	r4, r0
 1055              		.loc 1 531 0
 1056 0006 9D69     		ldr	r5, [r3, #24]
 1057              	.LVL84:
 1058              	.LBB36:
 1059              		.loc 1 533 0
 1060 0008 2023     		movs	r3, #32
 1061              	@ 533 "../../../os/kernel/src/chevents.c" 1
 1062 000a 83F31188 		msr     BASEPRI, r3
 1063              	@ 0 "" 2
 1064              		.thumb
 1065              	.LBE36:
 1066              		.loc 1 535 0
 1067 000e AA6B     		ldr	r2, [r5, #56]
 1068 0010 00EA0203 		and	r3, r0, r2
ARM GAS  /tmp/ccILw1Vl.s 			page 20


 1069 0014 8342     		cmp	r3, r0
 1070 0016 0CD0     		beq	.L79
 1071 0018 0846     		mov	r0, r1
 1072              	.LVL85:
 1073              		.loc 1 536 0
 1074 001a 19B9     		cbnz	r1, .L80
 1075              	.LBB37:
 1076              		.loc 1 537 0
 1077 001c 0B46     		mov	r3, r1
 1078              	@ 537 "../../../os/kernel/src/chevents.c" 1
 1079 001e 83F31188 		msr     BASEPRI, r3
 1080              	@ 0 "" 2
 1081              		.thumb
 1082              	.LBE37:
 1083              		.loc 1 538 0
 1084 0022 38BD     		pop	{r3, r4, r5, pc}
 1085              	.LVL86:
 1086              	.L80:
 1087              		.loc 1 540 0
 1088 0024 6C62     		str	r4, [r5, #36]
 1089              		.loc 1 541 0
 1090 0026 0920     		movs	r0, #9
 1091 0028 FFF7FEFF 		bl	chSchGoSleepTimeoutS
 1092              	.LVL87:
 1093 002c 0028     		cmp	r0, #0
 1094 002e 08DB     		blt	.L82
 1095 0030 AA6B     		ldr	r2, [r5, #56]
 1096              	.L79:
 1097              		.loc 1 546 0
 1098 0032 22EA0402 		bic	r2, r2, r4
 1099 0036 AA63     		str	r2, [r5, #56]
 1100              	.LBB38:
 1101              		.loc 1 548 0
 1102 0038 0023     		movs	r3, #0
 1103              	@ 548 "../../../os/kernel/src/chevents.c" 1
 1104 003a 83F31188 		msr     BASEPRI, r3
 1105              	@ 0 "" 2
 1106              		.thumb
 1107              	.LBE38:
 1108              		.loc 1 549 0
 1109 003e 2046     		mov	r0, r4
 1110              		.loc 1 550 0
 1111 0040 38BD     		pop	{r3, r4, r5, pc}
 1112              	.LVL88:
 1113              	.L82:
 1114              	.LBB39:
 1115              		.loc 1 542 0
 1116 0042 0023     		movs	r3, #0
 1117              	@ 542 "../../../os/kernel/src/chevents.c" 1
 1118 0044 83F31188 		msr     BASEPRI, r3
 1119              	@ 0 "" 2
 1120              		.thumb
 1121              	.LBE39:
 1122              		.loc 1 543 0
 1123 0048 1846     		mov	r0, r3
 1124 004a 38BD     		pop	{r3, r4, r5, pc}
 1125              	.LVL89:
ARM GAS  /tmp/ccILw1Vl.s 			page 21


 1126              	.L85:
 1127              		.align	2
 1128              	.L84:
 1129 004c 00000000 		.word	rlist
 1130              		.cfi_endproc
 1131              	.LFE23:
 1132              		.size	chEvtWaitAllTimeout, .-chEvtWaitAllTimeout
 1133              		.text
 1134              	.Letext0:
 1135              		.file 2 "/usr/arm-none-eabi/include/machine/_default_types.h"
 1136              		.file 3 "/usr/arm-none-eabi/include/stdint.h"
 1137              		.file 4 "../../../os/ports/GCC/ARMCMx/chtypes.h"
 1138              		.file 5 "../../../os/kernel/include/chlists.h"
 1139              		.file 6 "../../../os/kernel/include/chthreads.h"
 1140              		.file 7 "../../../os/ports/GCC/ARMCMx/chcore_v7m.h"
 1141              		.file 8 "../../../os/kernel/include/chschd.h"
 1142              		.file 9 "../../../os/kernel/include/chmtx.h"
 1143              		.file 10 "../../../os/kernel/include/chevents.h"
 1144              		.section	.debug_info,"",%progbits
 1145              	.Ldebug_info0:
 1146 0000 910D0000 		.4byte	0xd91
 1147 0004 0400     		.2byte	0x4
 1148 0006 00000000 		.4byte	.Ldebug_abbrev0
 1149 000a 04       		.byte	0x4
 1150 000b 01       		.uleb128 0x1
 1151 000c 49000000 		.4byte	.LASF99
 1152 0010 01       		.byte	0x1
 1153 0011 4F020000 		.4byte	.LASF100
 1154 0015 68040000 		.4byte	.LASF101
 1155 0019 30000000 		.4byte	.Ldebug_ranges0+0x30
 1156 001d 00000000 		.4byte	0
 1157 0021 00000000 		.4byte	.Ldebug_line0
 1158 0025 02       		.uleb128 0x2
 1159 0026 04       		.byte	0x4
 1160 0027 05       		.byte	0x5
 1161 0028 696E7400 		.ascii	"int\000"
 1162 002c 03       		.uleb128 0x3
 1163 002d 04       		.byte	0x4
 1164 002e 07       		.byte	0x7
 1165 002f 19020000 		.4byte	.LASF0
 1166 0033 03       		.uleb128 0x3
 1167 0034 01       		.byte	0x1
 1168 0035 06       		.byte	0x6
 1169 0036 2E010000 		.4byte	.LASF1
 1170 003a 04       		.uleb128 0x4
 1171 003b 0D000000 		.4byte	.LASF5
 1172 003f 02       		.byte	0x2
 1173 0040 1D       		.byte	0x1d
 1174 0041 45000000 		.4byte	0x45
 1175 0045 03       		.uleb128 0x3
 1176 0046 01       		.byte	0x1
 1177 0047 08       		.byte	0x8
 1178 0048 76030000 		.4byte	.LASF2
 1179 004c 03       		.uleb128 0x3
 1180 004d 02       		.byte	0x2
 1181 004e 05       		.byte	0x5
 1182 004f B0030000 		.4byte	.LASF3
ARM GAS  /tmp/ccILw1Vl.s 			page 22


 1183 0053 03       		.uleb128 0x3
 1184 0054 02       		.byte	0x2
 1185 0055 07       		.byte	0x7
 1186 0056 79020000 		.4byte	.LASF4
 1187 005a 04       		.uleb128 0x4
 1188 005b 5E040000 		.4byte	.LASF6
 1189 005f 02       		.byte	0x2
 1190 0060 3F       		.byte	0x3f
 1191 0061 65000000 		.4byte	0x65
 1192 0065 03       		.uleb128 0x3
 1193 0066 04       		.byte	0x4
 1194 0067 05       		.byte	0x5
 1195 0068 68010000 		.4byte	.LASF7
 1196 006c 04       		.uleb128 0x4
 1197 006d CA010000 		.4byte	.LASF8
 1198 0071 02       		.byte	0x2
 1199 0072 41       		.byte	0x41
 1200 0073 77000000 		.4byte	0x77
 1201 0077 03       		.uleb128 0x3
 1202 0078 04       		.byte	0x4
 1203 0079 07       		.byte	0x7
 1204 007a 26020000 		.4byte	.LASF9
 1205 007e 03       		.uleb128 0x3
 1206 007f 08       		.byte	0x8
 1207 0080 05       		.byte	0x5
 1208 0081 20010000 		.4byte	.LASF10
 1209 0085 03       		.uleb128 0x3
 1210 0086 08       		.byte	0x8
 1211 0087 07       		.byte	0x7
 1212 0088 23000000 		.4byte	.LASF11
 1213 008c 04       		.uleb128 0x4
 1214 008d E4040000 		.4byte	.LASF12
 1215 0091 03       		.byte	0x3
 1216 0092 15       		.byte	0x15
 1217 0093 3A000000 		.4byte	0x3a
 1218 0097 04       		.uleb128 0x4
 1219 0098 6E030000 		.4byte	.LASF13
 1220 009c 03       		.byte	0x3
 1221 009d 2C       		.byte	0x2c
 1222 009e 5A000000 		.4byte	0x5a
 1223 00a2 04       		.uleb128 0x4
 1224 00a3 20040000 		.4byte	.LASF14
 1225 00a7 03       		.byte	0x3
 1226 00a8 2D       		.byte	0x2d
 1227 00a9 6C000000 		.4byte	0x6c
 1228 00ad 03       		.uleb128 0x3
 1229 00ae 01       		.byte	0x1
 1230 00af 02       		.byte	0x2
 1231 00b0 68030000 		.4byte	.LASF15
 1232 00b4 04       		.uleb128 0x4
 1233 00b5 C4020000 		.4byte	.LASF16
 1234 00b9 04       		.byte	0x4
 1235 00ba 2C       		.byte	0x2c
 1236 00bb 8C000000 		.4byte	0x8c
 1237 00bf 04       		.uleb128 0x4
 1238 00c0 71010000 		.4byte	.LASF17
 1239 00c4 04       		.byte	0x4
ARM GAS  /tmp/ccILw1Vl.s 			page 23


 1240 00c5 2D       		.byte	0x2d
 1241 00c6 8C000000 		.4byte	0x8c
 1242 00ca 04       		.uleb128 0x4
 1243 00cb 51030000 		.4byte	.LASF18
 1244 00cf 04       		.byte	0x4
 1245 00d0 2E       		.byte	0x2e
 1246 00d1 8C000000 		.4byte	0x8c
 1247 00d5 04       		.uleb128 0x4
 1248 00d6 5E010000 		.4byte	.LASF19
 1249 00da 04       		.byte	0x4
 1250 00db 2F       		.byte	0x2f
 1251 00dc 8C000000 		.4byte	0x8c
 1252 00e0 04       		.uleb128 0x4
 1253 00e1 60030000 		.4byte	.LASF20
 1254 00e5 04       		.byte	0x4
 1255 00e6 30       		.byte	0x30
 1256 00e7 A2000000 		.4byte	0xa2
 1257 00eb 04       		.uleb128 0x4
 1258 00ec 9E020000 		.4byte	.LASF21
 1259 00f0 04       		.byte	0x4
 1260 00f1 31       		.byte	0x31
 1261 00f2 97000000 		.4byte	0x97
 1262 00f6 04       		.uleb128 0x4
 1263 00f7 F7010000 		.4byte	.LASF22
 1264 00fb 04       		.byte	0x4
 1265 00fc 32       		.byte	0x32
 1266 00fd 97000000 		.4byte	0x97
 1267 0101 04       		.uleb128 0x4
 1268 0102 D8020000 		.4byte	.LASF23
 1269 0106 04       		.byte	0x4
 1270 0107 33       		.byte	0x33
 1271 0108 A2000000 		.4byte	0xa2
 1272 010c 04       		.uleb128 0x4
 1273 010d C1040000 		.4byte	.LASF24
 1274 0111 04       		.byte	0x4
 1275 0112 34       		.byte	0x34
 1276 0113 A2000000 		.4byte	0xa2
 1277 0117 04       		.uleb128 0x4
 1278 0118 49040000 		.4byte	.LASF25
 1279 011c 04       		.byte	0x4
 1280 011d 35       		.byte	0x35
 1281 011e A2000000 		.4byte	0xa2
 1282 0122 04       		.uleb128 0x4
 1283 0123 00040000 		.4byte	.LASF26
 1284 0127 05       		.byte	0x5
 1285 0128 2A       		.byte	0x2a
 1286 0129 2D010000 		.4byte	0x12d
 1287 012d 05       		.uleb128 0x5
 1288 012e 00040000 		.4byte	.LASF26
 1289 0132 48       		.byte	0x48
 1290 0133 06       		.byte	0x6
 1291 0134 5E       		.byte	0x5e
 1292 0135 2A020000 		.4byte	0x22a
 1293 0139 06       		.uleb128 0x6
 1294 013a F1030000 		.4byte	.LASF27
 1295 013e 06       		.byte	0x6
 1296 013f 5F       		.byte	0x5f
ARM GAS  /tmp/ccILw1Vl.s 			page 24


 1297 0140 4B020000 		.4byte	0x24b
 1298 0144 00       		.byte	0
 1299 0145 06       		.uleb128 0x6
 1300 0146 59030000 		.4byte	.LASF28
 1301 014a 06       		.byte	0x6
 1302 014b 61       		.byte	0x61
 1303 014c 4B020000 		.4byte	0x24b
 1304 0150 04       		.byte	0x4
 1305 0151 06       		.uleb128 0x6
 1306 0152 19010000 		.4byte	.LASF29
 1307 0156 06       		.byte	0x6
 1308 0157 63       		.byte	0x63
 1309 0158 E0000000 		.4byte	0xe0
 1310 015c 08       		.byte	0x8
 1311 015d 06       		.uleb128 0x6
 1312 015e 48050000 		.4byte	.LASF30
 1313 0162 06       		.byte	0x6
 1314 0163 64       		.byte	0x64
 1315 0164 05030000 		.4byte	0x305
 1316 0168 0C       		.byte	0xc
 1317 0169 06       		.uleb128 0x6
 1318 016a B1010000 		.4byte	.LASF31
 1319 016e 06       		.byte	0x6
 1320 016f 66       		.byte	0x66
 1321 0170 4B020000 		.4byte	0x24b
 1322 0174 10       		.byte	0x10
 1323 0175 06       		.uleb128 0x6
 1324 0176 01030000 		.4byte	.LASF32
 1325 017a 06       		.byte	0x6
 1326 017b 67       		.byte	0x67
 1327 017c 4B020000 		.4byte	0x24b
 1328 0180 14       		.byte	0x14
 1329 0181 06       		.uleb128 0x6
 1330 0182 1B050000 		.4byte	.LASF33
 1331 0186 06       		.byte	0x6
 1332 0187 6E       		.byte	0x6e
 1333 0188 93040000 		.4byte	0x493
 1334 018c 18       		.byte	0x18
 1335 018d 06       		.uleb128 0x6
 1336 018e BA030000 		.4byte	.LASF34
 1337 0192 06       		.byte	0x6
 1338 0193 79       		.byte	0x79
 1339 0194 BF000000 		.4byte	0xbf
 1340 0198 1C       		.byte	0x1c
 1341 0199 06       		.uleb128 0x6
 1342 019a F8030000 		.4byte	.LASF35
 1343 019e 06       		.byte	0x6
 1344 019f 7D       		.byte	0x7d
 1345 01a0 B4000000 		.4byte	0xb4
 1346 01a4 1D       		.byte	0x1d
 1347 01a5 06       		.uleb128 0x6
 1348 01a6 CD040000 		.4byte	.LASF36
 1349 01aa 06       		.byte	0x6
 1350 01ab 82       		.byte	0x82
 1351 01ac CA000000 		.4byte	0xca
 1352 01b0 1E       		.byte	0x1e
 1353 01b1 06       		.uleb128 0x6
ARM GAS  /tmp/ccILw1Vl.s 			page 25


 1354 01b2 C2030000 		.4byte	.LASF37
 1355 01b6 06       		.byte	0x6
 1356 01b7 88       		.byte	0x88
 1357 01b8 D5000000 		.4byte	0xd5
 1358 01bc 1F       		.byte	0x1f
 1359 01bd 06       		.uleb128 0x6
 1360 01be A8040000 		.4byte	.LASF38
 1361 01c2 06       		.byte	0x6
 1362 01c3 8F       		.byte	0x8f
 1363 01c4 2D030000 		.4byte	0x32d
 1364 01c8 20       		.byte	0x20
 1365 01c9 07       		.uleb128 0x7
 1366 01ca 705F7500 		.ascii	"p_u\000"
 1367 01ce 06       		.byte	0x6
 1368 01cf B4       		.byte	0xb4
 1369 01d0 5E040000 		.4byte	0x45e
 1370 01d4 24       		.byte	0x24
 1371 01d5 06       		.uleb128 0x6
 1372 01d6 4E050000 		.4byte	.LASF39
 1373 01da 06       		.byte	0x6
 1374 01db B9       		.byte	0xb9
 1375 01dc 71020000 		.4byte	0x271
 1376 01e0 28       		.byte	0x28
 1377 01e1 06       		.uleb128 0x6
 1378 01e2 B6040000 		.4byte	.LASF40
 1379 01e6 06       		.byte	0x6
 1380 01e7 BF       		.byte	0xbf
 1381 01e8 51020000 		.4byte	0x251
 1382 01ec 2C       		.byte	0x2c
 1383 01ed 06       		.uleb128 0x6
 1384 01ee 00000000 		.4byte	.LASF41
 1385 01f2 06       		.byte	0x6
 1386 01f3 C3       		.byte	0xc3
 1387 01f4 EB000000 		.4byte	0xeb
 1388 01f8 34       		.byte	0x34
 1389 01f9 06       		.uleb128 0x6
 1390 01fa 15040000 		.4byte	.LASF42
 1391 01fe 06       		.byte	0x6
 1392 01ff C9       		.byte	0xc9
 1393 0200 01010000 		.4byte	0x101
 1394 0204 38       		.byte	0x38
 1395 0205 06       		.uleb128 0x6
 1396 0206 A6030000 		.4byte	.LASF43
 1397 020a 06       		.byte	0x6
 1398 020b D0       		.byte	0xd0
 1399 020c A5040000 		.4byte	0x4a5
 1400 0210 3C       		.byte	0x3c
 1401 0211 06       		.uleb128 0x6
 1402 0212 53040000 		.4byte	.LASF44
 1403 0216 06       		.byte	0x6
 1404 0217 D4       		.byte	0xd4
 1405 0218 E0000000 		.4byte	0xe0
 1406 021c 40       		.byte	0x40
 1407 021d 06       		.uleb128 0x6
 1408 021e 4E010000 		.4byte	.LASF45
 1409 0222 06       		.byte	0x6
 1410 0223 DA       		.byte	0xda
ARM GAS  /tmp/ccILw1Vl.s 			page 26


 1411 0224 87020000 		.4byte	0x287
 1412 0228 44       		.byte	0x44
 1413 0229 00       		.byte	0
 1414 022a 08       		.uleb128 0x8
 1415 022b 08       		.byte	0x8
 1416 022c 05       		.byte	0x5
 1417 022d 61       		.byte	0x61
 1418 022e 4B020000 		.4byte	0x24b
 1419 0232 06       		.uleb128 0x6
 1420 0233 F1030000 		.4byte	.LASF27
 1421 0237 05       		.byte	0x5
 1422 0238 62       		.byte	0x62
 1423 0239 4B020000 		.4byte	0x24b
 1424 023d 00       		.byte	0
 1425 023e 06       		.uleb128 0x6
 1426 023f 59030000 		.4byte	.LASF28
 1427 0243 05       		.byte	0x5
 1428 0244 64       		.byte	0x64
 1429 0245 4B020000 		.4byte	0x24b
 1430 0249 04       		.byte	0x4
 1431 024a 00       		.byte	0
 1432 024b 09       		.uleb128 0x9
 1433 024c 04       		.byte	0x4
 1434 024d 22010000 		.4byte	0x122
 1435 0251 04       		.uleb128 0x4
 1436 0252 0F030000 		.4byte	.LASF46
 1437 0256 05       		.byte	0x5
 1438 0257 66       		.byte	0x66
 1439 0258 2A020000 		.4byte	0x22a
 1440 025c 08       		.uleb128 0x8
 1441 025d 04       		.byte	0x4
 1442 025e 05       		.byte	0x5
 1443 025f 6B       		.byte	0x6b
 1444 0260 71020000 		.4byte	0x271
 1445 0264 06       		.uleb128 0x6
 1446 0265 F1030000 		.4byte	.LASF27
 1447 0269 05       		.byte	0x5
 1448 026a 6D       		.byte	0x6d
 1449 026b 4B020000 		.4byte	0x24b
 1450 026f 00       		.byte	0
 1451 0270 00       		.byte	0
 1452 0271 04       		.uleb128 0x4
 1453 0272 CC020000 		.4byte	.LASF47
 1454 0276 05       		.byte	0x5
 1455 0277 70       		.byte	0x70
 1456 0278 5C020000 		.4byte	0x25c
 1457 027c 04       		.uleb128 0x4
 1458 027d DA010000 		.4byte	.LASF48
 1459 0281 07       		.byte	0x7
 1460 0282 E5       		.byte	0xe5
 1461 0283 87020000 		.4byte	0x287
 1462 0287 0A       		.uleb128 0xa
 1463 0288 04       		.byte	0x4
 1464 0289 0B       		.uleb128 0xb
 1465 028a AF040000 		.4byte	.LASF49
 1466 028e 24       		.byte	0x24
 1467 028f 07       		.byte	0x7
ARM GAS  /tmp/ccILw1Vl.s 			page 27


 1468 0290 0C01     		.2byte	0x10c
 1469 0292 05030000 		.4byte	0x305
 1470 0296 0C       		.uleb128 0xc
 1471 0297 723400   		.ascii	"r4\000"
 1472 029a 07       		.byte	0x7
 1473 029b 1F01     		.2byte	0x11f
 1474 029d 7C020000 		.4byte	0x27c
 1475 02a1 00       		.byte	0
 1476 02a2 0C       		.uleb128 0xc
 1477 02a3 723500   		.ascii	"r5\000"
 1478 02a6 07       		.byte	0x7
 1479 02a7 2001     		.2byte	0x120
 1480 02a9 7C020000 		.4byte	0x27c
 1481 02ad 04       		.byte	0x4
 1482 02ae 0C       		.uleb128 0xc
 1483 02af 723600   		.ascii	"r6\000"
 1484 02b2 07       		.byte	0x7
 1485 02b3 2101     		.2byte	0x121
 1486 02b5 7C020000 		.4byte	0x27c
 1487 02b9 08       		.byte	0x8
 1488 02ba 0C       		.uleb128 0xc
 1489 02bb 723700   		.ascii	"r7\000"
 1490 02be 07       		.byte	0x7
 1491 02bf 2201     		.2byte	0x122
 1492 02c1 7C020000 		.4byte	0x27c
 1493 02c5 0C       		.byte	0xc
 1494 02c6 0C       		.uleb128 0xc
 1495 02c7 723800   		.ascii	"r8\000"
 1496 02ca 07       		.byte	0x7
 1497 02cb 2301     		.2byte	0x123
 1498 02cd 7C020000 		.4byte	0x27c
 1499 02d1 10       		.byte	0x10
 1500 02d2 0C       		.uleb128 0xc
 1501 02d3 723900   		.ascii	"r9\000"
 1502 02d6 07       		.byte	0x7
 1503 02d7 2401     		.2byte	0x124
 1504 02d9 7C020000 		.4byte	0x27c
 1505 02dd 14       		.byte	0x14
 1506 02de 0C       		.uleb128 0xc
 1507 02df 72313000 		.ascii	"r10\000"
 1508 02e3 07       		.byte	0x7
 1509 02e4 2501     		.2byte	0x125
 1510 02e6 7C020000 		.4byte	0x27c
 1511 02ea 18       		.byte	0x18
 1512 02eb 0C       		.uleb128 0xc
 1513 02ec 72313100 		.ascii	"r11\000"
 1514 02f0 07       		.byte	0x7
 1515 02f1 2601     		.2byte	0x126
 1516 02f3 7C020000 		.4byte	0x27c
 1517 02f7 1C       		.byte	0x1c
 1518 02f8 0C       		.uleb128 0xc
 1519 02f9 6C7200   		.ascii	"lr\000"
 1520 02fc 07       		.byte	0x7
 1521 02fd 2701     		.2byte	0x127
 1522 02ff 7C020000 		.4byte	0x27c
 1523 0303 20       		.byte	0x20
 1524 0304 00       		.byte	0
ARM GAS  /tmp/ccILw1Vl.s 			page 28


 1525 0305 0B       		.uleb128 0xb
 1526 0306 71020000 		.4byte	.LASF50
 1527 030a 04       		.byte	0x4
 1528 030b 07       		.byte	0x7
 1529 030c 3101     		.2byte	0x131
 1530 030e 20030000 		.4byte	0x320
 1531 0312 0C       		.uleb128 0xc
 1532 0313 72313300 		.ascii	"r13\000"
 1533 0317 07       		.byte	0x7
 1534 0318 3201     		.2byte	0x132
 1535 031a 20030000 		.4byte	0x320
 1536 031e 00       		.byte	0
 1537 031f 00       		.byte	0
 1538 0320 09       		.uleb128 0x9
 1539 0321 04       		.byte	0x4
 1540 0322 89020000 		.4byte	0x289
 1541 0326 03       		.uleb128 0x3
 1542 0327 04       		.byte	0x4
 1543 0328 07       		.byte	0x7
 1544 0329 EA020000 		.4byte	.LASF51
 1545 032d 0D       		.uleb128 0xd
 1546 032e 17010000 		.4byte	0x117
 1547 0332 08       		.uleb128 0x8
 1548 0333 1C       		.byte	0x1c
 1549 0334 08       		.byte	0x8
 1550 0335 5E       		.byte	0x5e
 1551 0336 83030000 		.4byte	0x383
 1552 033a 06       		.uleb128 0x6
 1553 033b 29040000 		.4byte	.LASF52
 1554 033f 08       		.byte	0x8
 1555 0340 5F       		.byte	0x5f
 1556 0341 51020000 		.4byte	0x251
 1557 0345 00       		.byte	0
 1558 0346 06       		.uleb128 0x6
 1559 0347 CC030000 		.4byte	.LASF53
 1560 034b 08       		.byte	0x8
 1561 034c 60       		.byte	0x60
 1562 034d E0000000 		.4byte	0xe0
 1563 0351 08       		.byte	0x8
 1564 0352 06       		.uleb128 0x6
 1565 0353 09030000 		.4byte	.LASF54
 1566 0357 08       		.byte	0x8
 1567 0358 62       		.byte	0x62
 1568 0359 05030000 		.4byte	0x305
 1569 035d 0C       		.byte	0xc
 1570 035e 06       		.uleb128 0x6
 1571 035f A4020000 		.4byte	.LASF55
 1572 0363 08       		.byte	0x8
 1573 0364 65       		.byte	0x65
 1574 0365 4B020000 		.4byte	0x24b
 1575 0369 10       		.byte	0x10
 1576 036a 06       		.uleb128 0x6
 1577 036b 38030000 		.4byte	.LASF56
 1578 036f 08       		.byte	0x8
 1579 0370 66       		.byte	0x66
 1580 0371 4B020000 		.4byte	0x24b
 1581 0375 14       		.byte	0x14
ARM GAS  /tmp/ccILw1Vl.s 			page 29


 1582 0376 06       		.uleb128 0x6
 1583 0377 2E030000 		.4byte	.LASF57
 1584 037b 08       		.byte	0x8
 1585 037c 69       		.byte	0x69
 1586 037d 4B020000 		.4byte	0x24b
 1587 0381 18       		.byte	0x18
 1588 0382 00       		.byte	0
 1589 0383 04       		.uleb128 0x4
 1590 0384 D4040000 		.4byte	.LASF58
 1591 0388 08       		.byte	0x8
 1592 0389 6B       		.byte	0x6b
 1593 038a 32030000 		.4byte	0x332
 1594 038e 05       		.uleb128 0x5
 1595 038f E4020000 		.4byte	.LASF59
 1596 0393 10       		.byte	0x10
 1597 0394 09       		.byte	0x9
 1598 0395 2C       		.byte	0x2c
 1599 0396 BF030000 		.4byte	0x3bf
 1600 039a 06       		.uleb128 0x6
 1601 039b 56010000 		.4byte	.LASF60
 1602 039f 09       		.byte	0x9
 1603 03a0 2D       		.byte	0x2d
 1604 03a1 51020000 		.4byte	0x251
 1605 03a5 00       		.byte	0
 1606 03a6 06       		.uleb128 0x6
 1607 03a7 40050000 		.4byte	.LASF61
 1608 03ab 09       		.byte	0x9
 1609 03ac 2F       		.byte	0x2f
 1610 03ad 4B020000 		.4byte	0x24b
 1611 03b1 08       		.byte	0x8
 1612 03b2 06       		.uleb128 0x6
 1613 03b3 42040000 		.4byte	.LASF62
 1614 03b7 09       		.byte	0x9
 1615 03b8 31       		.byte	0x31
 1616 03b9 BF030000 		.4byte	0x3bf
 1617 03bd 0C       		.byte	0xc
 1618 03be 00       		.byte	0
 1619 03bf 09       		.uleb128 0x9
 1620 03c0 04       		.byte	0x4
 1621 03c1 8E030000 		.4byte	0x38e
 1622 03c5 04       		.uleb128 0x4
 1623 03c6 E4020000 		.4byte	.LASF59
 1624 03ca 09       		.byte	0x9
 1625 03cb 33       		.byte	0x33
 1626 03cc 8E030000 		.4byte	0x38e
 1627 03d0 04       		.uleb128 0x4
 1628 03d1 F2040000 		.4byte	.LASF63
 1629 03d5 0A       		.byte	0xa
 1630 03d6 2C       		.byte	0x2c
 1631 03d7 DB030000 		.4byte	0x3db
 1632 03db 05       		.uleb128 0x5
 1633 03dc F2040000 		.4byte	.LASF63
 1634 03e0 10       		.byte	0x10
 1635 03e1 0A       		.byte	0xa
 1636 03e2 31       		.byte	0x31
 1637 03e3 18040000 		.4byte	0x418
 1638 03e7 06       		.uleb128 0x6
ARM GAS  /tmp/ccILw1Vl.s 			page 30


 1639 03e8 AC020000 		.4byte	.LASF64
 1640 03ec 0A       		.byte	0xa
 1641 03ed 32       		.byte	0x32
 1642 03ee 18040000 		.4byte	0x418
 1643 03f2 00       		.byte	0
 1644 03f3 06       		.uleb128 0x6
 1645 03f4 91030000 		.4byte	.LASF65
 1646 03f8 0A       		.byte	0xa
 1647 03f9 35       		.byte	0x35
 1648 03fa 4B020000 		.4byte	0x24b
 1649 03fe 04       		.byte	0x4
 1650 03ff 06       		.uleb128 0x6
 1651 0400 40030000 		.4byte	.LASF66
 1652 0404 0A       		.byte	0xa
 1653 0405 37       		.byte	0x37
 1654 0406 01010000 		.4byte	0x101
 1655 040a 08       		.byte	0x8
 1656 040b 06       		.uleb128 0x6
 1657 040c 9D030000 		.4byte	.LASF67
 1658 0410 0A       		.byte	0xa
 1659 0411 3A       		.byte	0x3a
 1660 0412 0C010000 		.4byte	0x10c
 1661 0416 0C       		.byte	0xc
 1662 0417 00       		.byte	0
 1663 0418 09       		.uleb128 0x9
 1664 0419 04       		.byte	0x4
 1665 041a D0030000 		.4byte	0x3d0
 1666 041e 05       		.uleb128 0x5
 1667 041f 01020000 		.4byte	.LASF68
 1668 0423 04       		.byte	0x4
 1669 0424 0A       		.byte	0xa
 1670 0425 41       		.byte	0x41
 1671 0426 37040000 		.4byte	0x437
 1672 042a 06       		.uleb128 0x6
 1673 042b 22050000 		.4byte	.LASF69
 1674 042f 0A       		.byte	0xa
 1675 0430 42       		.byte	0x42
 1676 0431 18040000 		.4byte	0x418
 1677 0435 00       		.byte	0
 1678 0436 00       		.byte	0
 1679 0437 04       		.uleb128 0x4
 1680 0438 01020000 		.4byte	.LASF68
 1681 043c 0A       		.byte	0xa
 1682 043d 45       		.byte	0x45
 1683 043e 1E040000 		.4byte	0x41e
 1684 0442 04       		.uleb128 0x4
 1685 0443 0D020000 		.4byte	.LASF70
 1686 0447 0A       		.byte	0xa
 1687 0448 4A       		.byte	0x4a
 1688 0449 4D040000 		.4byte	0x44d
 1689 044d 09       		.uleb128 0x9
 1690 044e 04       		.byte	0x4
 1691 044f 53040000 		.4byte	0x453
 1692 0453 0E       		.uleb128 0xe
 1693 0454 5E040000 		.4byte	0x45e
 1694 0458 0F       		.uleb128 0xf
 1695 0459 F6000000 		.4byte	0xf6
ARM GAS  /tmp/ccILw1Vl.s 			page 31


 1696 045d 00       		.byte	0
 1697 045e 10       		.uleb128 0x10
 1698 045f 04       		.byte	0x4
 1699 0460 06       		.byte	0x6
 1700 0461 96       		.byte	0x96
 1701 0462 93040000 		.4byte	0x493
 1702 0466 11       		.uleb128 0x11
 1703 0467 06000000 		.4byte	.LASF71
 1704 046b 06       		.byte	0x6
 1705 046c 9D       		.byte	0x9d
 1706 046d EB000000 		.4byte	0xeb
 1707 0471 11       		.uleb128 0x11
 1708 0472 FC000000 		.4byte	.LASF72
 1709 0476 06       		.byte	0x6
 1710 0477 A4       		.byte	0xa4
 1711 0478 EB000000 		.4byte	0xeb
 1712 047c 11       		.uleb128 0x11
 1713 047d 14050000 		.4byte	.LASF73
 1714 0481 06       		.byte	0x6
 1715 0482 AB       		.byte	0xab
 1716 0483 87020000 		.4byte	0x287
 1717 0487 11       		.uleb128 0x11
 1718 0488 EA030000 		.4byte	.LASF74
 1719 048c 06       		.byte	0x6
 1720 048d B2       		.byte	0xb2
 1721 048e 01010000 		.4byte	0x101
 1722 0492 00       		.byte	0
 1723 0493 09       		.uleb128 0x9
 1724 0494 04       		.byte	0x4
 1725 0495 99040000 		.4byte	0x499
 1726 0499 12       		.uleb128 0x12
 1727 049a 9E040000 		.4byte	0x49e
 1728 049e 03       		.uleb128 0x3
 1729 049f 01       		.byte	0x1
 1730 04a0 08       		.byte	0x8
 1731 04a1 3D040000 		.4byte	.LASF75
 1732 04a5 09       		.uleb128 0x9
 1733 04a6 04       		.byte	0x4
 1734 04a7 C5030000 		.4byte	0x3c5
 1735 04ab 13       		.uleb128 0x13
 1736 04ac 58050000 		.4byte	.LASF96
 1737 04b0 01       		.byte	0x1
 1738 04b1 FB       		.byte	0xfb
 1739 04b2 01       		.byte	0x1
 1740 04b3 CD040000 		.4byte	0x4cd
 1741 04b7 14       		.uleb128 0x14
 1742 04b8 747000   		.ascii	"tp\000"
 1743 04bb 01       		.byte	0x1
 1744 04bc FB       		.byte	0xfb
 1745 04bd 4B020000 		.4byte	0x24b
 1746 04c1 15       		.uleb128 0x15
 1747 04c2 D5010000 		.4byte	.LASF76
 1748 04c6 01       		.byte	0x1
 1749 04c7 FB       		.byte	0xfb
 1750 04c8 01010000 		.4byte	0x101
 1751 04cc 00       		.byte	0
 1752 04cd 16       		.uleb128 0x16
ARM GAS  /tmp/ccILw1Vl.s 			page 32


 1753 04ce 8C020000 		.4byte	.LASF77
 1754 04d2 01       		.byte	0x1
 1755 04d3 55       		.byte	0x55
 1756 04d4 00000000 		.4byte	.LFB7
 1757 04d8 28000000 		.4byte	.LFE7-.LFB7
 1758 04dc 01       		.uleb128 0x1
 1759 04dd 9C       		.byte	0x9c
 1760 04de 38050000 		.4byte	0x538
 1761 04e2 17       		.uleb128 0x17
 1762 04e3 65737000 		.ascii	"esp\000"
 1763 04e7 01       		.byte	0x1
 1764 04e8 55       		.byte	0x55
 1765 04e9 38050000 		.4byte	0x538
 1766 04ed 01       		.uleb128 0x1
 1767 04ee 50       		.byte	0x50
 1768 04ef 17       		.uleb128 0x17
 1769 04f0 656C7000 		.ascii	"elp\000"
 1770 04f4 01       		.byte	0x1
 1771 04f5 55       		.byte	0x55
 1772 04f6 18040000 		.4byte	0x418
 1773 04fa 01       		.uleb128 0x1
 1774 04fb 51       		.byte	0x51
 1775 04fc 18       		.uleb128 0x18
 1776 04fd D5010000 		.4byte	.LASF76
 1777 0501 01       		.byte	0x1
 1778 0502 55       		.byte	0x55
 1779 0503 01010000 		.4byte	0x101
 1780 0507 01       		.uleb128 0x1
 1781 0508 52       		.byte	0x52
 1782 0509 19       		.uleb128 0x19
 1783 050a 02000000 		.4byte	.LBB2
 1784 050e 06000000 		.4byte	.LBE2-.LBB2
 1785 0512 24050000 		.4byte	0x524
 1786 0516 1A       		.uleb128 0x1a
 1787 0517 746D7000 		.ascii	"tmp\000"
 1788 051b 01       		.byte	0x1
 1789 051c 59       		.byte	0x59
 1790 051d A2000000 		.4byte	0xa2
 1791 0521 01       		.uleb128 0x1
 1792 0522 53       		.byte	0x53
 1793 0523 00       		.byte	0
 1794 0524 1B       		.uleb128 0x1b
 1795 0525 00000000 		.4byte	.Ldebug_ranges0+0
 1796 0529 1A       		.uleb128 0x1a
 1797 052a 746D7000 		.ascii	"tmp\000"
 1798 052e 01       		.byte	0x1
 1799 052f 5F       		.byte	0x5f
 1800 0530 A2000000 		.4byte	0xa2
 1801 0534 01       		.uleb128 0x1
 1802 0535 53       		.byte	0x53
 1803 0536 00       		.byte	0
 1804 0537 00       		.byte	0
 1805 0538 09       		.uleb128 0x9
 1806 0539 04       		.byte	0x4
 1807 053a 37040000 		.4byte	0x437
 1808 053e 16       		.uleb128 0x16
 1809 053f B4020000 		.4byte	.LASF78
ARM GAS  /tmp/ccILw1Vl.s 			page 33


 1810 0543 01       		.byte	0x1
 1811 0544 6F       		.byte	0x6f
 1812 0545 00000000 		.4byte	.LFB8
 1813 0549 2A000000 		.4byte	.LFE8-.LFB8
 1814 054d 01       		.uleb128 0x1
 1815 054e 9C       		.byte	0x9c
 1816 054f A9050000 		.4byte	0x5a9
 1817 0553 17       		.uleb128 0x17
 1818 0554 65737000 		.ascii	"esp\000"
 1819 0558 01       		.byte	0x1
 1820 0559 6F       		.byte	0x6f
 1821 055a 38050000 		.4byte	0x538
 1822 055e 01       		.uleb128 0x1
 1823 055f 50       		.byte	0x50
 1824 0560 17       		.uleb128 0x17
 1825 0561 656C7000 		.ascii	"elp\000"
 1826 0565 01       		.byte	0x1
 1827 0566 6F       		.byte	0x6f
 1828 0567 18040000 		.4byte	0x418
 1829 056b 01       		.uleb128 0x1
 1830 056c 51       		.byte	0x51
 1831 056d 1C       		.uleb128 0x1c
 1832 056e 7000     		.ascii	"p\000"
 1833 0570 01       		.byte	0x1
 1834 0571 70       		.byte	0x70
 1835 0572 18040000 		.4byte	0x418
 1836 0576 00000000 		.4byte	.LLST0
 1837 057a 19       		.uleb128 0x19
 1838 057b 00000000 		.4byte	.LBB5
 1839 057f 06000000 		.4byte	.LBE5-.LBB5
 1840 0583 95050000 		.4byte	0x595
 1841 0587 1A       		.uleb128 0x1a
 1842 0588 746D7000 		.ascii	"tmp\000"
 1843 058c 01       		.byte	0x1
 1844 058d 75       		.byte	0x75
 1845 058e A2000000 		.4byte	0xa2
 1846 0592 01       		.uleb128 0x1
 1847 0593 53       		.byte	0x53
 1848 0594 00       		.byte	0
 1849 0595 1B       		.uleb128 0x1b
 1850 0596 18000000 		.4byte	.Ldebug_ranges0+0x18
 1851 059a 1A       		.uleb128 0x1a
 1852 059b 746D7000 		.ascii	"tmp\000"
 1853 059f 01       		.byte	0x1
 1854 05a0 7D       		.byte	0x7d
 1855 05a1 A2000000 		.4byte	0xa2
 1856 05a5 01       		.uleb128 0x1
 1857 05a6 53       		.byte	0x53
 1858 05a7 00       		.byte	0
 1859 05a8 00       		.byte	0
 1860 05a9 1D       		.uleb128 0x1d
 1861 05aa 38020000 		.4byte	.LASF79
 1862 05ae 01       		.byte	0x1
 1863 05af 88       		.byte	0x88
 1864 05b0 01010000 		.4byte	0x101
 1865 05b4 00000000 		.4byte	.LFB9
 1866 05b8 20000000 		.4byte	.LFE9-.LFB9
ARM GAS  /tmp/ccILw1Vl.s 			page 34


 1867 05bc 01       		.uleb128 0x1
 1868 05bd 9C       		.byte	0x9c
 1869 05be 11060000 		.4byte	0x611
 1870 05c2 1E       		.uleb128 0x1e
 1871 05c3 D5010000 		.4byte	.LASF76
 1872 05c7 01       		.byte	0x1
 1873 05c8 88       		.byte	0x88
 1874 05c9 01010000 		.4byte	0x101
 1875 05cd 1E000000 		.4byte	.LLST1
 1876 05d1 1C       		.uleb128 0x1c
 1877 05d2 6D00     		.ascii	"m\000"
 1878 05d4 01       		.byte	0x1
 1879 05d5 89       		.byte	0x89
 1880 05d6 01010000 		.4byte	0x101
 1881 05da 3F000000 		.4byte	.LLST2
 1882 05de 19       		.uleb128 0x19
 1883 05df 00000000 		.4byte	.LBB8
 1884 05e3 06000000 		.4byte	.LBE8-.LBB8
 1885 05e7 F9050000 		.4byte	0x5f9
 1886 05eb 1A       		.uleb128 0x1a
 1887 05ec 746D7000 		.ascii	"tmp\000"
 1888 05f0 01       		.byte	0x1
 1889 05f1 8B       		.byte	0x8b
 1890 05f2 A2000000 		.4byte	0xa2
 1891 05f6 01       		.uleb128 0x1
 1892 05f7 53       		.byte	0x53
 1893 05f8 00       		.byte	0
 1894 05f9 1F       		.uleb128 0x1f
 1895 05fa 12000000 		.4byte	.LBB9
 1896 05fe 06000000 		.4byte	.LBE9-.LBB9
 1897 0602 1A       		.uleb128 0x1a
 1898 0603 746D7000 		.ascii	"tmp\000"
 1899 0607 01       		.byte	0x1
 1900 0608 90       		.byte	0x90
 1901 0609 A2000000 		.4byte	0xa2
 1902 060d 01       		.uleb128 0x1
 1903 060e 53       		.byte	0x53
 1904 060f 00       		.byte	0
 1905 0610 00       		.byte	0
 1906 0611 1D       		.uleb128 0x1d
 1907 0612 3A000000 		.4byte	.LASF80
 1908 0616 01       		.byte	0x1
 1909 0617 9D       		.byte	0x9d
 1910 0618 01010000 		.4byte	0x101
 1911 061c 00000000 		.4byte	.LFB10
 1912 0620 1C000000 		.4byte	.LFE10-.LFB10
 1913 0624 01       		.uleb128 0x1
 1914 0625 9C       		.byte	0x9c
 1915 0626 6C060000 		.4byte	0x66c
 1916 062a 1E       		.uleb128 0x1e
 1917 062b D5010000 		.4byte	.LASF76
 1918 062f 01       		.byte	0x1
 1919 0630 9D       		.byte	0x9d
 1920 0631 01010000 		.4byte	0x101
 1921 0635 62000000 		.4byte	.LLST3
 1922 0639 19       		.uleb128 0x19
 1923 063a 00000000 		.4byte	.LBB10
ARM GAS  /tmp/ccILw1Vl.s 			page 35


 1924 063e 06000000 		.4byte	.LBE10-.LBB10
 1925 0642 54060000 		.4byte	0x654
 1926 0646 1A       		.uleb128 0x1a
 1927 0647 746D7000 		.ascii	"tmp\000"
 1928 064b 01       		.byte	0x1
 1929 064c 9F       		.byte	0x9f
 1930 064d A2000000 		.4byte	0xa2
 1931 0651 01       		.uleb128 0x1
 1932 0652 53       		.byte	0x53
 1933 0653 00       		.byte	0
 1934 0654 1F       		.uleb128 0x1f
 1935 0655 10000000 		.4byte	.LBB11
 1936 0659 06000000 		.4byte	.LBE11-.LBB11
 1937 065d 1A       		.uleb128 0x1a
 1938 065e 746D7000 		.ascii	"tmp\000"
 1939 0662 01       		.byte	0x1
 1940 0663 A3       		.byte	0xa3
 1941 0664 A2000000 		.4byte	0xa2
 1942 0668 01       		.uleb128 0x1
 1943 0669 53       		.byte	0x53
 1944 066a 00       		.byte	0
 1945 066b 00       		.byte	0
 1946 066c 1D       		.uleb128 0x1d
 1947 066d 2A050000 		.4byte	.LASF81
 1948 0671 01       		.byte	0x1
 1949 0672 D1       		.byte	0xd1
 1950 0673 0C010000 		.4byte	0x10c
 1951 0677 00000000 		.4byte	.LFB12
 1952 067b 14000000 		.4byte	.LFE12-.LFB12
 1953 067f 01       		.uleb128 0x1
 1954 0680 9C       		.byte	0x9c
 1955 0681 D4060000 		.4byte	0x6d4
 1956 0685 20       		.uleb128 0x20
 1957 0686 656C7000 		.ascii	"elp\000"
 1958 068a 01       		.byte	0x1
 1959 068b D1       		.byte	0xd1
 1960 068c 18040000 		.4byte	0x418
 1961 0690 8E000000 		.4byte	.LLST4
 1962 0694 21       		.uleb128 0x21
 1963 0695 EC040000 		.4byte	.LASF82
 1964 0699 01       		.byte	0x1
 1965 069a D2       		.byte	0xd2
 1966 069b 0C010000 		.4byte	0x10c
 1967 069f 01       		.uleb128 0x1
 1968 06a0 50       		.byte	0x50
 1969 06a1 19       		.uleb128 0x19
 1970 06a2 02000000 		.4byte	.LBB12
 1971 06a6 06000000 		.4byte	.LBE12-.LBB12
 1972 06aa BC060000 		.4byte	0x6bc
 1973 06ae 1A       		.uleb128 0x1a
 1974 06af 746D7000 		.ascii	"tmp\000"
 1975 06b3 01       		.byte	0x1
 1976 06b4 D4       		.byte	0xd4
 1977 06b5 A2000000 		.4byte	0xa2
 1978 06b9 01       		.uleb128 0x1
 1979 06ba 53       		.byte	0x53
 1980 06bb 00       		.byte	0
ARM GAS  /tmp/ccILw1Vl.s 			page 36


 1981 06bc 1F       		.uleb128 0x1f
 1982 06bd 0E000000 		.4byte	.LBB13
 1983 06c1 04000000 		.4byte	.LBE13-.LBB13
 1984 06c5 1A       		.uleb128 0x1a
 1985 06c6 746D7000 		.ascii	"tmp\000"
 1986 06ca 01       		.byte	0x1
 1987 06cb D9       		.byte	0xd9
 1988 06cc A2000000 		.4byte	0xa2
 1989 06d0 01       		.uleb128 0x1
 1990 06d1 53       		.byte	0x53
 1991 06d2 00       		.byte	0
 1992 06d3 00       		.byte	0
 1993 06d4 22       		.uleb128 0x22
 1994 06d5 AB040000 		.4byte	0x4ab
 1995 06d9 00000000 		.4byte	.LFB14
 1996 06dd 2E000000 		.4byte	.LFE14-.LFB14
 1997 06e1 01       		.uleb128 0x1
 1998 06e2 9C       		.byte	0x9c
 1999 06e3 27070000 		.4byte	0x727
 2000 06e7 23       		.uleb128 0x23
 2001 06e8 B7040000 		.4byte	0x4b7
 2002 06ec AC000000 		.4byte	.LLST5
 2003 06f0 23       		.uleb128 0x23
 2004 06f1 C1040000 		.4byte	0x4c1
 2005 06f5 D8000000 		.4byte	.LLST6
 2006 06f9 1F       		.uleb128 0x1f
 2007 06fa 1C000000 		.4byte	.LBB16
 2008 06fe 0A000000 		.4byte	.LBE16-.LBB16
 2009 0702 23       		.uleb128 0x23
 2010 0703 C1040000 		.4byte	0x4c1
 2011 0707 F9000000 		.4byte	.LLST7
 2012 070b 23       		.uleb128 0x23
 2013 070c B7040000 		.4byte	0x4b7
 2014 0710 0F010000 		.4byte	.LLST8
 2015 0714 24       		.uleb128 0x24
 2016 0715 20000000 		.4byte	.LVL15
 2017 0719 510D0000 		.4byte	0xd51
 2018 071d 25       		.uleb128 0x25
 2019 071e 01       		.uleb128 0x1
 2020 071f 50       		.byte	0x50
 2021 0720 03       		.uleb128 0x3
 2022 0721 F3       		.byte	0xf3
 2023 0722 01       		.uleb128 0x1
 2024 0723 50       		.byte	0x50
 2025 0724 00       		.byte	0
 2026 0725 00       		.byte	0
 2027 0726 00       		.byte	0
 2028 0727 16       		.uleb128 0x16
 2029 0728 9C010000 		.4byte	.LASF83
 2030 072c 01       		.byte	0x1
 2031 072d B8       		.byte	0xb8
 2032 072e 00000000 		.4byte	.LFB11
 2033 0732 20000000 		.4byte	.LFE11-.LFB11
 2034 0736 01       		.uleb128 0x1
 2035 0737 9C       		.byte	0x9c
 2036 0738 71070000 		.4byte	0x771
 2037 073c 20       		.uleb128 0x20
ARM GAS  /tmp/ccILw1Vl.s 			page 37


 2038 073d 65737000 		.ascii	"esp\000"
 2039 0741 01       		.byte	0x1
 2040 0742 B8       		.byte	0xb8
 2041 0743 38050000 		.4byte	0x538
 2042 0747 30010000 		.4byte	.LLST9
 2043 074b 1E       		.uleb128 0x1e
 2044 074c EC040000 		.4byte	.LASF82
 2045 0750 01       		.byte	0x1
 2046 0751 B8       		.byte	0xb8
 2047 0752 0C010000 		.4byte	0x10c
 2048 0756 4E010000 		.4byte	.LLST10
 2049 075a 1A       		.uleb128 0x1a
 2050 075b 656C7000 		.ascii	"elp\000"
 2051 075f 01       		.byte	0x1
 2052 0760 B9       		.byte	0xb9
 2053 0761 18040000 		.4byte	0x418
 2054 0765 01       		.uleb128 0x1
 2055 0766 54       		.byte	0x54
 2056 0767 26       		.uleb128 0x26
 2057 0768 18000000 		.4byte	.LVL20
 2058 076c AB040000 		.4byte	0x4ab
 2059 0770 00       		.byte	0
 2060 0771 16       		.uleb128 0x16
 2061 0772 17000000 		.4byte	.LASF84
 2062 0776 01       		.byte	0x1
 2063 0777 E5       		.byte	0xe5
 2064 0778 00000000 		.4byte	.LFB13
 2065 077c 18000000 		.4byte	.LFE13-.LFB13
 2066 0780 01       		.uleb128 0x1
 2067 0781 9C       		.byte	0x9c
 2068 0782 FF070000 		.4byte	0x7ff
 2069 0786 20       		.uleb128 0x20
 2070 0787 747000   		.ascii	"tp\000"
 2071 078a 01       		.byte	0x1
 2072 078b E5       		.byte	0xe5
 2073 078c 4B020000 		.4byte	0x24b
 2074 0790 6C010000 		.4byte	.LLST11
 2075 0794 1E       		.uleb128 0x1e
 2076 0795 D5010000 		.4byte	.LASF76
 2077 0799 01       		.byte	0x1
 2078 079a E5       		.byte	0xe5
 2079 079b 01010000 		.4byte	0x101
 2080 079f 8D010000 		.4byte	.LLST12
 2081 07a3 19       		.uleb128 0x19
 2082 07a4 02000000 		.4byte	.LBB18
 2083 07a8 06000000 		.4byte	.LBE18-.LBB18
 2084 07ac BE070000 		.4byte	0x7be
 2085 07b0 1A       		.uleb128 0x1a
 2086 07b1 746D7000 		.ascii	"tmp\000"
 2087 07b5 01       		.byte	0x1
 2088 07b6 E9       		.byte	0xe9
 2089 07b7 A2000000 		.4byte	0xa2
 2090 07bb 01       		.uleb128 0x1
 2091 07bc 53       		.byte	0x53
 2092 07bd 00       		.byte	0
 2093 07be 19       		.uleb128 0x19
 2094 07bf 10000000 		.4byte	.LBB19
ARM GAS  /tmp/ccILw1Vl.s 			page 38


 2095 07c3 08000000 		.4byte	.LBE19-.LBB19
 2096 07c7 D9070000 		.4byte	0x7d9
 2097 07cb 1A       		.uleb128 0x1a
 2098 07cc 746D7000 		.ascii	"tmp\000"
 2099 07d0 01       		.byte	0x1
 2100 07d1 EC       		.byte	0xec
 2101 07d2 A2000000 		.4byte	0xa2
 2102 07d6 01       		.uleb128 0x1
 2103 07d7 53       		.byte	0x53
 2104 07d8 00       		.byte	0
 2105 07d9 27       		.uleb128 0x27
 2106 07da 0C000000 		.4byte	.LVL23
 2107 07de AB040000 		.4byte	0x4ab
 2108 07e2 F5070000 		.4byte	0x7f5
 2109 07e6 25       		.uleb128 0x25
 2110 07e7 01       		.uleb128 0x1
 2111 07e8 51       		.byte	0x51
 2112 07e9 03       		.uleb128 0x3
 2113 07ea F3       		.byte	0xf3
 2114 07eb 01       		.uleb128 0x1
 2115 07ec 51       		.byte	0x51
 2116 07ed 25       		.uleb128 0x25
 2117 07ee 01       		.uleb128 0x1
 2118 07ef 50       		.byte	0x50
 2119 07f0 03       		.uleb128 0x3
 2120 07f1 F3       		.byte	0xf3
 2121 07f2 01       		.uleb128 0x1
 2122 07f3 50       		.byte	0x50
 2123 07f4 00       		.byte	0
 2124 07f5 26       		.uleb128 0x26
 2125 07f6 10000000 		.4byte	.LVL24
 2126 07fa 660D0000 		.4byte	0xd66
 2127 07fe 00       		.byte	0
 2128 07ff 28       		.uleb128 0x28
 2129 0800 E3010000 		.4byte	.LASF85
 2130 0804 01       		.byte	0x1
 2131 0805 1601     		.2byte	0x116
 2132 0807 00000000 		.4byte	.LFB15
 2133 080b 18000000 		.4byte	.LFE15-.LFB15
 2134 080f 01       		.uleb128 0x1
 2135 0810 9C       		.byte	0x9c
 2136 0811 93080000 		.4byte	0x893
 2137 0815 29       		.uleb128 0x29
 2138 0816 65737000 		.ascii	"esp\000"
 2139 081a 01       		.byte	0x1
 2140 081b 1601     		.2byte	0x116
 2141 081d 38050000 		.4byte	0x538
 2142 0821 AE010000 		.4byte	.LLST13
 2143 0825 2A       		.uleb128 0x2a
 2144 0826 EC040000 		.4byte	.LASF82
 2145 082a 01       		.byte	0x1
 2146 082b 1601     		.2byte	0x116
 2147 082d 0C010000 		.4byte	0x10c
 2148 0831 CF010000 		.4byte	.LLST14
 2149 0835 19       		.uleb128 0x19
 2150 0836 02000000 		.4byte	.LBB20
 2151 083a 06000000 		.4byte	.LBE20-.LBB20
ARM GAS  /tmp/ccILw1Vl.s 			page 39


 2152 083e 51080000 		.4byte	0x851
 2153 0842 2B       		.uleb128 0x2b
 2154 0843 746D7000 		.ascii	"tmp\000"
 2155 0847 01       		.byte	0x1
 2156 0848 1801     		.2byte	0x118
 2157 084a A2000000 		.4byte	0xa2
 2158 084e 01       		.uleb128 0x1
 2159 084f 53       		.byte	0x53
 2160 0850 00       		.byte	0
 2161 0851 19       		.uleb128 0x19
 2162 0852 10000000 		.4byte	.LBB21
 2163 0856 08000000 		.4byte	.LBE21-.LBB21
 2164 085a 6D080000 		.4byte	0x86d
 2165 085e 2B       		.uleb128 0x2b
 2166 085f 746D7000 		.ascii	"tmp\000"
 2167 0863 01       		.byte	0x1
 2168 0864 1B01     		.2byte	0x11b
 2169 0866 A2000000 		.4byte	0xa2
 2170 086a 01       		.uleb128 0x1
 2171 086b 53       		.byte	0x53
 2172 086c 00       		.byte	0
 2173 086d 27       		.uleb128 0x27
 2174 086e 0C000000 		.4byte	.LVL26
 2175 0872 27070000 		.4byte	0x727
 2176 0876 89080000 		.4byte	0x889
 2177 087a 25       		.uleb128 0x25
 2178 087b 01       		.uleb128 0x1
 2179 087c 51       		.byte	0x51
 2180 087d 03       		.uleb128 0x3
 2181 087e F3       		.byte	0xf3
 2182 087f 01       		.uleb128 0x1
 2183 0880 51       		.byte	0x51
 2184 0881 25       		.uleb128 0x25
 2185 0882 01       		.uleb128 0x1
 2186 0883 50       		.byte	0x50
 2187 0884 03       		.uleb128 0x3
 2188 0885 F3       		.byte	0xf3
 2189 0886 01       		.uleb128 0x1
 2190 0887 50       		.byte	0x50
 2191 0888 00       		.byte	0
 2192 0889 26       		.uleb128 0x26
 2193 088a 10000000 		.4byte	.LVL27
 2194 088e 660D0000 		.4byte	0xd66
 2195 0892 00       		.byte	0
 2196 0893 2C       		.uleb128 0x2c
 2197 0894 D3030000 		.4byte	.LASF86
 2198 0898 01       		.byte	0x1
 2199 0899 2901     		.2byte	0x129
 2200 089b 0C010000 		.4byte	0x10c
 2201 089f 00000000 		.4byte	.LFB16
 2202 08a3 0A000000 		.4byte	.LFE16-.LFB16
 2203 08a7 01       		.uleb128 0x1
 2204 08a8 9C       		.byte	0x9c
 2205 08a9 CC080000 		.4byte	0x8cc
 2206 08ad 29       		.uleb128 0x29
 2207 08ae 656C7000 		.ascii	"elp\000"
 2208 08b2 01       		.byte	0x1
ARM GAS  /tmp/ccILw1Vl.s 			page 40


 2209 08b3 2901     		.2byte	0x129
 2210 08b5 18040000 		.4byte	0x418
 2211 08b9 F0010000 		.4byte	.LLST15
 2212 08bd 2D       		.uleb128 0x2d
 2213 08be EC040000 		.4byte	.LASF82
 2214 08c2 01       		.byte	0x1
 2215 08c3 2A01     		.2byte	0x12a
 2216 08c5 0C010000 		.4byte	0x10c
 2217 08c9 01       		.uleb128 0x1
 2218 08ca 50       		.byte	0x50
 2219 08cb 00       		.byte	0
 2220 08cc 28       		.uleb128 0x28
 2221 08cd F3020000 		.4byte	.LASF87
 2222 08d1 01       		.byte	0x1
 2223 08d2 3B01     		.2byte	0x13b
 2224 08d4 00000000 		.4byte	.LFB17
 2225 08d8 34000000 		.4byte	.LFE17-.LFB17
 2226 08dc 01       		.uleb128 0x1
 2227 08dd 9C       		.byte	0x9c
 2228 08de 1F090000 		.4byte	0x91f
 2229 08e2 2A       		.uleb128 0x2a
 2230 08e3 48030000 		.4byte	.LASF88
 2231 08e7 01       		.byte	0x1
 2232 08e8 3B01     		.2byte	0x13b
 2233 08ea 1F090000 		.4byte	0x91f
 2234 08ee 0E020000 		.4byte	.LLST16
 2235 08f2 2A       		.uleb128 0x2a
 2236 08f3 D5010000 		.4byte	.LASF76
 2237 08f7 01       		.byte	0x1
 2238 08f8 3B01     		.2byte	0x13b
 2239 08fa 01010000 		.4byte	0x101
 2240 08fe 37020000 		.4byte	.LLST17
 2241 0902 2E       		.uleb128 0x2e
 2242 0903 65696400 		.ascii	"eid\000"
 2243 0907 01       		.byte	0x1
 2244 0908 3C01     		.2byte	0x13c
 2245 090a F6000000 		.4byte	0xf6
 2246 090e 60020000 		.4byte	.LLST18
 2247 0912 2F       		.uleb128 0x2f
 2248 0913 2A000000 		.4byte	.LVL34
 2249 0917 25       		.uleb128 0x25
 2250 0918 01       		.uleb128 0x1
 2251 0919 50       		.byte	0x50
 2252 091a 02       		.uleb128 0x2
 2253 091b 74       		.byte	0x74
 2254 091c 00       		.sleb128 0
 2255 091d 00       		.byte	0
 2256 091e 00       		.byte	0
 2257 091f 09       		.uleb128 0x9
 2258 0920 04       		.byte	0x4
 2259 0921 25090000 		.4byte	0x925
 2260 0925 12       		.uleb128 0x12
 2261 0926 42040000 		.4byte	0x442
 2262 092a 2C       		.uleb128 0x2c
 2263 092b 84030000 		.4byte	.LASF89
 2264 092f 01       		.byte	0x1
 2265 0930 5E01     		.2byte	0x15e
ARM GAS  /tmp/ccILw1Vl.s 			page 41


 2266 0932 01010000 		.4byte	0x101
 2267 0936 00000000 		.4byte	.LFB18
 2268 093a 3C000000 		.4byte	.LFE18-.LFB18
 2269 093e 01       		.uleb128 0x1
 2270 093f 9C       		.byte	0x9c
 2271 0940 BA090000 		.4byte	0x9ba
 2272 0944 2A       		.uleb128 0x2a
 2273 0945 D5010000 		.4byte	.LASF76
 2274 0949 01       		.byte	0x1
 2275 094a 5E01     		.2byte	0x15e
 2276 094c 01010000 		.4byte	0x101
 2277 0950 8B020000 		.4byte	.LLST19
 2278 0954 2E       		.uleb128 0x2e
 2279 0955 63747000 		.ascii	"ctp\000"
 2280 0959 01       		.byte	0x1
 2281 095a 5F01     		.2byte	0x15f
 2282 095c 4B020000 		.4byte	0x24b
 2283 0960 B7020000 		.4byte	.LLST20
 2284 0964 2E       		.uleb128 0x2e
 2285 0965 6D00     		.ascii	"m\000"
 2286 0967 01       		.byte	0x1
 2287 0968 6001     		.2byte	0x160
 2288 096a 01010000 		.4byte	0x101
 2289 096e CA020000 		.4byte	.LLST21
 2290 0972 19       		.uleb128 0x19
 2291 0973 06000000 		.4byte	.LBB22
 2292 0977 06000000 		.4byte	.LBE22-.LBB22
 2293 097b 8E090000 		.4byte	0x98e
 2294 097f 2B       		.uleb128 0x2b
 2295 0980 746D7000 		.ascii	"tmp\000"
 2296 0984 01       		.byte	0x1
 2297 0985 6201     		.2byte	0x162
 2298 0987 A2000000 		.4byte	0xa2
 2299 098b 01       		.uleb128 0x1
 2300 098c 53       		.byte	0x53
 2301 098d 00       		.byte	0
 2302 098e 19       		.uleb128 0x19
 2303 098f 2E000000 		.4byte	.LBB23
 2304 0993 06000000 		.4byte	.LBE23-.LBB23
 2305 0997 AA090000 		.4byte	0x9aa
 2306 099b 2B       		.uleb128 0x2b
 2307 099c 746D7000 		.ascii	"tmp\000"
 2308 09a0 01       		.byte	0x1
 2309 09a1 6C01     		.2byte	0x16c
 2310 09a3 A2000000 		.4byte	0xa2
 2311 09a7 01       		.uleb128 0x1
 2312 09a8 53       		.byte	0x53
 2313 09a9 00       		.byte	0
 2314 09aa 24       		.uleb128 0x24
 2315 09ab 1E000000 		.4byte	.LVL42
 2316 09af 6D0D0000 		.4byte	0xd6d
 2317 09b3 25       		.uleb128 0x25
 2318 09b4 01       		.uleb128 0x1
 2319 09b5 50       		.byte	0x50
 2320 09b6 01       		.uleb128 0x1
 2321 09b7 38       		.byte	0x38
 2322 09b8 00       		.byte	0
ARM GAS  /tmp/ccILw1Vl.s 			page 42


 2323 09b9 00       		.byte	0
 2324 09ba 2C       		.uleb128 0x2c
 2325 09bb 7A010000 		.4byte	.LASF90
 2326 09bf 01       		.byte	0x1
 2327 09c0 7B01     		.2byte	0x17b
 2328 09c2 01010000 		.4byte	0x101
 2329 09c6 00000000 		.4byte	.LFB19
 2330 09ca 38000000 		.4byte	.LFE19-.LFB19
 2331 09ce 01       		.uleb128 0x1
 2332 09cf 9C       		.byte	0x9c
 2333 09d0 4A0A0000 		.4byte	0xa4a
 2334 09d4 2A       		.uleb128 0x2a
 2335 09d5 D5010000 		.4byte	.LASF76
 2336 09d9 01       		.byte	0x1
 2337 09da 7B01     		.2byte	0x17b
 2338 09dc 01010000 		.4byte	0x101
 2339 09e0 03030000 		.4byte	.LLST22
 2340 09e4 2E       		.uleb128 0x2e
 2341 09e5 63747000 		.ascii	"ctp\000"
 2342 09e9 01       		.byte	0x1
 2343 09ea 7C01     		.2byte	0x17c
 2344 09ec 4B020000 		.4byte	0x24b
 2345 09f0 2F030000 		.4byte	.LLST23
 2346 09f4 2E       		.uleb128 0x2e
 2347 09f5 6D00     		.ascii	"m\000"
 2348 09f7 01       		.byte	0x1
 2349 09f8 7D01     		.2byte	0x17d
 2350 09fa 01010000 		.4byte	0x101
 2351 09fe 42030000 		.4byte	.LLST24
 2352 0a02 19       		.uleb128 0x19
 2353 0a03 06000000 		.4byte	.LBB24
 2354 0a07 06000000 		.4byte	.LBE24-.LBB24
 2355 0a0b 1E0A0000 		.4byte	0xa1e
 2356 0a0f 2B       		.uleb128 0x2b
 2357 0a10 746D7000 		.ascii	"tmp\000"
 2358 0a14 01       		.byte	0x1
 2359 0a15 7F01     		.2byte	0x17f
 2360 0a17 A2000000 		.4byte	0xa2
 2361 0a1b 01       		.uleb128 0x1
 2362 0a1c 53       		.byte	0x53
 2363 0a1d 00       		.byte	0
 2364 0a1e 19       		.uleb128 0x19
 2365 0a1f 28000000 		.4byte	.LBB25
 2366 0a23 06000000 		.4byte	.LBE25-.LBB25
 2367 0a27 3A0A0000 		.4byte	0xa3a
 2368 0a2b 2B       		.uleb128 0x2b
 2369 0a2c 746D7000 		.ascii	"tmp\000"
 2370 0a30 01       		.byte	0x1
 2371 0a31 8801     		.2byte	0x188
 2372 0a33 A2000000 		.4byte	0xa2
 2373 0a37 01       		.uleb128 0x1
 2374 0a38 53       		.byte	0x53
 2375 0a39 00       		.byte	0
 2376 0a3a 24       		.uleb128 0x24
 2377 0a3b 1E000000 		.4byte	.LVL52
 2378 0a3f 6D0D0000 		.4byte	0xd6d
 2379 0a43 25       		.uleb128 0x25
ARM GAS  /tmp/ccILw1Vl.s 			page 43


 2380 0a44 01       		.uleb128 0x1
 2381 0a45 50       		.byte	0x50
 2382 0a46 01       		.uleb128 0x1
 2383 0a47 38       		.byte	0x38
 2384 0a48 00       		.byte	0
 2385 0a49 00       		.byte	0
 2386 0a4a 2C       		.uleb128 0x2c
 2387 0a4b 21030000 		.4byte	.LASF91
 2388 0a4f 01       		.byte	0x1
 2389 0a50 9701     		.2byte	0x197
 2390 0a52 01010000 		.4byte	0x101
 2391 0a56 00000000 		.4byte	.LFB20
 2392 0a5a 38000000 		.4byte	.LFE20-.LFB20
 2393 0a5e 01       		.uleb128 0x1
 2394 0a5f 9C       		.byte	0x9c
 2395 0a60 CC0A0000 		.4byte	0xacc
 2396 0a64 2A       		.uleb128 0x2a
 2397 0a65 D5010000 		.4byte	.LASF76
 2398 0a69 01       		.byte	0x1
 2399 0a6a 9701     		.2byte	0x197
 2400 0a6c 01010000 		.4byte	0x101
 2401 0a70 9B030000 		.4byte	.LLST25
 2402 0a74 2E       		.uleb128 0x2e
 2403 0a75 63747000 		.ascii	"ctp\000"
 2404 0a79 01       		.byte	0x1
 2405 0a7a 9801     		.2byte	0x198
 2406 0a7c 4B020000 		.4byte	0x24b
 2407 0a80 C4030000 		.4byte	.LLST26
 2408 0a84 19       		.uleb128 0x19
 2409 0a85 08000000 		.4byte	.LBB26
 2410 0a89 06000000 		.4byte	.LBE26-.LBB26
 2411 0a8d A00A0000 		.4byte	0xaa0
 2412 0a91 2B       		.uleb128 0x2b
 2413 0a92 746D7000 		.ascii	"tmp\000"
 2414 0a96 01       		.byte	0x1
 2415 0a97 9A01     		.2byte	0x19a
 2416 0a99 A2000000 		.4byte	0xa2
 2417 0a9d 01       		.uleb128 0x1
 2418 0a9e 53       		.byte	0x53
 2419 0a9f 00       		.byte	0
 2420 0aa0 19       		.uleb128 0x19
 2421 0aa1 28000000 		.4byte	.LBB27
 2422 0aa5 06000000 		.4byte	.LBE27-.LBB27
 2423 0aa9 BC0A0000 		.4byte	0xabc
 2424 0aad 2B       		.uleb128 0x2b
 2425 0aae 746D7000 		.ascii	"tmp\000"
 2426 0ab2 01       		.byte	0x1
 2427 0ab3 A201     		.2byte	0x1a2
 2428 0ab5 A2000000 		.4byte	0xa2
 2429 0ab9 01       		.uleb128 0x1
 2430 0aba 53       		.byte	0x53
 2431 0abb 00       		.byte	0
 2432 0abc 24       		.uleb128 0x24
 2433 0abd 20000000 		.4byte	.LVL58
 2434 0ac1 6D0D0000 		.4byte	0xd6d
 2435 0ac5 25       		.uleb128 0x25
 2436 0ac6 01       		.uleb128 0x1
ARM GAS  /tmp/ccILw1Vl.s 			page 44


 2437 0ac7 50       		.byte	0x50
 2438 0ac8 01       		.uleb128 0x1
 2439 0ac9 39       		.byte	0x39
 2440 0aca 00       		.byte	0
 2441 0acb 00       		.byte	0
 2442 0acc 2C       		.uleb128 0x2c
 2443 0acd 00050000 		.4byte	.LASF92
 2444 0ad1 01       		.byte	0x1
 2445 0ad2 BE01     		.2byte	0x1be
 2446 0ad4 01010000 		.4byte	0x101
 2447 0ad8 00000000 		.4byte	.LFB21
 2448 0adc 54000000 		.4byte	.LFE21-.LFB21
 2449 0ae0 01       		.uleb128 0x1
 2450 0ae1 9C       		.byte	0x9c
 2451 0ae2 A40B0000 		.4byte	0xba4
 2452 0ae6 2A       		.uleb128 0x2a
 2453 0ae7 D5010000 		.4byte	.LASF76
 2454 0aeb 01       		.byte	0x1
 2455 0aec BE01     		.2byte	0x1be
 2456 0aee 01010000 		.4byte	0x101
 2457 0af2 D7030000 		.4byte	.LLST27
 2458 0af6 2A       		.uleb128 0x2a
 2459 0af7 1C030000 		.4byte	.LASF93
 2460 0afb 01       		.byte	0x1
 2461 0afc BE01     		.2byte	0x1be
 2462 0afe 17010000 		.4byte	0x117
 2463 0b02 35040000 		.4byte	.LLST28
 2464 0b06 2E       		.uleb128 0x2e
 2465 0b07 63747000 		.ascii	"ctp\000"
 2466 0b0b 01       		.byte	0x1
 2467 0b0c BF01     		.2byte	0x1bf
 2468 0b0e 4B020000 		.4byte	0x24b
 2469 0b12 56040000 		.4byte	.LLST29
 2470 0b16 2E       		.uleb128 0x2e
 2471 0b17 6D00     		.ascii	"m\000"
 2472 0b19 01       		.byte	0x1
 2473 0b1a C001     		.2byte	0x1c0
 2474 0b1c 01010000 		.4byte	0x101
 2475 0b20 69040000 		.4byte	.LLST30
 2476 0b24 19       		.uleb128 0x19
 2477 0b25 06000000 		.4byte	.LBB28
 2478 0b29 06000000 		.4byte	.LBE28-.LBB28
 2479 0b2d 400B0000 		.4byte	0xb40
 2480 0b31 2B       		.uleb128 0x2b
 2481 0b32 746D7000 		.ascii	"tmp\000"
 2482 0b36 01       		.byte	0x1
 2483 0b37 C201     		.2byte	0x1c2
 2484 0b39 A2000000 		.4byte	0xa2
 2485 0b3d 01       		.uleb128 0x1
 2486 0b3e 53       		.byte	0x53
 2487 0b3f 00       		.byte	0
 2488 0b40 19       		.uleb128 0x19
 2489 0b41 16000000 		.4byte	.LBB29
 2490 0b45 06000000 		.4byte	.LBE29-.LBB29
 2491 0b49 5C0B0000 		.4byte	0xb5c
 2492 0b4d 2B       		.uleb128 0x2b
 2493 0b4e 746D7000 		.ascii	"tmp\000"
ARM GAS  /tmp/ccILw1Vl.s 			page 45


 2494 0b52 01       		.byte	0x1
 2495 0b53 C601     		.2byte	0x1c6
 2496 0b55 A2000000 		.4byte	0xa2
 2497 0b59 01       		.uleb128 0x1
 2498 0b5a 53       		.byte	0x53
 2499 0b5b 00       		.byte	0
 2500 0b5c 19       		.uleb128 0x19
 2501 0b5d 3E000000 		.4byte	.LBB30
 2502 0b61 06000000 		.4byte	.LBE30-.LBB30
 2503 0b65 780B0000 		.4byte	0xb78
 2504 0b69 2B       		.uleb128 0x2b
 2505 0b6a 746D7000 		.ascii	"tmp\000"
 2506 0b6e 01       		.byte	0x1
 2507 0b6f D301     		.2byte	0x1d3
 2508 0b71 A2000000 		.4byte	0xa2
 2509 0b75 01       		.uleb128 0x1
 2510 0b76 53       		.byte	0x53
 2511 0b77 00       		.byte	0
 2512 0b78 19       		.uleb128 0x19
 2513 0b79 46000000 		.4byte	.LBB31
 2514 0b7d 06000000 		.4byte	.LBE31-.LBB31
 2515 0b81 940B0000 		.4byte	0xb94
 2516 0b85 2B       		.uleb128 0x2b
 2517 0b86 746D7000 		.ascii	"tmp\000"
 2518 0b8a 01       		.byte	0x1
 2519 0b8b CB01     		.2byte	0x1cb
 2520 0b8d A2000000 		.4byte	0xa2
 2521 0b91 01       		.uleb128 0x1
 2522 0b92 53       		.byte	0x53
 2523 0b93 00       		.byte	0
 2524 0b94 24       		.uleb128 0x24
 2525 0b95 2A000000 		.4byte	.LVL67
 2526 0b99 7E0D0000 		.4byte	0xd7e
 2527 0b9d 25       		.uleb128 0x25
 2528 0b9e 01       		.uleb128 0x1
 2529 0b9f 50       		.byte	0x50
 2530 0ba0 01       		.uleb128 0x1
 2531 0ba1 38       		.byte	0x38
 2532 0ba2 00       		.byte	0
 2533 0ba3 00       		.byte	0
 2534 0ba4 2C       		.uleb128 0x2c
 2535 0ba5 05010000 		.4byte	.LASF94
 2536 0ba9 01       		.byte	0x1
 2537 0baa E901     		.2byte	0x1e9
 2538 0bac 01010000 		.4byte	0x101
 2539 0bb0 00000000 		.4byte	.LFB22
 2540 0bb4 54000000 		.4byte	.LFE22-.LFB22
 2541 0bb8 01       		.uleb128 0x1
 2542 0bb9 9C       		.byte	0x9c
 2543 0bba 7C0C0000 		.4byte	0xc7c
 2544 0bbe 2A       		.uleb128 0x2a
 2545 0bbf D5010000 		.4byte	.LASF76
 2546 0bc3 01       		.byte	0x1
 2547 0bc4 E901     		.2byte	0x1e9
 2548 0bc6 01010000 		.4byte	0x101
 2549 0bca AD040000 		.4byte	.LLST31
 2550 0bce 2A       		.uleb128 0x2a
ARM GAS  /tmp/ccILw1Vl.s 			page 46


 2551 0bcf 1C030000 		.4byte	.LASF93
 2552 0bd3 01       		.byte	0x1
 2553 0bd4 E901     		.2byte	0x1e9
 2554 0bd6 17010000 		.4byte	0x117
 2555 0bda 0B050000 		.4byte	.LLST32
 2556 0bde 2E       		.uleb128 0x2e
 2557 0bdf 63747000 		.ascii	"ctp\000"
 2558 0be3 01       		.byte	0x1
 2559 0be4 EA01     		.2byte	0x1ea
 2560 0be6 4B020000 		.4byte	0x24b
 2561 0bea 2C050000 		.4byte	.LLST33
 2562 0bee 2E       		.uleb128 0x2e
 2563 0bef 6D00     		.ascii	"m\000"
 2564 0bf1 01       		.byte	0x1
 2565 0bf2 EB01     		.2byte	0x1eb
 2566 0bf4 01010000 		.4byte	0x101
 2567 0bf8 3F050000 		.4byte	.LLST34
 2568 0bfc 19       		.uleb128 0x19
 2569 0bfd 06000000 		.4byte	.LBB32
 2570 0c01 06000000 		.4byte	.LBE32-.LBB32
 2571 0c05 180C0000 		.4byte	0xc18
 2572 0c09 2B       		.uleb128 0x2b
 2573 0c0a 746D7000 		.ascii	"tmp\000"
 2574 0c0e 01       		.byte	0x1
 2575 0c0f ED01     		.2byte	0x1ed
 2576 0c11 A2000000 		.4byte	0xa2
 2577 0c15 01       		.uleb128 0x1
 2578 0c16 53       		.byte	0x53
 2579 0c17 00       		.byte	0
 2580 0c18 19       		.uleb128 0x19
 2581 0c19 16000000 		.4byte	.LBB33
 2582 0c1d 06000000 		.4byte	.LBE33-.LBB33
 2583 0c21 340C0000 		.4byte	0xc34
 2584 0c25 2B       		.uleb128 0x2b
 2585 0c26 746D7000 		.ascii	"tmp\000"
 2586 0c2a 01       		.byte	0x1
 2587 0c2b F101     		.2byte	0x1f1
 2588 0c2d A2000000 		.4byte	0xa2
 2589 0c31 01       		.uleb128 0x1
 2590 0c32 53       		.byte	0x53
 2591 0c33 00       		.byte	0
 2592 0c34 19       		.uleb128 0x19
 2593 0c35 3A000000 		.4byte	.LBB34
 2594 0c39 06000000 		.4byte	.LBE34-.LBB34
 2595 0c3d 500C0000 		.4byte	0xc50
 2596 0c41 2B       		.uleb128 0x2b
 2597 0c42 746D7000 		.ascii	"tmp\000"
 2598 0c46 01       		.byte	0x1
 2599 0c47 FD01     		.2byte	0x1fd
 2600 0c49 A2000000 		.4byte	0xa2
 2601 0c4d 01       		.uleb128 0x1
 2602 0c4e 53       		.byte	0x53
 2603 0c4f 00       		.byte	0
 2604 0c50 19       		.uleb128 0x19
 2605 0c51 44000000 		.4byte	.LBB35
 2606 0c55 06000000 		.4byte	.LBE35-.LBB35
 2607 0c59 6C0C0000 		.4byte	0xc6c
ARM GAS  /tmp/ccILw1Vl.s 			page 47


 2608 0c5d 2B       		.uleb128 0x2b
 2609 0c5e 746D7000 		.ascii	"tmp\000"
 2610 0c62 01       		.byte	0x1
 2611 0c63 F601     		.2byte	0x1f6
 2612 0c65 A2000000 		.4byte	0xa2
 2613 0c69 01       		.uleb128 0x1
 2614 0c6a 53       		.byte	0x53
 2615 0c6b 00       		.byte	0
 2616 0c6c 24       		.uleb128 0x24
 2617 0c6d 2A000000 		.4byte	.LVL79
 2618 0c71 7E0D0000 		.4byte	0xd7e
 2619 0c75 25       		.uleb128 0x25
 2620 0c76 01       		.uleb128 0x1
 2621 0c77 50       		.byte	0x50
 2622 0c78 01       		.uleb128 0x1
 2623 0c79 38       		.byte	0x38
 2624 0c7a 00       		.byte	0
 2625 0c7b 00       		.byte	0
 2626 0c7c 2C       		.uleb128 0x2c
 2627 0c7d 3A010000 		.4byte	.LASF95
 2628 0c81 01       		.byte	0x1
 2629 0c82 1202     		.2byte	0x212
 2630 0c84 01010000 		.4byte	0x101
 2631 0c88 00000000 		.4byte	.LFB23
 2632 0c8c 50000000 		.4byte	.LFE23-.LFB23
 2633 0c90 01       		.uleb128 0x1
 2634 0c91 9C       		.byte	0x9c
 2635 0c92 460D0000 		.4byte	0xd46
 2636 0c96 2A       		.uleb128 0x2a
 2637 0c97 D5010000 		.4byte	.LASF76
 2638 0c9b 01       		.byte	0x1
 2639 0c9c 1202     		.2byte	0x212
 2640 0c9e 01010000 		.4byte	0x101
 2641 0ca2 6D050000 		.4byte	.LLST35
 2642 0ca6 2A       		.uleb128 0x2a
 2643 0ca7 1C030000 		.4byte	.LASF93
 2644 0cab 01       		.byte	0x1
 2645 0cac 1202     		.2byte	0x212
 2646 0cae 17010000 		.4byte	0x117
 2647 0cb2 99050000 		.4byte	.LLST36
 2648 0cb6 2E       		.uleb128 0x2e
 2649 0cb7 63747000 		.ascii	"ctp\000"
 2650 0cbb 01       		.byte	0x1
 2651 0cbc 1302     		.2byte	0x213
 2652 0cbe 4B020000 		.4byte	0x24b
 2653 0cc2 BA050000 		.4byte	.LLST37
 2654 0cc6 19       		.uleb128 0x19
 2655 0cc7 08000000 		.4byte	.LBB36
 2656 0ccb 06000000 		.4byte	.LBE36-.LBB36
 2657 0ccf E20C0000 		.4byte	0xce2
 2658 0cd3 2B       		.uleb128 0x2b
 2659 0cd4 746D7000 		.ascii	"tmp\000"
 2660 0cd8 01       		.byte	0x1
 2661 0cd9 1502     		.2byte	0x215
 2662 0cdb A2000000 		.4byte	0xa2
 2663 0cdf 01       		.uleb128 0x1
 2664 0ce0 53       		.byte	0x53
ARM GAS  /tmp/ccILw1Vl.s 			page 48


 2665 0ce1 00       		.byte	0
 2666 0ce2 19       		.uleb128 0x19
 2667 0ce3 1C000000 		.4byte	.LBB37
 2668 0ce7 06000000 		.4byte	.LBE37-.LBB37
 2669 0ceb FE0C0000 		.4byte	0xcfe
 2670 0cef 2B       		.uleb128 0x2b
 2671 0cf0 746D7000 		.ascii	"tmp\000"
 2672 0cf4 01       		.byte	0x1
 2673 0cf5 1902     		.2byte	0x219
 2674 0cf7 A2000000 		.4byte	0xa2
 2675 0cfb 01       		.uleb128 0x1
 2676 0cfc 53       		.byte	0x53
 2677 0cfd 00       		.byte	0
 2678 0cfe 19       		.uleb128 0x19
 2679 0cff 38000000 		.4byte	.LBB38
 2680 0d03 06000000 		.4byte	.LBE38-.LBB38
 2681 0d07 1A0D0000 		.4byte	0xd1a
 2682 0d0b 2B       		.uleb128 0x2b
 2683 0d0c 746D7000 		.ascii	"tmp\000"
 2684 0d10 01       		.byte	0x1
 2685 0d11 2402     		.2byte	0x224
 2686 0d13 A2000000 		.4byte	0xa2
 2687 0d17 01       		.uleb128 0x1
 2688 0d18 53       		.byte	0x53
 2689 0d19 00       		.byte	0
 2690 0d1a 19       		.uleb128 0x19
 2691 0d1b 42000000 		.4byte	.LBB39
 2692 0d1f 06000000 		.4byte	.LBE39-.LBB39
 2693 0d23 360D0000 		.4byte	0xd36
 2694 0d27 2B       		.uleb128 0x2b
 2695 0d28 746D7000 		.ascii	"tmp\000"
 2696 0d2c 01       		.byte	0x1
 2697 0d2d 1E02     		.2byte	0x21e
 2698 0d2f A2000000 		.4byte	0xa2
 2699 0d33 01       		.uleb128 0x1
 2700 0d34 53       		.byte	0x53
 2701 0d35 00       		.byte	0
 2702 0d36 24       		.uleb128 0x24
 2703 0d37 2C000000 		.4byte	.LVL87
 2704 0d3b 7E0D0000 		.4byte	0xd7e
 2705 0d3f 25       		.uleb128 0x25
 2706 0d40 01       		.uleb128 0x1
 2707 0d41 50       		.byte	0x50
 2708 0d42 01       		.uleb128 0x1
 2709 0d43 39       		.byte	0x39
 2710 0d44 00       		.byte	0
 2711 0d45 00       		.byte	0
 2712 0d46 30       		.uleb128 0x30
 2713 0d47 DE040000 		.4byte	.LASF102
 2714 0d4b 08       		.byte	0x8
 2715 0d4c 6F       		.byte	0x6f
 2716 0d4d 83030000 		.4byte	0x383
 2717 0d51 31       		.uleb128 0x31
 2718 0d52 31040000 		.4byte	.LASF103
 2719 0d56 08       		.byte	0x8
 2720 0d57 90       		.byte	0x90
 2721 0d58 4B020000 		.4byte	0x24b
ARM GAS  /tmp/ccILw1Vl.s 			page 49


 2722 0d5c 660D0000 		.4byte	0xd66
 2723 0d60 0F       		.uleb128 0xf
 2724 0d61 4B020000 		.4byte	0x24b
 2725 0d65 00       		.byte	0
 2726 0d66 32       		.uleb128 0x32
 2727 0d67 B9010000 		.4byte	.LASF104
 2728 0d6b 08       		.byte	0x8
 2729 0d6c 9C       		.byte	0x9c
 2730 0d6d 33       		.uleb128 0x33
 2731 0d6e 07040000 		.4byte	.LASF97
 2732 0d72 08       		.byte	0x8
 2733 0d73 93       		.byte	0x93
 2734 0d74 7E0D0000 		.4byte	0xd7e
 2735 0d78 0F       		.uleb128 0xf
 2736 0d79 BF000000 		.4byte	0xbf
 2737 0d7d 00       		.byte	0
 2738 0d7e 34       		.uleb128 0x34
 2739 0d7f 87010000 		.4byte	.LASF98
 2740 0d83 08       		.byte	0x8
 2741 0d84 96       		.byte	0x96
 2742 0d85 EB000000 		.4byte	0xeb
 2743 0d89 0F       		.uleb128 0xf
 2744 0d8a BF000000 		.4byte	0xbf
 2745 0d8e 0F       		.uleb128 0xf
 2746 0d8f 17010000 		.4byte	0x117
 2747 0d93 00       		.byte	0
 2748 0d94 00       		.byte	0
 2749              		.section	.debug_abbrev,"",%progbits
 2750              	.Ldebug_abbrev0:
 2751 0000 01       		.uleb128 0x1
 2752 0001 11       		.uleb128 0x11
 2753 0002 01       		.byte	0x1
 2754 0003 25       		.uleb128 0x25
 2755 0004 0E       		.uleb128 0xe
 2756 0005 13       		.uleb128 0x13
 2757 0006 0B       		.uleb128 0xb
 2758 0007 03       		.uleb128 0x3
 2759 0008 0E       		.uleb128 0xe
 2760 0009 1B       		.uleb128 0x1b
 2761 000a 0E       		.uleb128 0xe
 2762 000b 55       		.uleb128 0x55
 2763 000c 17       		.uleb128 0x17
 2764 000d 11       		.uleb128 0x11
 2765 000e 01       		.uleb128 0x1
 2766 000f 10       		.uleb128 0x10
 2767 0010 17       		.uleb128 0x17
 2768 0011 00       		.byte	0
 2769 0012 00       		.byte	0
 2770 0013 02       		.uleb128 0x2
 2771 0014 24       		.uleb128 0x24
 2772 0015 00       		.byte	0
 2773 0016 0B       		.uleb128 0xb
 2774 0017 0B       		.uleb128 0xb
 2775 0018 3E       		.uleb128 0x3e
 2776 0019 0B       		.uleb128 0xb
 2777 001a 03       		.uleb128 0x3
 2778 001b 08       		.uleb128 0x8
ARM GAS  /tmp/ccILw1Vl.s 			page 50


 2779 001c 00       		.byte	0
 2780 001d 00       		.byte	0
 2781 001e 03       		.uleb128 0x3
 2782 001f 24       		.uleb128 0x24
 2783 0020 00       		.byte	0
 2784 0021 0B       		.uleb128 0xb
 2785 0022 0B       		.uleb128 0xb
 2786 0023 3E       		.uleb128 0x3e
 2787 0024 0B       		.uleb128 0xb
 2788 0025 03       		.uleb128 0x3
 2789 0026 0E       		.uleb128 0xe
 2790 0027 00       		.byte	0
 2791 0028 00       		.byte	0
 2792 0029 04       		.uleb128 0x4
 2793 002a 16       		.uleb128 0x16
 2794 002b 00       		.byte	0
 2795 002c 03       		.uleb128 0x3
 2796 002d 0E       		.uleb128 0xe
 2797 002e 3A       		.uleb128 0x3a
 2798 002f 0B       		.uleb128 0xb
 2799 0030 3B       		.uleb128 0x3b
 2800 0031 0B       		.uleb128 0xb
 2801 0032 49       		.uleb128 0x49
 2802 0033 13       		.uleb128 0x13
 2803 0034 00       		.byte	0
 2804 0035 00       		.byte	0
 2805 0036 05       		.uleb128 0x5
 2806 0037 13       		.uleb128 0x13
 2807 0038 01       		.byte	0x1
 2808 0039 03       		.uleb128 0x3
 2809 003a 0E       		.uleb128 0xe
 2810 003b 0B       		.uleb128 0xb
 2811 003c 0B       		.uleb128 0xb
 2812 003d 3A       		.uleb128 0x3a
 2813 003e 0B       		.uleb128 0xb
 2814 003f 3B       		.uleb128 0x3b
 2815 0040 0B       		.uleb128 0xb
 2816 0041 01       		.uleb128 0x1
 2817 0042 13       		.uleb128 0x13
 2818 0043 00       		.byte	0
 2819 0044 00       		.byte	0
 2820 0045 06       		.uleb128 0x6
 2821 0046 0D       		.uleb128 0xd
 2822 0047 00       		.byte	0
 2823 0048 03       		.uleb128 0x3
 2824 0049 0E       		.uleb128 0xe
 2825 004a 3A       		.uleb128 0x3a
 2826 004b 0B       		.uleb128 0xb
 2827 004c 3B       		.uleb128 0x3b
 2828 004d 0B       		.uleb128 0xb
 2829 004e 49       		.uleb128 0x49
 2830 004f 13       		.uleb128 0x13
 2831 0050 38       		.uleb128 0x38
 2832 0051 0B       		.uleb128 0xb
 2833 0052 00       		.byte	0
 2834 0053 00       		.byte	0
 2835 0054 07       		.uleb128 0x7
ARM GAS  /tmp/ccILw1Vl.s 			page 51


 2836 0055 0D       		.uleb128 0xd
 2837 0056 00       		.byte	0
 2838 0057 03       		.uleb128 0x3
 2839 0058 08       		.uleb128 0x8
 2840 0059 3A       		.uleb128 0x3a
 2841 005a 0B       		.uleb128 0xb
 2842 005b 3B       		.uleb128 0x3b
 2843 005c 0B       		.uleb128 0xb
 2844 005d 49       		.uleb128 0x49
 2845 005e 13       		.uleb128 0x13
 2846 005f 38       		.uleb128 0x38
 2847 0060 0B       		.uleb128 0xb
 2848 0061 00       		.byte	0
 2849 0062 00       		.byte	0
 2850 0063 08       		.uleb128 0x8
 2851 0064 13       		.uleb128 0x13
 2852 0065 01       		.byte	0x1
 2853 0066 0B       		.uleb128 0xb
 2854 0067 0B       		.uleb128 0xb
 2855 0068 3A       		.uleb128 0x3a
 2856 0069 0B       		.uleb128 0xb
 2857 006a 3B       		.uleb128 0x3b
 2858 006b 0B       		.uleb128 0xb
 2859 006c 01       		.uleb128 0x1
 2860 006d 13       		.uleb128 0x13
 2861 006e 00       		.byte	0
 2862 006f 00       		.byte	0
 2863 0070 09       		.uleb128 0x9
 2864 0071 0F       		.uleb128 0xf
 2865 0072 00       		.byte	0
 2866 0073 0B       		.uleb128 0xb
 2867 0074 0B       		.uleb128 0xb
 2868 0075 49       		.uleb128 0x49
 2869 0076 13       		.uleb128 0x13
 2870 0077 00       		.byte	0
 2871 0078 00       		.byte	0
 2872 0079 0A       		.uleb128 0xa
 2873 007a 0F       		.uleb128 0xf
 2874 007b 00       		.byte	0
 2875 007c 0B       		.uleb128 0xb
 2876 007d 0B       		.uleb128 0xb
 2877 007e 00       		.byte	0
 2878 007f 00       		.byte	0
 2879 0080 0B       		.uleb128 0xb
 2880 0081 13       		.uleb128 0x13
 2881 0082 01       		.byte	0x1
 2882 0083 03       		.uleb128 0x3
 2883 0084 0E       		.uleb128 0xe
 2884 0085 0B       		.uleb128 0xb
 2885 0086 0B       		.uleb128 0xb
 2886 0087 3A       		.uleb128 0x3a
 2887 0088 0B       		.uleb128 0xb
 2888 0089 3B       		.uleb128 0x3b
 2889 008a 05       		.uleb128 0x5
 2890 008b 01       		.uleb128 0x1
 2891 008c 13       		.uleb128 0x13
 2892 008d 00       		.byte	0
ARM GAS  /tmp/ccILw1Vl.s 			page 52


 2893 008e 00       		.byte	0
 2894 008f 0C       		.uleb128 0xc
 2895 0090 0D       		.uleb128 0xd
 2896 0091 00       		.byte	0
 2897 0092 03       		.uleb128 0x3
 2898 0093 08       		.uleb128 0x8
 2899 0094 3A       		.uleb128 0x3a
 2900 0095 0B       		.uleb128 0xb
 2901 0096 3B       		.uleb128 0x3b
 2902 0097 05       		.uleb128 0x5
 2903 0098 49       		.uleb128 0x49
 2904 0099 13       		.uleb128 0x13
 2905 009a 38       		.uleb128 0x38
 2906 009b 0B       		.uleb128 0xb
 2907 009c 00       		.byte	0
 2908 009d 00       		.byte	0
 2909 009e 0D       		.uleb128 0xd
 2910 009f 35       		.uleb128 0x35
 2911 00a0 00       		.byte	0
 2912 00a1 49       		.uleb128 0x49
 2913 00a2 13       		.uleb128 0x13
 2914 00a3 00       		.byte	0
 2915 00a4 00       		.byte	0
 2916 00a5 0E       		.uleb128 0xe
 2917 00a6 15       		.uleb128 0x15
 2918 00a7 01       		.byte	0x1
 2919 00a8 27       		.uleb128 0x27
 2920 00a9 19       		.uleb128 0x19
 2921 00aa 01       		.uleb128 0x1
 2922 00ab 13       		.uleb128 0x13
 2923 00ac 00       		.byte	0
 2924 00ad 00       		.byte	0
 2925 00ae 0F       		.uleb128 0xf
 2926 00af 05       		.uleb128 0x5
 2927 00b0 00       		.byte	0
 2928 00b1 49       		.uleb128 0x49
 2929 00b2 13       		.uleb128 0x13
 2930 00b3 00       		.byte	0
 2931 00b4 00       		.byte	0
 2932 00b5 10       		.uleb128 0x10
 2933 00b6 17       		.uleb128 0x17
 2934 00b7 01       		.byte	0x1
 2935 00b8 0B       		.uleb128 0xb
 2936 00b9 0B       		.uleb128 0xb
 2937 00ba 3A       		.uleb128 0x3a
 2938 00bb 0B       		.uleb128 0xb
 2939 00bc 3B       		.uleb128 0x3b
 2940 00bd 0B       		.uleb128 0xb
 2941 00be 01       		.uleb128 0x1
 2942 00bf 13       		.uleb128 0x13
 2943 00c0 00       		.byte	0
 2944 00c1 00       		.byte	0
 2945 00c2 11       		.uleb128 0x11
 2946 00c3 0D       		.uleb128 0xd
 2947 00c4 00       		.byte	0
 2948 00c5 03       		.uleb128 0x3
 2949 00c6 0E       		.uleb128 0xe
ARM GAS  /tmp/ccILw1Vl.s 			page 53


 2950 00c7 3A       		.uleb128 0x3a
 2951 00c8 0B       		.uleb128 0xb
 2952 00c9 3B       		.uleb128 0x3b
 2953 00ca 0B       		.uleb128 0xb
 2954 00cb 49       		.uleb128 0x49
 2955 00cc 13       		.uleb128 0x13
 2956 00cd 00       		.byte	0
 2957 00ce 00       		.byte	0
 2958 00cf 12       		.uleb128 0x12
 2959 00d0 26       		.uleb128 0x26
 2960 00d1 00       		.byte	0
 2961 00d2 49       		.uleb128 0x49
 2962 00d3 13       		.uleb128 0x13
 2963 00d4 00       		.byte	0
 2964 00d5 00       		.byte	0
 2965 00d6 13       		.uleb128 0x13
 2966 00d7 2E       		.uleb128 0x2e
 2967 00d8 01       		.byte	0x1
 2968 00d9 3F       		.uleb128 0x3f
 2969 00da 19       		.uleb128 0x19
 2970 00db 03       		.uleb128 0x3
 2971 00dc 0E       		.uleb128 0xe
 2972 00dd 3A       		.uleb128 0x3a
 2973 00de 0B       		.uleb128 0xb
 2974 00df 3B       		.uleb128 0x3b
 2975 00e0 0B       		.uleb128 0xb
 2976 00e1 27       		.uleb128 0x27
 2977 00e2 19       		.uleb128 0x19
 2978 00e3 20       		.uleb128 0x20
 2979 00e4 0B       		.uleb128 0xb
 2980 00e5 01       		.uleb128 0x1
 2981 00e6 13       		.uleb128 0x13
 2982 00e7 00       		.byte	0
 2983 00e8 00       		.byte	0
 2984 00e9 14       		.uleb128 0x14
 2985 00ea 05       		.uleb128 0x5
 2986 00eb 00       		.byte	0
 2987 00ec 03       		.uleb128 0x3
 2988 00ed 08       		.uleb128 0x8
 2989 00ee 3A       		.uleb128 0x3a
 2990 00ef 0B       		.uleb128 0xb
 2991 00f0 3B       		.uleb128 0x3b
 2992 00f1 0B       		.uleb128 0xb
 2993 00f2 49       		.uleb128 0x49
 2994 00f3 13       		.uleb128 0x13
 2995 00f4 00       		.byte	0
 2996 00f5 00       		.byte	0
 2997 00f6 15       		.uleb128 0x15
 2998 00f7 05       		.uleb128 0x5
 2999 00f8 00       		.byte	0
 3000 00f9 03       		.uleb128 0x3
 3001 00fa 0E       		.uleb128 0xe
 3002 00fb 3A       		.uleb128 0x3a
 3003 00fc 0B       		.uleb128 0xb
 3004 00fd 3B       		.uleb128 0x3b
 3005 00fe 0B       		.uleb128 0xb
 3006 00ff 49       		.uleb128 0x49
ARM GAS  /tmp/ccILw1Vl.s 			page 54


 3007 0100 13       		.uleb128 0x13
 3008 0101 00       		.byte	0
 3009 0102 00       		.byte	0
 3010 0103 16       		.uleb128 0x16
 3011 0104 2E       		.uleb128 0x2e
 3012 0105 01       		.byte	0x1
 3013 0106 3F       		.uleb128 0x3f
 3014 0107 19       		.uleb128 0x19
 3015 0108 03       		.uleb128 0x3
 3016 0109 0E       		.uleb128 0xe
 3017 010a 3A       		.uleb128 0x3a
 3018 010b 0B       		.uleb128 0xb
 3019 010c 3B       		.uleb128 0x3b
 3020 010d 0B       		.uleb128 0xb
 3021 010e 27       		.uleb128 0x27
 3022 010f 19       		.uleb128 0x19
 3023 0110 11       		.uleb128 0x11
 3024 0111 01       		.uleb128 0x1
 3025 0112 12       		.uleb128 0x12
 3026 0113 06       		.uleb128 0x6
 3027 0114 40       		.uleb128 0x40
 3028 0115 18       		.uleb128 0x18
 3029 0116 9742     		.uleb128 0x2117
 3030 0118 19       		.uleb128 0x19
 3031 0119 01       		.uleb128 0x1
 3032 011a 13       		.uleb128 0x13
 3033 011b 00       		.byte	0
 3034 011c 00       		.byte	0
 3035 011d 17       		.uleb128 0x17
 3036 011e 05       		.uleb128 0x5
 3037 011f 00       		.byte	0
 3038 0120 03       		.uleb128 0x3
 3039 0121 08       		.uleb128 0x8
 3040 0122 3A       		.uleb128 0x3a
 3041 0123 0B       		.uleb128 0xb
 3042 0124 3B       		.uleb128 0x3b
 3043 0125 0B       		.uleb128 0xb
 3044 0126 49       		.uleb128 0x49
 3045 0127 13       		.uleb128 0x13
 3046 0128 02       		.uleb128 0x2
 3047 0129 18       		.uleb128 0x18
 3048 012a 00       		.byte	0
 3049 012b 00       		.byte	0
 3050 012c 18       		.uleb128 0x18
 3051 012d 05       		.uleb128 0x5
 3052 012e 00       		.byte	0
 3053 012f 03       		.uleb128 0x3
 3054 0130 0E       		.uleb128 0xe
 3055 0131 3A       		.uleb128 0x3a
 3056 0132 0B       		.uleb128 0xb
 3057 0133 3B       		.uleb128 0x3b
 3058 0134 0B       		.uleb128 0xb
 3059 0135 49       		.uleb128 0x49
 3060 0136 13       		.uleb128 0x13
 3061 0137 02       		.uleb128 0x2
 3062 0138 18       		.uleb128 0x18
 3063 0139 00       		.byte	0
ARM GAS  /tmp/ccILw1Vl.s 			page 55


 3064 013a 00       		.byte	0
 3065 013b 19       		.uleb128 0x19
 3066 013c 0B       		.uleb128 0xb
 3067 013d 01       		.byte	0x1
 3068 013e 11       		.uleb128 0x11
 3069 013f 01       		.uleb128 0x1
 3070 0140 12       		.uleb128 0x12
 3071 0141 06       		.uleb128 0x6
 3072 0142 01       		.uleb128 0x1
 3073 0143 13       		.uleb128 0x13
 3074 0144 00       		.byte	0
 3075 0145 00       		.byte	0
 3076 0146 1A       		.uleb128 0x1a
 3077 0147 34       		.uleb128 0x34
 3078 0148 00       		.byte	0
 3079 0149 03       		.uleb128 0x3
 3080 014a 08       		.uleb128 0x8
 3081 014b 3A       		.uleb128 0x3a
 3082 014c 0B       		.uleb128 0xb
 3083 014d 3B       		.uleb128 0x3b
 3084 014e 0B       		.uleb128 0xb
 3085 014f 49       		.uleb128 0x49
 3086 0150 13       		.uleb128 0x13
 3087 0151 02       		.uleb128 0x2
 3088 0152 18       		.uleb128 0x18
 3089 0153 00       		.byte	0
 3090 0154 00       		.byte	0
 3091 0155 1B       		.uleb128 0x1b
 3092 0156 0B       		.uleb128 0xb
 3093 0157 01       		.byte	0x1
 3094 0158 55       		.uleb128 0x55
 3095 0159 17       		.uleb128 0x17
 3096 015a 00       		.byte	0
 3097 015b 00       		.byte	0
 3098 015c 1C       		.uleb128 0x1c
 3099 015d 34       		.uleb128 0x34
 3100 015e 00       		.byte	0
 3101 015f 03       		.uleb128 0x3
 3102 0160 08       		.uleb128 0x8
 3103 0161 3A       		.uleb128 0x3a
 3104 0162 0B       		.uleb128 0xb
 3105 0163 3B       		.uleb128 0x3b
 3106 0164 0B       		.uleb128 0xb
 3107 0165 49       		.uleb128 0x49
 3108 0166 13       		.uleb128 0x13
 3109 0167 02       		.uleb128 0x2
 3110 0168 17       		.uleb128 0x17
 3111 0169 00       		.byte	0
 3112 016a 00       		.byte	0
 3113 016b 1D       		.uleb128 0x1d
 3114 016c 2E       		.uleb128 0x2e
 3115 016d 01       		.byte	0x1
 3116 016e 3F       		.uleb128 0x3f
 3117 016f 19       		.uleb128 0x19
 3118 0170 03       		.uleb128 0x3
 3119 0171 0E       		.uleb128 0xe
 3120 0172 3A       		.uleb128 0x3a
ARM GAS  /tmp/ccILw1Vl.s 			page 56


 3121 0173 0B       		.uleb128 0xb
 3122 0174 3B       		.uleb128 0x3b
 3123 0175 0B       		.uleb128 0xb
 3124 0176 27       		.uleb128 0x27
 3125 0177 19       		.uleb128 0x19
 3126 0178 49       		.uleb128 0x49
 3127 0179 13       		.uleb128 0x13
 3128 017a 11       		.uleb128 0x11
 3129 017b 01       		.uleb128 0x1
 3130 017c 12       		.uleb128 0x12
 3131 017d 06       		.uleb128 0x6
 3132 017e 40       		.uleb128 0x40
 3133 017f 18       		.uleb128 0x18
 3134 0180 9742     		.uleb128 0x2117
 3135 0182 19       		.uleb128 0x19
 3136 0183 01       		.uleb128 0x1
 3137 0184 13       		.uleb128 0x13
 3138 0185 00       		.byte	0
 3139 0186 00       		.byte	0
 3140 0187 1E       		.uleb128 0x1e
 3141 0188 05       		.uleb128 0x5
 3142 0189 00       		.byte	0
 3143 018a 03       		.uleb128 0x3
 3144 018b 0E       		.uleb128 0xe
 3145 018c 3A       		.uleb128 0x3a
 3146 018d 0B       		.uleb128 0xb
 3147 018e 3B       		.uleb128 0x3b
 3148 018f 0B       		.uleb128 0xb
 3149 0190 49       		.uleb128 0x49
 3150 0191 13       		.uleb128 0x13
 3151 0192 02       		.uleb128 0x2
 3152 0193 17       		.uleb128 0x17
 3153 0194 00       		.byte	0
 3154 0195 00       		.byte	0
 3155 0196 1F       		.uleb128 0x1f
 3156 0197 0B       		.uleb128 0xb
 3157 0198 01       		.byte	0x1
 3158 0199 11       		.uleb128 0x11
 3159 019a 01       		.uleb128 0x1
 3160 019b 12       		.uleb128 0x12
 3161 019c 06       		.uleb128 0x6
 3162 019d 00       		.byte	0
 3163 019e 00       		.byte	0
 3164 019f 20       		.uleb128 0x20
 3165 01a0 05       		.uleb128 0x5
 3166 01a1 00       		.byte	0
 3167 01a2 03       		.uleb128 0x3
 3168 01a3 08       		.uleb128 0x8
 3169 01a4 3A       		.uleb128 0x3a
 3170 01a5 0B       		.uleb128 0xb
 3171 01a6 3B       		.uleb128 0x3b
 3172 01a7 0B       		.uleb128 0xb
 3173 01a8 49       		.uleb128 0x49
 3174 01a9 13       		.uleb128 0x13
 3175 01aa 02       		.uleb128 0x2
 3176 01ab 17       		.uleb128 0x17
 3177 01ac 00       		.byte	0
ARM GAS  /tmp/ccILw1Vl.s 			page 57


 3178 01ad 00       		.byte	0
 3179 01ae 21       		.uleb128 0x21
 3180 01af 34       		.uleb128 0x34
 3181 01b0 00       		.byte	0
 3182 01b1 03       		.uleb128 0x3
 3183 01b2 0E       		.uleb128 0xe
 3184 01b3 3A       		.uleb128 0x3a
 3185 01b4 0B       		.uleb128 0xb
 3186 01b5 3B       		.uleb128 0x3b
 3187 01b6 0B       		.uleb128 0xb
 3188 01b7 49       		.uleb128 0x49
 3189 01b8 13       		.uleb128 0x13
 3190 01b9 02       		.uleb128 0x2
 3191 01ba 18       		.uleb128 0x18
 3192 01bb 00       		.byte	0
 3193 01bc 00       		.byte	0
 3194 01bd 22       		.uleb128 0x22
 3195 01be 2E       		.uleb128 0x2e
 3196 01bf 01       		.byte	0x1
 3197 01c0 31       		.uleb128 0x31
 3198 01c1 13       		.uleb128 0x13
 3199 01c2 11       		.uleb128 0x11
 3200 01c3 01       		.uleb128 0x1
 3201 01c4 12       		.uleb128 0x12
 3202 01c5 06       		.uleb128 0x6
 3203 01c6 40       		.uleb128 0x40
 3204 01c7 18       		.uleb128 0x18
 3205 01c8 9742     		.uleb128 0x2117
 3206 01ca 19       		.uleb128 0x19
 3207 01cb 01       		.uleb128 0x1
 3208 01cc 13       		.uleb128 0x13
 3209 01cd 00       		.byte	0
 3210 01ce 00       		.byte	0
 3211 01cf 23       		.uleb128 0x23
 3212 01d0 05       		.uleb128 0x5
 3213 01d1 00       		.byte	0
 3214 01d2 31       		.uleb128 0x31
 3215 01d3 13       		.uleb128 0x13
 3216 01d4 02       		.uleb128 0x2
 3217 01d5 17       		.uleb128 0x17
 3218 01d6 00       		.byte	0
 3219 01d7 00       		.byte	0
 3220 01d8 24       		.uleb128 0x24
 3221 01d9 898201   		.uleb128 0x4109
 3222 01dc 01       		.byte	0x1
 3223 01dd 11       		.uleb128 0x11
 3224 01de 01       		.uleb128 0x1
 3225 01df 31       		.uleb128 0x31
 3226 01e0 13       		.uleb128 0x13
 3227 01e1 00       		.byte	0
 3228 01e2 00       		.byte	0
 3229 01e3 25       		.uleb128 0x25
 3230 01e4 8A8201   		.uleb128 0x410a
 3231 01e7 00       		.byte	0
 3232 01e8 02       		.uleb128 0x2
 3233 01e9 18       		.uleb128 0x18
 3234 01ea 9142     		.uleb128 0x2111
ARM GAS  /tmp/ccILw1Vl.s 			page 58


 3235 01ec 18       		.uleb128 0x18
 3236 01ed 00       		.byte	0
 3237 01ee 00       		.byte	0
 3238 01ef 26       		.uleb128 0x26
 3239 01f0 898201   		.uleb128 0x4109
 3240 01f3 00       		.byte	0
 3241 01f4 11       		.uleb128 0x11
 3242 01f5 01       		.uleb128 0x1
 3243 01f6 31       		.uleb128 0x31
 3244 01f7 13       		.uleb128 0x13
 3245 01f8 00       		.byte	0
 3246 01f9 00       		.byte	0
 3247 01fa 27       		.uleb128 0x27
 3248 01fb 898201   		.uleb128 0x4109
 3249 01fe 01       		.byte	0x1
 3250 01ff 11       		.uleb128 0x11
 3251 0200 01       		.uleb128 0x1
 3252 0201 31       		.uleb128 0x31
 3253 0202 13       		.uleb128 0x13
 3254 0203 01       		.uleb128 0x1
 3255 0204 13       		.uleb128 0x13
 3256 0205 00       		.byte	0
 3257 0206 00       		.byte	0
 3258 0207 28       		.uleb128 0x28
 3259 0208 2E       		.uleb128 0x2e
 3260 0209 01       		.byte	0x1
 3261 020a 3F       		.uleb128 0x3f
 3262 020b 19       		.uleb128 0x19
 3263 020c 03       		.uleb128 0x3
 3264 020d 0E       		.uleb128 0xe
 3265 020e 3A       		.uleb128 0x3a
 3266 020f 0B       		.uleb128 0xb
 3267 0210 3B       		.uleb128 0x3b
 3268 0211 05       		.uleb128 0x5
 3269 0212 27       		.uleb128 0x27
 3270 0213 19       		.uleb128 0x19
 3271 0214 11       		.uleb128 0x11
 3272 0215 01       		.uleb128 0x1
 3273 0216 12       		.uleb128 0x12
 3274 0217 06       		.uleb128 0x6
 3275 0218 40       		.uleb128 0x40
 3276 0219 18       		.uleb128 0x18
 3277 021a 9742     		.uleb128 0x2117
 3278 021c 19       		.uleb128 0x19
 3279 021d 01       		.uleb128 0x1
 3280 021e 13       		.uleb128 0x13
 3281 021f 00       		.byte	0
 3282 0220 00       		.byte	0
 3283 0221 29       		.uleb128 0x29
 3284 0222 05       		.uleb128 0x5
 3285 0223 00       		.byte	0
 3286 0224 03       		.uleb128 0x3
 3287 0225 08       		.uleb128 0x8
 3288 0226 3A       		.uleb128 0x3a
 3289 0227 0B       		.uleb128 0xb
 3290 0228 3B       		.uleb128 0x3b
 3291 0229 05       		.uleb128 0x5
ARM GAS  /tmp/ccILw1Vl.s 			page 59


 3292 022a 49       		.uleb128 0x49
 3293 022b 13       		.uleb128 0x13
 3294 022c 02       		.uleb128 0x2
 3295 022d 17       		.uleb128 0x17
 3296 022e 00       		.byte	0
 3297 022f 00       		.byte	0
 3298 0230 2A       		.uleb128 0x2a
 3299 0231 05       		.uleb128 0x5
 3300 0232 00       		.byte	0
 3301 0233 03       		.uleb128 0x3
 3302 0234 0E       		.uleb128 0xe
 3303 0235 3A       		.uleb128 0x3a
 3304 0236 0B       		.uleb128 0xb
 3305 0237 3B       		.uleb128 0x3b
 3306 0238 05       		.uleb128 0x5
 3307 0239 49       		.uleb128 0x49
 3308 023a 13       		.uleb128 0x13
 3309 023b 02       		.uleb128 0x2
 3310 023c 17       		.uleb128 0x17
 3311 023d 00       		.byte	0
 3312 023e 00       		.byte	0
 3313 023f 2B       		.uleb128 0x2b
 3314 0240 34       		.uleb128 0x34
 3315 0241 00       		.byte	0
 3316 0242 03       		.uleb128 0x3
 3317 0243 08       		.uleb128 0x8
 3318 0244 3A       		.uleb128 0x3a
 3319 0245 0B       		.uleb128 0xb
 3320 0246 3B       		.uleb128 0x3b
 3321 0247 05       		.uleb128 0x5
 3322 0248 49       		.uleb128 0x49
 3323 0249 13       		.uleb128 0x13
 3324 024a 02       		.uleb128 0x2
 3325 024b 18       		.uleb128 0x18
 3326 024c 00       		.byte	0
 3327 024d 00       		.byte	0
 3328 024e 2C       		.uleb128 0x2c
 3329 024f 2E       		.uleb128 0x2e
 3330 0250 01       		.byte	0x1
 3331 0251 3F       		.uleb128 0x3f
 3332 0252 19       		.uleb128 0x19
 3333 0253 03       		.uleb128 0x3
 3334 0254 0E       		.uleb128 0xe
 3335 0255 3A       		.uleb128 0x3a
 3336 0256 0B       		.uleb128 0xb
 3337 0257 3B       		.uleb128 0x3b
 3338 0258 05       		.uleb128 0x5
 3339 0259 27       		.uleb128 0x27
 3340 025a 19       		.uleb128 0x19
 3341 025b 49       		.uleb128 0x49
 3342 025c 13       		.uleb128 0x13
 3343 025d 11       		.uleb128 0x11
 3344 025e 01       		.uleb128 0x1
 3345 025f 12       		.uleb128 0x12
 3346 0260 06       		.uleb128 0x6
 3347 0261 40       		.uleb128 0x40
 3348 0262 18       		.uleb128 0x18
ARM GAS  /tmp/ccILw1Vl.s 			page 60


 3349 0263 9742     		.uleb128 0x2117
 3350 0265 19       		.uleb128 0x19
 3351 0266 01       		.uleb128 0x1
 3352 0267 13       		.uleb128 0x13
 3353 0268 00       		.byte	0
 3354 0269 00       		.byte	0
 3355 026a 2D       		.uleb128 0x2d
 3356 026b 34       		.uleb128 0x34
 3357 026c 00       		.byte	0
 3358 026d 03       		.uleb128 0x3
 3359 026e 0E       		.uleb128 0xe
 3360 026f 3A       		.uleb128 0x3a
 3361 0270 0B       		.uleb128 0xb
 3362 0271 3B       		.uleb128 0x3b
 3363 0272 05       		.uleb128 0x5
 3364 0273 49       		.uleb128 0x49
 3365 0274 13       		.uleb128 0x13
 3366 0275 02       		.uleb128 0x2
 3367 0276 18       		.uleb128 0x18
 3368 0277 00       		.byte	0
 3369 0278 00       		.byte	0
 3370 0279 2E       		.uleb128 0x2e
 3371 027a 34       		.uleb128 0x34
 3372 027b 00       		.byte	0
 3373 027c 03       		.uleb128 0x3
 3374 027d 08       		.uleb128 0x8
 3375 027e 3A       		.uleb128 0x3a
 3376 027f 0B       		.uleb128 0xb
 3377 0280 3B       		.uleb128 0x3b
 3378 0281 05       		.uleb128 0x5
 3379 0282 49       		.uleb128 0x49
 3380 0283 13       		.uleb128 0x13
 3381 0284 02       		.uleb128 0x2
 3382 0285 17       		.uleb128 0x17
 3383 0286 00       		.byte	0
 3384 0287 00       		.byte	0
 3385 0288 2F       		.uleb128 0x2f
 3386 0289 898201   		.uleb128 0x4109
 3387 028c 01       		.byte	0x1
 3388 028d 11       		.uleb128 0x11
 3389 028e 01       		.uleb128 0x1
 3390 028f 00       		.byte	0
 3391 0290 00       		.byte	0
 3392 0291 30       		.uleb128 0x30
 3393 0292 34       		.uleb128 0x34
 3394 0293 00       		.byte	0
 3395 0294 03       		.uleb128 0x3
 3396 0295 0E       		.uleb128 0xe
 3397 0296 3A       		.uleb128 0x3a
 3398 0297 0B       		.uleb128 0xb
 3399 0298 3B       		.uleb128 0x3b
 3400 0299 0B       		.uleb128 0xb
 3401 029a 49       		.uleb128 0x49
 3402 029b 13       		.uleb128 0x13
 3403 029c 3F       		.uleb128 0x3f
 3404 029d 19       		.uleb128 0x19
 3405 029e 3C       		.uleb128 0x3c
ARM GAS  /tmp/ccILw1Vl.s 			page 61


 3406 029f 19       		.uleb128 0x19
 3407 02a0 00       		.byte	0
 3408 02a1 00       		.byte	0
 3409 02a2 31       		.uleb128 0x31
 3410 02a3 2E       		.uleb128 0x2e
 3411 02a4 01       		.byte	0x1
 3412 02a5 3F       		.uleb128 0x3f
 3413 02a6 19       		.uleb128 0x19
 3414 02a7 03       		.uleb128 0x3
 3415 02a8 0E       		.uleb128 0xe
 3416 02a9 3A       		.uleb128 0x3a
 3417 02aa 0B       		.uleb128 0xb
 3418 02ab 3B       		.uleb128 0x3b
 3419 02ac 0B       		.uleb128 0xb
 3420 02ad 27       		.uleb128 0x27
 3421 02ae 19       		.uleb128 0x19
 3422 02af 49       		.uleb128 0x49
 3423 02b0 13       		.uleb128 0x13
 3424 02b1 3C       		.uleb128 0x3c
 3425 02b2 19       		.uleb128 0x19
 3426 02b3 01       		.uleb128 0x1
 3427 02b4 13       		.uleb128 0x13
 3428 02b5 00       		.byte	0
 3429 02b6 00       		.byte	0
 3430 02b7 32       		.uleb128 0x32
 3431 02b8 2E       		.uleb128 0x2e
 3432 02b9 00       		.byte	0
 3433 02ba 3F       		.uleb128 0x3f
 3434 02bb 19       		.uleb128 0x19
 3435 02bc 03       		.uleb128 0x3
 3436 02bd 0E       		.uleb128 0xe
 3437 02be 3A       		.uleb128 0x3a
 3438 02bf 0B       		.uleb128 0xb
 3439 02c0 3B       		.uleb128 0x3b
 3440 02c1 0B       		.uleb128 0xb
 3441 02c2 27       		.uleb128 0x27
 3442 02c3 19       		.uleb128 0x19
 3443 02c4 3C       		.uleb128 0x3c
 3444 02c5 19       		.uleb128 0x19
 3445 02c6 00       		.byte	0
 3446 02c7 00       		.byte	0
 3447 02c8 33       		.uleb128 0x33
 3448 02c9 2E       		.uleb128 0x2e
 3449 02ca 01       		.byte	0x1
 3450 02cb 3F       		.uleb128 0x3f
 3451 02cc 19       		.uleb128 0x19
 3452 02cd 03       		.uleb128 0x3
 3453 02ce 0E       		.uleb128 0xe
 3454 02cf 3A       		.uleb128 0x3a
 3455 02d0 0B       		.uleb128 0xb
 3456 02d1 3B       		.uleb128 0x3b
 3457 02d2 0B       		.uleb128 0xb
 3458 02d3 27       		.uleb128 0x27
 3459 02d4 19       		.uleb128 0x19
 3460 02d5 3C       		.uleb128 0x3c
 3461 02d6 19       		.uleb128 0x19
 3462 02d7 01       		.uleb128 0x1
ARM GAS  /tmp/ccILw1Vl.s 			page 62


 3463 02d8 13       		.uleb128 0x13
 3464 02d9 00       		.byte	0
 3465 02da 00       		.byte	0
 3466 02db 34       		.uleb128 0x34
 3467 02dc 2E       		.uleb128 0x2e
 3468 02dd 01       		.byte	0x1
 3469 02de 3F       		.uleb128 0x3f
 3470 02df 19       		.uleb128 0x19
 3471 02e0 03       		.uleb128 0x3
 3472 02e1 0E       		.uleb128 0xe
 3473 02e2 3A       		.uleb128 0x3a
 3474 02e3 0B       		.uleb128 0xb
 3475 02e4 3B       		.uleb128 0x3b
 3476 02e5 0B       		.uleb128 0xb
 3477 02e6 27       		.uleb128 0x27
 3478 02e7 19       		.uleb128 0x19
 3479 02e8 49       		.uleb128 0x49
 3480 02e9 13       		.uleb128 0x13
 3481 02ea 3C       		.uleb128 0x3c
 3482 02eb 19       		.uleb128 0x19
 3483 02ec 00       		.byte	0
 3484 02ed 00       		.byte	0
 3485 02ee 00       		.byte	0
 3486              		.section	.debug_loc,"",%progbits
 3487              	.Ldebug_loc0:
 3488              	.LLST0:
 3489 0000 00000000 		.4byte	.LVL1
 3490 0004 0A000000 		.4byte	.LVL2
 3491 0008 0100     		.2byte	0x1
 3492 000a 50       		.byte	0x50
 3493 000b 0A000000 		.4byte	.LVL2
 3494 000f 2A000000 		.4byte	.LFE8
 3495 0013 0100     		.2byte	0x1
 3496 0015 52       		.byte	0x52
 3497 0016 00000000 		.4byte	0
 3498 001a 00000000 		.4byte	0
 3499              	.LLST1:
 3500 001e 00000000 		.4byte	.LVL4
 3501 0022 1A000000 		.4byte	.LVL6
 3502 0026 0100     		.2byte	0x1
 3503 0028 50       		.byte	0x50
 3504 0029 1A000000 		.4byte	.LVL6
 3505 002d 20000000 		.4byte	.LFE9
 3506 0031 0400     		.2byte	0x4
 3507 0033 F3       		.byte	0xf3
 3508 0034 01       		.uleb128 0x1
 3509 0035 50       		.byte	0x50
 3510 0036 9F       		.byte	0x9f
 3511 0037 00000000 		.4byte	0
 3512 003b 00000000 		.4byte	0
 3513              	.LLST2:
 3514 003f 0C000000 		.4byte	.LVL5
 3515 0043 1A000000 		.4byte	.LVL6
 3516 0047 0600     		.2byte	0x6
 3517 0049 70       		.byte	0x70
 3518 004a 00       		.sleb128 0
 3519 004b 72       		.byte	0x72
ARM GAS  /tmp/ccILw1Vl.s 			page 63


 3520 004c 00       		.sleb128 0
 3521 004d 1A       		.byte	0x1a
 3522 004e 9F       		.byte	0x9f
 3523 004f 1A000000 		.4byte	.LVL6
 3524 0053 20000000 		.4byte	.LFE9
 3525 0057 0100     		.2byte	0x1
 3526 0059 50       		.byte	0x50
 3527 005a 00000000 		.4byte	0
 3528 005e 00000000 		.4byte	0
 3529              	.LLST3:
 3530 0062 00000000 		.4byte	.LVL7
 3531 0066 0E000000 		.4byte	.LVL8
 3532 006a 0100     		.2byte	0x1
 3533 006c 50       		.byte	0x50
 3534 006d 0E000000 		.4byte	.LVL8
 3535 0071 10000000 		.4byte	.LVL9
 3536 0075 0400     		.2byte	0x4
 3537 0077 F3       		.byte	0xf3
 3538 0078 01       		.uleb128 0x1
 3539 0079 50       		.byte	0x50
 3540 007a 9F       		.byte	0x9f
 3541 007b 10000000 		.4byte	.LVL9
 3542 007f 1C000000 		.4byte	.LFE10
 3543 0083 0100     		.2byte	0x1
 3544 0085 50       		.byte	0x50
 3545 0086 00000000 		.4byte	0
 3546 008a 00000000 		.4byte	0
 3547              	.LLST4:
 3548 008e 00000000 		.4byte	.LVL10
 3549 0092 0C000000 		.4byte	.LVL11
 3550 0096 0100     		.2byte	0x1
 3551 0098 50       		.byte	0x50
 3552 0099 0C000000 		.4byte	.LVL11
 3553 009d 14000000 		.4byte	.LFE12
 3554 00a1 0100     		.2byte	0x1
 3555 00a3 52       		.byte	0x52
 3556 00a4 00000000 		.4byte	0
 3557 00a8 00000000 		.4byte	0
 3558              	.LLST5:
 3559 00ac 00000000 		.4byte	.LVL12
 3560 00b0 1F000000 		.4byte	.LVL15-1
 3561 00b4 0100     		.2byte	0x1
 3562 00b6 50       		.byte	0x50
 3563 00b7 1F000000 		.4byte	.LVL15-1
 3564 00bb 26000000 		.4byte	.LVL16
 3565 00bf 0400     		.2byte	0x4
 3566 00c1 F3       		.byte	0xf3
 3567 00c2 01       		.uleb128 0x1
 3568 00c3 50       		.byte	0x50
 3569 00c4 9F       		.byte	0x9f
 3570 00c5 26000000 		.4byte	.LVL16
 3571 00c9 2E000000 		.4byte	.LFE14
 3572 00cd 0100     		.2byte	0x1
 3573 00cf 50       		.byte	0x50
 3574 00d0 00000000 		.4byte	0
 3575 00d4 00000000 		.4byte	0
 3576              	.LLST6:
ARM GAS  /tmp/ccILw1Vl.s 			page 64


 3577 00d8 00000000 		.4byte	.LVL12
 3578 00dc 08000000 		.4byte	.LVL13
 3579 00e0 0100     		.2byte	0x1
 3580 00e2 51       		.byte	0x51
 3581 00e3 08000000 		.4byte	.LVL13
 3582 00e7 2E000000 		.4byte	.LFE14
 3583 00eb 0400     		.2byte	0x4
 3584 00ed F3       		.byte	0xf3
 3585 00ee 01       		.uleb128 0x1
 3586 00ef 51       		.byte	0x51
 3587 00f0 9F       		.byte	0x9f
 3588 00f1 00000000 		.4byte	0
 3589 00f5 00000000 		.4byte	0
 3590              	.LLST7:
 3591 00f9 1C000000 		.4byte	.LVL14
 3592 00fd 26000000 		.4byte	.LVL16
 3593 0101 0400     		.2byte	0x4
 3594 0103 F3       		.byte	0xf3
 3595 0104 01       		.uleb128 0x1
 3596 0105 51       		.byte	0x51
 3597 0106 9F       		.byte	0x9f
 3598 0107 00000000 		.4byte	0
 3599 010b 00000000 		.4byte	0
 3600              	.LLST8:
 3601 010f 1C000000 		.4byte	.LVL14
 3602 0113 1F000000 		.4byte	.LVL15-1
 3603 0117 0100     		.2byte	0x1
 3604 0119 50       		.byte	0x50
 3605 011a 1F000000 		.4byte	.LVL15-1
 3606 011e 26000000 		.4byte	.LVL16
 3607 0122 0400     		.2byte	0x4
 3608 0124 F3       		.byte	0xf3
 3609 0125 01       		.uleb128 0x1
 3610 0126 50       		.byte	0x50
 3611 0127 9F       		.byte	0x9f
 3612 0128 00000000 		.4byte	0
 3613 012c 00000000 		.4byte	0
 3614              	.LLST9:
 3615 0130 00000000 		.4byte	.LVL17
 3616 0134 0C000000 		.4byte	.LVL19
 3617 0138 0100     		.2byte	0x1
 3618 013a 50       		.byte	0x50
 3619 013b 0C000000 		.4byte	.LVL19
 3620 013f 20000000 		.4byte	.LFE11
 3621 0143 0100     		.2byte	0x1
 3622 0145 55       		.byte	0x55
 3623 0146 00000000 		.4byte	0
 3624 014a 00000000 		.4byte	0
 3625              	.LLST10:
 3626 014e 00000000 		.4byte	.LVL17
 3627 0152 0C000000 		.4byte	.LVL19
 3628 0156 0100     		.2byte	0x1
 3629 0158 51       		.byte	0x51
 3630 0159 0C000000 		.4byte	.LVL19
 3631 015d 20000000 		.4byte	.LFE11
 3632 0161 0100     		.2byte	0x1
 3633 0163 56       		.byte	0x56
ARM GAS  /tmp/ccILw1Vl.s 			page 65


 3634 0164 00000000 		.4byte	0
 3635 0168 00000000 		.4byte	0
 3636              	.LLST11:
 3637 016c 00000000 		.4byte	.LVL22
 3638 0170 0B000000 		.4byte	.LVL23-1
 3639 0174 0100     		.2byte	0x1
 3640 0176 50       		.byte	0x50
 3641 0177 0B000000 		.4byte	.LVL23-1
 3642 017b 18000000 		.4byte	.LFE13
 3643 017f 0400     		.2byte	0x4
 3644 0181 F3       		.byte	0xf3
 3645 0182 01       		.uleb128 0x1
 3646 0183 50       		.byte	0x50
 3647 0184 9F       		.byte	0x9f
 3648 0185 00000000 		.4byte	0
 3649 0189 00000000 		.4byte	0
 3650              	.LLST12:
 3651 018d 00000000 		.4byte	.LVL22
 3652 0191 0B000000 		.4byte	.LVL23-1
 3653 0195 0100     		.2byte	0x1
 3654 0197 51       		.byte	0x51
 3655 0198 0B000000 		.4byte	.LVL23-1
 3656 019c 18000000 		.4byte	.LFE13
 3657 01a0 0400     		.2byte	0x4
 3658 01a2 F3       		.byte	0xf3
 3659 01a3 01       		.uleb128 0x1
 3660 01a4 51       		.byte	0x51
 3661 01a5 9F       		.byte	0x9f
 3662 01a6 00000000 		.4byte	0
 3663 01aa 00000000 		.4byte	0
 3664              	.LLST13:
 3665 01ae 00000000 		.4byte	.LVL25
 3666 01b2 0B000000 		.4byte	.LVL26-1
 3667 01b6 0100     		.2byte	0x1
 3668 01b8 50       		.byte	0x50
 3669 01b9 0B000000 		.4byte	.LVL26-1
 3670 01bd 18000000 		.4byte	.LFE15
 3671 01c1 0400     		.2byte	0x4
 3672 01c3 F3       		.byte	0xf3
 3673 01c4 01       		.uleb128 0x1
 3674 01c5 50       		.byte	0x50
 3675 01c6 9F       		.byte	0x9f
 3676 01c7 00000000 		.4byte	0
 3677 01cb 00000000 		.4byte	0
 3678              	.LLST14:
 3679 01cf 00000000 		.4byte	.LVL25
 3680 01d3 0B000000 		.4byte	.LVL26-1
 3681 01d7 0100     		.2byte	0x1
 3682 01d9 51       		.byte	0x51
 3683 01da 0B000000 		.4byte	.LVL26-1
 3684 01de 18000000 		.4byte	.LFE15
 3685 01e2 0400     		.2byte	0x4
 3686 01e4 F3       		.byte	0xf3
 3687 01e5 01       		.uleb128 0x1
 3688 01e6 51       		.byte	0x51
 3689 01e7 9F       		.byte	0x9f
 3690 01e8 00000000 		.4byte	0
ARM GAS  /tmp/ccILw1Vl.s 			page 66


 3691 01ec 00000000 		.4byte	0
 3692              	.LLST15:
 3693 01f0 00000000 		.4byte	.LVL28
 3694 01f4 06000000 		.4byte	.LVL29
 3695 01f8 0100     		.2byte	0x1
 3696 01fa 50       		.byte	0x50
 3697 01fb 06000000 		.4byte	.LVL29
 3698 01ff 0A000000 		.4byte	.LFE16
 3699 0203 0100     		.2byte	0x1
 3700 0205 53       		.byte	0x53
 3701 0206 00000000 		.4byte	0
 3702 020a 00000000 		.4byte	0
 3703              	.LLST16:
 3704 020e 00000000 		.4byte	.LVL30
 3705 0212 0C000000 		.4byte	.LVL31
 3706 0216 0100     		.2byte	0x1
 3707 0218 50       		.byte	0x50
 3708 0219 0C000000 		.4byte	.LVL31
 3709 021d 32000000 		.4byte	.LVL36
 3710 0221 0100     		.2byte	0x1
 3711 0223 57       		.byte	0x57
 3712 0224 32000000 		.4byte	.LVL36
 3713 0228 34000000 		.4byte	.LFE17
 3714 022c 0100     		.2byte	0x1
 3715 022e 50       		.byte	0x50
 3716 022f 00000000 		.4byte	0
 3717 0233 00000000 		.4byte	0
 3718              	.LLST17:
 3719 0237 00000000 		.4byte	.LVL30
 3720 023b 0C000000 		.4byte	.LVL31
 3721 023f 0100     		.2byte	0x1
 3722 0241 51       		.byte	0x51
 3723 0242 0C000000 		.4byte	.LVL31
 3724 0246 32000000 		.4byte	.LVL36
 3725 024a 0100     		.2byte	0x1
 3726 024c 55       		.byte	0x55
 3727 024d 32000000 		.4byte	.LVL36
 3728 0251 34000000 		.4byte	.LFE17
 3729 0255 0100     		.2byte	0x1
 3730 0257 51       		.byte	0x51
 3731 0258 00000000 		.4byte	0
 3732 025c 00000000 		.4byte	0
 3733              	.LLST18:
 3734 0260 00000000 		.4byte	.LVL30
 3735 0264 0C000000 		.4byte	.LVL31
 3736 0268 0200     		.2byte	0x2
 3737 026a 30       		.byte	0x30
 3738 026b 9F       		.byte	0x9f
 3739 026c 0C000000 		.4byte	.LVL31
 3740 0270 32000000 		.4byte	.LVL36
 3741 0274 0100     		.2byte	0x1
 3742 0276 54       		.byte	0x54
 3743 0277 32000000 		.4byte	.LVL36
 3744 027b 34000000 		.4byte	.LFE17
 3745 027f 0200     		.2byte	0x2
 3746 0281 30       		.byte	0x30
 3747 0282 9F       		.byte	0x9f
ARM GAS  /tmp/ccILw1Vl.s 			page 67


 3748 0283 00000000 		.4byte	0
 3749 0287 00000000 		.4byte	0
 3750              	.LLST19:
 3751 028b 00000000 		.4byte	.LVL37
 3752 028f 1A000000 		.4byte	.LVL41
 3753 0293 0100     		.2byte	0x1
 3754 0295 50       		.byte	0x50
 3755 0296 1A000000 		.4byte	.LVL41
 3756 029a 24000000 		.4byte	.LVL43
 3757 029e 0100     		.2byte	0x1
 3758 02a0 54       		.byte	0x54
 3759 02a1 24000000 		.4byte	.LVL43
 3760 02a5 3C000000 		.4byte	.LFE18
 3761 02a9 0400     		.2byte	0x4
 3762 02ab F3       		.byte	0xf3
 3763 02ac 01       		.uleb128 0x1
 3764 02ad 50       		.byte	0x50
 3765 02ae 9F       		.byte	0x9f
 3766 02af 00000000 		.4byte	0
 3767 02b3 00000000 		.4byte	0
 3768              	.LLST20:
 3769 02b7 06000000 		.4byte	.LVL38
 3770 02bb 36000000 		.4byte	.LVL45
 3771 02bf 0100     		.2byte	0x1
 3772 02c1 55       		.byte	0x55
 3773 02c2 00000000 		.4byte	0
 3774 02c6 00000000 		.4byte	0
 3775              	.LLST21:
 3776 02ca 0E000000 		.4byte	.LVL39
 3777 02ce 12000000 		.4byte	.LVL40
 3778 02d2 0600     		.2byte	0x6
 3779 02d4 70       		.byte	0x70
 3780 02d5 00       		.sleb128 0
 3781 02d6 73       		.byte	0x73
 3782 02d7 00       		.sleb128 0
 3783 02d8 1A       		.byte	0x1a
 3784 02d9 9F       		.byte	0x9f
 3785 02da 12000000 		.4byte	.LVL40
 3786 02de 1D000000 		.4byte	.LVL42-1
 3787 02e2 0100     		.2byte	0x1
 3788 02e4 52       		.byte	0x52
 3789 02e5 24000000 		.4byte	.LVL43
 3790 02e9 28000000 		.4byte	.LVL44
 3791 02ed 0100     		.2byte	0x1
 3792 02ef 52       		.byte	0x52
 3793 02f0 28000000 		.4byte	.LVL44
 3794 02f4 3C000000 		.4byte	.LFE18
 3795 02f8 0100     		.2byte	0x1
 3796 02fa 50       		.byte	0x50
 3797 02fb 00000000 		.4byte	0
 3798 02ff 00000000 		.4byte	0
 3799              	.LLST22:
 3800 0303 00000000 		.4byte	.LVL46
 3801 0307 1A000000 		.4byte	.LVL51
 3802 030b 0100     		.2byte	0x1
 3803 030d 50       		.byte	0x50
 3804 030e 1A000000 		.4byte	.LVL51
ARM GAS  /tmp/ccILw1Vl.s 			page 68


 3805 0312 22000000 		.4byte	.LVL53
 3806 0316 0100     		.2byte	0x1
 3807 0318 54       		.byte	0x54
 3808 0319 22000000 		.4byte	.LVL53
 3809 031d 38000000 		.4byte	.LFE19
 3810 0321 0400     		.2byte	0x4
 3811 0323 F3       		.byte	0xf3
 3812 0324 01       		.uleb128 0x1
 3813 0325 50       		.byte	0x50
 3814 0326 9F       		.byte	0x9f
 3815 0327 00000000 		.4byte	0
 3816 032b 00000000 		.4byte	0
 3817              	.LLST23:
 3818 032f 06000000 		.4byte	.LVL47
 3819 0333 32000000 		.4byte	.LVL54
 3820 0337 0100     		.2byte	0x1
 3821 0339 55       		.byte	0x55
 3822 033a 00000000 		.4byte	0
 3823 033e 00000000 		.4byte	0
 3824              	.LLST24:
 3825 0342 0E000000 		.4byte	.LVL48
 3826 0346 12000000 		.4byte	.LVL49
 3827 034a 0600     		.2byte	0x6
 3828 034c 70       		.byte	0x70
 3829 034d 00       		.sleb128 0
 3830 034e 73       		.byte	0x73
 3831 034f 00       		.sleb128 0
 3832 0350 1A       		.byte	0x1a
 3833 0351 9F       		.byte	0x9f
 3834 0352 12000000 		.4byte	.LVL49
 3835 0356 16000000 		.4byte	.LVL50
 3836 035a 0100     		.2byte	0x1
 3837 035c 54       		.byte	0x54
 3838 035d 16000000 		.4byte	.LVL50
 3839 0361 1A000000 		.4byte	.LVL51
 3840 0365 0600     		.2byte	0x6
 3841 0367 70       		.byte	0x70
 3842 0368 00       		.sleb128 0
 3843 0369 73       		.byte	0x73
 3844 036a 00       		.sleb128 0
 3845 036b 1A       		.byte	0x1a
 3846 036c 9F       		.byte	0x9f
 3847 036d 1A000000 		.4byte	.LVL51
 3848 0371 1D000000 		.4byte	.LVL52-1
 3849 0375 0600     		.2byte	0x6
 3850 0377 74       		.byte	0x74
 3851 0378 00       		.sleb128 0
 3852 0379 73       		.byte	0x73
 3853 037a 00       		.sleb128 0
 3854 037b 1A       		.byte	0x1a
 3855 037c 9F       		.byte	0x9f
 3856 037d 22000000 		.4byte	.LVL53
 3857 0381 32000000 		.4byte	.LVL54
 3858 0385 0100     		.2byte	0x1
 3859 0387 54       		.byte	0x54
 3860 0388 32000000 		.4byte	.LVL54
 3861 038c 38000000 		.4byte	.LFE19
ARM GAS  /tmp/ccILw1Vl.s 			page 69


 3862 0390 0100     		.2byte	0x1
 3863 0392 50       		.byte	0x50
 3864 0393 00000000 		.4byte	0
 3865 0397 00000000 		.4byte	0
 3866              	.LLST25:
 3867 039b 00000000 		.4byte	.LVL55
 3868 039f 1C000000 		.4byte	.LVL57
 3869 03a3 0100     		.2byte	0x1
 3870 03a5 50       		.byte	0x50
 3871 03a6 1C000000 		.4byte	.LVL57
 3872 03aa 32000000 		.4byte	.LVL59
 3873 03ae 0100     		.2byte	0x1
 3874 03b0 54       		.byte	0x54
 3875 03b1 32000000 		.4byte	.LVL59
 3876 03b5 38000000 		.4byte	.LFE20
 3877 03b9 0100     		.2byte	0x1
 3878 03bb 50       		.byte	0x50
 3879 03bc 00000000 		.4byte	0
 3880 03c0 00000000 		.4byte	0
 3881              	.LLST26:
 3882 03c4 08000000 		.4byte	.LVL56
 3883 03c8 32000000 		.4byte	.LVL59
 3884 03cc 0100     		.2byte	0x1
 3885 03ce 55       		.byte	0x55
 3886 03cf 00000000 		.4byte	0
 3887 03d3 00000000 		.4byte	0
 3888              	.LLST27:
 3889 03d7 00000000 		.4byte	.LVL60
 3890 03db 1E000000 		.4byte	.LVL64
 3891 03df 0100     		.2byte	0x1
 3892 03e1 50       		.byte	0x50
 3893 03e2 1E000000 		.4byte	.LVL64
 3894 03e6 20000000 		.4byte	.LVL65
 3895 03ea 0400     		.2byte	0x4
 3896 03ec F3       		.byte	0xf3
 3897 03ed 01       		.uleb128 0x1
 3898 03ee 50       		.byte	0x50
 3899 03ef 9F       		.byte	0x9f
 3900 03f0 20000000 		.4byte	.LVL65
 3901 03f4 26000000 		.4byte	.LVL66
 3902 03f8 0100     		.2byte	0x1
 3903 03fa 50       		.byte	0x50
 3904 03fb 26000000 		.4byte	.LVL66
 3905 03ff 34000000 		.4byte	.LVL68
 3906 0403 0100     		.2byte	0x1
 3907 0405 55       		.byte	0x55
 3908 0406 34000000 		.4byte	.LVL68
 3909 040a 46000000 		.4byte	.LVL70
 3910 040e 0400     		.2byte	0x4
 3911 0410 F3       		.byte	0xf3
 3912 0411 01       		.uleb128 0x1
 3913 0412 50       		.byte	0x50
 3914 0413 9F       		.byte	0x9f
 3915 0414 46000000 		.4byte	.LVL70
 3916 0418 50000000 		.4byte	.LVL71
 3917 041c 0100     		.2byte	0x1
 3918 041e 55       		.byte	0x55
ARM GAS  /tmp/ccILw1Vl.s 			page 70


 3919 041f 50000000 		.4byte	.LVL71
 3920 0423 54000000 		.4byte	.LFE21
 3921 0427 0400     		.2byte	0x4
 3922 0429 F3       		.byte	0xf3
 3923 042a 01       		.uleb128 0x1
 3924 042b 50       		.byte	0x50
 3925 042c 9F       		.byte	0x9f
 3926 042d 00000000 		.4byte	0
 3927 0431 00000000 		.4byte	0
 3928              	.LLST28:
 3929 0435 00000000 		.4byte	.LVL60
 3930 0439 29000000 		.4byte	.LVL67-1
 3931 043d 0100     		.2byte	0x1
 3932 043f 51       		.byte	0x51
 3933 0440 29000000 		.4byte	.LVL67-1
 3934 0444 54000000 		.4byte	.LFE21
 3935 0448 0400     		.2byte	0x4
 3936 044a F3       		.byte	0xf3
 3937 044b 01       		.uleb128 0x1
 3938 044c 51       		.byte	0x51
 3939 044d 9F       		.byte	0x9f
 3940 044e 00000000 		.4byte	0
 3941 0452 00000000 		.4byte	0
 3942              	.LLST29:
 3943 0456 06000000 		.4byte	.LVL61
 3944 045a 50000000 		.4byte	.LVL71
 3945 045e 0100     		.2byte	0x1
 3946 0460 56       		.byte	0x56
 3947 0461 00000000 		.4byte	0
 3948 0465 00000000 		.4byte	0
 3949              	.LLST30:
 3950 0469 0E000000 		.4byte	.LVL62
 3951 046d 12000000 		.4byte	.LVL63
 3952 0471 0600     		.2byte	0x6
 3953 0473 70       		.byte	0x70
 3954 0474 00       		.sleb128 0
 3955 0475 72       		.byte	0x72
 3956 0476 00       		.sleb128 0
 3957 0477 1A       		.byte	0x1a
 3958 0478 9F       		.byte	0x9f
 3959 0479 12000000 		.4byte	.LVL63
 3960 047d 38000000 		.4byte	.LVL69
 3961 0481 0100     		.2byte	0x1
 3962 0483 54       		.byte	0x54
 3963 0484 38000000 		.4byte	.LVL69
 3964 0488 46000000 		.4byte	.LVL70
 3965 048c 0100     		.2byte	0x1
 3966 048e 50       		.byte	0x50
 3967 048f 46000000 		.4byte	.LVL70
 3968 0493 50000000 		.4byte	.LVL71
 3969 0497 0100     		.2byte	0x1
 3970 0499 54       		.byte	0x54
 3971 049a 50000000 		.4byte	.LVL71
 3972 049e 54000000 		.4byte	.LFE21
 3973 04a2 0100     		.2byte	0x1
 3974 04a4 50       		.byte	0x50
 3975 04a5 00000000 		.4byte	0
ARM GAS  /tmp/ccILw1Vl.s 			page 71


 3976 04a9 00000000 		.4byte	0
 3977              	.LLST31:
 3978 04ad 00000000 		.4byte	.LVL72
 3979 04b1 1E000000 		.4byte	.LVL76
 3980 04b5 0100     		.2byte	0x1
 3981 04b7 50       		.byte	0x50
 3982 04b8 1E000000 		.4byte	.LVL76
 3983 04bc 20000000 		.4byte	.LVL77
 3984 04c0 0400     		.2byte	0x4
 3985 04c2 F3       		.byte	0xf3
 3986 04c3 01       		.uleb128 0x1
 3987 04c4 50       		.byte	0x50
 3988 04c5 9F       		.byte	0x9f
 3989 04c6 20000000 		.4byte	.LVL77
 3990 04ca 26000000 		.4byte	.LVL78
 3991 04ce 0100     		.2byte	0x1
 3992 04d0 50       		.byte	0x50
 3993 04d1 26000000 		.4byte	.LVL78
 3994 04d5 34000000 		.4byte	.LVL80
 3995 04d9 0100     		.2byte	0x1
 3996 04db 55       		.byte	0x55
 3997 04dc 34000000 		.4byte	.LVL80
 3998 04e0 44000000 		.4byte	.LVL81
 3999 04e4 0400     		.2byte	0x4
 4000 04e6 F3       		.byte	0xf3
 4001 04e7 01       		.uleb128 0x1
 4002 04e8 50       		.byte	0x50
 4003 04e9 9F       		.byte	0x9f
 4004 04ea 44000000 		.4byte	.LVL81
 4005 04ee 4E000000 		.4byte	.LVL82
 4006 04f2 0100     		.2byte	0x1
 4007 04f4 55       		.byte	0x55
 4008 04f5 4E000000 		.4byte	.LVL82
 4009 04f9 54000000 		.4byte	.LFE22
 4010 04fd 0400     		.2byte	0x4
 4011 04ff F3       		.byte	0xf3
 4012 0500 01       		.uleb128 0x1
 4013 0501 50       		.byte	0x50
 4014 0502 9F       		.byte	0x9f
 4015 0503 00000000 		.4byte	0
 4016 0507 00000000 		.4byte	0
 4017              	.LLST32:
 4018 050b 00000000 		.4byte	.LVL72
 4019 050f 29000000 		.4byte	.LVL79-1
 4020 0513 0100     		.2byte	0x1
 4021 0515 51       		.byte	0x51
 4022 0516 29000000 		.4byte	.LVL79-1
 4023 051a 54000000 		.4byte	.LFE22
 4024 051e 0400     		.2byte	0x4
 4025 0520 F3       		.byte	0xf3
 4026 0521 01       		.uleb128 0x1
 4027 0522 51       		.byte	0x51
 4028 0523 9F       		.byte	0x9f
 4029 0524 00000000 		.4byte	0
 4030 0528 00000000 		.4byte	0
 4031              	.LLST33:
 4032 052c 06000000 		.4byte	.LVL73
ARM GAS  /tmp/ccILw1Vl.s 			page 72


 4033 0530 4E000000 		.4byte	.LVL82
 4034 0534 0100     		.2byte	0x1
 4035 0536 56       		.byte	0x56
 4036 0537 00000000 		.4byte	0
 4037 053b 00000000 		.4byte	0
 4038              	.LLST34:
 4039 053f 0E000000 		.4byte	.LVL74
 4040 0543 12000000 		.4byte	.LVL75
 4041 0547 0600     		.2byte	0x6
 4042 0549 70       		.byte	0x70
 4043 054a 00       		.sleb128 0
 4044 054b 72       		.byte	0x72
 4045 054c 00       		.sleb128 0
 4046 054d 1A       		.byte	0x1a
 4047 054e 9F       		.byte	0x9f
 4048 054f 12000000 		.4byte	.LVL75
 4049 0553 4E000000 		.4byte	.LVL82
 4050 0557 0100     		.2byte	0x1
 4051 0559 54       		.byte	0x54
 4052 055a 4E000000 		.4byte	.LVL82
 4053 055e 54000000 		.4byte	.LFE22
 4054 0562 0100     		.2byte	0x1
 4055 0564 50       		.byte	0x50
 4056 0565 00000000 		.4byte	0
 4057 0569 00000000 		.4byte	0
 4058              	.LLST35:
 4059 056d 00000000 		.4byte	.LVL83
 4060 0571 1A000000 		.4byte	.LVL85
 4061 0575 0100     		.2byte	0x1
 4062 0577 50       		.byte	0x50
 4063 0578 1A000000 		.4byte	.LVL85
 4064 057c 4C000000 		.4byte	.LVL89
 4065 0580 0100     		.2byte	0x1
 4066 0582 54       		.byte	0x54
 4067 0583 4C000000 		.4byte	.LVL89
 4068 0587 50000000 		.4byte	.LFE23
 4069 058b 0400     		.2byte	0x4
 4070 058d F3       		.byte	0xf3
 4071 058e 01       		.uleb128 0x1
 4072 058f 50       		.byte	0x50
 4073 0590 9F       		.byte	0x9f
 4074 0591 00000000 		.4byte	0
 4075 0595 00000000 		.4byte	0
 4076              	.LLST36:
 4077 0599 00000000 		.4byte	.LVL83
 4078 059d 2B000000 		.4byte	.LVL87-1
 4079 05a1 0100     		.2byte	0x1
 4080 05a3 51       		.byte	0x51
 4081 05a4 2B000000 		.4byte	.LVL87-1
 4082 05a8 50000000 		.4byte	.LFE23
 4083 05ac 0400     		.2byte	0x4
 4084 05ae F3       		.byte	0xf3
 4085 05af 01       		.uleb128 0x1
 4086 05b0 51       		.byte	0x51
 4087 05b1 9F       		.byte	0x9f
 4088 05b2 00000000 		.4byte	0
 4089 05b6 00000000 		.4byte	0
ARM GAS  /tmp/ccILw1Vl.s 			page 73


 4090              	.LLST37:
 4091 05ba 08000000 		.4byte	.LVL84
 4092 05be 4C000000 		.4byte	.LVL89
 4093 05c2 0100     		.2byte	0x1
 4094 05c4 55       		.byte	0x55
 4095 05c5 00000000 		.4byte	0
 4096 05c9 00000000 		.4byte	0
 4097              		.section	.debug_aranges,"",%progbits
 4098 0000 9C000000 		.4byte	0x9c
 4099 0004 0200     		.2byte	0x2
 4100 0006 00000000 		.4byte	.Ldebug_info0
 4101 000a 04       		.byte	0x4
 4102 000b 00       		.byte	0
 4103 000c 0000     		.2byte	0
 4104 000e 0000     		.2byte	0
 4105 0010 00000000 		.4byte	.LFB7
 4106 0014 28000000 		.4byte	.LFE7-.LFB7
 4107 0018 00000000 		.4byte	.LFB8
 4108 001c 2A000000 		.4byte	.LFE8-.LFB8
 4109 0020 00000000 		.4byte	.LFB9
 4110 0024 20000000 		.4byte	.LFE9-.LFB9
 4111 0028 00000000 		.4byte	.LFB10
 4112 002c 1C000000 		.4byte	.LFE10-.LFB10
 4113 0030 00000000 		.4byte	.LFB12
 4114 0034 14000000 		.4byte	.LFE12-.LFB12
 4115 0038 00000000 		.4byte	.LFB14
 4116 003c 2E000000 		.4byte	.LFE14-.LFB14
 4117 0040 00000000 		.4byte	.LFB11
 4118 0044 20000000 		.4byte	.LFE11-.LFB11
 4119 0048 00000000 		.4byte	.LFB13
 4120 004c 18000000 		.4byte	.LFE13-.LFB13
 4121 0050 00000000 		.4byte	.LFB15
 4122 0054 18000000 		.4byte	.LFE15-.LFB15
 4123 0058 00000000 		.4byte	.LFB16
 4124 005c 0A000000 		.4byte	.LFE16-.LFB16
 4125 0060 00000000 		.4byte	.LFB17
 4126 0064 34000000 		.4byte	.LFE17-.LFB17
 4127 0068 00000000 		.4byte	.LFB18
 4128 006c 3C000000 		.4byte	.LFE18-.LFB18
 4129 0070 00000000 		.4byte	.LFB19
 4130 0074 38000000 		.4byte	.LFE19-.LFB19
 4131 0078 00000000 		.4byte	.LFB20
 4132 007c 38000000 		.4byte	.LFE20-.LFB20
 4133 0080 00000000 		.4byte	.LFB21
 4134 0084 54000000 		.4byte	.LFE21-.LFB21
 4135 0088 00000000 		.4byte	.LFB22
 4136 008c 54000000 		.4byte	.LFE22-.LFB22
 4137 0090 00000000 		.4byte	.LFB23
 4138 0094 50000000 		.4byte	.LFE23-.LFB23
 4139 0098 00000000 		.4byte	0
 4140 009c 00000000 		.4byte	0
 4141              		.section	.debug_ranges,"",%progbits
 4142              	.Ldebug_ranges0:
 4143 0000 14000000 		.4byte	.LBB3
 4144 0004 16000000 		.4byte	.LBE3
 4145 0008 1C000000 		.4byte	.LBB4
 4146 000c 20000000 		.4byte	.LBE4
ARM GAS  /tmp/ccILw1Vl.s 			page 74


 4147 0010 00000000 		.4byte	0
 4148 0014 00000000 		.4byte	0
 4149 0018 16000000 		.4byte	.LBB6
 4150 001c 1E000000 		.4byte	.LBE6
 4151 0020 22000000 		.4byte	.LBB7
 4152 0024 2A000000 		.4byte	.LBE7
 4153 0028 00000000 		.4byte	0
 4154 002c 00000000 		.4byte	0
 4155 0030 00000000 		.4byte	.LFB7
 4156 0034 28000000 		.4byte	.LFE7
 4157 0038 00000000 		.4byte	.LFB8
 4158 003c 2A000000 		.4byte	.LFE8
 4159 0040 00000000 		.4byte	.LFB9
 4160 0044 20000000 		.4byte	.LFE9
 4161 0048 00000000 		.4byte	.LFB10
 4162 004c 1C000000 		.4byte	.LFE10
 4163 0050 00000000 		.4byte	.LFB12
 4164 0054 14000000 		.4byte	.LFE12
 4165 0058 00000000 		.4byte	.LFB14
 4166 005c 2E000000 		.4byte	.LFE14
 4167 0060 00000000 		.4byte	.LFB11
 4168 0064 20000000 		.4byte	.LFE11
 4169 0068 00000000 		.4byte	.LFB13
 4170 006c 18000000 		.4byte	.LFE13
 4171 0070 00000000 		.4byte	.LFB15
 4172 0074 18000000 		.4byte	.LFE15
 4173 0078 00000000 		.4byte	.LFB16
 4174 007c 0A000000 		.4byte	.LFE16
 4175 0080 00000000 		.4byte	.LFB17
 4176 0084 34000000 		.4byte	.LFE17
 4177 0088 00000000 		.4byte	.LFB18
 4178 008c 3C000000 		.4byte	.LFE18
 4179 0090 00000000 		.4byte	.LFB19
 4180 0094 38000000 		.4byte	.LFE19
 4181 0098 00000000 		.4byte	.LFB20
 4182 009c 38000000 		.4byte	.LFE20
 4183 00a0 00000000 		.4byte	.LFB21
 4184 00a4 54000000 		.4byte	.LFE21
 4185 00a8 00000000 		.4byte	.LFB22
 4186 00ac 54000000 		.4byte	.LFE22
 4187 00b0 00000000 		.4byte	.LFB23
 4188 00b4 50000000 		.4byte	.LFE23
 4189 00b8 00000000 		.4byte	0
 4190 00bc 00000000 		.4byte	0
 4191              		.section	.debug_line,"",%progbits
 4192              	.Ldebug_line0:
 4193 0000 F5020000 		.section	.debug_str,"MS",%progbits,1
 4193      02002C01 
 4193      00000201 
 4193      FB0E0D00 
 4193      01010101 
 4194              	.LASF41:
 4195 0000 705F6D73 		.ascii	"p_msg\000"
 4195      6700
 4196              	.LASF71:
 4197 0006 7264796D 		.ascii	"rdymsg\000"
 4197      736700
ARM GAS  /tmp/ccILw1Vl.s 			page 75


 4198              	.LASF5:
 4199 000d 5F5F7569 		.ascii	"__uint8_t\000"
 4199      6E74385F 
 4199      7400
 4200              	.LASF84:
 4201 0017 63684576 		.ascii	"chEvtSignal\000"
 4201      74536967 
 4201      6E616C00 
 4202              	.LASF11:
 4203 0023 6C6F6E67 		.ascii	"long long unsigned int\000"
 4203      206C6F6E 
 4203      6720756E 
 4203      7369676E 
 4203      65642069 
 4204              	.LASF80:
 4205 003a 63684576 		.ascii	"chEvtAddEvents\000"
 4205      74416464 
 4205      4576656E 
 4205      747300
 4206              	.LASF99:
 4207 0049 474E5520 		.ascii	"GNU C 4.9.2 20150128 (prerelease) -mcpu=cortex-m4 -"
 4207      4320342E 
 4207      392E3220 
 4207      32303135 
 4207      30313238 
 4208 007c 6D6E6F2D 		.ascii	"mno-thumb-interwork -mthumb -ggdb -O2 -fomit-frame-"
 4208      7468756D 
 4208      622D696E 
 4208      74657277 
 4208      6F726B20 
 4209 00af 706F696E 		.ascii	"pointer -falign-functions=16 -ffunction-sections -f"
 4209      74657220 
 4209      2D66616C 
 4209      69676E2D 
 4209      66756E63 
 4210 00e2 64617461 		.ascii	"data-sections -fno-common\000"
 4210      2D736563 
 4210      74696F6E 
 4210      73202D66 
 4210      6E6F2D63 
 4211              	.LASF72:
 4212 00fc 65786974 		.ascii	"exitcode\000"
 4212      636F6465 
 4212      00
 4213              	.LASF94:
 4214 0105 63684576 		.ascii	"chEvtWaitAnyTimeout\000"
 4214      74576169 
 4214      74416E79 
 4214      54696D65 
 4214      6F757400 
 4215              	.LASF29:
 4216 0119 705F7072 		.ascii	"p_prio\000"
 4216      696F00
 4217              	.LASF10:
 4218 0120 6C6F6E67 		.ascii	"long long int\000"
 4218      206C6F6E 
 4218      6720696E 
ARM GAS  /tmp/ccILw1Vl.s 			page 76


 4218      7400
 4219              	.LASF1:
 4220 012e 7369676E 		.ascii	"signed char\000"
 4220      65642063 
 4220      68617200 
 4221              	.LASF95:
 4222 013a 63684576 		.ascii	"chEvtWaitAllTimeout\000"
 4222      74576169 
 4222      74416C6C 
 4222      54696D65 
 4222      6F757400 
 4223              	.LASF45:
 4224 014e 705F6D70 		.ascii	"p_mpool\000"
 4224      6F6F6C00 
 4225              	.LASF60:
 4226 0156 6D5F7175 		.ascii	"m_queue\000"
 4226      65756500 
 4227              	.LASF19:
 4228 015e 74736C69 		.ascii	"tslices_t\000"
 4228      6365735F 
 4228      7400
 4229              	.LASF7:
 4230 0168 6C6F6E67 		.ascii	"long int\000"
 4230      20696E74 
 4230      00
 4231              	.LASF17:
 4232 0171 74737461 		.ascii	"tstate_t\000"
 4232      74655F74 
 4232      00
 4233              	.LASF90:
 4234 017a 63684576 		.ascii	"chEvtWaitAny\000"
 4234      74576169 
 4234      74416E79 
 4234      00
 4235              	.LASF98:
 4236 0187 63685363 		.ascii	"chSchGoSleepTimeoutS\000"
 4236      68476F53 
 4236      6C656570 
 4236      54696D65 
 4236      6F757453 
 4237              	.LASF83:
 4238 019c 63684576 		.ascii	"chEvtBroadcastFlagsI\000"
 4238      7442726F 
 4238      61646361 
 4238      7374466C 
 4238      61677349 
 4239              	.LASF31:
 4240 01b1 705F6E65 		.ascii	"p_newer\000"
 4240      77657200 
 4241              	.LASF104:
 4242 01b9 63685363 		.ascii	"chSchRescheduleS\000"
 4242      68526573 
 4242      63686564 
 4242      756C6553 
 4242      00
 4243              	.LASF8:
 4244 01ca 5F5F7569 		.ascii	"__uint32_t\000"
ARM GAS  /tmp/ccILw1Vl.s 			page 77


 4244      6E743332 
 4244      5F7400
 4245              	.LASF76:
 4246 01d5 6D61736B 		.ascii	"mask\000"
 4246      00
 4247              	.LASF48:
 4248 01da 72656761 		.ascii	"regarm_t\000"
 4248      726D5F74 
 4248      00
 4249              	.LASF85:
 4250 01e3 63684576 		.ascii	"chEvtBroadcastFlags\000"
 4250      7442726F 
 4250      61646361 
 4250      7374466C 
 4250      61677300 
 4251              	.LASF22:
 4252 01f7 6576656E 		.ascii	"eventid_t\000"
 4252      7469645F 
 4252      7400
 4253              	.LASF68:
 4254 0201 4576656E 		.ascii	"EventSource\000"
 4254      74536F75 
 4254      72636500 
 4255              	.LASF70:
 4256 020d 65766861 		.ascii	"evhandler_t\000"
 4256      6E646C65 
 4256      725F7400 
 4257              	.LASF0:
 4258 0219 756E7369 		.ascii	"unsigned int\000"
 4258      676E6564 
 4258      20696E74 
 4258      00
 4259              	.LASF9:
 4260 0226 6C6F6E67 		.ascii	"long unsigned int\000"
 4260      20756E73 
 4260      69676E65 
 4260      6420696E 
 4260      7400
 4261              	.LASF79:
 4262 0238 63684576 		.ascii	"chEvtGetAndClearEvents\000"
 4262      74476574 
 4262      416E6443 
 4262      6C656172 
 4262      4576656E 
 4263              	.LASF100:
 4264 024f 2E2E2F2E 		.ascii	"../../../os/kernel/src/chevents.c\000"
 4264      2E2F2E2E 
 4264      2F6F732F 
 4264      6B65726E 
 4264      656C2F73 
 4265              	.LASF50:
 4266 0271 636F6E74 		.ascii	"context\000"
 4266      65787400 
 4267              	.LASF4:
 4268 0279 73686F72 		.ascii	"short unsigned int\000"
 4268      7420756E 
 4268      7369676E 
ARM GAS  /tmp/ccILw1Vl.s 			page 78


 4268      65642069 
 4268      6E7400
 4269              	.LASF77:
 4270 028c 63684576 		.ascii	"chEvtRegisterMask\000"
 4270      74526567 
 4270      69737465 
 4270      724D6173 
 4270      6B00
 4271              	.LASF21:
 4272 029e 6D73675F 		.ascii	"msg_t\000"
 4272      7400
 4273              	.LASF55:
 4274 02a4 725F6E65 		.ascii	"r_newer\000"
 4274      77657200 
 4275              	.LASF64:
 4276 02ac 656C5F6E 		.ascii	"el_next\000"
 4276      65787400 
 4277              	.LASF78:
 4278 02b4 63684576 		.ascii	"chEvtUnregister\000"
 4278      74556E72 
 4278      65676973 
 4278      74657200 
 4279              	.LASF16:
 4280 02c4 746D6F64 		.ascii	"tmode_t\000"
 4280      655F7400 
 4281              	.LASF47:
 4282 02cc 54687265 		.ascii	"ThreadsList\000"
 4282      6164734C 
 4282      69737400 
 4283              	.LASF23:
 4284 02d8 6576656E 		.ascii	"eventmask_t\000"
 4284      746D6173 
 4284      6B5F7400 
 4285              	.LASF59:
 4286 02e4 4D757465 		.ascii	"Mutex\000"
 4286      7800
 4287              	.LASF51:
 4288 02ea 73697A65 		.ascii	"sizetype\000"
 4288      74797065 
 4288      00
 4289              	.LASF87:
 4290 02f3 63684576 		.ascii	"chEvtDispatch\000"
 4290      74446973 
 4290      70617463 
 4290      6800
 4291              	.LASF32:
 4292 0301 705F6F6C 		.ascii	"p_older\000"
 4292      64657200 
 4293              	.LASF54:
 4294 0309 725F6374 		.ascii	"r_ctx\000"
 4294      7800
 4295              	.LASF46:
 4296 030f 54687265 		.ascii	"ThreadsQueue\000"
 4296      61647351 
 4296      75657565 
 4296      00
 4297              	.LASF93:
ARM GAS  /tmp/ccILw1Vl.s 			page 79


 4298 031c 74696D65 		.ascii	"time\000"
 4298      00
 4299              	.LASF91:
 4300 0321 63684576 		.ascii	"chEvtWaitAll\000"
 4300      74576169 
 4300      74416C6C 
 4300      00
 4301              	.LASF57:
 4302 032e 725F6375 		.ascii	"r_current\000"
 4302      7272656E 
 4302      7400
 4303              	.LASF56:
 4304 0338 725F6F6C 		.ascii	"r_older\000"
 4304      64657200 
 4305              	.LASF66:
 4306 0340 656C5F6D 		.ascii	"el_mask\000"
 4306      61736B00 
 4307              	.LASF88:
 4308 0348 68616E64 		.ascii	"handlers\000"
 4308      6C657273 
 4308      00
 4309              	.LASF18:
 4310 0351 74726566 		.ascii	"trefs_t\000"
 4310      735F7400 
 4311              	.LASF28:
 4312 0359 705F7072 		.ascii	"p_prev\000"
 4312      657600
 4313              	.LASF20:
 4314 0360 74707269 		.ascii	"tprio_t\000"
 4314      6F5F7400 
 4315              	.LASF15:
 4316 0368 5F426F6F 		.ascii	"_Bool\000"
 4316      6C00
 4317              	.LASF13:
 4318 036e 696E7433 		.ascii	"int32_t\000"
 4318      325F7400 
 4319              	.LASF2:
 4320 0376 756E7369 		.ascii	"unsigned char\000"
 4320      676E6564 
 4320      20636861 
 4320      7200
 4321              	.LASF89:
 4322 0384 63684576 		.ascii	"chEvtWaitOne\000"
 4322      74576169 
 4322      744F6E65 
 4322      00
 4323              	.LASF65:
 4324 0391 656C5F6C 		.ascii	"el_listener\000"
 4324      69737465 
 4324      6E657200 
 4325              	.LASF67:
 4326 039d 656C5F66 		.ascii	"el_flags\000"
 4326      6C616773 
 4326      00
 4327              	.LASF43:
 4328 03a6 705F6D74 		.ascii	"p_mtxlist\000"
 4328      786C6973 
ARM GAS  /tmp/ccILw1Vl.s 			page 80


 4328      7400
 4329              	.LASF3:
 4330 03b0 73686F72 		.ascii	"short int\000"
 4330      7420696E 
 4330      7400
 4331              	.LASF34:
 4332 03ba 705F7374 		.ascii	"p_state\000"
 4332      61746500 
 4333              	.LASF37:
 4334 03c2 705F7072 		.ascii	"p_preempt\000"
 4334      65656D70 
 4334      7400
 4335              	.LASF53:
 4336 03cc 725F7072 		.ascii	"r_prio\000"
 4336      696F00
 4337              	.LASF86:
 4338 03d3 63684576 		.ascii	"chEvtGetAndClearFlagsI\000"
 4338      74476574 
 4338      416E6443 
 4338      6C656172 
 4338      466C6167 
 4339              	.LASF74:
 4340 03ea 65776D61 		.ascii	"ewmask\000"
 4340      736B00
 4341              	.LASF27:
 4342 03f1 705F6E65 		.ascii	"p_next\000"
 4342      787400
 4343              	.LASF35:
 4344 03f8 705F666C 		.ascii	"p_flags\000"
 4344      61677300 
 4345              	.LASF26:
 4346 0400 54687265 		.ascii	"Thread\000"
 4346      616400
 4347              	.LASF97:
 4348 0407 63685363 		.ascii	"chSchGoSleepS\000"
 4348      68476F53 
 4348      6C656570 
 4348      5300
 4349              	.LASF42:
 4350 0415 705F6570 		.ascii	"p_epending\000"
 4350      656E6469 
 4350      6E6700
 4351              	.LASF14:
 4352 0420 75696E74 		.ascii	"uint32_t\000"
 4352      33325F74 
 4352      00
 4353              	.LASF52:
 4354 0429 725F7175 		.ascii	"r_queue\000"
 4354      65756500 
 4355              	.LASF103:
 4356 0431 63685363 		.ascii	"chSchReadyI\000"
 4356      68526561 
 4356      64794900 
 4357              	.LASF75:
 4358 043d 63686172 		.ascii	"char\000"
 4358      00
 4359              	.LASF62:
ARM GAS  /tmp/ccILw1Vl.s 			page 81


 4360 0442 6D5F6E65 		.ascii	"m_next\000"
 4360      787400
 4361              	.LASF25:
 4362 0449 73797374 		.ascii	"systime_t\000"
 4362      696D655F 
 4362      7400
 4363              	.LASF44:
 4364 0453 705F7265 		.ascii	"p_realprio\000"
 4364      616C7072 
 4364      696F00
 4365              	.LASF6:
 4366 045e 5F5F696E 		.ascii	"__int32_t\000"
 4366      7433325F 
 4366      7400
 4367              	.LASF101:
 4368 0468 2F686F6D 		.ascii	"/home/seth/marionette-firmware/ChibiOS-RT/testhal/S"
 4368      652F7365 
 4368      74682F6D 
 4368      6172696F 
 4368      6E657474 
 4369 049b 544D3332 		.ascii	"TM32F4xx/CAN\000"
 4369      46347878 
 4369      2F43414E 
 4369      00
 4370              	.LASF38:
 4371 04a8 705F7469 		.ascii	"p_time\000"
 4371      6D6500
 4372              	.LASF49:
 4373 04af 696E7463 		.ascii	"intctx\000"
 4373      747800
 4374              	.LASF40:
 4375 04b6 705F6D73 		.ascii	"p_msgqueue\000"
 4375      67717565 
 4375      756500
 4376              	.LASF24:
 4377 04c1 666C6167 		.ascii	"flagsmask_t\000"
 4377      736D6173 
 4377      6B5F7400 
 4378              	.LASF36:
 4379 04cd 705F7265 		.ascii	"p_refs\000"
 4379      667300
 4380              	.LASF58:
 4381 04d4 52656164 		.ascii	"ReadyList\000"
 4381      794C6973 
 4381      7400
 4382              	.LASF102:
 4383 04de 726C6973 		.ascii	"rlist\000"
 4383      7400
 4384              	.LASF12:
 4385 04e4 75696E74 		.ascii	"uint8_t\000"
 4385      385F7400 
 4386              	.LASF82:
 4387 04ec 666C6167 		.ascii	"flags\000"
 4387      7300
 4388              	.LASF63:
 4389 04f2 4576656E 		.ascii	"EventListener\000"
 4389      744C6973 
ARM GAS  /tmp/ccILw1Vl.s 			page 82


 4389      74656E65 
 4389      7200
 4390              	.LASF92:
 4391 0500 63684576 		.ascii	"chEvtWaitOneTimeout\000"
 4391      74576169 
 4391      744F6E65 
 4391      54696D65 
 4391      6F757400 
 4392              	.LASF73:
 4393 0514 77746F62 		.ascii	"wtobjp\000"
 4393      6A7000
 4394              	.LASF33:
 4395 051b 705F6E61 		.ascii	"p_name\000"
 4395      6D6500
 4396              	.LASF69:
 4397 0522 65735F6E 		.ascii	"es_next\000"
 4397      65787400 
 4398              	.LASF81:
 4399 052a 63684576 		.ascii	"chEvtGetAndClearFlags\000"
 4399      74476574 
 4399      416E6443 
 4399      6C656172 
 4399      466C6167 
 4400              	.LASF61:
 4401 0540 6D5F6F77 		.ascii	"m_owner\000"
 4401      6E657200 
 4402              	.LASF30:
 4403 0548 705F6374 		.ascii	"p_ctx\000"
 4403      7800
 4404              	.LASF39:
 4405 054e 705F7761 		.ascii	"p_waiting\000"
 4405      6974696E 
 4405      6700
 4406              	.LASF96:
 4407 0558 63684576 		.ascii	"chEvtSignalI\000"
 4407      74536967 
 4407      6E616C49 
 4407      00
 4408              		.ident	"GCC: (Arch Repository) 4.9.2 20150128 (prerelease)"
ARM GAS  /tmp/ccILw1Vl.s 			page 83


DEFINED SYMBOLS
                            *ABS*:0000000000000000 chevents.c
     /tmp/ccILw1Vl.s:19     .text.chEvtRegisterMask:0000000000000000 $t
     /tmp/ccILw1Vl.s:25     .text.chEvtRegisterMask:0000000000000000 chEvtRegisterMask
     /tmp/ccILw1Vl.s:84     .text.chEvtRegisterMask:0000000000000024 $d
     /tmp/ccILw1Vl.s:89     .text.chEvtUnregister:0000000000000000 $t
     /tmp/ccILw1Vl.s:95     .text.chEvtUnregister:0000000000000000 chEvtUnregister
     /tmp/ccILw1Vl.s:153    .text.chEvtGetAndClearEvents:0000000000000000 $t
     /tmp/ccILw1Vl.s:159    .text.chEvtGetAndClearEvents:0000000000000000 chEvtGetAndClearEvents
     /tmp/ccILw1Vl.s:198    .text.chEvtGetAndClearEvents:000000000000001c $d
     /tmp/ccILw1Vl.s:203    .text.chEvtAddEvents:0000000000000000 $t
     /tmp/ccILw1Vl.s:209    .text.chEvtAddEvents:0000000000000000 chEvtAddEvents
     /tmp/ccILw1Vl.s:246    .text.chEvtAddEvents:0000000000000018 $d
     /tmp/ccILw1Vl.s:251    .text.chEvtGetAndClearFlags:0000000000000000 $t
     /tmp/ccILw1Vl.s:257    .text.chEvtGetAndClearFlags:0000000000000000 chEvtGetAndClearFlags
     /tmp/ccILw1Vl.s:295    .text.chEvtSignalI:0000000000000000 $t
     /tmp/ccILw1Vl.s:301    .text.chEvtSignalI:0000000000000000 chEvtSignalI
     /tmp/ccILw1Vl.s:361    .text.chEvtBroadcastFlagsI:0000000000000000 $t
     /tmp/ccILw1Vl.s:367    .text.chEvtBroadcastFlagsI:0000000000000000 chEvtBroadcastFlagsI
     /tmp/ccILw1Vl.s:413    .text.chEvtSignal:0000000000000000 $t
     /tmp/ccILw1Vl.s:419    .text.chEvtSignal:0000000000000000 chEvtSignal
     /tmp/ccILw1Vl.s:457    .text.chEvtBroadcastFlags:0000000000000000 $t
     /tmp/ccILw1Vl.s:463    .text.chEvtBroadcastFlags:0000000000000000 chEvtBroadcastFlags
     /tmp/ccILw1Vl.s:501    .text.chEvtGetAndClearFlagsI:0000000000000000 $t
     /tmp/ccILw1Vl.s:507    .text.chEvtGetAndClearFlagsI:0000000000000000 chEvtGetAndClearFlagsI
     /tmp/ccILw1Vl.s:530    .text.chEvtDispatch:0000000000000000 $t
     /tmp/ccILw1Vl.s:536    .text.chEvtDispatch:0000000000000000 chEvtDispatch
     /tmp/ccILw1Vl.s:595    .text.chEvtWaitOne:0000000000000000 $t
     /tmp/ccILw1Vl.s:601    .text.chEvtWaitOne:0000000000000000 chEvtWaitOne
     /tmp/ccILw1Vl.s:666    .text.chEvtWaitOne:0000000000000038 $d
     /tmp/ccILw1Vl.s:671    .text.chEvtWaitAny:0000000000000000 $t
     /tmp/ccILw1Vl.s:677    .text.chEvtWaitAny:0000000000000000 chEvtWaitAny
     /tmp/ccILw1Vl.s:740    .text.chEvtWaitAny:0000000000000034 $d
     /tmp/ccILw1Vl.s:745    .text.chEvtWaitAll:0000000000000000 $t
     /tmp/ccILw1Vl.s:751    .text.chEvtWaitAll:0000000000000000 chEvtWaitAll
     /tmp/ccILw1Vl.s:811    .text.chEvtWaitAll:0000000000000034 $d
     /tmp/ccILw1Vl.s:816    .text.chEvtWaitOneTimeout:0000000000000000 $t
     /tmp/ccILw1Vl.s:822    .text.chEvtWaitOneTimeout:0000000000000000 chEvtWaitOneTimeout
     /tmp/ccILw1Vl.s:920    .text.chEvtWaitOneTimeout:0000000000000050 $d
     /tmp/ccILw1Vl.s:925    .text.chEvtWaitAnyTimeout:0000000000000000 $t
     /tmp/ccILw1Vl.s:931    .text.chEvtWaitAnyTimeout:0000000000000000 chEvtWaitAnyTimeout
     /tmp/ccILw1Vl.s:1027   .text.chEvtWaitAnyTimeout:0000000000000050 $d
     /tmp/ccILw1Vl.s:1032   .text.chEvtWaitAllTimeout:0000000000000000 $t
     /tmp/ccILw1Vl.s:1038   .text.chEvtWaitAllTimeout:0000000000000000 chEvtWaitAllTimeout
     /tmp/ccILw1Vl.s:1129   .text.chEvtWaitAllTimeout:000000000000004c $d
                     .debug_frame:0000000000000010 $d
     /tmp/ccILw1Vl.s:88     .text.chEvtRegisterMask:0000000000000028 $t
     /tmp/ccILw1Vl.s:250    .text.chEvtAddEvents:000000000000001c $t
     /tmp/ccILw1Vl.s:670    .text.chEvtWaitOne:000000000000003c $t
     /tmp/ccILw1Vl.s:744    .text.chEvtWaitAny:0000000000000038 $t
     /tmp/ccILw1Vl.s:815    .text.chEvtWaitAll:0000000000000038 $t
     /tmp/ccILw1Vl.s:924    .text.chEvtWaitOneTimeout:0000000000000054 $t
     /tmp/ccILw1Vl.s:1031   .text.chEvtWaitAnyTimeout:0000000000000054 $t

UNDEFINED SYMBOLS
rlist
chSchReadyI
ARM GAS  /tmp/ccILw1Vl.s 			page 84


chSchRescheduleS
chSchGoSleepS
chSchGoSleepTimeoutS
