ARM GAS  /tmp/ccILw1Vl.s 			page 1


   1              		.syntax unified
   2              		.cpu cortex-m4
   3              		.fpu softvfp
   4              		.eabi_attribute 20, 1
   5              		.eabi_attribute 21, 1
   6              		.eabi_attribute 23, 3
   7              		.eabi_attribute 24, 1
   8              		.eabi_attribute 25, 1
   9              		.eabi_attribute 26, 1
  10              		.eabi_attribute 30, 2
  11              		.eabi_attribute 34, 1
  12              		.eabi_attribute 18, 4
  13              		.thumb
  14              		.file	"chevents.c"
  15              		.text
  16              	.Ltext0:
  17              		.cfi_sections	.debug_frame
  18              		.section	.text.chEvtRegisterMask,"ax",%progbits
  19              		.align	2
  20              		.p2align 4,,15
  21              		.global	chEvtRegisterMask
  22              		.thumb
  23              		.thumb_func
  24              		.type	chEvtRegisterMask, %function
  25              	chEvtRegisterMask:
  26              	.LFB7:
  27              		.file 1 "../../../os/kernel/src/chevents.c"
  28              		.loc 1 85 0
  29              		.cfi_startproc
  30              		@ args = 0, pretend = 0, frame = 0
  31              		@ frame_needed = 0, uses_anonymous_args = 0
  32              		@ link register save eliminated.
  33              	.LVL0:
  34 0000 30B4     		push	{r4, r5}
  35              		.cfi_def_cfa_offset 8
  36              		.cfi_offset 4, -8
  37              		.cfi_offset 5, -4
  38              	.LBB2:
  39              		.loc 1 89 0
  40 0002 2023     		movs	r3, #32
  41              	@ 89 "../../../os/kernel/src/chevents.c" 1
  42 0004 83F31188 		msr     BASEPRI, r3
  43              	@ 0 "" 2
  44              		.thumb
  45              	.LBE2:
  46              		.loc 1 92 0
  47 0008 064C     		ldr	r4, .L3
  48              		.loc 1 90 0
  49 000a 0368     		ldr	r3, [r0]
  50              		.loc 1 92 0
  51 000c A569     		ldr	r5, [r4, #24]
  52              		.loc 1 90 0
  53 000e 0B60     		str	r3, [r1]
  54              		.loc 1 94 0
  55 0010 0024     		movs	r4, #0
  56              		.loc 1 91 0
  57 0012 0160     		str	r1, [r0]
ARM GAS  /tmp/ccILw1Vl.s 			page 2


  58              	.LBB3:
  59              		.loc 1 95 0
  60 0014 2346     		mov	r3, r4
  61              	.LBE3:
  62              		.loc 1 92 0
  63 0016 4D60     		str	r5, [r1, #4]
  64              		.loc 1 93 0
  65 0018 8A60     		str	r2, [r1, #8]
  66              		.loc 1 94 0
  67 001a CC60     		str	r4, [r1, #12]
  68              	.LBB4:
  69              		.loc 1 95 0
  70              	@ 95 "../../../os/kernel/src/chevents.c" 1
  71 001c 83F31188 		msr     BASEPRI, r3
  72              	@ 0 "" 2
  73              		.thumb
  74              	.LBE4:
  75              		.loc 1 96 0
  76 0020 30BC     		pop	{r4, r5}
  77              		.cfi_restore 5
  78              		.cfi_restore 4
  79              		.cfi_def_cfa_offset 0
  80 0022 7047     		bx	lr
  81              	.L4:
  82              		.align	2
  83              	.L3:
  84 0024 00000000 		.word	rlist
  85              		.cfi_endproc
  86              	.LFE7:
  87              		.size	chEvtRegisterMask, .-chEvtRegisterMask
  88 0028 AFF30080 		.section	.text.chEvtUnregister,"ax",%progbits
  88      AFF30080 
  89              		.align	2
  90              		.p2align 4,,15
  91              		.global	chEvtUnregister
  92              		.thumb
  93              		.thumb_func
  94              		.type	chEvtUnregister, %function
  95              	chEvtUnregister:
  96              	.LFB8:
  97              		.loc 1 111 0
  98              		.cfi_startproc
  99              		@ args = 0, pretend = 0, frame = 0
 100              		@ frame_needed = 0, uses_anonymous_args = 0
 101              		@ link register save eliminated.
 102              	.LVL1:
 103              	.LBB5:
 104              		.loc 1 117 0
 105 0000 2023     		movs	r3, #32
 106              	@ 117 "../../../os/kernel/src/chevents.c" 1
 107 0002 83F31188 		msr     BASEPRI, r3
 108              	@ 0 "" 2
 109              		.thumb
 110              	.LBE5:
 111              		.loc 1 116 0
 112 0006 0246     		mov	r2, r0
 113              		.loc 1 118 0
ARM GAS  /tmp/ccILw1Vl.s 			page 3


 114 0008 02E0     		b	.L6
 115              	.LVL2:
 116              	.L8:
 117              		.loc 1 119 0
 118 000a 9942     		cmp	r1, r3
 119 000c 07D0     		beq	.L11
 120 000e 1A46     		mov	r2, r3
 121              	.LVL3:
 122              	.L6:
 123              		.loc 1 118 0
 124 0010 1368     		ldr	r3, [r2]
 125 0012 8342     		cmp	r3, r0
 126 0014 F9D1     		bne	.L8
 127              	.LBB6:
 128              		.loc 1 125 0
 129 0016 0023     		movs	r3, #0
 130              	@ 125 "../../../os/kernel/src/chevents.c" 1
 131 0018 83F31188 		msr     BASEPRI, r3
 132              	@ 0 "" 2
 133              		.thumb
 134 001c 7047     		bx	lr
 135              	.L11:
 136              	.LBE6:
 137              		.loc 1 120 0
 138 001e 0B68     		ldr	r3, [r1]
 139 0020 1360     		str	r3, [r2]
 140              	.LBB7:
 141              		.loc 1 125 0
 142 0022 0023     		movs	r3, #0
 143              	@ 125 "../../../os/kernel/src/chevents.c" 1
 144 0024 83F31188 		msr     BASEPRI, r3
 145              	@ 0 "" 2
 146              		.thumb
 147 0028 7047     		bx	lr
 148              	.LBE7:
 149              		.cfi_endproc
 150              	.LFE8:
 151              		.size	chEvtUnregister, .-chEvtUnregister
 152 002a 00BFAFF3 		.section	.text.chEvtGetAndClearEvents,"ax",%progbits
 152      0080
 153              		.align	2
 154              		.p2align 4,,15
 155              		.global	chEvtGetAndClearEvents
 156              		.thumb
 157              		.thumb_func
 158              		.type	chEvtGetAndClearEvents, %function
 159              	chEvtGetAndClearEvents:
 160              	.LFB9:
 161              		.loc 1 136 0
 162              		.cfi_startproc
 163              		@ args = 0, pretend = 0, frame = 0
 164              		@ frame_needed = 0, uses_anonymous_args = 0
 165              		@ link register save eliminated.
 166              	.LVL4:
 167              	.LBB8:
 168              		.loc 1 139 0
 169 0000 2023     		movs	r3, #32
ARM GAS  /tmp/ccILw1Vl.s 			page 4


 170              	@ 139 "../../../os/kernel/src/chevents.c" 1
 171 0002 83F31188 		msr     BASEPRI, r3
 172              	@ 0 "" 2
 173              		.thumb
 174              	.LBE8:
 175              		.loc 1 141 0
 176 0006 054B     		ldr	r3, .L13
 177 0008 9B69     		ldr	r3, [r3, #24]
 178 000a 9A6B     		ldr	r2, [r3, #56]
 179              	.LVL5:
 180              		.loc 1 142 0
 181 000c 22EA0001 		bic	r1, r2, r0
 182 0010 9963     		str	r1, [r3, #56]
 183              	.LBB9:
 184              		.loc 1 144 0
 185 0012 0023     		movs	r3, #0
 186              	@ 144 "../../../os/kernel/src/chevents.c" 1
 187 0014 83F31188 		msr     BASEPRI, r3
 188              	@ 0 "" 2
 189              		.thumb
 190              	.LBE9:
 191              		.loc 1 146 0
 192 0018 1040     		ands	r0, r0, r2
 193              	.LVL6:
 194 001a 7047     		bx	lr
 195              	.L14:
 196              		.align	2
 197              	.L13:
 198 001c 00000000 		.word	rlist
 199              		.cfi_endproc
 200              	.LFE9:
 201              		.size	chEvtGetAndClearEvents, .-chEvtGetAndClearEvents
 202              		.section	.text.chEvtAddEvents,"ax",%progbits
 203              		.align	2
 204              		.p2align 4,,15
 205              		.global	chEvtAddEvents
 206              		.thumb
 207              		.thumb_func
 208              		.type	chEvtAddEvents, %function
 209              	chEvtAddEvents:
 210              	.LFB10:
 211              		.loc 1 157 0
 212              		.cfi_startproc
 213              		@ args = 0, pretend = 0, frame = 0
 214              		@ frame_needed = 0, uses_anonymous_args = 0
 215              		@ link register save eliminated.
 216              	.LVL7:
 217              	.LBB10:
 218              		.loc 1 159 0
 219 0000 2023     		movs	r3, #32
 220              	@ 159 "../../../os/kernel/src/chevents.c" 1
 221 0002 83F31188 		msr     BASEPRI, r3
 222              	@ 0 "" 2
 223              		.thumb
 224              	.LBE10:
 225              		.loc 1 161 0
 226 0006 044B     		ldr	r3, .L16
ARM GAS  /tmp/ccILw1Vl.s 			page 5


 227 0008 9A69     		ldr	r2, [r3, #24]
 228 000a 936B     		ldr	r3, [r2, #56]
 229 000c 1843     		orrs	r0, r0, r3
 230              	.LVL8:
 231 000e 9063     		str	r0, [r2, #56]
 232              	.LVL9:
 233              	.LBB11:
 234              		.loc 1 163 0
 235 0010 0023     		movs	r3, #0
 236              	@ 163 "../../../os/kernel/src/chevents.c" 1
 237 0012 83F31188 		msr     BASEPRI, r3
 238              	@ 0 "" 2
 239              		.thumb
 240              	.LBE11:
 241              		.loc 1 165 0
 242 0016 7047     		bx	lr
 243              	.L17:
 244              		.align	2
 245              	.L16:
 246 0018 00000000 		.word	rlist
 247              		.cfi_endproc
 248              	.LFE10:
 249              		.size	chEvtAddEvents, .-chEvtAddEvents
 250 001c AFF30080 		.section	.text.chEvtGetAndClearFlags,"ax",%progbits
 251              		.align	2
 252              		.p2align 4,,15
 253              		.global	chEvtGetAndClearFlags
 254              		.thumb
 255              		.thumb_func
 256              		.type	chEvtGetAndClearFlags, %function
 257              	chEvtGetAndClearFlags:
 258              	.LFB12:
 259              		.loc 1 209 0
 260              		.cfi_startproc
 261              		@ args = 0, pretend = 0, frame = 0
 262              		@ frame_needed = 0, uses_anonymous_args = 0
 263              		@ link register save eliminated.
 264              	.LVL10:
 265              		.loc 1 209 0
 266 0000 0246     		mov	r2, r0
 267              	.LBB12:
 268              		.loc 1 212 0
 269 0002 2023     		movs	r3, #32
 270              	@ 212 "../../../os/kernel/src/chevents.c" 1
 271 0004 83F31188 		msr     BASEPRI, r3
 272              	@ 0 "" 2
 273              		.thumb
 274              	.LBE12:
 275              		.loc 1 215 0
 276 0008 0023     		movs	r3, #0
 277              		.loc 1 214 0
 278 000a C068     		ldr	r0, [r0, #12]
 279              	.LVL11:
 280              		.loc 1 215 0
 281 000c D360     		str	r3, [r2, #12]
 282              	.LBB13:
 283              		.loc 1 217 0
ARM GAS  /tmp/ccILw1Vl.s 			page 6


 284              	@ 217 "../../../os/kernel/src/chevents.c" 1
 285 000e 83F31188 		msr     BASEPRI, r3
 286              	@ 0 "" 2
 287              		.thumb
 288              	.LBE13:
 289              		.loc 1 219 0
 290 0012 7047     		bx	lr
 291              		.cfi_endproc
 292              	.LFE12:
 293              		.size	chEvtGetAndClearFlags, .-chEvtGetAndClearFlags
 294 0014 AFF30080 		.section	.text.chEvtSignalI,"ax",%progbits
 294      AFF30080 
 294      AFF30080 
 295              		.align	2
 296              		.p2align 4,,15
 297              		.global	chEvtSignalI
 298              		.thumb
 299              		.thumb_func
 300              		.type	chEvtSignalI, %function
 301              	chEvtSignalI:
 302              	.LFB14:
 303              		.loc 1 251 0
 304              		.cfi_startproc
 305              		@ args = 0, pretend = 0, frame = 0
 306              		@ frame_needed = 0, uses_anonymous_args = 0
 307              	.LVL12:
 308 0000 08B5     		push	{r3, lr}
 309              		.cfi_def_cfa_offset 8
 310              		.cfi_offset 3, -8
 311              		.cfi_offset 14, -4
 312              		.loc 1 256 0
 313 0002 836B     		ldr	r3, [r0, #56]
 314              		.loc 1 258 0
 315 0004 027F     		ldrb	r2, [r0, #28]	@ zero_extendqisi2
 316              		.loc 1 256 0
 317 0006 1943     		orrs	r1, r1, r3
 318              	.LVL13:
 319              		.loc 1 258 0
 320 0008 082A     		cmp	r2, #8
 321              		.loc 1 256 0
 322 000a 8163     		str	r1, [r0, #56]
 323              		.loc 1 258 0
 324 000c 0BD0     		beq	.L24
 325              		.loc 1 259 0
 326 000e 092A     		cmp	r2, #9
 327 0010 00D0     		beq	.L25
 328              	.L19:
 329 0012 08BD     		pop	{r3, pc}
 330              	.L25:
 331              		.loc 1 261 0
 332 0014 436A     		ldr	r3, [r0, #36]
 333 0016 1940     		ands	r1, r1, r3
 334              		.loc 1 260 0
 335 0018 8B42     		cmp	r3, r1
 336 001a FAD1     		bne	.L19
 337              	.L21:
 338              	.LVL14:
ARM GAS  /tmp/ccILw1Vl.s 			page 7


 339              	.LBB16:
 340              	.LBB17:
 341              		.loc 1 262 0
 342 001c FFF7FEFF 		bl	chSchReadyI
 343              	.LVL15:
 344 0020 0023     		movs	r3, #0
 345 0022 4362     		str	r3, [r0, #36]
 346 0024 08BD     		pop	{r3, pc}
 347              	.LVL16:
 348              	.L24:
 349              	.LBE17:
 350              	.LBE16:
 351              		.loc 1 259 0 discriminator 1
 352 0026 436A     		ldr	r3, [r0, #36]
 353              		.loc 1 258 0 discriminator 1
 354 0028 1942     		tst	r1, r3
 355 002a F7D1     		bne	.L21
 356 002c 08BD     		pop	{r3, pc}
 357              		.cfi_endproc
 358              	.LFE14:
 359              		.size	chEvtSignalI, .-chEvtSignalI
 360 002e 00BF     		.section	.text.chEvtBroadcastFlagsI,"ax",%progbits
 361              		.align	2
 362              		.p2align 4,,15
 363              		.global	chEvtBroadcastFlagsI
 364              		.thumb
 365              		.thumb_func
 366              		.type	chEvtBroadcastFlagsI, %function
 367              	chEvtBroadcastFlagsI:
 368              	.LFB11:
 369              		.loc 1 184 0
 370              		.cfi_startproc
 371              		@ args = 0, pretend = 0, frame = 0
 372              		@ frame_needed = 0, uses_anonymous_args = 0
 373              	.LVL17:
 374 0000 70B5     		push	{r4, r5, r6, lr}
 375              		.cfi_def_cfa_offset 16
 376              		.cfi_offset 4, -16
 377              		.cfi_offset 5, -12
 378              		.cfi_offset 6, -8
 379              		.cfi_offset 14, -4
 380              		.loc 1 190 0
 381 0002 0468     		ldr	r4, [r0]
 382              	.LVL18:
 383              		.loc 1 191 0
 384 0004 A042     		cmp	r0, r4
 385              		.loc 1 184 0
 386 0006 0546     		mov	r5, r0
 387 0008 0E46     		mov	r6, r1
 388              		.loc 1 191 0
 389 000a 08D0     		beq	.L26
 390              	.LVL19:
 391              	.L28:
 392              		.loc 1 193 0
 393 000c 201D     		adds	r0, r4, #4
 394 000e 0BC8     		ldmia	r0, {r0, r1, r3}
 395              		.loc 1 192 0
ARM GAS  /tmp/ccILw1Vl.s 			page 8


 396 0010 3343     		orrs	r3, r3, r6
 397 0012 E360     		str	r3, [r4, #12]
 398              		.loc 1 193 0
 399 0014 FFF7FEFF 		bl	chEvtSignalI
 400              	.LVL20:
 401              		.loc 1 194 0
 402 0018 2468     		ldr	r4, [r4]
 403              	.LVL21:
 404              		.loc 1 191 0
 405 001a A542     		cmp	r5, r4
 406 001c F6D1     		bne	.L28
 407              	.L26:
 408 001e 70BD     		pop	{r4, r5, r6, pc}
 409              		.cfi_endproc
 410              	.LFE11:
 411              		.size	chEvtBroadcastFlagsI, .-chEvtBroadcastFlagsI
 412              		.section	.text.chEvtSignal,"ax",%progbits
 413              		.align	2
 414              		.p2align 4,,15
 415              		.global	chEvtSignal
 416              		.thumb
 417              		.thumb_func
 418              		.type	chEvtSignal, %function
 419              	chEvtSignal:
 420              	.LFB13:
 421              		.loc 1 229 0
 422              		.cfi_startproc
 423              		@ args = 0, pretend = 0, frame = 0
 424              		@ frame_needed = 0, uses_anonymous_args = 0
 425              	.LVL22:
 426 0000 08B5     		push	{r3, lr}
 427              		.cfi_def_cfa_offset 8
 428              		.cfi_offset 3, -8
 429              		.cfi_offset 14, -4
 430              	.LBB18:
 431              		.loc 1 233 0
 432 0002 2023     		movs	r3, #32
 433              	@ 233 "../../../os/kernel/src/chevents.c" 1
 434 0004 83F31188 		msr     BASEPRI, r3
 435              	@ 0 "" 2
 436              		.thumb
 437              	.LBE18:
 438              		.loc 1 234 0
 439 0008 FFF7FEFF 		bl	chEvtSignalI
 440              	.LVL23:
 441              		.loc 1 235 0
 442 000c FFF7FEFF 		bl	chSchRescheduleS
 443              	.LVL24:
 444              	.LBB19:
 445              		.loc 1 236 0
 446 0010 0023     		movs	r3, #0
 447              	@ 236 "../../../os/kernel/src/chevents.c" 1
 448 0012 83F31188 		msr     BASEPRI, r3
 449              	@ 0 "" 2
 450              		.thumb
 451 0016 08BD     		pop	{r3, pc}
 452              	.LBE19:
ARM GAS  /tmp/ccILw1Vl.s 			page 9


 453              		.cfi_endproc
 454              	.LFE13:
 455              		.size	chEvtSignal, .-chEvtSignal
 456 0018 AFF30080 		.section	.text.chEvtBroadcastFlags,"ax",%progbits
 456      AFF30080 
 457              		.align	2
 458              		.p2align 4,,15
 459              		.global	chEvtBroadcastFlags
 460              		.thumb
 461              		.thumb_func
 462              		.type	chEvtBroadcastFlags, %function
 463              	chEvtBroadcastFlags:
 464              	.LFB15:
 465              		.loc 1 278 0
 466              		.cfi_startproc
 467              		@ args = 0, pretend = 0, frame = 0
 468              		@ frame_needed = 0, uses_anonymous_args = 0
 469              	.LVL25:
 470 0000 08B5     		push	{r3, lr}
 471              		.cfi_def_cfa_offset 8
 472              		.cfi_offset 3, -8
 473              		.cfi_offset 14, -4
 474              	.LBB20:
 475              		.loc 1 280 0
 476 0002 2023     		movs	r3, #32
 477              	@ 280 "../../../os/kernel/src/chevents.c" 1
 478 0004 83F31188 		msr     BASEPRI, r3
 479              	@ 0 "" 2
 480              		.thumb
 481              	.LBE20:
 482              		.loc 1 281 0
 483 0008 FFF7FEFF 		bl	chEvtBroadcastFlagsI
 484              	.LVL26:
 485              		.loc 1 282 0
 486 000c FFF7FEFF 		bl	chSchRescheduleS
 487              	.LVL27:
 488              	.LBB21:
 489              		.loc 1 283 0
 490 0010 0023     		movs	r3, #0
 491              	@ 283 "../../../os/kernel/src/chevents.c" 1
 492 0012 83F31188 		msr     BASEPRI, r3
 493              	@ 0 "" 2
 494              		.thumb
 495 0016 08BD     		pop	{r3, pc}
 496              	.LBE21:
 497              		.cfi_endproc
 498              	.LFE15:
 499              		.size	chEvtBroadcastFlags, .-chEvtBroadcastFlags
 500 0018 AFF30080 		.section	.text.chEvtGetAndClearFlagsI,"ax",%progbits
 500      AFF30080 
 501              		.align	2
 502              		.p2align 4,,15
 503              		.global	chEvtGetAndClearFlagsI
 504              		.thumb
 505              		.thumb_func
 506              		.type	chEvtGetAndClearFlagsI, %function
 507              	chEvtGetAndClearFlagsI:
ARM GAS  /tmp/ccILw1Vl.s 			page 10


 508              	.LFB16:
 509              		.loc 1 297 0
 510              		.cfi_startproc
 511              		@ args = 0, pretend = 0, frame = 0
 512              		@ frame_needed = 0, uses_anonymous_args = 0
 513              		@ link register save eliminated.
 514              	.LVL28:
 515              		.loc 1 297 0
 516 0000 0346     		mov	r3, r0
 517              		.loc 1 301 0
 518 0002 0022     		movs	r2, #0
 519              		.loc 1 300 0
 520 0004 C068     		ldr	r0, [r0, #12]
 521              	.LVL29:
 522              		.loc 1 301 0
 523 0006 DA60     		str	r2, [r3, #12]
 524              		.loc 1 304 0
 525 0008 7047     		bx	lr
 526              		.cfi_endproc
 527              	.LFE16:
 528              		.size	chEvtGetAndClearFlagsI, .-chEvtGetAndClearFlagsI
 529 000a 00BFAFF3 		.section	.text.chEvtDispatch,"ax",%progbits
 529      0080
 530              		.align	2
 531              		.p2align 4,,15
 532              		.global	chEvtDispatch
 533              		.thumb
 534              		.thumb_func
 535              		.type	chEvtDispatch, %function
 536              	chEvtDispatch:
 537              	.LFB17:
 538              		.loc 1 315 0
 539              		.cfi_startproc
 540              		@ args = 0, pretend = 0, frame = 0
 541              		@ frame_needed = 0, uses_anonymous_args = 0
 542              	.LVL30:
 543 0000 F8B5     		push	{r3, r4, r5, r6, r7, lr}
 544              		.cfi_def_cfa_offset 24
 545              		.cfi_offset 3, -24
 546              		.cfi_offset 4, -20
 547              		.cfi_offset 5, -16
 548              		.cfi_offset 6, -12
 549              		.cfi_offset 7, -8
 550              		.cfi_offset 14, -4
 551              		.loc 1 321 0
 552 0002 0D46     		mov	r5, r1
 553 0004 A9B1     		cbz	r1, .L37
 554 0006 0746     		mov	r7, r0
 555 0008 0024     		movs	r4, #0
 556              		.loc 1 322 0
 557 000a 0126     		movs	r6, #1
 558              	.LVL31:
 559              	.L39:
 560 000c 06FA04F3 		lsl	r3, r6, r4
 561 0010 2B42     		tst	r3, r5
 562 0012 04D1     		bne	.L44
 563              	.L40:
ARM GAS  /tmp/ccILw1Vl.s 			page 11


 564              		.loc 1 329 0
 565 0014 0134     		adds	r4, r4, #1
 566              	.LVL32:
 567              		.loc 1 322 0
 568 0016 06FA04F3 		lsl	r3, r6, r4
 569 001a 2B42     		tst	r3, r5
 570 001c FAD0     		beq	.L40
 571              	.L44:
 572              		.loc 1 327 0
 573 001e 2046     		mov	r0, r4
 574              		.loc 1 326 0
 575 0020 25EA0305 		bic	r5, r5, r3
 576              	.LVL33:
 577              		.loc 1 327 0
 578 0024 57F82430 		ldr	r3, [r7, r4, lsl #2]
 579 0028 9847     		blx	r3
 580              	.LVL34:
 581              		.loc 1 329 0
 582 002a 0134     		adds	r4, r4, #1
 583              	.LVL35:
 584              		.loc 1 321 0
 585 002c 002D     		cmp	r5, #0
 586 002e EDD1     		bne	.L39
 587 0030 F8BD     		pop	{r3, r4, r5, r6, r7, pc}
 588              	.LVL36:
 589              	.L37:
 590 0032 F8BD     		pop	{r3, r4, r5, r6, r7, pc}
 591              		.cfi_endproc
 592              	.LFE17:
 593              		.size	chEvtDispatch, .-chEvtDispatch
 594 0034 AFF30080 		.section	.text.chEvtWaitOne,"ax",%progbits
 594      AFF30080 
 594      AFF30080 
 595              		.align	2
 596              		.p2align 4,,15
 597              		.global	chEvtWaitOne
 598              		.thumb
 599              		.thumb_func
 600              		.type	chEvtWaitOne, %function
 601              	chEvtWaitOne:
 602              	.LFB18:
 603              		.loc 1 350 0
 604              		.cfi_startproc
 605              		@ args = 0, pretend = 0, frame = 0
 606              		@ frame_needed = 0, uses_anonymous_args = 0
 607              	.LVL37:
 608 0000 38B5     		push	{r3, r4, r5, lr}
 609              		.cfi_def_cfa_offset 16
 610              		.cfi_offset 3, -16
 611              		.cfi_offset 4, -12
 612              		.cfi_offset 5, -8
 613              		.cfi_offset 14, -4
 614              		.loc 1 351 0
 615 0002 0D4B     		ldr	r3, .L48
 616 0004 9D69     		ldr	r5, [r3, #24]
 617              	.LVL38:
 618              	.LBB22:
ARM GAS  /tmp/ccILw1Vl.s 			page 12


 619              		.loc 1 354 0
 620 0006 2023     		movs	r3, #32
 621              	@ 354 "../../../os/kernel/src/chevents.c" 1
 622 0008 83F31188 		msr     BASEPRI, r3
 623              	@ 0 "" 2
 624              		.thumb
 625              	.LBE22:
 626              		.loc 1 356 0
 627 000c AB6B     		ldr	r3, [r5, #56]
 628              	.LVL39:
 629 000e 10EA0302 		ands	r2, r0, r3
 630              	.LVL40:
 631 0012 07D1     		bne	.L46
 632 0014 0446     		mov	r4, r0
 633              		.loc 1 357 0
 634 0016 6862     		str	r0, [r5, #36]
 635              		.loc 1 358 0
 636 0018 0820     		movs	r0, #8
 637              	.LVL41:
 638 001a FFF7FEFF 		bl	chSchGoSleepS
 639              	.LVL42:
 640              		.loc 1 359 0
 641 001e AB6B     		ldr	r3, [r5, #56]
 642 0020 04EA0302 		and	r2, r4, r3
 643              	.LVL43:
 644              	.L46:
 645              		.loc 1 361 0
 646 0024 5042     		negs	r0, r2
 647 0026 1040     		ands	r0, r0, r2
 648              	.LVL44:
 649              		.loc 1 362 0
 650 0028 23EA0003 		bic	r3, r3, r0
 651 002c AB63     		str	r3, [r5, #56]
 652              	.LBB23:
 653              		.loc 1 364 0
 654 002e 0023     		movs	r3, #0
 655              	@ 364 "../../../os/kernel/src/chevents.c" 1
 656 0030 83F31188 		msr     BASEPRI, r3
 657              	@ 0 "" 2
 658              		.thumb
 659              	.LBE23:
 660              		.loc 1 366 0
 661 0034 38BD     		pop	{r3, r4, r5, pc}
 662              	.LVL45:
 663              	.L49:
 664 0036 00BF     		.align	2
 665              	.L48:
 666 0038 00000000 		.word	rlist
 667              		.cfi_endproc
 668              	.LFE18:
 669              		.size	chEvtWaitOne, .-chEvtWaitOne
 670 003c AFF30080 		.section	.text.chEvtWaitAny,"ax",%progbits
 671              		.align	2
 672              		.p2align 4,,15
 673              		.global	chEvtWaitAny
 674              		.thumb
 675              		.thumb_func
ARM GAS  /tmp/ccILw1Vl.s 			page 13


 676              		.type	chEvtWaitAny, %function
 677              	chEvtWaitAny:
 678              	.LFB19:
 679              		.loc 1 379 0
 680              		.cfi_startproc
 681              		@ args = 0, pretend = 0, frame = 0
 682              		@ frame_needed = 0, uses_anonymous_args = 0
 683              	.LVL46:
 684 0000 38B5     		push	{r3, r4, r5, lr}
 685              		.cfi_def_cfa_offset 16
 686              		.cfi_offset 3, -16
 687              		.cfi_offset 4, -12
 688              		.cfi_offset 5, -8
 689              		.cfi_offset 14, -4
 690              		.loc 1 380 0
 691 0002 0C4B     		ldr	r3, .L53
 692 0004 9D69     		ldr	r5, [r3, #24]
 693              	.LVL47:
 694              	.LBB24:
 695              		.loc 1 383 0
 696 0006 2023     		movs	r3, #32
 697              	@ 383 "../../../os/kernel/src/chevents.c" 1
 698 0008 83F31188 		msr     BASEPRI, r3
 699              	@ 0 "" 2
 700              		.thumb
 701              	.LBE24:
 702              		.loc 1 385 0
 703 000c AB6B     		ldr	r3, [r5, #56]
 704              	.LVL48:
 705 000e 10EA0304 		ands	r4, r0, r3
 706              	.LVL49:
 707 0012 06D1     		bne	.L51
 708 0014 0446     		mov	r4, r0
 709              	.LVL50:
 710              		.loc 1 386 0
 711 0016 6862     		str	r0, [r5, #36]
 712              		.loc 1 387 0
 713 0018 0820     		movs	r0, #8
 714              	.LVL51:
 715 001a FFF7FEFF 		bl	chSchGoSleepS
 716              	.LVL52:
 717              		.loc 1 388 0
 718 001e AB6B     		ldr	r3, [r5, #56]
 719 0020 1C40     		ands	r4, r4, r3
 720              	.LVL53:
 721              	.L51:
 722              		.loc 1 390 0
 723 0022 23EA0403 		bic	r3, r3, r4
 724 0026 AB63     		str	r3, [r5, #56]
 725              	.LBB25:
 726              		.loc 1 392 0
 727 0028 0023     		movs	r3, #0
 728              	@ 392 "../../../os/kernel/src/chevents.c" 1
 729 002a 83F31188 		msr     BASEPRI, r3
 730              	@ 0 "" 2
 731              		.thumb
 732              	.LBE25:
ARM GAS  /tmp/ccILw1Vl.s 			page 14


 733              		.loc 1 394 0
 734 002e 2046     		mov	r0, r4
 735 0030 38BD     		pop	{r3, r4, r5, pc}
 736              	.LVL54:
 737              	.L54:
 738 0032 00BF     		.align	2
 739              	.L53:
 740 0034 00000000 		.word	rlist
 741              		.cfi_endproc
 742              	.LFE19:
 743              		.size	chEvtWaitAny, .-chEvtWaitAny
 744 0038 AFF30080 		.section	.text.chEvtWaitAll,"ax",%progbits
 744      AFF30080 
 745              		.align	2
 746              		.p2align 4,,15
 747              		.global	chEvtWaitAll
 748              		.thumb
 749              		.thumb_func
 750              		.type	chEvtWaitAll, %function
 751              	chEvtWaitAll:
 752              	.LFB20:
 753              		.loc 1 407 0
 754              		.cfi_startproc
 755              		@ args = 0, pretend = 0, frame = 0
 756              		@ frame_needed = 0, uses_anonymous_args = 0
 757              	.LVL55:
 758 0000 38B5     		push	{r3, r4, r5, lr}
 759              		.cfi_def_cfa_offset 16
 760              		.cfi_offset 3, -16
 761              		.cfi_offset 4, -12
 762              		.cfi_offset 5, -8
 763              		.cfi_offset 14, -4
 764              		.loc 1 408 0
 765 0002 0C4B     		ldr	r3, .L58
 766              		.loc 1 407 0
 767 0004 0446     		mov	r4, r0
 768              		.loc 1 408 0
 769 0006 9D69     		ldr	r5, [r3, #24]
 770              	.LVL56:
 771              	.LBB26:
 772              		.loc 1 410 0
 773 0008 2023     		movs	r3, #32
 774              	@ 410 "../../../os/kernel/src/chevents.c" 1
 775 000a 83F31188 		msr     BASEPRI, r3
 776              	@ 0 "" 2
 777              		.thumb
 778              	.LBE26:
 779              		.loc 1 412 0
 780 000e AB6B     		ldr	r3, [r5, #56]
 781 0010 00EA0302 		and	r2, r0, r3
 782 0014 8242     		cmp	r2, r0
 783 0016 04D0     		beq	.L56
 784              		.loc 1 413 0
 785 0018 6862     		str	r0, [r5, #36]
 786              		.loc 1 414 0
 787 001a 0920     		movs	r0, #9
 788              	.LVL57:
ARM GAS  /tmp/ccILw1Vl.s 			page 15


 789 001c FFF7FEFF 		bl	chSchGoSleepS
 790              	.LVL58:
 791 0020 AB6B     		ldr	r3, [r5, #56]
 792              	.L56:
 793              		.loc 1 416 0
 794 0022 23EA0403 		bic	r3, r3, r4
 795 0026 AB63     		str	r3, [r5, #56]
 796              	.LBB27:
 797              		.loc 1 418 0
 798 0028 0023     		movs	r3, #0
 799              	@ 418 "../../../os/kernel/src/chevents.c" 1
 800 002a 83F31188 		msr     BASEPRI, r3
 801              	@ 0 "" 2
 802              		.thumb
 803              	.LBE27:
 804              		.loc 1 420 0
 805 002e 2046     		mov	r0, r4
 806 0030 38BD     		pop	{r3, r4, r5, pc}
 807              	.LVL59:
 808              	.L59:
 809 0032 00BF     		.align	2
 810              	.L58:
 811 0034 00000000 		.word	rlist
 812              		.cfi_endproc
 813              	.LFE20:
 814              		.size	chEvtWaitAll, .-chEvtWaitAll
 815 0038 AFF30080 		.section	.text.chEvtWaitOneTimeout,"ax",%progbits
 815      AFF30080 
 816              		.align	2
 817              		.p2align 4,,15
 818              		.global	chEvtWaitOneTimeout
 819              		.thumb
 820              		.thumb_func
 821              		.type	chEvtWaitOneTimeout, %function
 822              	chEvtWaitOneTimeout:
 823              	.LFB21:
 824              		.loc 1 446 0
 825              		.cfi_startproc
 826              		@ args = 0, pretend = 0, frame = 0
 827              		@ frame_needed = 0, uses_anonymous_args = 0
 828              	.LVL60:
 829              		.loc 1 447 0
 830 0000 134B     		ldr	r3, .L67
 831              		.loc 1 446 0
 832 0002 70B5     		push	{r4, r5, r6, lr}
 833              		.cfi_def_cfa_offset 16
 834              		.cfi_offset 4, -16
 835              		.cfi_offset 5, -12
 836              		.cfi_offset 6, -8
 837              		.cfi_offset 14, -4
 838              		.loc 1 447 0
 839 0004 9E69     		ldr	r6, [r3, #24]
 840              	.LVL61:
 841              	.LBB28:
 842              		.loc 1 450 0
 843 0006 2023     		movs	r3, #32
 844              	@ 450 "../../../os/kernel/src/chevents.c" 1
ARM GAS  /tmp/ccILw1Vl.s 			page 16


 845 0008 83F31188 		msr     BASEPRI, r3
 846              	@ 0 "" 2
 847              		.thumb
 848              	.LBE28:
 849              		.loc 1 452 0
 850 000c B26B     		ldr	r2, [r6, #56]
 851              	.LVL62:
 852 000e 10EA0204 		ands	r4, r0, r2
 853              	.LVL63:
 854 0012 0FD1     		bne	.L61
 855              		.loc 1 453 0
 856 0014 21B9     		cbnz	r1, .L62
 857              	.LBB29:
 858              		.loc 1 454 0
 859 0016 0B46     		mov	r3, r1
 860              	@ 454 "../../../os/kernel/src/chevents.c" 1
 861 0018 83F31188 		msr     BASEPRI, r3
 862              	@ 0 "" 2
 863              		.thumb
 864              	.LBE29:
 865              		.loc 1 455 0
 866 001c 0846     		mov	r0, r1
 867              	.LVL64:
 868 001e 70BD     		pop	{r4, r5, r6, pc}
 869              	.LVL65:
 870              	.L62:
 871              		.loc 1 457 0
 872 0020 7062     		str	r0, [r6, #36]
 873 0022 0546     		mov	r5, r0
 874              		.loc 1 458 0
 875 0024 0820     		movs	r0, #8
 876              	.LVL66:
 877 0026 FFF7FEFF 		bl	chSchGoSleepTimeoutS
 878              	.LVL67:
 879 002a 0028     		cmp	r0, #0
 880 002c 0BDB     		blt	.L66
 881              		.loc 1 462 0
 882 002e B26B     		ldr	r2, [r6, #56]
 883 0030 05EA0204 		and	r4, r5, r2
 884              	.LVL68:
 885              	.L61:
 886              		.loc 1 464 0
 887 0034 6042     		negs	r0, r4
 888 0036 2040     		ands	r0, r0, r4
 889              	.LVL69:
 890              		.loc 1 465 0
 891 0038 22EA0002 		bic	r2, r2, r0
 892 003c B263     		str	r2, [r6, #56]
 893              	.LBB30:
 894              		.loc 1 467 0
 895 003e 0023     		movs	r3, #0
 896              	@ 467 "../../../os/kernel/src/chevents.c" 1
 897 0040 83F31188 		msr     BASEPRI, r3
 898              	@ 0 "" 2
 899              		.thumb
 900              	.LBE30:
 901              		.loc 1 469 0
ARM GAS  /tmp/ccILw1Vl.s 			page 17


 902 0044 70BD     		pop	{r4, r5, r6, pc}
 903              	.LVL70:
 904              	.L66:
 905              	.LBB31:
 906              		.loc 1 459 0
 907 0046 2346     		mov	r3, r4
 908              	@ 459 "../../../os/kernel/src/chevents.c" 1
 909 0048 83F31188 		msr     BASEPRI, r3
 910              	@ 0 "" 2
 911              		.thumb
 912              	.LBE31:
 913              		.loc 1 460 0
 914 004c 2046     		mov	r0, r4
 915 004e 70BD     		pop	{r4, r5, r6, pc}
 916              	.LVL71:
 917              	.L68:
 918              		.align	2
 919              	.L67:
 920 0050 00000000 		.word	rlist
 921              		.cfi_endproc
 922              	.LFE21:
 923              		.size	chEvtWaitOneTimeout, .-chEvtWaitOneTimeout
 924 0054 AFF30080 		.section	.text.chEvtWaitAnyTimeout,"ax",%progbits
 924      AFF30080 
 924      AFF30080 
 925              		.align	2
 926              		.p2align 4,,15
 927              		.global	chEvtWaitAnyTimeout
 928              		.thumb
 929              		.thumb_func
 930              		.type	chEvtWaitAnyTimeout, %function
 931              	chEvtWaitAnyTimeout:
 932              	.LFB22:
 933              		.loc 1 489 0
 934              		.cfi_startproc
 935              		@ args = 0, pretend = 0, frame = 0
 936              		@ frame_needed = 0, uses_anonymous_args = 0
 937              	.LVL72:
 938              		.loc 1 490 0
 939 0000 134B     		ldr	r3, .L76
 940              		.loc 1 489 0
 941 0002 70B5     		push	{r4, r5, r6, lr}
 942              		.cfi_def_cfa_offset 16
 943              		.cfi_offset 4, -16
 944              		.cfi_offset 5, -12
 945              		.cfi_offset 6, -8
 946              		.cfi_offset 14, -4
 947              		.loc 1 490 0
 948 0004 9E69     		ldr	r6, [r3, #24]
 949              	.LVL73:
 950              	.LBB32:
 951              		.loc 1 493 0
 952 0006 2023     		movs	r3, #32
 953              	@ 493 "../../../os/kernel/src/chevents.c" 1
 954 0008 83F31188 		msr     BASEPRI, r3
 955              	@ 0 "" 2
 956              		.thumb
ARM GAS  /tmp/ccILw1Vl.s 			page 18


 957              	.LBE32:
 958              		.loc 1 495 0
 959 000c B26B     		ldr	r2, [r6, #56]
 960              	.LVL74:
 961 000e 10EA0204 		ands	r4, r0, r2
 962              	.LVL75:
 963 0012 0FD1     		bne	.L70
 964              		.loc 1 496 0
 965 0014 21B9     		cbnz	r1, .L71
 966              	.LBB33:
 967              		.loc 1 497 0
 968 0016 0B46     		mov	r3, r1
 969              	@ 497 "../../../os/kernel/src/chevents.c" 1
 970 0018 83F31188 		msr     BASEPRI, r3
 971              	@ 0 "" 2
 972              		.thumb
 973              	.LBE33:
 974              		.loc 1 498 0
 975 001c 0846     		mov	r0, r1
 976              	.LVL76:
 977 001e 70BD     		pop	{r4, r5, r6, pc}
 978              	.LVL77:
 979              	.L71:
 980              		.loc 1 500 0
 981 0020 7062     		str	r0, [r6, #36]
 982 0022 0546     		mov	r5, r0
 983              		.loc 1 501 0
 984 0024 0820     		movs	r0, #8
 985              	.LVL78:
 986 0026 FFF7FEFF 		bl	chSchGoSleepTimeoutS
 987              	.LVL79:
 988 002a 0028     		cmp	r0, #0
 989 002c 0ADB     		blt	.L75
 990              		.loc 1 505 0
 991 002e B26B     		ldr	r2, [r6, #56]
 992 0030 05EA0204 		and	r4, r5, r2
 993              	.LVL80:
 994              	.L70:
 995              		.loc 1 507 0
 996 0034 22EA0402 		bic	r2, r2, r4
 997 0038 B263     		str	r2, [r6, #56]
 998              	.LBB34:
 999              		.loc 1 509 0
 1000 003a 0023     		movs	r3, #0
 1001              	@ 509 "../../../os/kernel/src/chevents.c" 1
 1002 003c 83F31188 		msr     BASEPRI, r3
 1003              	@ 0 "" 2
 1004              		.thumb
 1005              	.LBE34:
 1006              		.loc 1 510 0
 1007 0040 2046     		mov	r0, r4
 1008              		.loc 1 511 0
 1009 0042 70BD     		pop	{r4, r5, r6, pc}
 1010              	.LVL81:
 1011              	.L75:
 1012              	.LBB35:
 1013              		.loc 1 502 0
ARM GAS  /tmp/ccILw1Vl.s 			page 19


 1014 0044 2346     		mov	r3, r4
 1015              	@ 502 "../../../os/kernel/src/chevents.c" 1
 1016 0046 83F31188 		msr     BASEPRI, r3
 1017              	@ 0 "" 2
 1018              		.thumb
 1019              	.LBE35:
 1020              		.loc 1 503 0
 1021 004a 2046     		mov	r0, r4
 1022 004c 70BD     		pop	{r4, r5, r6, pc}
 1023              	.LVL82:
 1024              	.L77:
 1025 004e 00BF     		.align	2
 1026              	.L76:
 1027 0050 00000000 		.word	rlist
 1028              		.cfi_endproc
 1029              	.LFE22:
 1030              		.size	chEvtWaitAnyTimeout, .-chEvtWaitAnyTimeout
 1031 0054 AFF30080 		.section	.text.chEvtWaitAllTimeout,"ax",%progbits
 1031      AFF30080 
 1031      AFF30080 
 1032              		.align	2
 1033              		.p2align 4,,15
 1034              		.global	chEvtWaitAllTimeout
 1035              		.thumb
 1036              		.thumb_func
 1037              		.type	chEvtWaitAllTimeout, %function
 1038              	chEvtWaitAllTimeout:
 1039              	.LFB23:
 1040              		.loc 1 530 0
 1041              		.cfi_startproc
 1042              		@ args = 0, pretend = 0, frame = 0
 1043              		@ frame_needed = 0, uses_anonymous_args = 0
 1044              	.LVL83:
 1045 0000 38B5     		push	{r3, r4, r5, lr}
 1046              		.cfi_def_cfa_offset 16
 1047              		.cfi_offset 3, -16
 1048              		.cfi_offset 4, -12
 1049              		.cfi_offset 5, -8
 1050              		.cfi_offset 14, -4
 1051              		.loc 1 531 0
 1052 0002 124B     		ldr	r3, .L84
 1053              		.loc 1 530 0
 1054 0004 0446     		mov	r4, r0
 1055              		.loc 1 531 0
 1056 0006 9D69     		ldr	r5, [r3, #24]
 1057              	.LVL84:
 1058              	.LBB36:
 1059              		.loc 1 533 0
 1060 0008 2023     		movs	r3, #32
 1061              	@ 533 "../../../os/kernel/src/chevents.c" 1
 1062 000a 83F31188 		msr     BASEPRI, r3
 1063              	@ 0 "" 2
 1064              		.thumb
 1065              	.LBE36:
 1066              		.loc 1 535 0
 1067 000e AA6B     		ldr	r2, [r5, #56]
 1068 0010 00EA0203 		and	r3, r0, r2
ARM GAS  /tmp/ccILw1Vl.s 			page 20


 1069 0014 8342     		cmp	r3, r0
 1070 0016 0CD0     		beq	.L79
 1071 0018 0846     		mov	r0, r1
 1072              	.LVL85:
 1073              		.loc 1 536 0
 1074 001a 19B9     		cbnz	r1, .L80
 1075              	.LBB37:
 1076              		.loc 1 537 0
 1077 001c 0B46     		mov	r3, r1
 1078              	@ 537 "../../../os/kernel/src/chevents.c" 1
 1079 001e 83F31188 		msr     BASEPRI, r3
 1080              	@ 0 "" 2
 1081              		.thumb
 1082              	.LBE37:
 1083              		.loc 1 538 0
 1084 0022 38BD     		pop	{r3, r4, r5, pc}
 1085              	.LVL86:
 1086              	.L80:
 1087              		.loc 1 540 0
 1088 0024 6C62     		str	r4, [r5, #36]
 1089              		.loc 1 541 0
 1090 0026 0920     		movs	r0, #9
 1091 0028 FFF7FEFF 		bl	chSchGoSleepTimeoutS
 1092              	.LVL87:
 1093 002c 0028     		cmp	r0, #0
 1094 002e 08DB     		blt	.L82
 1095 0030 AA6B     		ldr	r2, [r5, #56]
 1096              	.L79:
 1097              		.loc 1 546 0
 1098 0032 22EA0402 		bic	r2, r2, r4
 1099 0036 AA63     		str	r2, [r5, #56]
 1100              	.LBB38:
 1101              		.loc 1 548 0
 1102 0038 0023     		movs	r3, #0
 1103              	@ 548 "../../../os/kernel/src/chevents.c" 1
 1104 003a 83F31188 		msr     BASEPRI, r3
 1105              	@ 0 "" 2
 1106              		.thumb
 1107              	.LBE38:
 1108              		.loc 1 549 0
 1109 003e 2046     		mov	r0, r4
 1110              		.loc 1 550 0
 1111 0040 38BD     		pop	{r3, r4, r5, pc}
 1112              	.LVL88:
 1113              	.L82:
 1114              	.LBB39:
 1115              		.loc 1 542 0
 1116 0042 0023     		movs	r3, #0
 1117              	@ 542 "../../../os/kernel/src/chevents.c" 1
 1118 0044 83F31188 		msr     BASEPRI, r3
 1119              	@ 0 "" 2
 1120              		.thumb
 1121              	.LBE39:
 1122              		.loc 1 543 0
 1123 0048 1846     		mov	r0, r3
 1124 004a 38BD     		pop	{r3, r4, r5, pc}
 1125              	.LVL89:
ARM GAS  /tmp/ccILw1Vl.s 			page 21


 1126              	.L85:
 1127              		.align	2
 1128              	.L84:
 1129 004c 00000000 		.word	rlist
 1130              		.cfi_endproc
 1131              	.LFE23:
 1132              		.size	chEvtWaitAllTimeout, .-chEvtWaitAllTimeout
 1133              		.text
 1134              	.Letext0:
 1135              		.file 2 "/usr/arm-none-eabi/include/machine/_default_types.h"
 1136              		.file 3 "/usr/arm-none-eabi/include/stdint.h"
 1137              		.file 4 "../../../os/ports/GCC/ARMCMx/chtypes.h"
 1138              		.file 5 "../../../os/kernel/include/chlists.h"
 1139              		.file 6 "../../../os/kernel/include/chthreads.h"
 1140              		.file 7 "../../../os/ports/GCC/ARMCMx/chcore_v7m.h"
 1141              		.file 8 "../../../os/kernel/include/chschd.h"
 1142              		.file 9 "../../../os/kernel/include/chmtx.h"
 1143              		.file 10 "../../../os/kernel/include/chevents.h"