ARM GAS  /tmp/ccqSY8DE.s 			page 1


   1              		.syntax unified
   2              		.cpu cortex-m4
   3              		.fpu softvfp
   4              		.eabi_attribute 20, 1
   5              		.eabi_attribute 21, 1
   6              		.eabi_attribute 23, 3
   7              		.eabi_attribute 24, 1
   8              		.eabi_attribute 25, 1
   9              		.eabi_attribute 26, 1
  10              		.eabi_attribute 30, 2
  11              		.eabi_attribute 34, 1
  12              		.eabi_attribute 18, 4
  13              		.thumb
  14              		.file	"chheap.c"
  15              		.text
  16              	.Ltext0:
  17              		.cfi_sections	.debug_frame
  18              		.section	.text._heap_init,"ax",%progbits
  19              		.align	2
  20              		.p2align 4,,15
  21              		.global	_heap_init
  22              		.thumb
  23              		.thumb_func
  24              		.type	_heap_init, %function
  25              	_heap_init:
  26              	.LFB7:
  27              		.file 1 "../../../os/kernel/src/chheap.c"
  28              		.loc 1 75 0
  29              		.cfi_startproc
  30              		@ args = 0, pretend = 0, frame = 0
  31              		@ frame_needed = 0, uses_anonymous_args = 0
  32              		@ link register save eliminated.
  33              		.loc 1 76 0
  34 0000 044B     		ldr	r3, .L2
  35 0002 054A     		ldr	r2, .L2+4
  36 0004 1A60     		str	r2, [r3]
  37              		.loc 1 80 0
  38 0006 03F11000 		add	r0, r3, #16
  39              		.loc 1 77 0
  40 000a 0022     		movs	r2, #0
  41 000c 9A60     		str	r2, [r3, #8]
  42              		.loc 1 78 0
  43 000e DA60     		str	r2, [r3, #12]
  44              		.loc 1 80 0
  45 0010 FFF7FEBF 		b	chMtxInit
  46              	.LVL0:
  47              	.L3:
  48              		.align	2
  49              	.L2:
  50 0014 00000000 		.word	.LANCHOR0
  51 0018 00000000 		.word	chCoreAlloc
  52              		.cfi_endproc
  53              	.LFE7:
  54              		.size	_heap_init, .-_heap_init
  55 001c AFF30080 		.section	.text.chHeapInit,"ax",%progbits
  56              		.align	2
  57              		.p2align 4,,15
ARM GAS  /tmp/ccqSY8DE.s 			page 2


  58              		.global	chHeapInit
  59              		.thumb
  60              		.thumb_func
  61              		.type	chHeapInit, %function
  62              	chHeapInit:
  63              	.LFB8:
  64              		.loc 1 99 0
  65              		.cfi_startproc
  66              		@ args = 0, pretend = 0, frame = 0
  67              		@ frame_needed = 0, uses_anonymous_args = 0
  68              		@ link register save eliminated.
  69              	.LVL1:
  70              		.loc 1 104 0
  71 0000 0023     		movs	r3, #0
  72              		.loc 1 108 0
  73 0002 083A     		subs	r2, r2, #8
  74              	.LVL2:
  75              		.loc 1 105 0
  76 0004 8160     		str	r1, [r0, #8]
  77              		.loc 1 104 0
  78 0006 0360     		str	r3, [r0]
  79              	.LVL3:
  80              		.loc 1 106 0
  81 0008 C360     		str	r3, [r0, #12]
  82              		.loc 1 110 0
  83 000a 1030     		adds	r0, r0, #16
  84              	.LVL4:
  85              		.loc 1 108 0
  86 000c 4A60     		str	r2, [r1, #4]
  87              		.loc 1 107 0
  88 000e 0B60     		str	r3, [r1]
  89              		.loc 1 110 0
  90 0010 FFF7FEBF 		b	chMtxInit
  91              	.LVL5:
  92              		.cfi_endproc
  93              	.LFE8:
  94              		.size	chHeapInit, .-chHeapInit
  95 0014 AFF30080 		.section	.text.chHeapAlloc,"ax",%progbits
  95      AFF30080 
  95      AFF30080 
  96              		.align	2
  97              		.p2align 4,,15
  98              		.global	chHeapAlloc
  99              		.thumb
 100              		.thumb_func
 101              		.type	chHeapAlloc, %function
 102              	chHeapAlloc:
 103              	.LFB9:
 104              		.loc 1 132 0
 105              		.cfi_startproc
 106              		@ args = 0, pretend = 0, frame = 0
 107              		@ frame_needed = 0, uses_anonymous_args = 0
 108              	.LVL6:
 109 0000 F8B5     		push	{r3, r4, r5, r6, r7, lr}
 110              		.cfi_def_cfa_offset 24
 111              		.cfi_offset 3, -24
 112              		.cfi_offset 4, -20
ARM GAS  /tmp/ccqSY8DE.s 			page 3


 113              		.cfi_offset 5, -16
 114              		.cfi_offset 6, -12
 115              		.cfi_offset 7, -8
 116              		.cfi_offset 14, -4
 117              		.loc 1 136 0
 118 0002 1E4E     		ldr	r6, .L21
 119 0004 0028     		cmp	r0, #0
 120 0006 18BF     		it	ne
 121 0008 0646     		movne	r6, r0
 122              	.LVL7:
 123              		.loc 1 138 0
 124 000a 0731     		adds	r1, r1, #7
 125              	.LVL8:
 126              		.loc 1 140 0
 127 000c 06F11000 		add	r0, r6, #16
 128              		.loc 1 138 0
 129 0010 21F00705 		bic	r5, r1, #7
 130              	.LVL9:
 131              		.loc 1 139 0
 132 0014 06F10804 		add	r4, r6, #8
 133              	.LVL10:
 134              		.loc 1 140 0
 135 0018 FFF7FEFF 		bl	chMtxLock
 136              	.LVL11:
 137              		.loc 1 142 0
 138 001c 03E0     		b	.L7
 139              	.LVL12:
 140              	.L11:
 141              		.loc 1 144 0
 142 001e 5A68     		ldr	r2, [r3, #4]
 143 0020 9542     		cmp	r5, r2
 144 0022 11D9     		bls	.L20
 145 0024 1C46     		mov	r4, r3
 146              	.LVL13:
 147              	.L7:
 148              		.loc 1 142 0
 149 0026 2368     		ldr	r3, [r4]
 150              	.LVL14:
 151 0028 002B     		cmp	r3, #0
 152 002a F8D1     		bne	.L11
 153              		.loc 1 167 0
 154 002c FFF7FEFF 		bl	chMtxUnlock
 155              	.LVL15:
 156              		.loc 1 171 0
 157 0030 3368     		ldr	r3, [r6]
 158 0032 0BB3     		cbz	r3, .L13
 159              		.loc 1 172 0
 160 0034 05F10800 		add	r0, r5, #8
 161 0038 9847     		blx	r3
 162              	.LVL16:
 163              		.loc 1 173 0
 164 003a E8B1     		cbz	r0, .L13
 165              		.loc 1 174 0
 166 003c 0660     		str	r6, [r0]
 167              		.loc 1 175 0
 168 003e 4560     		str	r5, [r0, #4]
 169              		.loc 1 176 0
ARM GAS  /tmp/ccqSY8DE.s 			page 4


 170 0040 00F10804 		add	r4, r0, #8
 171              	.LVL17:
 172              	.L10:
 173              		.loc 1 181 0
 174 0044 2046     		mov	r0, r4
 175 0046 F8BD     		pop	{r3, r4, r5, r6, r7, pc}
 176              	.LVL18:
 177              	.L20:
 178              		.loc 1 145 0
 179 0048 05F10801 		add	r1, r5, #8
 180 004c 9142     		cmp	r1, r2
 181 004e 08D9     		bls	.L8
 182              		.loc 1 149 0
 183 0050 1A68     		ldr	r2, [r3]
 184 0052 2260     		str	r2, [r4]
 185              	.L9:
 186              		.loc 1 159 0
 187 0054 1C46     		mov	r4, r3
 188              	.LVL19:
 189 0056 44F8086B 		str	r6, [r4], #8
 190              		.loc 1 161 0
 191 005a FFF7FEFF 		bl	chMtxUnlock
 192              	.LVL20:
 193              		.loc 1 181 0
 194 005e 2046     		mov	r0, r4
 195 0060 F8BD     		pop	{r3, r4, r5, r6, r7, pc}
 196              	.LVL21:
 197              	.L8:
 198 0062 6FF00700 		mvn	r0, #7
 199 0066 401B     		subs	r0, r0, r5
 200              		.loc 1 153 0
 201 0068 5F18     		adds	r7, r3, r1
 202              	.LVL22:
 203              		.loc 1 155 0
 204 006a 0244     		add	r2, r2, r0
 205              		.loc 1 154 0
 206 006c 1868     		ldr	r0, [r3]
 207 006e 5850     		str	r0, [r3, r1]
 208              		.loc 1 155 0
 209 0070 7A60     		str	r2, [r7, #4]
 210              		.loc 1 156 0
 211 0072 2760     		str	r7, [r4]
 212              		.loc 1 157 0
 213 0074 5D60     		str	r5, [r3, #4]
 214 0076 EDE7     		b	.L9
 215              	.LVL23:
 216              	.L13:
 217              		.loc 1 180 0
 218 0078 0024     		movs	r4, #0
 219              	.LVL24:
 220 007a E3E7     		b	.L10
 221              	.L22:
 222              		.align	2
 223              	.L21:
 224 007c 00000000 		.word	.LANCHOR0
 225              		.cfi_endproc
 226              	.LFE9:
ARM GAS  /tmp/ccqSY8DE.s 			page 5


 227              		.size	chHeapAlloc, .-chHeapAlloc
 228              		.section	.text.chHeapFree,"ax",%progbits
 229              		.align	2
 230              		.p2align 4,,15
 231              		.global	chHeapFree
 232              		.thumb
 233              		.thumb_func
 234              		.type	chHeapFree, %function
 235              	chHeapFree:
 236              	.LFB10:
 237              		.loc 1 194 0
 238              		.cfi_startproc
 239              		@ args = 0, pretend = 0, frame = 0
 240              		@ frame_needed = 0, uses_anonymous_args = 0
 241              	.LVL25:
 242 0000 70B5     		push	{r4, r5, r6, lr}
 243              		.cfi_def_cfa_offset 16
 244              		.cfi_offset 4, -16
 245              		.cfi_offset 5, -12
 246              		.cfi_offset 6, -8
 247              		.cfi_offset 14, -4
 248              		.loc 1 194 0
 249 0002 0646     		mov	r6, r0
 250              		.loc 1 200 0
 251 0004 A0F10804 		sub	r4, r0, #8
 252              	.LVL26:
 253              		.loc 1 201 0
 254 0008 50F8080C 		ldr	r0, [r0, #-8]
 255              	.LVL27:
 256              		.loc 1 202 0
 257 000c 00F10805 		add	r5, r0, #8
 258              	.LVL28:
 259              		.loc 1 203 0
 260 0010 1030     		adds	r0, r0, #16
 261              	.LVL29:
 262 0012 FFF7FEFF 		bl	chMtxLock
 263              	.LVL30:
 264              		.loc 1 202 0
 265 0016 2B46     		mov	r3, r5
 266              	.LVL31:
 267              	.L30:
 268              		.loc 1 210 0
 269 0018 AB42     		cmp	r3, r5
 270 001a 04D0     		beq	.L24
 271              	.L36:
 272              		.loc 1 210 0 is_stmt 0 discriminator 2
 273 001c A342     		cmp	r3, r4
 274 001e 02D3     		bcc	.L24
 275 0020 1B68     		ldr	r3, [r3]
 276              	.LVL32:
 277              		.loc 1 210 0
 278 0022 AB42     		cmp	r3, r5
 279 0024 FAD1     		bne	.L36
 280              	.L24:
 281              		.loc 1 211 0 is_stmt 1 discriminator 3
 282 0026 1A68     		ldr	r2, [r3]
 283              		.loc 1 210 0 discriminator 3
ARM GAS  /tmp/ccqSY8DE.s 			page 6


 284 0028 1AB1     		cbz	r2, .L26
 285              		.loc 1 211 0
 286 002a 9442     		cmp	r4, r2
 287 002c 01D3     		bcc	.L26
 288 002e 1346     		mov	r3, r2
 289              	.LVL33:
 290              		.loc 1 229 0
 291 0030 F2E7     		b	.L30
 292              	.LVL34:
 293              	.L26:
 294              		.loc 1 216 0
 295 0032 56F8041C 		ldr	r1, [r6, #-4]
 296              		.loc 1 213 0
 297 0036 46F8082C 		str	r2, [r6, #-8]
 298              		.loc 1 214 0
 299 003a 1C60     		str	r4, [r3]
 300              		.loc 1 216 0
 301 003c 01F10802 		add	r2, r1, #8
 302 0040 56F8085C 		ldr	r5, [r6, #-8]
 303              	.LVL35:
 304 0044 A018     		adds	r0, r4, r2
 305 0046 A842     		cmp	r0, r5
 306 0048 09D0     		beq	.L37
 307              		.loc 1 221 0
 308 004a 5968     		ldr	r1, [r3, #4]
 309 004c 01F10802 		add	r2, r1, #8
 310 0050 1A44     		add	r2, r2, r3
 311 0052 9442     		cmp	r4, r2
 312 0054 11D0     		beq	.L38
 313              	.L29:
 314              		.loc 1 233 0
 315 0056 BDE87040 		pop	{r4, r5, r6, lr}
 316              		.cfi_remember_state
 317              		.cfi_restore 14
 318              		.cfi_restore 6
 319              		.cfi_restore 5
 320              		.cfi_restore 4
 321              		.cfi_def_cfa_offset 0
 322              	.LVL36:
 323              		.loc 1 231 0
 324 005a FFF7FEBF 		b	chMtxUnlock
 325              	.LVL37:
 326              	.L37:
 327              		.cfi_restore_state
 328              		.loc 1 218 0
 329 005e 4068     		ldr	r0, [r0, #4]
 330              		.loc 1 219 0
 331 0060 A258     		ldr	r2, [r4, r2]
 332 0062 46F8082C 		str	r2, [r6, #-8]
 333              		.loc 1 218 0
 334 0066 0A18     		adds	r2, r1, r0
 335 0068 0832     		adds	r2, r2, #8
 336 006a 46F8042C 		str	r2, [r6, #-4]
 337              		.loc 1 221 0
 338 006e 5968     		ldr	r1, [r3, #4]
 339 0070 01F10802 		add	r2, r1, #8
 340 0074 1A44     		add	r2, r2, r3
ARM GAS  /tmp/ccqSY8DE.s 			page 7


 341 0076 9442     		cmp	r4, r2
 342 0078 EDD1     		bne	.L29
 343              	.L38:
 344              		.loc 1 224 0
 345 007a 16E90500 		ldmdb	r6, {r0, r2}
 346              		.loc 1 223 0
 347 007e 0A44     		add	r2, r2, r1
 348 0080 0832     		adds	r2, r2, #8
 349              		.loc 1 224 0
 350 0082 1860     		str	r0, [r3]
 351              		.loc 1 223 0
 352 0084 5A60     		str	r2, [r3, #4]
 353              		.loc 1 233 0
 354 0086 BDE87040 		pop	{r4, r5, r6, lr}
 355              		.cfi_restore 4
 356              		.cfi_restore 5
 357              		.cfi_restore 6
 358              		.cfi_restore 14
 359              		.cfi_def_cfa_offset 0
 360              	.LVL38:
 361              		.loc 1 231 0
 362 008a FFF7FEBF 		b	chMtxUnlock
 363              	.LVL39:
 364              		.cfi_endproc
 365              	.LFE10:
 366              		.size	chHeapFree, .-chHeapFree
 367 008e 00BF     		.section	.text.chHeapStatus,"ax",%progbits
 368              		.align	2
 369              		.p2align 4,,15
 370              		.global	chHeapStatus
 371              		.thumb
 372              		.thumb_func
 373              		.type	chHeapStatus, %function
 374              	chHeapStatus:
 375              	.LFB11:
 376              		.loc 1 250 0
 377              		.cfi_startproc
 378              		@ args = 0, pretend = 0, frame = 0
 379              		@ frame_needed = 0, uses_anonymous_args = 0
 380              	.LVL40:
 381 0000 38B5     		push	{r3, r4, r5, lr}
 382              		.cfi_def_cfa_offset 16
 383              		.cfi_offset 3, -16
 384              		.cfi_offset 4, -12
 385              		.cfi_offset 5, -8
 386              		.cfi_offset 14, -4
 387              		.loc 1 255 0
 388 0002 0E4C     		ldr	r4, .L50
 389 0004 0028     		cmp	r0, #0
 390 0006 18BF     		it	ne
 391 0008 0446     		movne	r4, r0
 392              	.LVL41:
 393              		.loc 1 257 0
 394 000a 04F11000 		add	r0, r4, #16
 395              		.loc 1 250 0
 396 000e 0D46     		mov	r5, r1
 397              		.loc 1 257 0
ARM GAS  /tmp/ccqSY8DE.s 			page 8


 398 0010 FFF7FEFF 		bl	chMtxLock
 399              	.LVL42:
 400              		.loc 1 260 0
 401 0014 A368     		ldr	r3, [r4, #8]
 402 0016 6BB1     		cbz	r3, .L44
 403              		.loc 1 260 0 is_stmt 0 discriminator 3
 404 0018 0022     		movs	r2, #0
 405 001a 1446     		mov	r4, r2
 406              	.LVL43:
 407              	.L42:
 408              		.loc 1 261 0 is_stmt 1 discriminator 3
 409 001c 5868     		ldr	r0, [r3, #4]
 410              		.loc 1 260 0 discriminator 3
 411 001e 1B68     		ldr	r3, [r3]
 412 0020 0134     		adds	r4, r4, #1
 413              	.LVL44:
 414              		.loc 1 261 0 discriminator 3
 415 0022 0244     		add	r2, r2, r0
 416              	.LVL45:
 417              		.loc 1 260 0 discriminator 3
 418 0024 002B     		cmp	r3, #0
 419 0026 F9D1     		bne	.L42
 420              	.LVL46:
 421              	.L41:
 422              		.loc 1 262 0
 423 0028 05B1     		cbz	r5, .L43
 424              		.loc 1 263 0
 425 002a 2A60     		str	r2, [r5]
 426              	.L43:
 427              		.loc 1 265 0
 428 002c FFF7FEFF 		bl	chMtxUnlock
 429              	.LVL47:
 430              		.loc 1 267 0
 431 0030 2046     		mov	r0, r4
 432 0032 38BD     		pop	{r3, r4, r5, pc}
 433              	.LVL48:
 434              	.L44:
 435              		.loc 1 259 0
 436 0034 1A46     		mov	r2, r3
 437              		.loc 1 260 0
 438 0036 1C46     		mov	r4, r3
 439              	.LVL49:
 440 0038 F6E7     		b	.L41
 441              	.L51:
 442 003a 00BF     		.align	2
 443              	.L50:
 444 003c 00000000 		.word	.LANCHOR0
 445              		.cfi_endproc
 446              	.LFE11:
 447              		.size	chHeapStatus, .-chHeapStatus
 448              		.section	.bss.default_heap,"aw",%nobits
 449              		.align	3
 450              		.set	.LANCHOR0,. + 0
 451              		.type	default_heap, %object
 452              		.size	default_heap, 32
 453              	default_heap:
 454 0000 00000000 		.space	32
ARM GAS  /tmp/ccqSY8DE.s 			page 9


 454      00000000 
 454      00000000 
 454      00000000 
 454      00000000 
 455              		.text
 456              	.Letext0:
 457              		.file 2 "/usr/lib/gcc/arm-none-eabi/4.9.2/include/stddef.h"
 458              		.file 3 "/usr/arm-none-eabi/include/machine/_default_types.h"
 459              		.file 4 "/usr/arm-none-eabi/include/stdint.h"
 460              		.file 5 "../../../os/ports/GCC/ARMCMx/chtypes.h"
 461              		.file 6 "../../../os/kernel/include/chlists.h"
 462              		.file 7 "../../../os/kernel/include/chthreads.h"
 463              		.file 8 "../../../os/ports/GCC/ARMCMx/chcore_v7m.h"
 464              		.file 9 "../../../os/kernel/include/chmtx.h"
 465              		.file 10 "../../../os/kernel/include/chmemcore.h"
 466              		.file 11 "../../../os/kernel/include/chheap.h"