ARM GAS  /tmp/cc84R6MF.s 			page 1


   1              		.syntax unified
   2              		.cpu cortex-m4
   3              		.fpu softvfp
   4              		.eabi_attribute 20, 1
   5              		.eabi_attribute 21, 1
   6              		.eabi_attribute 23, 3
   7              		.eabi_attribute 24, 1
   8              		.eabi_attribute 25, 1
   9              		.eabi_attribute 26, 1
  10              		.eabi_attribute 30, 2
  11              		.eabi_attribute 34, 1
  12              		.eabi_attribute 18, 4
  13              		.thumb
  14              		.file	"chqueues.c"
  15              		.text
  16              	.Ltext0:
  17              		.cfi_sections	.debug_frame
  18              		.section	.text.qwait,"ax",%progbits
  19              		.align	2
  20              		.p2align 4,,15
  21              		.thumb
  22              		.thumb_func
  23              		.type	qwait, %function
  24              	qwait:
  25              	.LFB7:
  26              		.file 1 "../../../os/kernel/src/chqueues.c"
  27              		.loc 1 70 0
  28              		.cfi_startproc
  29              		@ args = 0, pretend = 0, frame = 0
  30              		@ frame_needed = 0, uses_anonymous_args = 0
  31              		@ link register save eliminated.
  32              	.LVL0:
  33              		.loc 1 72 0
  34 0000 71B1     		cbz	r1, .L2
  35              		.loc 1 74 0
  36 0002 094B     		ldr	r3, .L5
  37 0004 9B69     		ldr	r3, [r3, #24]
  38              		.loc 1 70 0
  39 0006 10B4     		push	{r4}
  40              		.cfi_def_cfa_offset 4
  41              		.cfi_offset 4, -4
  42              		.loc 1 74 0
  43 0008 5862     		str	r0, [r3, #36]
  44              	.LVL1:
  45              	.LBB12:
  46              	.LBB13:
  47              		.file 2 "../../../os/kernel/include/chinline.h"
  48              		.loc 2 55 0
  49 000a 4468     		ldr	r4, [r0, #4]
  50 000c 0246     		mov	r2, r0
  51 000e 83E81400 		stmia	r3, {r2, r4}
  52              	.LBE13:
  53              	.LBE12:
  54              		.loc 1 76 0
  55 0012 0D20     		movs	r0, #13
  56              	.LVL2:
  57              	.LBB15:
ARM GAS  /tmp/cc84R6MF.s 			page 2


  58              	.LBB14:
  59              		.loc 2 56 0
  60 0014 5360     		str	r3, [r2, #4]
  61 0016 2360     		str	r3, [r4]
  62              	.LBE14:
  63              	.LBE15:
  64              		.loc 1 77 0
  65 0018 5DF8044B 		ldr	r4, [sp], #4
  66              		.cfi_restore 4
  67              		.cfi_def_cfa_offset 0
  68              		.loc 1 76 0
  69 001c FFF7FEBF 		b	chSchGoSleepTimeoutS
  70              	.LVL3:
  71              	.L2:
  72              		.loc 1 77 0
  73 0020 4FF0FF30 		mov	r0, #-1
  74              	.LVL4:
  75 0024 7047     		bx	lr
  76              	.L6:
  77 0026 00BF     		.align	2
  78              	.L5:
  79 0028 00000000 		.word	rlist
  80              		.cfi_endproc
  81              	.LFE7:
  82              		.size	qwait, .-qwait
  83 002c AFF30080 		.section	.text.chIQInit,"ax",%progbits
  84              		.align	2
  85              		.p2align 4,,15
  86              		.global	chIQInit
  87              		.thumb
  88              		.thumb_func
  89              		.type	chIQInit, %function
  90              	chIQInit:
  91              	.LFB8:
  92              		.loc 1 96 0
  93              		.cfi_startproc
  94              		@ args = 4, pretend = 0, frame = 0
  95              		@ frame_needed = 0, uses_anonymous_args = 0
  96              		@ link register save eliminated.
  97              	.LVL5:
  98 0000 30B4     		push	{r4, r5}
  99              		.cfi_def_cfa_offset 8
 100              		.cfi_offset 4, -8
 101              		.cfi_offset 5, -4
 102              		.loc 1 96 0
 103 0002 029C     		ldr	r4, [sp, #8]
 104              		.loc 1 103 0
 105 0004 0462     		str	r4, [r0, #32]
 106              		.loc 1 99 0
 107 0006 0025     		movs	r5, #0
 108              		.loc 1 101 0
 109 0008 0A44     		add	r2, r2, r1
 110              	.LVL6:
 111              		.loc 1 99 0
 112 000a 8560     		str	r5, [r0, #8]
 113              		.loc 1 101 0
 114 000c 0261     		str	r2, [r0, #16]
ARM GAS  /tmp/cc84R6MF.s 			page 3


 115              		.loc 1 98 0
 116 000e 4060     		str	r0, [r0, #4]
 117 0010 0060     		str	r0, [r0]
 118              		.loc 1 100 0
 119 0012 4161     		str	r1, [r0, #20]
 120 0014 8161     		str	r1, [r0, #24]
 121 0016 C160     		str	r1, [r0, #12]
 122              		.loc 1 102 0
 123 0018 C361     		str	r3, [r0, #28]
 124              		.loc 1 104 0
 125 001a 30BC     		pop	{r4, r5}
 126              		.cfi_restore 5
 127              		.cfi_restore 4
 128              		.cfi_def_cfa_offset 0
 129              	.LVL7:
 130 001c 7047     		bx	lr
 131              		.cfi_endproc
 132              	.LFE8:
 133              		.size	chIQInit, .-chIQInit
 134 001e 00BF     		.section	.text.chIQResetI,"ax",%progbits
 135              		.align	2
 136              		.p2align 4,,15
 137              		.global	chIQResetI
 138              		.thumb
 139              		.thumb_func
 140              		.type	chIQResetI, %function
 141              	chIQResetI:
 142              	.LFB9:
 143              		.loc 1 117 0
 144              		.cfi_startproc
 145              		@ args = 0, pretend = 0, frame = 0
 146              		@ frame_needed = 0, uses_anonymous_args = 0
 147              	.LVL8:
 148 0000 38B5     		push	{r3, r4, r5, lr}
 149              		.cfi_def_cfa_offset 16
 150              		.cfi_offset 3, -16
 151              		.cfi_offset 4, -12
 152              		.cfi_offset 5, -8
 153              		.cfi_offset 14, -4
 154              		.loc 1 117 0
 155 0002 0446     		mov	r4, r0
 156              		.loc 1 123 0
 157 0004 0068     		ldr	r0, [r0]
 158              	.LVL9:
 159              		.loc 1 121 0
 160 0006 E368     		ldr	r3, [r4, #12]
 161 0008 6361     		str	r3, [r4, #20]
 162              		.loc 1 122 0
 163 000a 0022     		movs	r2, #0
 164              		.loc 1 123 0
 165 000c A042     		cmp	r0, r4
 166              		.loc 1 122 0
 167 000e A260     		str	r2, [r4, #8]
 168              		.loc 1 121 0
 169 0010 A361     		str	r3, [r4, #24]
 170              		.loc 1 123 0
 171 0012 0AD0     		beq	.L9
ARM GAS  /tmp/cc84R6MF.s 			page 4


 172              		.loc 1 124 0
 173 0014 6FF00105 		mvn	r5, #1
 174              	.L11:
 175              	.LVL10:
 176              	.LBB16:
 177              	.LBB17:
 178              		.loc 2 62 0
 179 0018 0368     		ldr	r3, [r0]
 180 001a 2360     		str	r3, [r4]
 181 001c 5C60     		str	r4, [r3, #4]
 182              	.LBE17:
 183              	.LBE16:
 184              		.loc 1 124 0
 185 001e FFF7FEFF 		bl	chSchReadyI
 186              	.LVL11:
 187 0022 4562     		str	r5, [r0, #36]
 188              		.loc 1 123 0
 189 0024 2068     		ldr	r0, [r4]
 190 0026 A042     		cmp	r0, r4
 191 0028 F6D1     		bne	.L11
 192              	.LVL12:
 193              	.L9:
 194 002a 38BD     		pop	{r3, r4, r5, pc}
 195              		.cfi_endproc
 196              	.LFE9:
 197              		.size	chIQResetI, .-chIQResetI
 198 002c AFF30080 		.section	.text.chIQPutI,"ax",%progbits
 199              		.align	2
 200              		.p2align 4,,15
 201              		.global	chIQPutI
 202              		.thumb
 203              		.thumb_func
 204              		.type	chIQPutI, %function
 205              	chIQPutI:
 206              	.LFB10:
 207              		.loc 1 140 0
 208              		.cfi_startproc
 209              		@ args = 0, pretend = 0, frame = 0
 210              		@ frame_needed = 0, uses_anonymous_args = 0
 211              	.LVL13:
 212 0000 0346     		mov	r3, r0
 213              		.loc 1 144 0
 214 0002 4069     		ldr	r0, [r0, #20]
 215              	.LVL14:
 216 0004 9A69     		ldr	r2, [r3, #24]
 217 0006 9042     		cmp	r0, r2
 218              		.loc 1 140 0
 219 0008 10B5     		push	{r4, lr}
 220              		.cfi_def_cfa_offset 8
 221              		.cfi_offset 4, -8
 222              		.cfi_offset 14, -4
 223              		.loc 1 144 0
 224 000a 9A68     		ldr	r2, [r3, #8]
 225 000c 1BD0     		beq	.L25
 226              	.L18:
 227              		.loc 1 147 0
 228 000e 0132     		adds	r2, r2, #1
ARM GAS  /tmp/cc84R6MF.s 			page 5


 229              		.loc 1 148 0
 230 0010 441C     		adds	r4, r0, #1
 231              		.loc 1 147 0
 232 0012 9A60     		str	r2, [r3, #8]
 233              		.loc 1 148 0
 234 0014 5C61     		str	r4, [r3, #20]
 235 0016 0170     		strb	r1, [r0]
 236              		.loc 1 149 0
 237 0018 5969     		ldr	r1, [r3, #20]
 238              	.LVL15:
 239 001a 1A69     		ldr	r2, [r3, #16]
 240 001c 9142     		cmp	r1, r2
 241 001e 0BD2     		bcs	.L19
 242              		.loc 1 152 0
 243 0020 1868     		ldr	r0, [r3]
 244              	.LVL16:
 245 0022 9842     		cmp	r0, r3
 246 0024 0DD0     		beq	.L22
 247              	.LVL17:
 248              	.L26:
 249              	.LBB18:
 250              	.LBB19:
 251              		.loc 2 62 0
 252 0026 0268     		ldr	r2, [r0]
 253 0028 1A60     		str	r2, [r3]
 254 002a 5360     		str	r3, [r2, #4]
 255              	.LBE19:
 256              	.LBE18:
 257              		.loc 1 153 0
 258 002c FFF7FEFF 		bl	chSchReadyI
 259              	.LVL18:
 260 0030 0023     		movs	r3, #0
 261 0032 4362     		str	r3, [r0, #36]
 262              		.loc 1 155 0
 263 0034 1846     		mov	r0, r3
 264 0036 10BD     		pop	{r4, pc}
 265              	.LVL19:
 266              	.L19:
 267              		.loc 1 152 0
 268 0038 1868     		ldr	r0, [r3]
 269              	.LVL20:
 270              		.loc 1 150 0
 271 003a DA68     		ldr	r2, [r3, #12]
 272 003c 5A61     		str	r2, [r3, #20]
 273              	.LVL21:
 274              		.loc 1 152 0
 275 003e 9842     		cmp	r0, r3
 276 0040 F1D1     		bne	.L26
 277              	.L22:
 278              		.loc 1 155 0
 279 0042 0020     		movs	r0, #0
 280 0044 10BD     		pop	{r4, pc}
 281              	.LVL22:
 282              	.L25:
 283              		.loc 1 144 0 discriminator 1
 284 0046 002A     		cmp	r2, #0
 285 0048 E1D0     		beq	.L18
ARM GAS  /tmp/cc84R6MF.s 			page 6


 286              		.loc 1 145 0
 287 004a 6FF00300 		mvn	r0, #3
 288 004e 10BD     		pop	{r4, pc}
 289              		.cfi_endproc
 290              	.LFE10:
 291              		.size	chIQPutI, .-chIQPutI
 292              		.section	.text.chIQGetTimeout,"ax",%progbits
 293              		.align	2
 294              		.p2align 4,,15
 295              		.global	chIQGetTimeout
 296              		.thumb
 297              		.thumb_func
 298              		.type	chIQGetTimeout, %function
 299              	chIQGetTimeout:
 300              	.LFB11:
 301              		.loc 1 178 0
 302              		.cfi_startproc
 303              		@ args = 0, pretend = 0, frame = 0
 304              		@ frame_needed = 0, uses_anonymous_args = 0
 305              	.LVL23:
 306 0000 70B5     		push	{r4, r5, r6, lr}
 307              		.cfi_def_cfa_offset 16
 308              		.cfi_offset 4, -16
 309              		.cfi_offset 5, -12
 310              		.cfi_offset 6, -8
 311              		.cfi_offset 14, -4
 312              	.LBB20:
 313              		.loc 1 181 0
 314 0002 2023     		movs	r3, #32
 315              	.LBE20:
 316              		.loc 1 178 0
 317 0004 0E46     		mov	r6, r1
 318 0006 0446     		mov	r4, r0
 319              	.LBB21:
 320              		.loc 1 181 0
 321              	@ 181 "../../../os/kernel/src/chqueues.c" 1
 322 0008 83F31188 		msr     BASEPRI, r3
 323              	@ 0 "" 2
 324              		.thumb
 325              	.LBE21:
 326              		.loc 1 182 0
 327 000c C369     		ldr	r3, [r0, #28]
 328 000e 2BB1     		cbz	r3, .L29
 329              		.loc 1 183 0
 330 0010 9847     		blx	r3
 331              	.LVL24:
 332 0012 03E0     		b	.L29
 333              	.LVL25:
 334              	.L31:
 335              	.LBB22:
 336              		.loc 1 187 0
 337 0014 FFF7FEFF 		bl	qwait
 338              	.LVL26:
 339 0018 0028     		cmp	r0, #0
 340 001a 15DB     		blt	.L38
 341              	.LVL27:
 342              	.L29:
ARM GAS  /tmp/cc84R6MF.s 			page 7


 343              	.LBE22:
 344              		.loc 1 185 0
 345 001c A568     		ldr	r5, [r4, #8]
 346              	.LBB24:
 347              		.loc 1 187 0
 348 001e 2046     		mov	r0, r4
 349 0020 3146     		mov	r1, r6
 350              	.LBE24:
 351              		.loc 1 185 0
 352 0022 002D     		cmp	r5, #0
 353 0024 F6D0     		beq	.L31
 354              	.LVL28:
 355              		.loc 1 194 0
 356 0026 A269     		ldr	r2, [r4, #24]
 357              		.loc 1 195 0
 358 0028 2169     		ldr	r1, [r4, #16]
 359              	.LVL29:
 360              		.loc 1 194 0
 361 002a 531C     		adds	r3, r2, #1
 362              		.loc 1 195 0
 363 002c 8B42     		cmp	r3, r1
 364              		.loc 1 193 0
 365 002e 05F1FF35 		add	r5, r5, #-1
 366              		.loc 1 194 0
 367 0032 A361     		str	r3, [r4, #24]
 368              		.loc 1 193 0
 369 0034 A560     		str	r5, [r4, #8]
 370              		.loc 1 196 0
 371 0036 28BF     		it	cs
 372 0038 E368     		ldrcs	r3, [r4, #12]
 373              		.loc 1 194 0
 374 003a 1078     		ldrb	r0, [r2]	@ zero_extendqisi2
 375              	.LVL30:
 376              		.loc 1 196 0
 377 003c 28BF     		it	cs
 378 003e A361     		strcs	r3, [r4, #24]
 379              	.LBB25:
 380              		.loc 1 198 0
 381 0040 0023     		movs	r3, #0
 382              	@ 198 "../../../os/kernel/src/chqueues.c" 1
 383 0042 83F31188 		msr     BASEPRI, r3
 384              	@ 0 "" 2
 385              		.thumb
 386              	.LBE25:
 387              		.loc 1 200 0
 388 0046 70BD     		pop	{r4, r5, r6, pc}
 389              	.LVL31:
 390              	.L38:
 391              	.LBB26:
 392              	.LBB23:
 393              		.loc 1 188 0
 394 0048 2B46     		mov	r3, r5
 395              	@ 188 "../../../os/kernel/src/chqueues.c" 1
 396 004a 83F31188 		msr     BASEPRI, r3
 397              	@ 0 "" 2
 398              		.thumb
 399              	.LBE23:
ARM GAS  /tmp/cc84R6MF.s 			page 8


 400              		.loc 1 189 0
 401 004e 70BD     		pop	{r4, r5, r6, pc}
 402              	.LBE26:
 403              		.cfi_endproc
 404              	.LFE11:
 405              		.size	chIQGetTimeout, .-chIQGetTimeout
 406              		.section	.text.chIQReadTimeout,"ax",%progbits
 407              		.align	2
 408              		.p2align 4,,15
 409              		.global	chIQReadTimeout
 410              		.thumb
 411              		.thumb_func
 412              		.type	chIQReadTimeout, %function
 413              	chIQReadTimeout:
 414              	.LFB12:
 415              		.loc 1 227 0
 416              		.cfi_startproc
 417              		@ args = 0, pretend = 0, frame = 0
 418              		@ frame_needed = 0, uses_anonymous_args = 0
 419              	.LVL32:
 420 0000 2DE9F047 		push	{r4, r5, r6, r7, r8, r9, r10, lr}
 421              		.cfi_def_cfa_offset 32
 422              		.cfi_offset 4, -32
 423              		.cfi_offset 5, -28
 424              		.cfi_offset 6, -24
 425              		.cfi_offset 7, -20
 426              		.cfi_offset 8, -16
 427              		.cfi_offset 9, -12
 428              		.cfi_offset 10, -8
 429              		.cfi_offset 14, -4
 430              		.loc 1 227 0
 431 0004 1E46     		mov	r6, r3
 432 0006 0446     		mov	r4, r0
 433 0008 8946     		mov	r9, r1
 434 000a 9246     		mov	r10, r2
 435              		.loc 1 228 0
 436 000c D0F81C80 		ldr	r8, [r0, #28]
 437              	.LVL33:
 438              	.LBB27:
 439              		.loc 1 233 0
 440 0010 2023     		movs	r3, #32
 441              	.LVL34:
 442              	@ 233 "../../../os/kernel/src/chqueues.c" 1
 443 0012 83F31188 		msr     BASEPRI, r3
 444              	@ 0 "" 2
 445              		.thumb
 446              	.LBE27:
 447              		.loc 1 229 0
 448 0016 0027     		movs	r7, #0
 449              	.LVL35:
 450              	.L45:
 451              		.loc 1 235 0
 452 0018 B8F1000F 		cmp	r8, #0
 453 001c 05D0     		beq	.L41
 454              		.loc 1 236 0
 455 001e 2046     		mov	r0, r4
 456              	.LVL36:
ARM GAS  /tmp/cc84R6MF.s 			page 9


 457 0020 C047     		blx	r8
 458              	.LVL37:
 459 0022 02E0     		b	.L41
 460              	.LVL38:
 461              	.L43:
 462              		.loc 1 239 0
 463 0024 FFF7FEFF 		bl	qwait
 464              	.LVL39:
 465 0028 E0B9     		cbnz	r0, .L52
 466              	.L41:
 467              		.loc 1 238 0
 468 002a A568     		ldr	r5, [r4, #8]
 469              		.loc 1 239 0
 470 002c 2046     		mov	r0, r4
 471 002e 3146     		mov	r1, r6
 472              		.loc 1 238 0
 473 0030 002D     		cmp	r5, #0
 474 0032 F7D0     		beq	.L43
 475              	.LVL40:
 476              		.loc 1 246 0
 477 0034 A369     		ldr	r3, [r4, #24]
 478              		.loc 1 245 0
 479 0036 013D     		subs	r5, r5, #1
 480              		.loc 1 246 0
 481 0038 5A1C     		adds	r2, r3, #1
 482 003a A261     		str	r2, [r4, #24]
 483              		.loc 1 245 0
 484 003c A560     		str	r5, [r4, #8]
 485              		.loc 1 246 0
 486 003e 1B78     		ldrb	r3, [r3]	@ zero_extendqisi2
 487 0040 09F8013B 		strb	r3, [r9], #1
 488              	.LVL41:
 489              		.loc 1 247 0
 490 0044 2369     		ldr	r3, [r4, #16]
 491 0046 A269     		ldr	r2, [r4, #24]
 492 0048 9A42     		cmp	r2, r3
 493              		.loc 1 248 0
 494 004a 24BF     		itt	cs
 495 004c E368     		ldrcs	r3, [r4, #12]
 496 004e A361     		strcs	r3, [r4, #24]
 497              	.LBB28:
 498              		.loc 1 250 0
 499 0050 0023     		movs	r3, #0
 500              	@ 250 "../../../os/kernel/src/chqueues.c" 1
 501 0052 83F31188 		msr     BASEPRI, r3
 502              	@ 0 "" 2
 503              		.thumb
 504              	.LBE28:
 505              		.loc 1 251 0
 506 0056 0137     		adds	r7, r7, #1
 507              	.LVL42:
 508              		.loc 1 252 0
 509 0058 BA45     		cmp	r10, r7
 510 005a 06D0     		beq	.L42
 511              	.LBB29:
 512              		.loc 1 255 0
 513 005c 2023     		movs	r3, #32
ARM GAS  /tmp/cc84R6MF.s 			page 10


 514              	@ 255 "../../../os/kernel/src/chqueues.c" 1
 515 005e 83F31188 		msr     BASEPRI, r3
 516              	@ 0 "" 2
 517              		.thumb
 518              	.LBE29:
 519              		.loc 1 256 0
 520 0062 D9E7     		b	.L45
 521              	.LVL43:
 522              	.L52:
 523              	.LBB30:
 524              		.loc 1 240 0
 525 0064 2B46     		mov	r3, r5
 526              	@ 240 "../../../os/kernel/src/chqueues.c" 1
 527 0066 83F31188 		msr     BASEPRI, r3
 528              	@ 0 "" 2
 529              	.LVL44:
 530              		.thumb
 531              	.L42:
 532              	.LBE30:
 533              		.loc 1 257 0
 534 006a 3846     		mov	r0, r7
 535 006c BDE8F087 		pop	{r4, r5, r6, r7, r8, r9, r10, pc}
 536              		.cfi_endproc
 537              	.LFE12:
 538              		.size	chIQReadTimeout, .-chIQReadTimeout
 539              		.section	.text.chOQInit,"ax",%progbits
 540              		.align	2
 541              		.p2align 4,,15
 542              		.global	chOQInit
 543              		.thumb
 544              		.thumb_func
 545              		.type	chOQInit, %function
 546              	chOQInit:
 547              	.LFB13:
 548              		.loc 1 276 0
 549              		.cfi_startproc
 550              		@ args = 4, pretend = 0, frame = 0
 551              		@ frame_needed = 0, uses_anonymous_args = 0
 552              		@ link register save eliminated.
 553              	.LVL45:
 554 0000 30B4     		push	{r4, r5}
 555              		.cfi_def_cfa_offset 8
 556              		.cfi_offset 4, -8
 557              		.cfi_offset 5, -4
 558              		.loc 1 276 0
 559 0002 029C     		ldr	r4, [sp, #8]
 560              		.loc 1 283 0
 561 0004 0462     		str	r4, [r0, #32]
 562              		.loc 1 281 0
 563 0006 8D18     		adds	r5, r1, r2
 564 0008 0561     		str	r5, [r0, #16]
 565              		.loc 1 278 0
 566 000a 4060     		str	r0, [r0, #4]
 567 000c 0060     		str	r0, [r0]
 568              		.loc 1 279 0
 569 000e 8260     		str	r2, [r0, #8]
 570              		.loc 1 280 0
ARM GAS  /tmp/cc84R6MF.s 			page 11


 571 0010 4161     		str	r1, [r0, #20]
 572 0012 8161     		str	r1, [r0, #24]
 573 0014 C160     		str	r1, [r0, #12]
 574              		.loc 1 282 0
 575 0016 C361     		str	r3, [r0, #28]
 576              		.loc 1 284 0
 577 0018 30BC     		pop	{r4, r5}
 578              		.cfi_restore 5
 579              		.cfi_restore 4
 580              		.cfi_def_cfa_offset 0
 581              	.LVL46:
 582 001a 7047     		bx	lr
 583              		.cfi_endproc
 584              	.LFE13:
 585              		.size	chOQInit, .-chOQInit
 586 001c AFF30080 		.section	.text.chOQResetI,"ax",%progbits
 587              		.align	2
 588              		.p2align 4,,15
 589              		.global	chOQResetI
 590              		.thumb
 591              		.thumb_func
 592              		.type	chOQResetI, %function
 593              	chOQResetI:
 594              	.LFB14:
 595              		.loc 1 297 0
 596              		.cfi_startproc
 597              		@ args = 0, pretend = 0, frame = 0
 598              		@ frame_needed = 0, uses_anonymous_args = 0
 599              	.LVL47:
 600 0000 38B5     		push	{r3, r4, r5, lr}
 601              		.cfi_def_cfa_offset 16
 602              		.cfi_offset 3, -16
 603              		.cfi_offset 4, -12
 604              		.cfi_offset 5, -8
 605              		.cfi_offset 14, -4
 606              		.loc 1 301 0
 607 0002 C268     		ldr	r2, [r0, #12]
 608              		.loc 1 302 0
 609 0004 0369     		ldr	r3, [r0, #16]
 610              		.loc 1 297 0
 611 0006 0446     		mov	r4, r0
 612              		.loc 1 303 0
 613 0008 0068     		ldr	r0, [r0]
 614              	.LVL48:
 615              		.loc 1 301 0
 616 000a 6261     		str	r2, [r4, #20]
 617              		.loc 1 302 0
 618 000c 9B1A     		subs	r3, r3, r2
 619              		.loc 1 303 0
 620 000e A042     		cmp	r0, r4
 621              		.loc 1 301 0
 622 0010 A261     		str	r2, [r4, #24]
 623              		.loc 1 302 0
 624 0012 A360     		str	r3, [r4, #8]
 625              		.loc 1 303 0
 626 0014 0AD0     		beq	.L55
 627              		.loc 1 304 0
ARM GAS  /tmp/cc84R6MF.s 			page 12


 628 0016 6FF00105 		mvn	r5, #1
 629              	.L57:
 630              	.LVL49:
 631              	.LBB31:
 632              	.LBB32:
 633              		.loc 2 62 0
 634 001a 0368     		ldr	r3, [r0]
 635 001c 2360     		str	r3, [r4]
 636 001e 5C60     		str	r4, [r3, #4]
 637              	.LBE32:
 638              	.LBE31:
 639              		.loc 1 304 0
 640 0020 FFF7FEFF 		bl	chSchReadyI
 641              	.LVL50:
 642 0024 4562     		str	r5, [r0, #36]
 643              		.loc 1 303 0
 644 0026 2068     		ldr	r0, [r4]
 645 0028 A042     		cmp	r0, r4
 646 002a F6D1     		bne	.L57
 647              	.LVL51:
 648              	.L55:
 649 002c 38BD     		pop	{r3, r4, r5, pc}
 650              		.cfi_endproc
 651              	.LFE14:
 652              		.size	chOQResetI, .-chOQResetI
 653 002e 00BF     		.section	.text.chOQPutTimeout,"ax",%progbits
 654              		.align	2
 655              		.p2align 4,,15
 656              		.global	chOQPutTimeout
 657              		.thumb
 658              		.thumb_func
 659              		.type	chOQPutTimeout, %function
 660              	chOQPutTimeout:
 661              	.LFB15:
 662              		.loc 1 329 0
 663              		.cfi_startproc
 664              		@ args = 0, pretend = 0, frame = 0
 665              		@ frame_needed = 0, uses_anonymous_args = 0
 666              	.LVL52:
 667 0000 F8B5     		push	{r3, r4, r5, r6, r7, lr}
 668              		.cfi_def_cfa_offset 24
 669              		.cfi_offset 3, -24
 670              		.cfi_offset 4, -20
 671              		.cfi_offset 5, -16
 672              		.cfi_offset 6, -12
 673              		.cfi_offset 7, -8
 674              		.cfi_offset 14, -4
 675              		.loc 1 329 0
 676 0002 0446     		mov	r4, r0
 677 0004 0F46     		mov	r7, r1
 678 0006 1646     		mov	r6, r2
 679              	.LBB33:
 680              		.loc 1 331 0
 681 0008 2023     		movs	r3, #32
 682              	@ 331 "../../../os/kernel/src/chqueues.c" 1
 683 000a 83F31188 		msr     BASEPRI, r3
 684              	@ 0 "" 2
ARM GAS  /tmp/cc84R6MF.s 			page 13


 685              		.thumb
 686              	.LBE33:
 687              		.loc 1 332 0
 688 000e 03E0     		b	.L62
 689              	.LVL53:
 690              	.L64:
 691              	.LBB34:
 692              		.loc 1 335 0
 693 0010 FFF7FEFF 		bl	qwait
 694              	.LVL54:
 695 0014 0028     		cmp	r0, #0
 696 0016 19DB     		blt	.L72
 697              	.LVL55:
 698              	.L62:
 699              	.LBE34:
 700              		.loc 1 332 0
 701 0018 A568     		ldr	r5, [r4, #8]
 702              	.LBB36:
 703              		.loc 1 335 0
 704 001a 2046     		mov	r0, r4
 705 001c 3146     		mov	r1, r6
 706              	.LBE36:
 707              		.loc 1 332 0
 708 001e 002D     		cmp	r5, #0
 709 0020 F6D0     		beq	.L64
 710              	.LVL56:
 711              		.loc 1 342 0
 712 0022 6369     		ldr	r3, [r4, #20]
 713              		.loc 1 341 0
 714 0024 013D     		subs	r5, r5, #1
 715              		.loc 1 342 0
 716 0026 5A1C     		adds	r2, r3, #1
 717 0028 6261     		str	r2, [r4, #20]
 718              		.loc 1 341 0
 719 002a A560     		str	r5, [r4, #8]
 720              		.loc 1 342 0
 721 002c 1F70     		strb	r7, [r3]
 722              		.loc 1 343 0
 723 002e 2369     		ldr	r3, [r4, #16]
 724 0030 6269     		ldr	r2, [r4, #20]
 725 0032 9A42     		cmp	r2, r3
 726              		.loc 1 344 0
 727 0034 24BF     		itt	cs
 728 0036 E368     		ldrcs	r3, [r4, #12]
 729 0038 6361     		strcs	r3, [r4, #20]
 730              		.loc 1 346 0
 731 003a E369     		ldr	r3, [r4, #28]
 732 003c 0BB1     		cbz	r3, .L66
 733              		.loc 1 347 0
 734 003e 2046     		mov	r0, r4
 735              	.LVL57:
 736 0040 9847     		blx	r3
 737              	.LVL58:
 738              	.L66:
 739              	.LBB37:
 740              		.loc 1 349 0
 741 0042 0023     		movs	r3, #0
ARM GAS  /tmp/cc84R6MF.s 			page 14


 742              	@ 349 "../../../os/kernel/src/chqueues.c" 1
 743 0044 83F31188 		msr     BASEPRI, r3
 744              	@ 0 "" 2
 745              		.thumb
 746              	.LBE37:
 747              		.loc 1 350 0
 748 0048 1846     		mov	r0, r3
 749              		.loc 1 351 0
 750 004a F8BD     		pop	{r3, r4, r5, r6, r7, pc}
 751              	.LVL59:
 752              	.L72:
 753              	.LBB38:
 754              	.LBB35:
 755              		.loc 1 336 0
 756 004c 2B46     		mov	r3, r5
 757              	@ 336 "../../../os/kernel/src/chqueues.c" 1
 758 004e 83F31188 		msr     BASEPRI, r3
 759              	@ 0 "" 2
 760              		.thumb
 761              	.LBE35:
 762              		.loc 1 337 0
 763 0052 F8BD     		pop	{r3, r4, r5, r6, r7, pc}
 764              	.LBE38:
 765              		.cfi_endproc
 766              	.LFE15:
 767              		.size	chOQPutTimeout, .-chOQPutTimeout
 768 0054 AFF30080 		.section	.text.chOQGetI,"ax",%progbits
 768      AFF30080 
 768      AFF30080 
 769              		.align	2
 770              		.p2align 4,,15
 771              		.global	chOQGetI
 772              		.thumb
 773              		.thumb_func
 774              		.type	chOQGetI, %function
 775              	chOQGetI:
 776              	.LFB16:
 777              		.loc 1 363 0
 778              		.cfi_startproc
 779              		@ args = 0, pretend = 0, frame = 0
 780              		@ frame_needed = 0, uses_anonymous_args = 0
 781              	.LVL60:
 782 0000 38B5     		push	{r3, r4, r5, lr}
 783              		.cfi_def_cfa_offset 16
 784              		.cfi_offset 3, -16
 785              		.cfi_offset 4, -12
 786              		.cfi_offset 5, -8
 787              		.cfi_offset 14, -4
 788              		.loc 1 368 0
 789 0002 8269     		ldr	r2, [r0, #24]
 790 0004 4369     		ldr	r3, [r0, #20]
 791 0006 9342     		cmp	r3, r2
 792 0008 8368     		ldr	r3, [r0, #8]
 793 000a 18D0     		beq	.L83
 794              	.L76:
 795              		.loc 1 373 0
 796 000c 0569     		ldr	r5, [r0, #16]
ARM GAS  /tmp/cc84R6MF.s 			page 15


 797              		.loc 1 372 0
 798 000e 511C     		adds	r1, r2, #1
 799              		.loc 1 371 0
 800 0010 0133     		adds	r3, r3, #1
 801 0012 8360     		str	r3, [r0, #8]
 802              		.loc 1 372 0
 803 0014 8161     		str	r1, [r0, #24]
 804              		.loc 1 373 0
 805 0016 A942     		cmp	r1, r5
 806              		.loc 1 372 0
 807 0018 1478     		ldrb	r4, [r2]	@ zero_extendqisi2
 808              	.LVL61:
 809              		.loc 1 373 0
 810 001a 0DD2     		bcs	.L78
 811              	.L79:
 812              		.loc 1 376 0
 813 001c 0268     		ldr	r2, [r0]
 814 001e 8242     		cmp	r2, r0
 815 0020 08D0     		beq	.L77
 816              	.LBB39:
 817              	.LBB40:
 818              		.loc 2 62 0
 819 0022 1168     		ldr	r1, [r2]
 820 0024 0160     		str	r1, [r0]
 821 0026 0346     		mov	r3, r0
 822              	.LVL62:
 823 0028 4B60     		str	r3, [r1, #4]
 824              	.LBE40:
 825              	.LBE39:
 826              		.loc 1 377 0
 827 002a 1046     		mov	r0, r2
 828              	.LVL63:
 829 002c FFF7FEFF 		bl	chSchReadyI
 830              	.LVL64:
 831 0030 0023     		movs	r3, #0
 832 0032 4362     		str	r3, [r0, #36]
 833              	.LVL65:
 834              	.L77:
 835              		.loc 1 379 0
 836 0034 2046     		mov	r0, r4
 837 0036 38BD     		pop	{r3, r4, r5, pc}
 838              	.LVL66:
 839              	.L78:
 840              		.loc 1 374 0
 841 0038 C368     		ldr	r3, [r0, #12]
 842 003a 8361     		str	r3, [r0, #24]
 843 003c EEE7     		b	.L79
 844              	.LVL67:
 845              	.L83:
 846              		.loc 1 368 0 discriminator 1
 847 003e 002B     		cmp	r3, #0
 848 0040 E4D0     		beq	.L76
 849              		.loc 1 369 0
 850 0042 6FF00200 		mvn	r0, #2
 851              	.LVL68:
 852 0046 38BD     		pop	{r3, r4, r5, pc}
 853              		.cfi_endproc
ARM GAS  /tmp/cc84R6MF.s 			page 16


 854              	.LFE16:
 855              		.size	chOQGetI, .-chOQGetI
 856 0048 AFF30080 		.section	.text.chOQWriteTimeout,"ax",%progbits
 856      AFF30080 
 857              		.align	2
 858              		.p2align 4,,15
 859              		.global	chOQWriteTimeout
 860              		.thumb
 861              		.thumb_func
 862              		.type	chOQWriteTimeout, %function
 863              	chOQWriteTimeout:
 864              	.LFB17:
 865              		.loc 1 407 0
 866              		.cfi_startproc
 867              		@ args = 0, pretend = 0, frame = 0
 868              		@ frame_needed = 0, uses_anonymous_args = 0
 869              	.LVL69:
 870 0000 2DE9F84F 		push	{r3, r4, r5, r6, r7, r8, r9, r10, fp, lr}
 871              		.cfi_def_cfa_offset 40
 872              		.cfi_offset 3, -40
 873              		.cfi_offset 4, -36
 874              		.cfi_offset 5, -32
 875              		.cfi_offset 6, -28
 876              		.cfi_offset 7, -24
 877              		.cfi_offset 8, -20
 878              		.cfi_offset 9, -16
 879              		.cfi_offset 10, -12
 880              		.cfi_offset 11, -8
 881              		.cfi_offset 14, -4
 882              		.loc 1 407 0
 883 0004 9A46     		mov	r10, r3
 884 0006 0446     		mov	r4, r0
 885 0008 0E46     		mov	r6, r1
 886 000a 1746     		mov	r7, r2
 887              		.loc 1 408 0
 888 000c D0F81C90 		ldr	r9, [r0, #28]
 889              	.LVL70:
 890              	.LBB41:
 891              		.loc 1 413 0
 892 0010 2023     		movs	r3, #32
 893              	.LVL71:
 894              	@ 413 "../../../os/kernel/src/chqueues.c" 1
 895 0012 83F31188 		msr     BASEPRI, r3
 896              	@ 0 "" 2
 897              		.thumb
 898              	.LBE41:
 899              		.loc 1 409 0
 900 0016 4FF00008 		mov	r8, #0
 901              	.LVL72:
 902              	.L85:
 903              		.loc 1 415 0
 904 001a A568     		ldr	r5, [r4, #8]
 905              		.loc 1 422 0
 906 001c 06F1010B 		add	fp, r6, #1
 907              	.LVL73:
 908              		.loc 1 421 0
 909 0020 6B1E     		subs	r3, r5, #1
ARM GAS  /tmp/cc84R6MF.s 			page 17


 910              		.loc 1 427 0
 911 0022 2046     		mov	r0, r4
 912              		.loc 1 415 0
 913 0024 0DB3     		cbz	r5, .L88
 914              	.LVL74:
 915              	.L101:
 916              		.loc 1 422 0
 917 0026 6269     		ldr	r2, [r4, #20]
 918              		.loc 1 421 0
 919 0028 A360     		str	r3, [r4, #8]
 920              		.loc 1 422 0
 921 002a 531C     		adds	r3, r2, #1
 922 002c 6361     		str	r3, [r4, #20]
 923 002e 3378     		ldrb	r3, [r6]	@ zero_extendqisi2
 924 0030 1370     		strb	r3, [r2]
 925              		.loc 1 423 0
 926 0032 2369     		ldr	r3, [r4, #16]
 927 0034 6269     		ldr	r2, [r4, #20]
 928 0036 9A42     		cmp	r2, r3
 929              		.loc 1 424 0
 930 0038 24BF     		itt	cs
 931 003a E368     		ldrcs	r3, [r4, #12]
 932 003c 6361     		strcs	r3, [r4, #20]
 933              		.loc 1 426 0
 934 003e B9F1000F 		cmp	r9, #0
 935 0042 00D0     		beq	.L90
 936              		.loc 1 427 0
 937 0044 C847     		blx	r9
 938              	.LVL75:
 939              	.L90:
 940              	.LBB42:
 941              		.loc 1 429 0
 942 0046 0023     		movs	r3, #0
 943              	@ 429 "../../../os/kernel/src/chqueues.c" 1
 944 0048 83F31188 		msr     BASEPRI, r3
 945              	@ 0 "" 2
 946              		.thumb
 947              	.LBE42:
 948              		.loc 1 431 0
 949 004c 013F     		subs	r7, r7, #1
 950              	.LVL76:
 951              		.loc 1 430 0
 952 004e 08F10108 		add	r8, r8, #1
 953              	.LVL77:
 954              		.loc 1 431 0
 955 0052 13D0     		beq	.L87
 956              	.LBB43:
 957              		.loc 1 433 0
 958 0054 2023     		movs	r3, #32
 959              	@ 433 "../../../os/kernel/src/chqueues.c" 1
 960 0056 83F31188 		msr     BASEPRI, r3
 961              	@ 0 "" 2
 962              		.thumb
 963              	.LBE43:
 964              		.loc 1 415 0
 965 005a A568     		ldr	r5, [r4, #8]
 966              		.loc 1 422 0
ARM GAS  /tmp/cc84R6MF.s 			page 18


 967 005c 5E46     		mov	r6, fp
 968              	.LVL78:
 969              		.loc 1 421 0
 970 005e 6B1E     		subs	r3, r5, #1
 971              		.loc 1 422 0
 972 0060 06F1010B 		add	fp, r6, #1
 973              	.LVL79:
 974              		.loc 1 427 0
 975 0064 2046     		mov	r0, r4
 976              		.loc 1 415 0
 977 0066 002D     		cmp	r5, #0
 978 0068 DDD1     		bne	.L101
 979              	.LVL80:
 980              	.L88:
 981              		.loc 1 416 0
 982 006a 2046     		mov	r0, r4
 983              	.LVL81:
 984 006c 5146     		mov	r1, r10
 985 006e FFF7FEFF 		bl	qwait
 986              	.LVL82:
 987 0072 0028     		cmp	r0, #0
 988 0074 D1D0     		beq	.L85
 989              	.LBB44:
 990              		.loc 1 417 0
 991 0076 2B46     		mov	r3, r5
 992              	@ 417 "../../../os/kernel/src/chqueues.c" 1
 993 0078 83F31188 		msr     BASEPRI, r3
 994              	@ 0 "" 2
 995              	.LVL83:
 996              		.thumb
 997              	.L87:
 998              	.LBE44:
 999              		.loc 1 435 0
 1000 007c 4046     		mov	r0, r8
 1001 007e BDE8F88F 		pop	{r3, r4, r5, r6, r7, r8, r9, r10, fp, pc}
 1002              		.cfi_endproc
 1003              	.LFE17:
 1004              		.size	chOQWriteTimeout, .-chOQWriteTimeout
 1005 0082 00BFAFF3 		.text
 1005      0080AFF3 
 1005      0080AFF3 
 1005      0080
 1006              	.Letext0:
 1007              		.file 3 "/usr/lib/gcc/arm-none-eabi/4.9.2/include/stddef.h"
 1008              		.file 4 "/usr/arm-none-eabi/include/machine/_default_types.h"
 1009              		.file 5 "/usr/arm-none-eabi/include/stdint.h"
 1010              		.file 6 "../../../os/ports/GCC/ARMCMx/chtypes.h"
 1011              		.file 7 "../../../os/kernel/include/chlists.h"
 1012              		.file 8 "../../../os/kernel/include/chthreads.h"
 1013              		.file 9 "../../../os/ports/GCC/ARMCMx/chcore_v7m.h"
 1014              		.file 10 "../../../os/kernel/include/chschd.h"
 1015              		.file 11 "../../../os/kernel/include/chmtx.h"
 1016              		.file 12 "../../../os/kernel/include/chqueues.h"