ARM GAS  /tmp/cci6mItD.s 			page 1


   1              		.syntax unified
   2              		.cpu cortex-m4
   3              		.fpu softvfp
   4              		.eabi_attribute 20, 1
   5              		.eabi_attribute 21, 1
   6              		.eabi_attribute 23, 3
   7              		.eabi_attribute 24, 1
   8              		.eabi_attribute 25, 1
   9              		.eabi_attribute 26, 1
  10              		.eabi_attribute 30, 2
  11              		.eabi_attribute 34, 1
  12              		.eabi_attribute 18, 4
  13              		.thumb
  14              		.file	"chschd.c"
  15              		.text
  16              	.Ltext0:
  17              		.cfi_sections	.debug_frame
  18              		.section	.text.wakeup,"ax",%progbits
  19              		.align	2
  20              		.p2align 4,,15
  21              		.thumb
  22              		.thumb_func
  23              		.type	wakeup, %function
  24              	wakeup:
  25              	.LFB10:
  26              		.file 1 "../../../os/kernel/src/chschd.c"
  27              		.loc 1 136 0
  28              		.cfi_startproc
  29              		@ args = 0, pretend = 0, frame = 0
  30              		@ frame_needed = 0, uses_anonymous_args = 0
  31              		@ link register save eliminated.
  32              	.LVL0:
  33 0000 10B4     		push	{r4}
  34              		.cfi_def_cfa_offset 4
  35              		.cfi_offset 4, -4
  36              	.LBB44:
  37              		.loc 1 139 0
  38 0002 2023     		movs	r3, #32
  39              	@ 139 "../../../os/kernel/src/chschd.c" 1
  40 0004 83F31188 		msr     BASEPRI, r3
  41              	@ 0 "" 2
  42              		.thumb
  43              	.LBE44:
  44              		.loc 1 140 0
  45 0008 037F     		ldrb	r3, [r0, #28]	@ zero_extendqisi2
  46 000a 0D2B     		cmp	r3, #13
  47 000c 11D8     		bhi	.L2
  48 000e DFE803F0 		tbb	[pc, r3]
  49              	.L4:
  50 0012 26       		.byte	(.L3-.L4)/2
  51 0013 10       		.byte	(.L2-.L4)/2
  52 0014 10       		.byte	(.L2-.L4)/2
  53 0015 07       		.byte	(.L5-.L4)/2
  54 0016 10       		.byte	(.L2-.L4)/2
  55 0017 0B       		.byte	(.L6-.L4)/2
  56 0018 10       		.byte	(.L2-.L4)/2
  57 0019 10       		.byte	(.L2-.L4)/2
ARM GAS  /tmp/cci6mItD.s 			page 2


  58 001a 10       		.byte	(.L2-.L4)/2
  59 001b 10       		.byte	(.L2-.L4)/2
  60 001c 10       		.byte	(.L2-.L4)/2
  61 001d 10       		.byte	(.L2-.L4)/2
  62 001e 10       		.byte	(.L2-.L4)/2
  63 001f 0B       		.byte	(.L6-.L4)/2
  64              		.p2align 1
  65              	.L5:
  66              		.loc 1 150 0
  67 0020 426A     		ldr	r2, [r0, #36]
  68 0022 9368     		ldr	r3, [r2, #8]
  69 0024 0133     		adds	r3, r3, #1
  70 0026 9360     		str	r3, [r2, #8]
  71              	.L6:
  72              	.LVL1:
  73              	.LBB45:
  74              	.LBB46:
  75              		.file 2 "../../../os/kernel/include/chinline.h"
  76              		.loc 2 75 0
  77 0028 90E80C00 		ldmia	r0, {r2, r3}
  78 002c 1A60     		str	r2, [r3]
  79              		.loc 2 76 0
  80 002e 0268     		ldr	r2, [r0]
  81 0030 5360     		str	r3, [r2, #4]
  82              	.LVL2:
  83              	.L2:
  84              	.LBE46:
  85              	.LBE45:
  86              		.loc 1 163 0
  87 0032 4FF0FF34 		mov	r4, #-1
  88              	.LBB47:
  89              	.LBB48:
  90              		.loc 1 92 0
  91 0036 0023     		movs	r3, #0
  92 0038 8168     		ldr	r1, [r0, #8]
  93              	.LBE48:
  94              	.LBE47:
  95              	.LBB50:
  96              	.LBB51:
  97              	.LBB52:
  98              	.LBB53:
  99              		.loc 1 93 0
 100 003a 0C4A     		ldr	r2, .L12
 101              	.LBE53:
 102              	.LBE52:
 103              	.LBE51:
 104              	.LBE50:
 105              		.loc 1 163 0
 106 003c 4462     		str	r4, [r0, #36]
 107              	.LVL3:
 108              	.LBB61:
 109              	.LBB49:
 110              		.loc 1 92 0
 111 003e 0377     		strb	r3, [r0, #28]
 112              	.LVL4:
 113              	.L8:
 114              	.LBE49:
ARM GAS  /tmp/cci6mItD.s 			page 3


 115              	.LBE61:
 116              	.LBB62:
 117              	.LBB60:
 118              	.LBB56:
 119              	.LBB54:
 120              		.loc 1 95 0
 121 0040 1268     		ldr	r2, [r2]
 122              	.LVL5:
 123              		.loc 1 96 0
 124 0042 9368     		ldr	r3, [r2, #8]
 125 0044 8B42     		cmp	r3, r1
 126 0046 FBD2     		bcs	.L8
 127              		.loc 1 99 0
 128 0048 5168     		ldr	r1, [r2, #4]
 129 004a 4160     		str	r1, [r0, #4]
 130              		.loc 1 98 0
 131 004c 0260     		str	r2, [r0]
 132              	.LBE54:
 133              	.LBE56:
 134              	.LBB57:
 135              		.loc 1 165 0
 136 004e 0023     		movs	r3, #0
 137              	.LBE57:
 138              	.LBB58:
 139              	.LBB55:
 140              		.loc 1 100 0
 141 0050 5060     		str	r0, [r2, #4]
 142 0052 0860     		str	r0, [r1]
 143              	.LBE55:
 144              	.LBE58:
 145              	.LBB59:
 146              		.loc 1 165 0
 147              	@ 165 "../../../os/kernel/src/chschd.c" 1
 148 0054 83F31188 		msr     BASEPRI, r3
 149              	@ 0 "" 2
 150              		.thumb
 151              	.LBE59:
 152              	.LBE60:
 153              	.LBE62:
 154              		.loc 1 166 0
 155 0058 5DF8044B 		ldr	r4, [sp], #4
 156              		.cfi_remember_state
 157              		.cfi_restore 4
 158              		.cfi_def_cfa_offset 0
 159 005c 7047     		bx	lr
 160              	.LVL6:
 161              	.L3:
 162              		.cfi_restore_state
 163              	.LBB63:
 164              		.loc 1 144 0
 165 005e 0023     		movs	r3, #0
 166              	@ 144 "../../../os/kernel/src/chschd.c" 1
 167 0060 83F31188 		msr     BASEPRI, r3
 168              	@ 0 "" 2
 169              		.thumb
 170              	.LBE63:
 171              		.loc 1 166 0
ARM GAS  /tmp/cci6mItD.s 			page 4


 172 0064 5DF8044B 		ldr	r4, [sp], #4
 173              		.cfi_restore 4
 174              		.cfi_def_cfa_offset 0
 175 0068 7047     		bx	lr
 176              	.L13:
 177 006a 00BF     		.align	2
 178              	.L12:
 179 006c 00000000 		.word	.LANCHOR0
 180              		.cfi_endproc
 181              	.LFE10:
 182              		.size	wakeup, .-wakeup
 183              		.section	.text._scheduler_init,"ax",%progbits
 184              		.align	2
 185              		.p2align 4,,15
 186              		.global	_scheduler_init
 187              		.thumb
 188              		.thumb_func
 189              		.type	_scheduler_init, %function
 190              	_scheduler_init:
 191              	.LFB7:
 192              		.loc 1 55 0
 193              		.cfi_startproc
 194              		@ args = 0, pretend = 0, frame = 0
 195              		@ frame_needed = 0, uses_anonymous_args = 0
 196              		@ link register save eliminated.
 197              		.loc 1 57 0
 198 0000 034B     		ldr	r3, .L15
 199              		.loc 1 58 0
 200 0002 0022     		movs	r2, #0
 201              		.loc 1 57 0
 202 0004 5B60     		str	r3, [r3, #4]
 203 0006 1B60     		str	r3, [r3]
 204              		.loc 1 60 0
 205 0008 5B61     		str	r3, [r3, #20]
 206 000a 1B61     		str	r3, [r3, #16]
 207              		.loc 1 58 0
 208 000c 9A60     		str	r2, [r3, #8]
 209 000e 7047     		bx	lr
 210              	.L16:
 211              		.align	2
 212              	.L15:
 213 0010 00000000 		.word	.LANCHOR0
 214              		.cfi_endproc
 215              	.LFE7:
 216              		.size	_scheduler_init, .-_scheduler_init
 217 0014 AFF30080 		.section	.text.chSchReadyI,"ax",%progbits
 217      AFF30080 
 217      AFF30080 
 218              		.align	2
 219              		.p2align 4,,15
 220              		.global	chSchReadyI
 221              		.thumb
 222              		.thumb_func
 223              		.type	chSchReadyI, %function
 224              	chSchReadyI:
 225              	.LFB8:
 226              		.loc 1 81 0
ARM GAS  /tmp/cci6mItD.s 			page 5


 227              		.cfi_startproc
 228              		@ args = 0, pretend = 0, frame = 0
 229              		@ frame_needed = 0, uses_anonymous_args = 0
 230              		@ link register save eliminated.
 231              	.LVL7:
 232              		.loc 1 92 0
 233 0000 0022     		movs	r2, #0
 234 0002 8168     		ldr	r1, [r0, #8]
 235              		.loc 1 93 0
 236 0004 084B     		ldr	r3, .L21
 237              		.loc 1 81 0
 238 0006 10B4     		push	{r4}
 239              		.cfi_def_cfa_offset 4
 240              		.cfi_offset 4, -4
 241              		.loc 1 81 0
 242 0008 0446     		mov	r4, r0
 243              		.loc 1 92 0
 244 000a 0277     		strb	r2, [r0, #28]
 245              	.LVL8:
 246              	.L18:
 247              		.loc 1 95 0 discriminator 1
 248 000c 1B68     		ldr	r3, [r3]
 249              	.LVL9:
 250              		.loc 1 96 0 discriminator 1
 251 000e 9A68     		ldr	r2, [r3, #8]
 252 0010 8A42     		cmp	r2, r1
 253 0012 FBD2     		bcs	.L18
 254              		.loc 1 99 0
 255 0014 5A68     		ldr	r2, [r3, #4]
 256 0016 6260     		str	r2, [r4, #4]
 257              		.loc 1 98 0
 258 0018 2360     		str	r3, [r4]
 259              		.loc 1 102 0
 260 001a 2046     		mov	r0, r4
 261              	.LVL10:
 262              		.loc 1 100 0
 263 001c 5C60     		str	r4, [r3, #4]
 264 001e 1460     		str	r4, [r2]
 265              		.loc 1 102 0
 266 0020 5DF8044B 		ldr	r4, [sp], #4
 267              		.cfi_restore 4
 268              		.cfi_def_cfa_offset 0
 269              	.LVL11:
 270 0024 7047     		bx	lr
 271              	.L22:
 272 0026 00BF     		.align	2
 273              	.L21:
 274 0028 00000000 		.word	.LANCHOR0
 275              		.cfi_endproc
 276              	.LFE8:
 277              		.size	chSchReadyI, .-chSchReadyI
 278 002c AFF30080 		.section	.text.chSchGoSleepS,"ax",%progbits
 279              		.align	2
 280              		.p2align 4,,15
 281              		.global	chSchGoSleepS
 282              		.thumb
 283              		.thumb_func
ARM GAS  /tmp/cci6mItD.s 			page 6


 284              		.type	chSchGoSleepS, %function
 285              	chSchGoSleepS:
 286              	.LFB9:
 287              		.loc 1 115 0
 288              		.cfi_startproc
 289              		@ args = 0, pretend = 0, frame = 0
 290              		@ frame_needed = 0, uses_anonymous_args = 0
 291              		@ link register save eliminated.
 292              	.LVL12:
 293              		.loc 1 120 0
 294 0000 084B     		ldr	r3, .L25
 295              		.loc 1 115 0
 296 0002 30B4     		push	{r4, r5}
 297              		.cfi_def_cfa_offset 8
 298              		.cfi_offset 4, -8
 299              		.cfi_offset 5, -4
 300              	.LBB64:
 301              	.LBB65:
 302              		.loc 2 60 0
 303 0004 1A68     		ldr	r2, [r3]
 304              	.LBE65:
 305              	.LBE64:
 306              		.loc 1 120 0
 307 0006 9969     		ldr	r1, [r3, #24]
 308              	.LVL13:
 309              	.LBB69:
 310              	.LBB66:
 311              		.loc 2 62 0
 312 0008 1468     		ldr	r4, [r2]
 313              	.LBE66:
 314              	.LBE69:
 315              		.loc 1 120 0
 316 000a 0877     		strb	r0, [r1, #28]
 317              		.loc 1 127 0
 318 000c 0125     		movs	r5, #1
 319              		.loc 1 124 0
 320 000e 1420     		movs	r0, #20
 321              	.LVL14:
 322 0010 C877     		strb	r0, [r1, #31]
 323              	.LVL15:
 324              	.LBB70:
 325              	.LBB67:
 326              		.loc 2 62 0
 327 0012 6360     		str	r3, [r4, #4]
 328              	.LBE67:
 329              	.LBE70:
 330              		.loc 1 127 0
 331 0014 1577     		strb	r5, [r2, #28]
 332              	.LVL16:
 333              	.LBB71:
 334              	.LBB68:
 335              		.loc 2 62 0
 336 0016 1C60     		str	r4, [r3]
 337              	.LBE68:
 338              	.LBE71:
 339              		.loc 1 128 0
 340 0018 1046     		mov	r0, r2
ARM GAS  /tmp/cci6mItD.s 			page 7


 341              		.loc 1 129 0
 342 001a 30BC     		pop	{r4, r5}
 343              		.cfi_restore 5
 344              		.cfi_restore 4
 345              		.cfi_def_cfa_offset 0
 346              		.loc 1 126 0
 347 001c 9A61     		str	r2, [r3, #24]
 348              		.loc 1 128 0
 349 001e FFF7FEBF 		b	_port_switch
 350              	.LVL17:
 351              	.L26:
 352 0022 00BF     		.align	2
 353              	.L25:
 354 0024 00000000 		.word	.LANCHOR0
 355              		.cfi_endproc
 356              	.LFE9:
 357              		.size	chSchGoSleepS, .-chSchGoSleepS
 358 0028 AFF30080 		.section	.text.chSchGoSleepTimeoutS,"ax",%progbits
 358      AFF30080 
 359              		.align	2
 360              		.p2align 4,,15
 361              		.global	chSchGoSleepTimeoutS
 362              		.thumb
 363              		.thumb_func
 364              		.type	chSchGoSleepTimeoutS, %function
 365              	chSchGoSleepTimeoutS:
 366              	.LFB11:
 367              		.loc 1 189 0
 368              		.cfi_startproc
 369              		@ args = 0, pretend = 0, frame = 24
 370              		@ frame_needed = 0, uses_anonymous_args = 0
 371              	.LVL18:
 372 0000 30B5     		push	{r4, r5, lr}
 373              		.cfi_def_cfa_offset 12
 374              		.cfi_offset 4, -12
 375              		.cfi_offset 5, -8
 376              		.cfi_offset 14, -4
 377              		.loc 1 193 0
 378 0002 4B1C     		adds	r3, r1, #1
 379              		.loc 1 189 0
 380 0004 87B0     		sub	sp, sp, #28
 381              		.cfi_def_cfa_offset 40
 382              		.loc 1 193 0
 383 0006 12D0     		beq	.L28
 384              	.LBB72:
 385              		.loc 1 196 0
 386 0008 0C4C     		ldr	r4, .L35
 387 000a 0D4A     		ldr	r2, .L35+4
 388 000c A369     		ldr	r3, [r4, #24]
 389 000e 0546     		mov	r5, r0
 390 0010 01A8     		add	r0, sp, #4
 391              	.LVL19:
 392 0012 FFF7FEFF 		bl	chVTSetI
 393              	.LVL20:
 394              		.loc 1 197 0
 395 0016 2846     		mov	r0, r5
 396 0018 FFF7FEFF 		bl	chSchGoSleepS
ARM GAS  /tmp/cci6mItD.s 			page 8


 397              	.LVL21:
 398              		.loc 1 198 0
 399 001c 049B     		ldr	r3, [sp, #16]
 400 001e 13B1     		cbz	r3, .L30
 401              		.loc 1 199 0
 402 0020 01A8     		add	r0, sp, #4
 403 0022 FFF7FEFF 		bl	chVTResetI
 404              	.LVL22:
 405              	.L30:
 406              	.LBE72:
 407              		.loc 1 203 0
 408 0026 A369     		ldr	r3, [r4, #24]
 409              		.loc 1 204 0
 410 0028 586A     		ldr	r0, [r3, #36]
 411 002a 07B0     		add	sp, sp, #28
 412              		.cfi_remember_state
 413              		.cfi_def_cfa_offset 12
 414              		@ sp needed
 415 002c 30BD     		pop	{r4, r5, pc}
 416              	.LVL23:
 417              	.L28:
 418              		.cfi_restore_state
 419 002e 034C     		ldr	r4, .L35
 420              		.loc 1 202 0
 421 0030 FFF7FEFF 		bl	chSchGoSleepS
 422              	.LVL24:
 423              		.loc 1 203 0
 424 0034 A369     		ldr	r3, [r4, #24]
 425              		.loc 1 204 0
 426 0036 586A     		ldr	r0, [r3, #36]
 427 0038 07B0     		add	sp, sp, #28
 428              		.cfi_def_cfa_offset 12
 429              		@ sp needed
 430 003a 30BD     		pop	{r4, r5, pc}
 431              	.L36:
 432              		.align	2
 433              	.L35:
 434 003c 00000000 		.word	.LANCHOR0
 435 0040 00000000 		.word	wakeup
 436              		.cfi_endproc
 437              	.LFE11:
 438              		.size	chSchGoSleepTimeoutS, .-chSchGoSleepTimeoutS
 439 0044 AFF30080 		.section	.text.chSchWakeupS,"ax",%progbits
 439      AFF30080 
 439      AFF30080 
 440              		.align	2
 441              		.p2align 4,,15
 442              		.global	chSchWakeupS
 443              		.thumb
 444              		.thumb_func
 445              		.type	chSchWakeupS, %function
 446              	chSchWakeupS:
 447              	.LFB12:
 448              		.loc 1 225 0
 449              		.cfi_startproc
 450              		@ args = 0, pretend = 0, frame = 0
 451              		@ frame_needed = 0, uses_anonymous_args = 0
ARM GAS  /tmp/cci6mItD.s 			page 9


 452              		@ link register save eliminated.
 453              	.LVL25:
 454              		.loc 1 234 0
 455 0000 144B     		ldr	r3, .L46
 456              		.loc 1 225 0
 457 0002 F0B4     		push	{r4, r5, r6, r7}
 458              		.cfi_def_cfa_offset 16
 459              		.cfi_offset 4, -16
 460              		.cfi_offset 5, -12
 461              		.cfi_offset 6, -8
 462              		.cfi_offset 7, -4
 463              		.loc 1 234 0
 464 0004 9F69     		ldr	r7, [r3, #24]
 465 0006 8468     		ldr	r4, [r0, #8]
 466 0008 BD68     		ldr	r5, [r7, #8]
 467              		.loc 1 229 0
 468 000a 4162     		str	r1, [r0, #36]
 469              		.loc 1 234 0
 470 000c AC42     		cmp	r4, r5
 471              		.loc 1 225 0
 472 000e 0646     		mov	r6, r0
 473              	.LBB73:
 474              	.LBB74:
 475              		.loc 1 92 0
 476 0010 4FF00002 		mov	r2, #0
 477              	.LBE74:
 478              	.LBE73:
 479              		.loc 1 234 0
 480 0014 0BD8     		bhi	.L38
 481              	.LVL26:
 482              	.LBB76:
 483              	.LBB75:
 484              		.loc 1 92 0
 485 0016 0277     		strb	r2, [r0, #28]
 486              	.LVL27:
 487              	.L39:
 488              		.loc 1 95 0
 489 0018 1B68     		ldr	r3, [r3]
 490              	.LVL28:
 491              		.loc 1 96 0
 492 001a 9A68     		ldr	r2, [r3, #8]
 493 001c 9442     		cmp	r4, r2
 494 001e FBD9     		bls	.L39
 495              		.loc 1 99 0
 496 0020 5A68     		ldr	r2, [r3, #4]
 497 0022 7260     		str	r2, [r6, #4]
 498              		.loc 1 98 0
 499 0024 3360     		str	r3, [r6]
 500              		.loc 1 100 0
 501 0026 5E60     		str	r6, [r3, #4]
 502 0028 1660     		str	r6, [r2]
 503              	.LBE75:
 504              	.LBE76:
 505              		.loc 1 242 0
 506 002a F0BC     		pop	{r4, r5, r6, r7}
 507              		.cfi_remember_state
 508              		.cfi_restore 7
ARM GAS  /tmp/cci6mItD.s 			page 10


 509              		.cfi_restore 6
 510              		.cfi_restore 5
 511              		.cfi_restore 4
 512              		.cfi_def_cfa_offset 0
 513 002c 7047     		bx	lr
 514              	.LVL29:
 515              	.L38:
 516              		.cfi_restore_state
 517              	.LBB77:
 518              	.LBB78:
 519              	.LBB79:
 520              		.loc 1 92 0
 521 002e 3A77     		strb	r2, [r7, #28]
 522              	.LVL30:
 523              		.loc 1 93 0
 524 0030 1A46     		mov	r2, r3
 525              	.LVL31:
 526              	.L41:
 527              		.loc 1 95 0
 528 0032 1268     		ldr	r2, [r2]
 529              	.LVL32:
 530              		.loc 1 96 0
 531 0034 9468     		ldr	r4, [r2, #8]
 532 0036 A542     		cmp	r5, r4
 533 0038 FBD9     		bls	.L41
 534              		.loc 1 99 0
 535 003a 5468     		ldr	r4, [r2, #4]
 536 003c 7C60     		str	r4, [r7, #4]
 537              	.LBE79:
 538              	.LBE78:
 539              		.loc 1 239 0
 540 003e 0125     		movs	r5, #1
 541              	.LBB81:
 542              	.LBB80:
 543              		.loc 1 98 0
 544 0040 3A60     		str	r2, [r7]
 545              		.loc 1 100 0
 546 0042 5760     		str	r7, [r2, #4]
 547 0044 2760     		str	r7, [r4]
 548              	.LBE80:
 549              	.LBE81:
 550              		.loc 1 239 0
 551 0046 3577     		strb	r5, [r6, #28]
 552              		.loc 1 240 0
 553 0048 3946     		mov	r1, r7
 554              	.LVL33:
 555 004a 3046     		mov	r0, r6
 556              	.LVL34:
 557              		.loc 1 238 0
 558 004c 9E61     		str	r6, [r3, #24]
 559              	.LBE77:
 560              		.loc 1 242 0
 561 004e F0BC     		pop	{r4, r5, r6, r7}
 562              		.cfi_restore 7
 563              		.cfi_restore 6
 564              		.cfi_restore 5
 565              		.cfi_restore 4
ARM GAS  /tmp/cci6mItD.s 			page 11


 566              		.cfi_def_cfa_offset 0
 567              	.LVL35:
 568              	.LBB82:
 569              		.loc 1 240 0
 570 0050 FFF7FEBF 		b	_port_switch
 571              	.LVL36:
 572              	.L47:
 573              		.align	2
 574              	.L46:
 575 0054 00000000 		.word	.LANCHOR0
 576              	.LBE82:
 577              		.cfi_endproc
 578              	.LFE12:
 579              		.size	chSchWakeupS, .-chSchWakeupS
 580 0058 AFF30080 		.section	.text.chSchDoRescheduleBehind,"ax",%progbits
 580      AFF30080 
 581              		.align	2
 582              		.p2align 4,,15
 583              		.global	chSchDoRescheduleBehind
 584              		.thumb
 585              		.thumb_func
 586              		.type	chSchDoRescheduleBehind, %function
 587              	chSchDoRescheduleBehind:
 588              	.LFB14:
 589              		.loc 1 304 0
 590              		.cfi_startproc
 591              		@ args = 0, pretend = 0, frame = 0
 592              		@ frame_needed = 0, uses_anonymous_args = 0
 593              		@ link register save eliminated.
 594              		.loc 1 307 0
 595 0000 0E4A     		ldr	r2, .L53
 596              	.LBB83:
 597              	.LBB84:
 598              		.loc 2 60 0
 599 0002 1068     		ldr	r0, [r2]
 600              	.LBE84:
 601              	.LBE83:
 602              		.loc 1 304 0
 603 0004 F0B4     		push	{r4, r5, r6, r7}
 604              		.cfi_def_cfa_offset 16
 605              		.cfi_offset 4, -16
 606              		.cfi_offset 5, -12
 607              		.cfi_offset 6, -8
 608              		.cfi_offset 7, -4
 609              	.LBB88:
 610              	.LBB85:
 611              		.loc 2 62 0
 612 0006 0368     		ldr	r3, [r0]
 613              	.LBE85:
 614              	.LBE88:
 615              		.loc 1 307 0
 616 0008 9569     		ldr	r5, [r2, #24]
 617              	.LVL37:
 618              	.LBB89:
 619              	.LBB86:
 620              		.loc 2 62 0
 621 000a 1360     		str	r3, [r2]
ARM GAS  /tmp/cci6mItD.s 			page 12


 622              	.LBE86:
 623              	.LBE89:
 624              		.loc 1 310 0
 625 000c 0127     		movs	r7, #1
 626              		.loc 1 312 0
 627 000e 1426     		movs	r6, #20
 628              	.LBB90:
 629              	.LBB91:
 630              		.loc 1 92 0
 631 0010 0021     		movs	r1, #0
 632 0012 AC68     		ldr	r4, [r5, #8]
 633              	.LBE91:
 634              	.LBE90:
 635              	.LBB95:
 636              	.LBB87:
 637              		.loc 2 62 0
 638 0014 5A60     		str	r2, [r3, #4]
 639              	.LBE87:
 640              	.LBE95:
 641              		.loc 1 310 0
 642 0016 0777     		strb	r7, [r0, #28]
 643              	.LBB96:
 644              	.LBB92:
 645              		.loc 1 92 0
 646 0018 0346     		mov	r3, r0
 647              	.LBE92:
 648              	.LBE96:
 649              		.loc 1 309 0
 650 001a 9061     		str	r0, [r2, #24]
 651              		.loc 1 312 0
 652 001c EE77     		strb	r6, [r5, #31]
 653              	.LVL38:
 654              	.LBB97:
 655              	.LBB93:
 656              		.loc 1 92 0
 657 001e 2977     		strb	r1, [r5, #28]
 658              	.LVL39:
 659 0020 00E0     		b	.L50
 660              	.LVL40:
 661              	.L52:
 662 0022 1B68     		ldr	r3, [r3]
 663              	.LVL41:
 664              	.L50:
 665              		.loc 1 96 0
 666 0024 9A68     		ldr	r2, [r3, #8]
 667 0026 A242     		cmp	r2, r4
 668 0028 FBD2     		bcs	.L52
 669              		.loc 1 99 0
 670 002a 5A68     		ldr	r2, [r3, #4]
 671 002c 6A60     		str	r2, [r5, #4]
 672              		.loc 1 98 0
 673 002e 2B60     		str	r3, [r5]
 674              	.LBE93:
 675              	.LBE97:
 676              		.loc 1 315 0
 677 0030 2946     		mov	r1, r5
 678              	.LBB98:
ARM GAS  /tmp/cci6mItD.s 			page 13


 679              	.LBB94:
 680              		.loc 1 100 0
 681 0032 5D60     		str	r5, [r3, #4]
 682 0034 1560     		str	r5, [r2]
 683              	.LBE94:
 684              	.LBE98:
 685              		.loc 1 316 0
 686 0036 F0BC     		pop	{r4, r5, r6, r7}
 687              		.cfi_restore 7
 688              		.cfi_restore 6
 689              		.cfi_restore 5
 690              		.cfi_restore 4
 691              		.cfi_def_cfa_offset 0
 692              	.LVL42:
 693              		.loc 1 315 0
 694 0038 FFF7FEBF 		b	_port_switch
 695              	.LVL43:
 696              	.L54:
 697              		.align	2
 698              	.L53:
 699 003c 00000000 		.word	.LANCHOR0
 700              		.cfi_endproc
 701              	.LFE14:
 702              		.size	chSchDoRescheduleBehind, .-chSchDoRescheduleBehind
 703              		.section	.text.chSchDoRescheduleAhead,"ax",%progbits
 704              		.align	2
 705              		.p2align 4,,15
 706              		.global	chSchDoRescheduleAhead
 707              		.thumb
 708              		.thumb_func
 709              		.type	chSchDoRescheduleAhead, %function
 710              	chSchDoRescheduleAhead:
 711              	.LFB15:
 712              		.loc 1 329 0
 713              		.cfi_startproc
 714              		@ args = 0, pretend = 0, frame = 0
 715              		@ frame_needed = 0, uses_anonymous_args = 0
 716              		@ link register save eliminated.
 717              		.loc 1 332 0
 718 0000 0D4A     		ldr	r2, .L60
 719              	.LBB99:
 720              	.LBB100:
 721              		.loc 2 60 0
 722 0002 1068     		ldr	r0, [r2]
 723              	.LBE100:
 724              	.LBE99:
 725              		.loc 1 329 0
 726 0004 70B4     		push	{r4, r5, r6}
 727              		.cfi_def_cfa_offset 12
 728              		.cfi_offset 4, -12
 729              		.cfi_offset 5, -8
 730              		.cfi_offset 6, -4
 731              	.LBB104:
 732              	.LBB101:
 733              		.loc 2 62 0
 734 0006 0368     		ldr	r3, [r0]
 735              	.LBE101:
ARM GAS  /tmp/cci6mItD.s 			page 14


 736              	.LBE104:
 737              		.loc 1 332 0
 738 0008 9569     		ldr	r5, [r2, #24]
 739              	.LVL44:
 740              	.LBB105:
 741              	.LBB102:
 742              		.loc 2 62 0
 743 000a 1360     		str	r3, [r2]
 744              	.LBE102:
 745              	.LBE105:
 746              		.loc 1 335 0
 747 000c 0126     		movs	r6, #1
 748              		.loc 1 337 0
 749 000e 0021     		movs	r1, #0
 750 0010 AC68     		ldr	r4, [r5, #8]
 751              	.LBB106:
 752              	.LBB103:
 753              		.loc 2 62 0
 754 0012 5A60     		str	r2, [r3, #4]
 755              	.LBE103:
 756              	.LBE106:
 757              		.loc 1 335 0
 758 0014 0677     		strb	r6, [r0, #28]
 759              		.loc 1 337 0
 760 0016 0346     		mov	r3, r0
 761              		.loc 1 334 0
 762 0018 9061     		str	r0, [r2, #24]
 763              		.loc 1 337 0
 764 001a 2977     		strb	r1, [r5, #28]
 765              	.LVL45:
 766 001c 00E0     		b	.L57
 767              	.LVL46:
 768              	.L59:
 769 001e 1B68     		ldr	r3, [r3]
 770              	.LVL47:
 771              	.L57:
 772              		.loc 1 341 0 discriminator 1
 773 0020 9A68     		ldr	r2, [r3, #8]
 774 0022 A242     		cmp	r2, r4
 775 0024 FBD8     		bhi	.L59
 776              		.loc 1 344 0
 777 0026 5A68     		ldr	r2, [r3, #4]
 778 0028 6A60     		str	r2, [r5, #4]
 779              		.loc 1 343 0
 780 002a 2B60     		str	r3, [r5]
 781              		.loc 1 347 0
 782 002c 2946     		mov	r1, r5
 783              		.loc 1 345 0
 784 002e 5D60     		str	r5, [r3, #4]
 785 0030 1560     		str	r5, [r2]
 786              		.loc 1 348 0
 787 0032 70BC     		pop	{r4, r5, r6}
 788              		.cfi_restore 6
 789              		.cfi_restore 5
 790              		.cfi_restore 4
 791              		.cfi_def_cfa_offset 0
 792              	.LVL48:
ARM GAS  /tmp/cci6mItD.s 			page 15


 793              		.loc 1 347 0
 794 0034 FFF7FEBF 		b	_port_switch
 795              	.LVL49:
 796              	.L61:
 797              		.align	2
 798              	.L60:
 799 0038 00000000 		.word	.LANCHOR0
 800              		.cfi_endproc
 801              	.LFE15:
 802              		.size	chSchDoRescheduleAhead, .-chSchDoRescheduleAhead
 803 003c AFF30080 		.section	.text.chSchRescheduleS,"ax",%progbits
 804              		.align	2
 805              		.p2align 4,,15
 806              		.global	chSchRescheduleS
 807              		.thumb
 808              		.thumb_func
 809              		.type	chSchRescheduleS, %function
 810              	chSchRescheduleS:
 811              	.LFB13:
 812              		.loc 1 253 0
 813              		.cfi_startproc
 814              		@ args = 0, pretend = 0, frame = 0
 815              		@ frame_needed = 0, uses_anonymous_args = 0
 816              		@ link register save eliminated.
 817              		.loc 1 257 0
 818 0000 044B     		ldr	r3, .L65
 819 0002 1A68     		ldr	r2, [r3]
 820 0004 9B69     		ldr	r3, [r3, #24]
 821 0006 9268     		ldr	r2, [r2, #8]
 822 0008 9B68     		ldr	r3, [r3, #8]
 823 000a 9A42     		cmp	r2, r3
 824 000c 00D8     		bhi	.L64
 825 000e 7047     		bx	lr
 826              	.L64:
 827              		.loc 1 258 0
 828 0010 FFF7FEBF 		b	chSchDoRescheduleAhead
 829              	.LVL50:
 830              	.L66:
 831              		.align	2
 832              	.L65:
 833 0014 00000000 		.word	.LANCHOR0
 834              		.cfi_endproc
 835              	.LFE13:
 836              		.size	chSchRescheduleS, .-chSchRescheduleS
 837 0018 AFF30080 		.section	.text.chSchDoReschedule,"ax",%progbits
 837      AFF30080 
 838              		.align	2
 839              		.p2align 4,,15
 840              		.global	chSchDoReschedule
 841              		.thumb
 842              		.thumb_func
 843              		.type	chSchDoReschedule, %function
 844              	chSchDoReschedule:
 845              	.LFB16:
 846              		.loc 1 362 0
 847              		.cfi_startproc
 848              		@ args = 0, pretend = 0, frame = 0
ARM GAS  /tmp/cci6mItD.s 			page 16


 849              		@ frame_needed = 0, uses_anonymous_args = 0
 850              		@ link register save eliminated.
 851              		.loc 1 367 0
 852 0000 034B     		ldr	r3, .L70
 853 0002 9B69     		ldr	r3, [r3, #24]
 854 0004 DB7F     		ldrb	r3, [r3, #31]	@ zero_extendqisi2
 855 0006 0BB1     		cbz	r3, .L69
 856              		.loc 1 375 0
 857 0008 FFF7FEBF 		b	chSchDoRescheduleAhead
 858              	.LVL51:
 859              	.L69:
 860              		.loc 1 370 0
 861 000c FFF7FEBF 		b	chSchDoRescheduleBehind
 862              	.LVL52:
 863              	.L71:
 864              		.align	2
 865              	.L70:
 866 0010 00000000 		.word	.LANCHOR0
 867              		.cfi_endproc
 868              	.LFE16:
 869              		.size	chSchDoReschedule, .-chSchDoReschedule
 870              		.global	rlist
 871 0014 AFF30080 		.section	.bss.rlist,"aw",%nobits
 871      AFF30080 
 871      AFF30080 
 872              		.align	2
 873              		.set	.LANCHOR0,. + 0
 874              		.type	rlist, %object
 875              		.size	rlist, 28
 876              	rlist:
 877 0000 00000000 		.space	28
 877      00000000 
 877      00000000 
 877      00000000 
 877      00000000 
 878              		.text
 879              	.Letext0:
 880              		.file 3 "/usr/arm-none-eabi/include/machine/_default_types.h"
 881              		.file 4 "/usr/arm-none-eabi/include/stdint.h"
 882              		.file 5 "../../../os/ports/GCC/ARMCMx/chtypes.h"
 883              		.file 6 "../../../os/kernel/include/chlists.h"
 884              		.file 7 "../../../os/kernel/include/chthreads.h"
 885              		.file 8 "../../../os/ports/GCC/ARMCMx/chcore_v7m.h"
 886              		.file 9 "../../../os/kernel/include/chvt.h"
 887              		.file 10 "../../../os/kernel/include/chschd.h"
 888              		.file 11 "../../../os/kernel/include/chsem.h"
 889              		.file 12 "../../../os/kernel/include/chmtx.h"