ARM GAS  /tmp/ccq83cNm.s 			page 1


   1              		.syntax unified
   2              		.cpu cortex-m4
   3              		.fpu softvfp
   4              		.eabi_attribute 20, 1
   5              		.eabi_attribute 21, 1
   6              		.eabi_attribute 23, 3
   7              		.eabi_attribute 24, 1
   8              		.eabi_attribute 25, 1
   9              		.eabi_attribute 26, 1
  10              		.eabi_attribute 30, 2
  11              		.eabi_attribute 34, 1
  12              		.eabi_attribute 18, 4
  13              		.thumb
  14              		.file	"crt0.c"
  15              		.text
  16              	.Ltext0:
  17              		.cfi_sections	.debug_frame
  18              		.section	.text.__early_init,"ax",%progbits
  19              		.align	2
  20              		.p2align 4,,15
  21              		.weak	__early_init
  22              		.thumb
  23              		.thumb_func
  24              		.type	__early_init, %function
  25              	__early_init:
  26              	.LFB0:
  27              		.file 1 "../../../os/ports/GCC/ARMCMx/crt0.c"
  28              		.loc 1 234 0
  29              		.cfi_startproc
  30              		@ args = 0, pretend = 0, frame = 0
  31              		@ frame_needed = 0, uses_anonymous_args = 0
  32              		@ link register save eliminated.
  33 0000 7047     		bx	lr
  34              		.cfi_endproc
  35              	.LFE0:
  36              		.size	__early_init, .-__early_init
  37 0002 00BFAFF3 		.section	.text.__late_init,"ax",%progbits
  37      0080AFF3 
  37      0080AFF3 
  37      0080
  38              		.align	2
  39              		.p2align 4,,15
  40              		.weak	__late_init
  41              		.thumb
  42              		.thumb_func
  43              		.type	__late_init, %function
  44              	__late_init:
  45              	.LFB1:
  46              		.loc 1 246 0
  47              		.cfi_startproc
  48              		@ args = 0, pretend = 0, frame = 0
  49              		@ frame_needed = 0, uses_anonymous_args = 0
  50              		@ link register save eliminated.
  51 0000 7047     		bx	lr
  52              		.cfi_endproc
  53              	.LFE1:
  54              		.size	__late_init, .-__late_init
ARM GAS  /tmp/ccq83cNm.s 			page 2


  55 0002 00BFAFF3 		.section	.text._default_exit,"ax",%progbits
  55      0080AFF3 
  55      0080AFF3 
  55      0080
  56              		.align	2
  57              		.p2align 4,,15
  58              		.weak	_default_exit
  59              		.thumb
  60              		.thumb_func
  61              		.type	_default_exit, %function
  62              	_default_exit:
  63              	.LFB2:
  64              		.loc 1 257 0
  65              		.cfi_startproc
  66              		@ Naked Function: prologue and epilogue provided by programmer.
  67              		@ args = 0, pretend = 0, frame = 0
  68              		@ frame_needed = 0, uses_anonymous_args = 0
  69              	.L4:
  70              		.loc 1 259 0 discriminator 1
  71 0000 FEE7     		b	.L4
  72              		.cfi_endproc
  73              	.LFE2:
  74              		.size	_default_exit, .-_default_exit
  75 0002 00BFAFF3 		.section	.text.ResetHandler,"ax",%progbits
  75      0080AFF3 
  75      0080AFF3 
  75      0080
  76              		.align	2
  77              		.p2align 4,,15
  78              		.global	ResetHandler
  79              		.thumb
  80              		.thumb_func
  81              		.type	ResetHandler, %function
  82              	ResetHandler:
  83              	.LFB3:
  84              		.loc 1 268 0
  85              		.cfi_startproc
  86              		@ Naked Function: prologue and epilogue provided by programmer.
  87              		@ args = 0, pretend = 0, frame = 0
  88              		@ frame_needed = 0, uses_anonymous_args = 0
  89              		.loc 1 274 0
  90              	@ 274 "../../../os/ports/GCC/ARMCMx/crt0.c" 1
  91 0000 72B6     		cpsid   i
  92              	@ 0 "" 2
  93              		.loc 1 275 0
  94              		.thumb
  95 0002 3148     		ldr	r0, .L32
  96              	.LVL0:
  97              		.loc 1 276 0
  98              	@ 276 "../../../os/ports/GCC/ARMCMx/crt0.c" 1
  99 0004 80F30988 		msr     PSP, r0
 100              	@ 0 "" 2
 101              	.LVL1:
 102              		.loc 1 296 0
 103              		.thumb
 104 0008 0223     		movs	r3, #2
 105              	@ 296 "../../../os/ports/GCC/ARMCMx/crt0.c" 1
ARM GAS  /tmp/ccq83cNm.s 			page 3


 106 000a 83F31488 		msr     CONTROL, r3
 107              	@ 0 "" 2
 108              		.loc 1 297 0
 109              	@ 297 "../../../os/ports/GCC/ARMCMx/crt0.c" 1
 110 000e BFF36F8F 		isb
 111              	@ 0 "" 2
 112              	.LVL2:
 113              		.thumb
 114              	.LBB2:
 115              		.loc 1 301 0
 116 0012 2E4B     		ldr	r3, .L32+4
 117 0014 2E4A     		ldr	r2, .L32+8
 118 0016 9342     		cmp	r3, r2
 119 0018 0BD2     		bcs	.L10
 120 001a D943     		mvns	r1, r3
 121 001c 0A44     		add	r2, r2, r1
 122 001e 22F00302 		bic	r2, r2, #3
 123 0022 0432     		adds	r2, r2, #4
 124 0024 1A44     		add	r2, r2, r3
 125 0026 4FF05531 		mov	r1, #1431655765
 126              	.LVL3:
 127              	.L9:
 128              		.loc 1 301 0 is_stmt 0 discriminator 3
 129 002a 43F8041B 		str	r1, [r3], #4
 130              	.LVL4:
 131 002e 9342     		cmp	r3, r2
 132 0030 FBD1     		bne	.L9
 133              	.LVL5:
 134              	.L10:
 135              	.LBE2:
 136              	.LBB3:
 137              		.loc 1 304 0 is_stmt 1
 138 0032 284B     		ldr	r3, .L32+12
 139 0034 8342     		cmp	r3, r0
 140 0036 0CD2     		bcs	.L8
 141 0038 274A     		ldr	r2, .L32+16
 142 003a 191D     		adds	r1, r3, #4
 143 003c 521A     		subs	r2, r2, r1
 144 003e 22F00302 		bic	r2, r2, #3
 145 0042 0432     		adds	r2, r2, #4
 146 0044 1A44     		add	r2, r2, r3
 147 0046 4FF05531 		mov	r1, #1431655765
 148              	.LVL6:
 149              	.L13:
 150              		.loc 1 304 0 is_stmt 0 discriminator 3
 151 004a 43F8041B 		str	r1, [r3], #4
 152              	.LVL7:
 153 004e 9342     		cmp	r3, r2
 154 0050 FBD1     		bne	.L13
 155              	.LVL8:
 156              	.L8:
 157              	.LBE3:
 158              		.loc 1 310 0 is_stmt 1
 159 0052 FFF7FEFF 		bl	__early_init
 160              	.LVL9:
 161              	.LBB4:
 162              		.loc 1 319 0
ARM GAS  /tmp/ccq83cNm.s 			page 4


 163 0056 214A     		ldr	r2, .L32+20
 164 0058 214B     		ldr	r3, .L32+24
 165 005a 9A42     		cmp	r2, r3
 166 005c 0CD2     		bcs	.L12
 167 005e D043     		mvns	r0, r2
 168 0060 1844     		add	r0, r0, r3
 169 0062 20F00300 		bic	r0, r0, #3
 170 0066 1F4B     		ldr	r3, .L32+28
 171 0068 0430     		adds	r0, r0, #4
 172 006a 1844     		add	r0, r0, r3
 173              	.LVL10:
 174              	.L16:
 175              		.loc 1 320 0
 176 006c 53F8041B 		ldr	r1, [r3], #4
 177              	.LVL11:
 178 0070 42F8041B 		str	r1, [r2], #4
 179              	.LVL12:
 180              		.loc 1 319 0
 181 0074 8342     		cmp	r3, r0
 182 0076 F9D1     		bne	.L16
 183              	.LVL13:
 184              	.L12:
 185              	.LBE4:
 186              	.LBB5:
 187              		.loc 1 326 0
 188 0078 1B4B     		ldr	r3, .L32+32
 189 007a 1C4A     		ldr	r2, .L32+36
 190 007c 9342     		cmp	r3, r2
 191 007e 0AD2     		bcs	.L15
 192 0080 D943     		mvns	r1, r3
 193 0082 0A44     		add	r2, r2, r1
 194 0084 22F00302 		bic	r2, r2, #3
 195 0088 0432     		adds	r2, r2, #4
 196 008a 1A44     		add	r2, r2, r3
 197 008c 0021     		movs	r1, #0
 198              	.LVL14:
 199              	.L19:
 200              		.loc 1 326 0 is_stmt 0 discriminator 3
 201 008e 43F8041B 		str	r1, [r3], #4
 202              	.LVL15:
 203 0092 9342     		cmp	r3, r2
 204 0094 FBD1     		bne	.L19
 205              	.LVL16:
 206              	.L15:
 207              	.LBE5:
 208              	.LBB6:
 209              		.loc 1 336 0 is_stmt 1
 210 0096 164D     		ldr	r5, .L32+40
 211 0098 164C     		ldr	r4, .L32+44
 212              	.LBE6:
 213              		.loc 1 330 0
 214 009a FFF7FEFF 		bl	__late_init
 215              	.LVL17:
 216              	.LBB7:
 217              		.loc 1 336 0
 218 009e AC42     		cmp	r4, r5
 219 00a0 04D2     		bcs	.L18
ARM GAS  /tmp/ccq83cNm.s 			page 5


 220              	.LVL18:
 221              	.L17:
 222              		.loc 1 337 0
 223 00a2 54F8043B 		ldr	r3, [r4], #4
 224              	.LVL19:
 225 00a6 9847     		blx	r3
 226              	.LVL20:
 227              		.loc 1 336 0
 228 00a8 AC42     		cmp	r4, r5
 229 00aa FAD3     		bcc	.L17
 230              	.LVL21:
 231              	.L18:
 232              	.LBE7:
 233              	.LBB8:
 234              		.loc 1 350 0
 235 00ac 124D     		ldr	r5, .L32+48
 236 00ae 134C     		ldr	r4, .L32+52
 237              	.LBE8:
 238              		.loc 1 344 0
 239 00b0 FFF7FEFF 		bl	main
 240              	.LVL22:
 241              	.LBB9:
 242              		.loc 1 350 0
 243 00b4 AC42     		cmp	r4, r5
 244 00b6 04D2     		bcs	.L21
 245              	.LVL23:
 246              	.L20:
 247              		.loc 1 351 0
 248 00b8 54F8043B 		ldr	r3, [r4], #4
 249              	.LVL24:
 250 00bc 9847     		blx	r3
 251              	.LVL25:
 252              		.loc 1 350 0
 253 00be AC42     		cmp	r4, r5
 254 00c0 FAD3     		bcc	.L20
 255              	.LVL26:
 256              	.L21:
 257              	.LBE9:
 258              		.loc 1 358 0
 259 00c2 FFF7FEFF 		bl	_default_exit
 260              	.LVL27:
 261              		.loc 1 359 0
 262              	.L33:
 263 00c6 00BF     		.align	2
 264              	.L32:
 265 00c8 00000000 		.word	__process_stack_end__
 266 00cc 00000000 		.word	__main_stack_base__
 267 00d0 00000000 		.word	__main_stack_end__
 268 00d4 00000000 		.word	__process_stack_base__
 269 00d8 03000000 		.word	__process_stack_end__+3
 270 00dc 00000000 		.word	_data
 271 00e0 00000000 		.word	_edata
 272 00e4 00000000 		.word	_textdata
 273 00e8 00000000 		.word	_bss_start
 274 00ec 00000000 		.word	_bss_end
 275 00f0 00000000 		.word	__init_array_end
 276 00f4 00000000 		.word	__init_array_start
ARM GAS  /tmp/ccq83cNm.s 			page 6


 277 00f8 00000000 		.word	__fini_array_end
 278 00fc 00000000 		.word	__fini_array_start
 279              		.cfi_endproc
 280              	.LFE3:
 281              		.size	ResetHandler, .-ResetHandler
 282              		.text
 283              	.Letext0:
 284              		.file 2 "/usr/arm-none-eabi/include/machine/_default_types.h"
 285              		.file 3 "/usr/arm-none-eabi/include/stdint.h"