ARM GAS  /tmp/ccryqc6J.s 			page 1


   1              		.syntax unified
   2              		.cpu cortex-m4
   3              		.fpu softvfp
   4              		.eabi_attribute 20, 1
   5              		.eabi_attribute 21, 1
   6              		.eabi_attribute 23, 3
   7              		.eabi_attribute 24, 1
   8              		.eabi_attribute 25, 1
   9              		.eabi_attribute 26, 1
  10              		.eabi_attribute 30, 2
  11              		.eabi_attribute 34, 1
  12              		.eabi_attribute 18, 4
  13              		.thumb
  14              		.file	"hal.c"
  15              		.text
  16              	.Ltext0:
  17              		.cfi_sections	.debug_frame
  18              		.section	.text.halInit,"ax",%progbits
  19              		.align	2
  20              		.p2align 4,,15
  21              		.global	halInit
  22              		.thumb
  23              		.thumb_func
  24              		.type	halInit, %function
  25              	halInit:
  26              	.LFB118:
  27              		.file 1 "../../../os/hal/src/hal.c"
  28              		.loc 1 68 0
  29              		.cfi_startproc
  30              		@ args = 0, pretend = 0, frame = 0
  31              		@ frame_needed = 0, uses_anonymous_args = 0
  32 0000 08B5     		push	{r3, lr}
  33              		.cfi_def_cfa_offset 8
  34              		.cfi_offset 3, -8
  35              		.cfi_offset 14, -4
  36              		.loc 1 70 0
  37 0002 FFF7FEFF 		bl	hal_lld_init
  38              	.LVL0:
  39              		.loc 1 73 0
  40 0006 FFF7FEFF 		bl	tmInit
  41              	.LVL1:
  42              		.loc 1 76 0
  43 000a 0448     		ldr	r0, .L3
  44 000c FFF7FEFF 		bl	_pal_lld_init
  45              	.LVL2:
  46              		.loc 1 82 0
  47 0010 FFF7FEFF 		bl	canInit
  48              	.LVL3:
  49              		.loc 1 128 0
  50 0014 BDE80840 		pop	{r3, lr}
  51              		.cfi_restore 14
  52              		.cfi_restore 3
  53              		.cfi_def_cfa_offset 0
  54              		.loc 1 127 0
  55 0018 FFF7FEBF 		b	boardInit
  56              	.LVL4:
  57              	.L4:
ARM GAS  /tmp/ccryqc6J.s 			page 2


  58              		.align	2
  59              	.L3:
  60 001c 00000000 		.word	pal_default_config
  61              		.cfi_endproc
  62              	.LFE118:
  63              		.size	halInit, .-halInit
  64              		.section	.text.halIsCounterWithin,"ax",%progbits
  65              		.align	2
  66              		.p2align 4,,15
  67              		.global	halIsCounterWithin
  68              		.thumb
  69              		.thumb_func
  70              		.type	halIsCounterWithin, %function
  71              	halIsCounterWithin:
  72              	.LFB119:
  73              		.loc 1 174 0
  74              		.cfi_startproc
  75              		@ args = 0, pretend = 0, frame = 0
  76              		@ frame_needed = 0, uses_anonymous_args = 0
  77              		@ link register save eliminated.
  78              	.LVL5:
  79              		.loc 1 175 0
  80 0000 084B     		ldr	r3, .L15
  81              		.loc 1 177 0
  82 0002 8142     		cmp	r1, r0
  83              		.loc 1 175 0
  84 0004 5B68     		ldr	r3, [r3, #4]
  85              	.LVL6:
  86              		.loc 1 177 0
  87 0006 06D9     		bls	.L6
  88              		.loc 1 177 0 is_stmt 0 discriminator 1
  89 0008 8342     		cmp	r3, r0
  90 000a 08D3     		bcc	.L14
  91              	.L12:
  92 000c 8B42     		cmp	r3, r1
  93 000e 2CBF     		ite	cs
  94 0010 0020     		movcs	r0, #0
  95              	.LVL7:
  96 0012 0120     		movcc	r0, #1
  97 0014 7047     		bx	lr
  98              	.LVL8:
  99              	.L6:
 100              		.loc 1 178 0 is_stmt 1
 101 0016 8342     		cmp	r3, r0
 102 0018 F8D3     		bcc	.L12
 103 001a 0120     		movs	r0, #1
 104              	.LVL9:
 105              		.loc 1 179 0
 106 001c 7047     		bx	lr
 107              	.LVL10:
 108              	.L14:
 109 001e 0020     		movs	r0, #0
 110              	.LVL11:
 111 0020 7047     		bx	lr
 112              	.L16:
 113 0022 00BF     		.align	2
 114              	.L15:
ARM GAS  /tmp/ccryqc6J.s 			page 3


 115 0024 001000E0 		.word	-536866816
 116              		.cfi_endproc
 117              	.LFE119:
 118              		.size	halIsCounterWithin, .-halIsCounterWithin
 119 0028 AFF30080 		.section	.text.halPolledDelay,"ax",%progbits
 119      AFF30080 
 120              		.align	2
 121              		.p2align 4,,15
 122              		.global	halPolledDelay
 123              		.thumb
 124              		.thumb_func
 125              		.type	halPolledDelay, %function
 126              	halPolledDelay:
 127              	.LFB120:
 128              		.loc 1 193 0
 129              		.cfi_startproc
 130              		@ args = 0, pretend = 0, frame = 0
 131              		@ frame_needed = 0, uses_anonymous_args = 0
 132              		@ link register save eliminated.
 133              	.LVL12:
 134              		.loc 1 194 0
 135 0000 0849     		ldr	r1, .L28
 136 0002 4A68     		ldr	r2, [r1, #4]
 137              	.LVL13:
 138              		.loc 1 195 0
 139 0004 1044     		add	r0, r0, r2
 140              	.LVL14:
 141              	.L26:
 142              	.LBB4:
 143              	.LBB5:
 144              		.loc 1 177 0 discriminator 1
 145 0006 8242     		cmp	r2, r0
 146              		.loc 1 175 0 discriminator 1
 147 0008 4B68     		ldr	r3, [r1, #4]
 148              	.LVL15:
 149              		.loc 1 177 0 discriminator 1
 150 000a 02D2     		bcs	.L18
 151              		.loc 1 177 0 is_stmt 0
 152 000c 9A42     		cmp	r2, r3
 153 000e 02D9     		bls	.L27
 154 0010 7047     		bx	lr
 155              	.L18:
 156              		.loc 1 178 0 is_stmt 1
 157 0012 9A42     		cmp	r2, r3
 158 0014 F7D9     		bls	.L26
 159              	.L27:
 160 0016 9842     		cmp	r0, r3
 161 0018 94BF     		ite	ls
 162 001a 0023     		movls	r3, #0
 163              	.LVL16:
 164 001c 0123     		movhi	r3, #1
 165              	.LBE5:
 166              	.LBE4:
 167              		.loc 1 196 0
 168 001e 002B     		cmp	r3, #0
 169 0020 F1D1     		bne	.L26
 170 0022 7047     		bx	lr
ARM GAS  /tmp/ccryqc6J.s 			page 4


 171              	.L29:
 172              		.align	2
 173              	.L28:
 174 0024 001000E0 		.word	-536866816
 175              		.cfi_endproc
 176              	.LFE120:
 177              		.size	halPolledDelay, .-halPolledDelay
 178 0028 AFF30080 		.text
 178      AFF30080 
 179              	.Letext0:
 180              		.file 2 "/usr/arm-none-eabi/include/machine/_default_types.h"
 181              		.file 3 "/usr/arm-none-eabi/include/stdint.h"
 182              		.file 4 "../../../os/ports/GCC/ARMCMx/chtypes.h"
 183              		.file 5 "../../../os/ports/common/ARMCMx/nvic.h"
 184              		.file 6 "../../../os/hal/platforms/STM32F4xx/hal_lld.h"
 185              		.file 7 "../../../os/hal/platforms/STM32/GPIOv2/pal_lld.h"
 186              		.file 8 "../../../os/ports/common/ARMCMx/CMSIS/include/core_cm4.h"
 187              		.file 9 "../../../os/hal/include/tm.h"
 188              		.file 10 "../../../os/hal/include/can.h"
 189              		.file 11 "../../../boards/ST_STM32F4_DISCOVERY/board.h"