ARM GAS  /tmp/ccyyPAUb.s 			page 1


   1              		.syntax unified
   2              		.cpu cortex-m4
   3              		.fpu softvfp
   4              		.eabi_attribute 20, 1
   5              		.eabi_attribute 21, 1
   6              		.eabi_attribute 23, 3
   7              		.eabi_attribute 24, 1
   8              		.eabi_attribute 25, 1
   9              		.eabi_attribute 26, 1
  10              		.eabi_attribute 30, 2
  11              		.eabi_attribute 34, 1
  12              		.eabi_attribute 18, 4
  13              		.thumb
  14              		.file	"main.c"
  15              		.text
  16              	.Ltext0:
  17              		.cfi_sections	.debug_frame
  18              		.section	.text.can_tx,"ax",%progbits
  19              		.align	2
  20              		.p2align 4,,15
  21              		.thumb
  22              		.thumb_func
  23              		.type	can_tx, %function
  24              	can_tx:
  25              	.LFB119:
  26              		.file 1 "main.c"
  27              		.loc 1 69 0
  28              		.cfi_startproc
  29              		@ args = 0, pretend = 0, frame = 16
  30              		@ frame_needed = 0, uses_anonymous_args = 0
  31              	.LVL0:
  32 0000 F0B5     		push	{r4, r5, r6, r7, lr}
  33              		.cfi_def_cfa_offset 20
  34              		.cfi_offset 4, -20
  35              		.cfi_offset 5, -16
  36              		.cfi_offset 6, -12
  37              		.cfi_offset 7, -8
  38              		.cfi_offset 14, -4
  39              		.loc 1 73 0
  40 0002 1A4C     		ldr	r4, .L10
  41              		.loc 1 75 0
  42 0004 1A4E     		ldr	r6, .L10+4
  43              		.loc 1 73 0
  44 0006 A169     		ldr	r1, [r4, #24]
  45 0008 1A4F     		ldr	r7, .L10+8
  46              		.loc 1 81 0
  47 000a 487F     		ldrb	r0, [r1, #29]	@ zero_extendqisi2
  48              	.LVL1:
  49              		.loc 1 73 0
  50 000c 8F61     		str	r7, [r1, #24]
  51              		.loc 1 69 0
  52 000e 85B0     		sub	sp, sp, #20
  53              		.cfi_def_cfa_offset 40
  54              		.loc 1 77 0
  55 0010 0821     		movs	r1, #8
  56              		.loc 1 74 0
  57 0012 9DF80030 		ldrb	r3, [sp]	@ zero_extendqisi2
ARM GAS  /tmp/ccyyPAUb.s 			page 2


  58              		.loc 1 75 0
  59 0016 019A     		ldr	r2, [sp, #4]
  60              		.loc 1 78 0
  61 0018 174D     		ldr	r5, .L10+12
  62 001a 0295     		str	r5, [sp, #8]
  63              		.loc 1 76 0
  64 001c 43F02003 		orr	r3, r3, #32
  65              		.loc 1 75 0
  66 0020 66F31C02 		bfi	r2, r6, #0, #29
  67              		.loc 1 77 0
  68 0024 03F0EF03 		and	r3, r3, #239
  69 0028 61F30303 		bfi	r3, r1, #0, #4
  70              		.loc 1 75 0
  71 002c 0192     		str	r2, [sp, #4]
  72              		.loc 1 79 0
  73 002e 4FF0FF11 		mov	r1, #16711935
  74              		.loc 1 81 0
  75 0032 4207     		lsls	r2, r0, #29
  76              		.loc 1 77 0
  77 0034 8DF80030 		strb	r3, [sp]
  78              		.loc 1 79 0
  79 0038 0391     		str	r1, [sp, #12]
  80              		.loc 1 81 0
  81 003a 13D4     		bmi	.L7
  82              	.L2:
  83              		.loc 1 82 0
  84 003c 0021     		movs	r1, #0
  85 003e 6A46     		mov	r2, sp
  86 0040 6423     		movs	r3, #100
  87 0042 0E48     		ldr	r0, .L10+16
  88 0044 FFF7FEFF 		bl	canTransmit
  89              	.LVL2:
  90              		.loc 1 83 0
  91 0048 6423     		movs	r3, #100
  92 004a 0021     		movs	r1, #0
  93 004c 6A46     		mov	r2, sp
  94 004e 0C48     		ldr	r0, .L10+20
  95 0050 FFF7FEFF 		bl	canTransmit
  96              	.LVL3:
  97              		.loc 1 84 0
  98 0054 4FF4FA70 		mov	r0, #500
  99 0058 FFF7FEFF 		bl	chThdSleep
 100              	.LVL4:
 101              		.loc 1 81 0
 102 005c A369     		ldr	r3, [r4, #24]
 103 005e 5B7F     		ldrb	r3, [r3, #29]	@ zero_extendqisi2
 104 0060 5B07     		lsls	r3, r3, #29
 105 0062 EBD5     		bpl	.L2
 106              	.L7:
 107              		.loc 1 87 0
 108 0064 0020     		movs	r0, #0
 109 0066 05B0     		add	sp, sp, #20
 110              		.cfi_def_cfa_offset 20
 111              		@ sp needed
 112 0068 F0BD     		pop	{r4, r5, r6, r7, pc}
 113              	.L11:
 114 006a 00BF     		.align	2
ARM GAS  /tmp/ccyyPAUb.s 			page 3


 115              	.L10:
 116 006c 00000000 		.word	rlist
 117 0070 67452301 		.word	19088743
 118 0074 00000000 		.word	.LC0
 119 0078 AA55AA55 		.word	1437226410
 120 007c 00000000 		.word	CAND1
 121 0080 00000000 		.word	CAND2
 122              		.cfi_endproc
 123              	.LFE119:
 124              		.size	can_tx, .-can_tx
 125 0084 AFF30080 		.section	.text.can_rx,"ax",%progbits
 125      AFF30080 
 125      AFF30080 
 126              		.align	2
 127              		.p2align 4,,15
 128              		.thumb
 129              		.thumb_func
 130              		.type	can_rx, %function
 131              	can_rx:
 132              	.LFB118:
 133              		.loc 1 44 0
 134              		.cfi_startproc
 135              		@ args = 0, pretend = 0, frame = 40
 136              		@ frame_needed = 0, uses_anonymous_args = 0
 137              	.LVL5:
 138 0000 F0B5     		push	{r4, r5, r6, r7, lr}
 139              		.cfi_def_cfa_offset 20
 140              		.cfi_offset 4, -20
 141              		.cfi_offset 5, -16
 142              		.cfi_offset 6, -12
 143              		.cfi_offset 7, -8
 144              		.cfi_offset 14, -4
 145              		.loc 1 50 0
 146 0002 174F     		ldr	r7, .L22
 147 0004 174A     		ldr	r2, .L22+4
 148 0006 BB69     		ldr	r3, [r7, #24]
 149              		.loc 1 58 0
 150 0008 174D     		ldr	r5, .L22+8
 151              		.loc 1 44 0
 152 000a 0446     		mov	r4, r0
 153              	.LVL6:
 154              		.loc 1 51 0
 155 000c 0068     		ldr	r0, [r0]
 156              	.LVL7:
 157              		.loc 1 50 0
 158 000e 9A61     		str	r2, [r3, #24]
 159              		.loc 1 44 0
 160 0010 8BB0     		sub	sp, sp, #44
 161              		.cfi_def_cfa_offset 64
 162              		.loc 1 51 0
 163 0012 2030     		adds	r0, r0, #32
 164 0014 01A9     		add	r1, sp, #4
 165 0016 0122     		movs	r2, #1
 166 0018 FFF7FEFF 		bl	chEvtRegisterMask
 167              	.LVL8:
 168              	.L14:
 169              		.loc 1 52 0
ARM GAS  /tmp/ccyyPAUb.s 			page 4


 170 001c BB69     		ldr	r3, [r7, #24]
 171 001e 5B7F     		ldrb	r3, [r3, #29]	@ zero_extendqisi2
 172 0020 5B07     		lsls	r3, r3, #29
 173 0022 16D4     		bmi	.L21
 174              		.loc 1 53 0
 175 0024 4FF0FF30 		mov	r0, #-1
 176 0028 6421     		movs	r1, #100
 177 002a FFF7FEFF 		bl	chEvtWaitAnyTimeout
 178              	.LVL9:
 179 002e 0028     		cmp	r0, #0
 180 0030 F4D0     		beq	.L14
 181              		.loc 1 58 0
 182 0032 0126     		movs	r6, #1
 183              	.L15:
 184              		.loc 1 55 0
 185 0034 0021     		movs	r1, #0
 186 0036 0B46     		mov	r3, r1
 187 0038 2068     		ldr	r0, [r4]
 188 003a 05AA     		add	r2, sp, #20
 189 003c FFF7FEFF 		bl	canReceive
 190              	.LVL10:
 191 0040 0028     		cmp	r0, #0
 192 0042 EBD1     		bne	.L14
 193              		.loc 1 58 0
 194 0044 6268     		ldr	r2, [r4, #4]
 195 0046 6B69     		ldr	r3, [r5, #20]
 196 0048 06FA02F2 		lsl	r2, r6, r2
 197 004c 5340     		eors	r3, r3, r2
 198 004e 6B61     		str	r3, [r5, #20]
 199 0050 F0E7     		b	.L15
 200              	.L21:
 201              		.loc 1 61 0
 202 0052 01A9     		add	r1, sp, #4
 203 0054 0548     		ldr	r0, .L22+12
 204 0056 FFF7FEFF 		bl	chEvtUnregister
 205              	.LVL11:
 206              		.loc 1 63 0
 207 005a 0020     		movs	r0, #0
 208 005c 0BB0     		add	sp, sp, #44
 209              		.cfi_def_cfa_offset 20
 210              		@ sp needed
 211 005e F0BD     		pop	{r4, r5, r6, r7, pc}
 212              	.LVL12:
 213              	.L23:
 214              		.align	2
 215              	.L22:
 216 0060 00000000 		.word	rlist
 217 0064 0C000000 		.word	.LC1
 218 0068 000C0240 		.word	1073875968
 219 006c 20000000 		.word	CAND1+32
 220              		.cfi_endproc
 221              	.LFE118:
 222              		.size	can_rx, .-can_rx
 223              		.section	.text.startup.main,"ax",%progbits
 224              		.align	2
 225              		.p2align 4,,15
 226              		.global	main
ARM GAS  /tmp/ccyyPAUb.s 			page 5


 227              		.thumb
 228              		.thumb_func
 229              		.type	main, %function
 230              	main:
 231              	.LFB120:
 232              		.loc 1 92 0
 233              		.cfi_startproc
 234              		@ Volatile: function does not return.
 235              		@ args = 0, pretend = 0, frame = 0
 236              		@ frame_needed = 0, uses_anonymous_args = 0
 237 0000 00B5     		push	{lr}
 238              		.cfi_def_cfa_offset 4
 239              		.cfi_offset 14, -4
 240 0002 83B0     		sub	sp, sp, #12
 241              		.cfi_def_cfa_offset 16
 242              		.loc 1 101 0
 243 0004 FFF7FEFF 		bl	halInit
 244              	.LVL13:
 245              		.loc 1 102 0
 246 0008 FFF7FEFF 		bl	chSysInit
 247              	.LVL14:
 248              		.loc 1 107 0
 249 000c 1348     		ldr	r0, .L27
 250 000e 1449     		ldr	r1, .L27+4
 251 0010 FFF7FEFF 		bl	canStart
 252              	.LVL15:
 253              		.loc 1 108 0
 254 0014 1348     		ldr	r0, .L27+8
 255 0016 1249     		ldr	r1, .L27+4
 256 0018 FFF7FEFF 		bl	canStart
 257              	.LVL16:
 258              		.loc 1 113 0
 259 001c 124B     		ldr	r3, .L27+12
 260 001e 0093     		str	r3, [sp]
 261 0020 4FF4E871 		mov	r1, #464
 262 0024 114B     		ldr	r3, .L27+16
 263 0026 1248     		ldr	r0, .L27+20
 264 0028 4722     		movs	r2, #71
 265 002a FFF7FEFF 		bl	chThdCreateStatic
 266              	.LVL17:
 267              		.loc 1 115 0
 268 002e 114B     		ldr	r3, .L27+24
 269 0030 0093     		str	r3, [sp]
 270 0032 4FF4E871 		mov	r1, #464
 271 0036 0D4B     		ldr	r3, .L27+16
 272 0038 0F48     		ldr	r0, .L27+28
 273 003a 4722     		movs	r2, #71
 274 003c FFF7FEFF 		bl	chThdCreateStatic
 275              	.LVL18:
 276              		.loc 1 117 0
 277 0040 0023     		movs	r3, #0
 278 0042 0093     		str	r3, [sp]
 279 0044 0D48     		ldr	r0, .L27+32
 280 0046 0E4B     		ldr	r3, .L27+36
 281 0048 4FF4E871 		mov	r1, #464
 282 004c 4722     		movs	r2, #71
 283 004e FFF7FEFF 		bl	chThdCreateStatic
ARM GAS  /tmp/ccyyPAUb.s 			page 6


 284              	.LVL19:
 285              	.L25:
 286              		.loc 1 124 0 discriminator 1
 287 0052 4FF4FA70 		mov	r0, #500
 288 0056 FFF7FEFF 		bl	chThdSleep
 289              	.LVL20:
 290              		.loc 1 125 0 discriminator 1
 291 005a FAE7     		b	.L25
 292              	.L28:
 293              		.align	2
 294              	.L27:
 295 005c 00000000 		.word	CAND1
 296 0060 00000000 		.word	.LANCHOR0
 297 0064 00000000 		.word	CAND2
 298 0068 00000000 		.word	.LANCHOR2
 299 006c 00000000 		.word	can_rx
 300 0070 00000000 		.word	.LANCHOR1
 301 0074 00000000 		.word	.LANCHOR4
 302 0078 00000000 		.word	.LANCHOR3
 303 007c 00000000 		.word	.LANCHOR5
 304 0080 00000000 		.word	can_tx
 305              		.cfi_endproc
 306              	.LFE120:
 307              		.size	main, .-main
 308              		.section	.bss.can_rx2_wa,"aw",%nobits
 309              		.align	3
 310              		.set	.LANCHOR3,. + 0
 311              		.type	can_rx2_wa, %object
 312              		.size	can_rx2_wa, 464
 313              	can_rx2_wa:
 314 0000 00000000 		.space	464
 314      00000000 
 314      00000000 
 314      00000000 
 314      00000000 
 315              		.section	.rodata.cancfg,"a",%progbits
 316              		.align	2
 317              		.set	.LANCHOR0,. + 0
 318              		.type	cancfg, %object
 319              		.size	cancfg, 8
 320              	cancfg:
 321 0000 64000000 		.word	100
 322 0004 06001840 		.word	1075314694
 323              		.section	.bss.can_tx_wa,"aw",%nobits
 324              		.align	3
 325              		.set	.LANCHOR5,. + 0
 326              		.type	can_tx_wa, %object
 327              		.size	can_tx_wa, 464
 328              	can_tx_wa:
 329 0000 00000000 		.space	464
 329      00000000 
 329      00000000 
 329      00000000 
 329      00000000 
 330              		.section	.rodata.can1,"a",%progbits
 331              		.align	2
 332              		.set	.LANCHOR2,. + 0
ARM GAS  /tmp/ccyyPAUb.s 			page 7


 333              		.type	can1, %object
 334              		.size	can1, 8
 335              	can1:
 336 0000 00000000 		.word	CAND1
 337 0004 0E000000 		.word	14
 338              		.section	.rodata.str1.4,"aMS",%progbits,1
 339              		.align	2
 340              	.LC0:
 341 0000 7472616E 		.ascii	"transmitter\000"
 341      736D6974 
 341      74657200 
 342              	.LC1:
 343 000c 72656365 		.ascii	"receiver\000"
 343      69766572 
 343      00
 344 0015 000000   		.section	.rodata.can2,"a",%progbits
 345              		.align	2
 346              		.set	.LANCHOR4,. + 0
 347              		.type	can2, %object
 348              		.size	can2, 8
 349              	can2:
 350 0000 00000000 		.word	CAND2
 351 0004 0D000000 		.word	13
 352              		.section	.bss.can_rx1_wa,"aw",%nobits
 353              		.align	3
 354              		.set	.LANCHOR1,. + 0
 355              		.type	can_rx1_wa, %object
 356              		.size	can_rx1_wa, 464
 357              	can_rx1_wa:
 358 0000 00000000 		.space	464
 358      00000000 
 358      00000000 
 358      00000000 
 358      00000000 
 359              		.text
 360              	.Letext0:
 361              		.file 2 "/usr/lib/gcc/arm-none-eabi/4.9.2/include/stddef.h"
 362              		.file 3 "/usr/arm-none-eabi/include/machine/_default_types.h"
 363              		.file 4 "/usr/arm-none-eabi/include/stdint.h"
 364              		.file 5 "../../../os/ports/GCC/ARMCMx/chtypes.h"
 365              		.file 6 "../../../os/kernel/include/chlists.h"
 366              		.file 7 "../../../os/kernel/include/chthreads.h"
 367              		.file 8 "../../../os/ports/GCC/ARMCMx/chcore_v7m.h"
 368              		.file 9 "../../../os/kernel/include/chschd.h"
 369              		.file 10 "../../../os/kernel/include/chsem.h"
 370              		.file 11 "../../../os/kernel/include/chmtx.h"
 371              		.file 12 "../../../os/kernel/include/chevents.h"
 372              		.file 13 "../../../os/hal/platforms/STM32F4xx/stm32f4xx.h"
 373              		.file 14 "../../../os/hal/platforms/STM32/GPIOv2/pal_lld.h"
 374              		.file 15 "../../../os/hal/include/can.h"
 375              		.file 16 "../../../os/hal/platforms/STM32/can_lld.h"
 376              		.file 17 "../../../os/ports/common/ARMCMx/CMSIS/include/core_cm4.h"
 377              		.file 18 "../../../os/hal/include/hal.h"
 378              		.file 19 "../../../os/kernel/include/chsys.h"