ARM GAS  /tmp/ccpSqIf7.s 			page 1


   1              		.syntax unified
   2              		.cpu cortex-m4
   3              		.fpu softvfp
   4              		.eabi_attribute 20, 1
   5              		.eabi_attribute 21, 1
   6              		.eabi_attribute 23, 3
   7              		.eabi_attribute 24, 1
   8              		.eabi_attribute 25, 1
   9              		.eabi_attribute 26, 1
  10              		.eabi_attribute 30, 2
  11              		.eabi_attribute 34, 1
  12              		.eabi_attribute 18, 4
  13              		.thumb
  14              		.file	"testsem.c"
  15              		.text
  16              	.Ltext0:
  17              		.cfi_sections	.debug_frame
  18              		.section	.text.sem1_execute,"ax",%progbits
  19              		.align	2
  20              		.p2align 4,,15
  21              		.thumb
  22              		.thumb_func
  23              		.type	sem1_execute, %function
  24              	sem1_execute:
  25              	.LFB9:
  26              		.file 1 "../../../test/testsem.c"
  27              		.loc 1 84 0
  28              		.cfi_startproc
  29              		@ args = 0, pretend = 0, frame = 0
  30              		@ frame_needed = 0, uses_anonymous_args = 0
  31 0000 2DE9F043 		push	{r4, r5, r6, r7, r8, r9, lr}
  32              		.cfi_def_cfa_offset 28
  33              		.cfi_offset 4, -28
  34              		.cfi_offset 5, -24
  35              		.cfi_offset 6, -20
  36              		.cfi_offset 7, -16
  37              		.cfi_offset 8, -12
  38              		.cfi_offset 9, -8
  39              		.cfi_offset 14, -4
  40              		.loc 1 86 0
  41 0004 444E     		ldr	r6, .L6
  42 0006 454F     		ldr	r7, .L6+4
  43 0008 B369     		ldr	r3, [r6, #24]
  44 000a D7F80080 		ldr	r8, [r7]
  45 000e 9A68     		ldr	r2, [r3, #8]
  46 0010 DFF82C91 		ldr	r9, .L6+40
  47 0014 424B     		ldr	r3, .L6+8
  48 0016 434D     		ldr	r5, .L6+12
  49              		.loc 1 91 0
  50 0018 434C     		ldr	r4, .L6+16
  51              		.loc 1 84 0
  52 001a 83B0     		sub	sp, sp, #12
  53              		.cfi_def_cfa_offset 40
  54              		.loc 1 86 0
  55 001c 0532     		adds	r2, r2, #5
  56 001e 4FF4A871 		mov	r1, #336
  57 0022 CDF80090 		str	r9, [sp]
ARM GAS  /tmp/ccpSqIf7.s 			page 2


  58 0026 4046     		mov	r0, r8
  59 0028 FFF7FEFF 		bl	chThdCreateStatic
  60              	.LVL0:
  61              		.loc 1 87 0
  62 002c B369     		ldr	r3, [r6, #24]
  63 002e 7968     		ldr	r1, [r7, #4]
  64 0030 9A68     		ldr	r2, [r3, #8]
  65 0032 3E4B     		ldr	r3, .L6+20
  66              		.loc 1 86 0
  67 0034 2860     		str	r0, [r5]
  68              		.loc 1 87 0
  69 0036 0132     		adds	r2, r2, #1
  70 0038 0846     		mov	r0, r1
  71 003a 0093     		str	r3, [sp]
  72 003c 4FF4A871 		mov	r1, #336
  73 0040 374B     		ldr	r3, .L6+8
  74 0042 FFF7FEFF 		bl	chThdCreateStatic
  75              	.LVL1:
  76              		.loc 1 88 0
  77 0046 B369     		ldr	r3, [r6, #24]
  78 0048 B968     		ldr	r1, [r7, #8]
  79 004a 9A68     		ldr	r2, [r3, #8]
  80 004c 384B     		ldr	r3, .L6+24
  81              		.loc 1 87 0
  82 004e 6860     		str	r0, [r5, #4]
  83              		.loc 1 88 0
  84 0050 0332     		adds	r2, r2, #3
  85 0052 0846     		mov	r0, r1
  86 0054 0093     		str	r3, [sp]
  87 0056 4FF4A871 		mov	r1, #336
  88 005a 314B     		ldr	r3, .L6+8
  89 005c FFF7FEFF 		bl	chThdCreateStatic
  90              	.LVL2:
  91              		.loc 1 89 0
  92 0060 B369     		ldr	r3, [r6, #24]
  93 0062 F968     		ldr	r1, [r7, #12]
  94 0064 9A68     		ldr	r2, [r3, #8]
  95 0066 334B     		ldr	r3, .L6+28
  96              		.loc 1 88 0
  97 0068 A860     		str	r0, [r5, #8]
  98              		.loc 1 89 0
  99 006a 0432     		adds	r2, r2, #4
 100 006c 0846     		mov	r0, r1
 101 006e 0093     		str	r3, [sp]
 102 0070 4FF4A871 		mov	r1, #336
 103 0074 2A4B     		ldr	r3, .L6+8
 104 0076 FFF7FEFF 		bl	chThdCreateStatic
 105              	.LVL3:
 106              		.loc 1 90 0
 107 007a B369     		ldr	r3, [r6, #24]
 108 007c 3969     		ldr	r1, [r7, #16]
 109 007e 9A68     		ldr	r2, [r3, #8]
 110 0080 2D4B     		ldr	r3, .L6+32
 111              		.loc 1 89 0
 112 0082 E860     		str	r0, [r5, #12]
 113              		.loc 1 90 0
 114 0084 0232     		adds	r2, r2, #2
ARM GAS  /tmp/ccpSqIf7.s 			page 3


 115 0086 0846     		mov	r0, r1
 116 0088 0093     		str	r3, [sp]
 117 008a 4FF4A871 		mov	r1, #336
 118 008e 244B     		ldr	r3, .L6+8
 119 0090 FFF7FEFF 		bl	chThdCreateStatic
 120              	.LVL4:
 121 0094 2861     		str	r0, [r5, #16]
 122              		.loc 1 91 0
 123 0096 2046     		mov	r0, r4
 124 0098 FFF7FEFF 		bl	chSemSignal
 125              	.LVL5:
 126              		.loc 1 92 0
 127 009c 2046     		mov	r0, r4
 128 009e FFF7FEFF 		bl	chSemSignal
 129              	.LVL6:
 130              		.loc 1 93 0
 131 00a2 2046     		mov	r0, r4
 132 00a4 FFF7FEFF 		bl	chSemSignal
 133              	.LVL7:
 134              		.loc 1 94 0
 135 00a8 2046     		mov	r0, r4
 136 00aa FFF7FEFF 		bl	chSemSignal
 137              	.LVL8:
 138              		.loc 1 95 0
 139 00ae 2046     		mov	r0, r4
 140 00b0 FFF7FEFF 		bl	chSemSignal
 141              	.LVL9:
 142              		.loc 1 96 0
 143 00b4 FFF7FEFF 		bl	test_wait_threads
 144              	.LVL10:
 145              		.loc 1 100 0
 146 00b8 0120     		movs	r0, #1
 147 00ba 2049     		ldr	r1, .L6+36
 148 00bc FFF7FEFF 		bl	_test_assert_sequence
 149              	.LVL11:
 150 00c0 0746     		mov	r7, r0
 151 00c2 10B1     		cbz	r0, .L5
 152              		.loc 1 109 0
 153 00c4 03B0     		add	sp, sp, #12
 154              		.cfi_remember_state
 155              		.cfi_def_cfa_offset 28
 156              		@ sp needed
 157 00c6 BDE8F083 		pop	{r4, r5, r6, r7, r8, r9, pc}
 158              	.L5:
 159              		.cfi_restore_state
 160              		.loc 1 102 0
 161 00ca B269     		ldr	r2, [r6, #24]
 162 00cc 144B     		ldr	r3, .L6+8
 163 00ce 9268     		ldr	r2, [r2, #8]
 164 00d0 CDF80090 		str	r9, [sp]
 165 00d4 0532     		adds	r2, r2, #5
 166 00d6 4046     		mov	r0, r8
 167 00d8 4FF4A871 		mov	r1, #336
 168 00dc FFF7FEFF 		bl	chThdCreateStatic
 169              	.LVL12:
 170              	.LBB2:
 171              		.loc 1 103 0
ARM GAS  /tmp/ccpSqIf7.s 			page 4


 172 00e0 2023     		movs	r3, #32
 173              	.LBE2:
 174              		.loc 1 102 0
 175 00e2 2860     		str	r0, [r5]
 176              	.LBB3:
 177              		.loc 1 103 0
 178              	@ 103 "../../../test/testsem.c" 1
 179 00e4 83F31188 		msr     BASEPRI, r3
 180              	@ 0 "" 2
 181              		.thumb
 182              	.LBE3:
 183              		.loc 1 104 0
 184 00e8 0221     		movs	r1, #2
 185 00ea 2046     		mov	r0, r4
 186 00ec FFF7FEFF 		bl	chSemAddCounterI
 187              	.LVL13:
 188              		.loc 1 105 0
 189 00f0 FFF7FEFF 		bl	chSchRescheduleS
 190              	.LVL14:
 191              	.LBB4:
 192              		.loc 1 106 0
 193 00f4 3B46     		mov	r3, r7
 194              	@ 106 "../../../test/testsem.c" 1
 195 00f6 83F31188 		msr     BASEPRI, r3
 196              	@ 0 "" 2
 197              		.thumb
 198              	.LBE4:
 199              		.loc 1 107 0
 200 00fa FFF7FEFF 		bl	test_wait_threads
 201              	.LVL15:
 202              		.loc 1 108 0
 203 00fe A168     		ldr	r1, [r4, #8]
 204 0100 0220     		movs	r0, #2
 205 0102 A1F10101 		sub	r1, #1
 206 0106 B1FA81F1 		clz	r1, r1
 207 010a 4909     		lsrs	r1, r1, #5
 208              		.loc 1 109 0
 209 010c 03B0     		add	sp, sp, #12
 210              		.cfi_def_cfa_offset 28
 211              		@ sp needed
 212 010e BDE8F043 		pop	{r4, r5, r6, r7, r8, r9, lr}
 213              		.cfi_restore 14
 214              		.cfi_restore 9
 215              		.cfi_restore 8
 216              		.cfi_restore 7
 217              		.cfi_restore 6
 218              		.cfi_restore 5
 219              		.cfi_restore 4
 220              		.cfi_def_cfa_offset 0
 221              		.loc 1 108 0
 222 0112 FFF7FEBF 		b	_test_assert
 223              	.LVL16:
 224              	.L7:
 225 0116 00BF     		.align	2
 226              	.L6:
 227 0118 00000000 		.word	rlist
 228 011c 00000000 		.word	wa
ARM GAS  /tmp/ccpSqIf7.s 			page 5


 229 0120 00000000 		.word	thread1
 230 0124 00000000 		.word	threads
 231 0128 00000000 		.word	.LANCHOR0
 232 012c 04000000 		.word	.LC1
 233 0130 08000000 		.word	.LC2
 234 0134 0C000000 		.word	.LC3
 235 0138 10000000 		.word	.LC4
 236 013c 14000000 		.word	.LC5
 237 0140 00000000 		.word	.LC0
 238              		.cfi_endproc
 239              	.LFE9:
 240              		.size	sem1_execute, .-sem1_execute
 241 0144 AFF30080 		.section	.text.thread3,"ax",%progbits
 241      AFF30080 
 241      AFF30080 
 242              		.align	2
 243              		.p2align 4,,15
 244              		.thumb
 245              		.thumb_func
 246              		.type	thread3, %function
 247              	thread3:
 248              	.LFB14:
 249              		.loc 1 210 0
 250              		.cfi_startproc
 251              		@ args = 0, pretend = 0, frame = 0
 252              		@ frame_needed = 0, uses_anonymous_args = 0
 253              	.LVL17:
 254 0000 10B5     		push	{r4, lr}
 255              		.cfi_def_cfa_offset 8
 256              		.cfi_offset 4, -8
 257              		.cfi_offset 14, -4
 258              		.loc 1 213 0
 259 0002 044C     		ldr	r4, .L10
 260 0004 2046     		mov	r0, r4
 261              	.LVL18:
 262 0006 FFF7FEFF 		bl	chSemWait
 263              	.LVL19:
 264              		.loc 1 214 0
 265 000a 2046     		mov	r0, r4
 266 000c FFF7FEFF 		bl	chSemSignal
 267              	.LVL20:
 268              		.loc 1 216 0
 269 0010 0020     		movs	r0, #0
 270 0012 10BD     		pop	{r4, pc}
 271              	.L11:
 272              		.align	2
 273              	.L10:
 274 0014 00000000 		.word	.LANCHOR0
 275              		.cfi_endproc
 276              	.LFE14:
 277              		.size	thread3, .-thread3
 278 0018 AFF30080 		.section	.text.thread1,"ax",%progbits
 278      AFF30080 
 279              		.align	2
 280              		.p2align 4,,15
 281              		.thumb
 282              		.thumb_func
ARM GAS  /tmp/ccpSqIf7.s 			page 6


 283              		.type	thread1, %function
 284              	thread1:
 285              	.LFB8:
 286              		.loc 1 77 0
 287              		.cfi_startproc
 288              		@ args = 0, pretend = 0, frame = 0
 289              		@ frame_needed = 0, uses_anonymous_args = 0
 290              	.LVL21:
 291 0000 10B5     		push	{r4, lr}
 292              		.cfi_def_cfa_offset 8
 293              		.cfi_offset 4, -8
 294              		.cfi_offset 14, -4
 295              		.loc 1 77 0
 296 0002 0446     		mov	r4, r0
 297              		.loc 1 79 0
 298 0004 0348     		ldr	r0, .L14
 299              	.LVL22:
 300 0006 FFF7FEFF 		bl	chSemWait
 301              	.LVL23:
 302              		.loc 1 80 0
 303 000a 2078     		ldrb	r0, [r4]	@ zero_extendqisi2
 304 000c FFF7FEFF 		bl	test_emit_token
 305              	.LVL24:
 306              		.loc 1 82 0
 307 0010 0020     		movs	r0, #0
 308 0012 10BD     		pop	{r4, pc}
 309              	.LVL25:
 310              	.L15:
 311              		.align	2
 312              	.L14:
 313 0014 00000000 		.word	.LANCHOR0
 314              		.cfi_endproc
 315              	.LFE8:
 316              		.size	thread1, .-thread1
 317 0018 AFF30080 		.section	.text.sem1_setup,"ax",%progbits
 317      AFF30080 
 318              		.align	2
 319              		.p2align 4,,15
 320              		.thumb
 321              		.thumb_func
 322              		.type	sem1_setup, %function
 323              	sem1_setup:
 324              	.LFB7:
 325              		.loc 1 72 0
 326              		.cfi_startproc
 327              		@ args = 0, pretend = 0, frame = 0
 328              		@ frame_needed = 0, uses_anonymous_args = 0
 329              		@ link register save eliminated.
 330              		.loc 1 74 0
 331 0000 0148     		ldr	r0, .L17
 332 0002 0021     		movs	r1, #0
 333 0004 FFF7FEBF 		b	chSemInit
 334              	.LVL26:
 335              	.L18:
 336              		.align	2
 337              	.L17:
 338 0008 00000000 		.word	.LANCHOR0
ARM GAS  /tmp/ccpSqIf7.s 			page 7


 339              		.cfi_endproc
 340              	.LFE7:
 341              		.size	sem1_setup, .-sem1_setup
 342 000c AFF30080 		.section	.text.sem2_setup,"ax",%progbits
 343              		.align	2
 344              		.p2align 4,,15
 345              		.thumb
 346              		.thumb_func
 347              		.type	sem2_setup, %function
 348              	sem2_setup:
 349              	.LFB10:
 350              		.loc 1 129 0
 351              		.cfi_startproc
 352              		@ args = 0, pretend = 0, frame = 0
 353              		@ frame_needed = 0, uses_anonymous_args = 0
 354              		@ link register save eliminated.
 355              		.loc 1 131 0
 356 0000 0148     		ldr	r0, .L20
 357 0002 0021     		movs	r1, #0
 358 0004 FFF7FEBF 		b	chSemInit
 359              	.LVL27:
 360              	.L21:
 361              		.align	2
 362              	.L20:
 363 0008 00000000 		.word	.LANCHOR0
 364              		.cfi_endproc
 365              	.LFE10:
 366              		.size	sem2_setup, .-sem2_setup
 367 000c AFF30080 		.section	.text.sem3_setup,"ax",%progbits
 368              		.align	2
 369              		.p2align 4,,15
 370              		.thumb
 371              		.thumb_func
 372              		.type	sem3_setup, %function
 373              	sem3_setup:
 374              	.LFB13:
 375              		.loc 1 205 0
 376              		.cfi_startproc
 377              		@ args = 0, pretend = 0, frame = 0
 378              		@ frame_needed = 0, uses_anonymous_args = 0
 379              		@ link register save eliminated.
 380              		.loc 1 207 0
 381 0000 0148     		ldr	r0, .L23
 382 0002 0021     		movs	r1, #0
 383 0004 FFF7FEBF 		b	chSemInit
 384              	.LVL28:
 385              	.L24:
 386              		.align	2
 387              	.L23:
 388 0008 00000000 		.word	.LANCHOR0
 389              		.cfi_endproc
 390              	.LFE13:
 391              		.size	sem3_setup, .-sem3_setup
 392 000c AFF30080 		.section	.text.thread2,"ax",%progbits
 393              		.align	2
 394              		.p2align 4,,15
 395              		.thumb
ARM GAS  /tmp/ccpSqIf7.s 			page 8


 396              		.thumb_func
 397              		.type	thread2, %function
 398              	thread2:
 399              	.LFB11:
 400              		.loc 1 134 0
 401              		.cfi_startproc
 402              		@ args = 0, pretend = 0, frame = 0
 403              		@ frame_needed = 0, uses_anonymous_args = 0
 404              	.LVL29:
 405 0000 08B5     		push	{r3, lr}
 406              		.cfi_def_cfa_offset 8
 407              		.cfi_offset 3, -8
 408              		.cfi_offset 14, -4
 409              		.loc 1 137 0
 410 0002 3220     		movs	r0, #50
 411              	.LVL30:
 412 0004 FFF7FEFF 		bl	chThdSleep
 413              	.LVL31:
 414              	.LBB5:
 415              		.loc 1 138 0
 416 0008 2023     		movs	r3, #32
 417              	@ 138 "../../../test/testsem.c" 1
 418 000a 83F31188 		msr     BASEPRI, r3
 419              	@ 0 "" 2
 420              		.thumb
 421              	.LBE5:
 422              		.loc 1 139 0
 423 000e 0548     		ldr	r0, .L27
 424 0010 FFF7FEFF 		bl	chSemSignalI
 425              	.LVL32:
 426              		.loc 1 140 0
 427 0014 FFF7FEFF 		bl	chSchRescheduleS
 428              	.LVL33:
 429              	.LBB6:
 430              		.loc 1 141 0
 431 0018 0023     		movs	r3, #0
 432              	@ 141 "../../../test/testsem.c" 1
 433 001a 83F31188 		msr     BASEPRI, r3
 434              	@ 0 "" 2
 435              		.thumb
 436              	.LBE6:
 437              		.loc 1 143 0
 438 001e 1846     		mov	r0, r3
 439 0020 08BD     		pop	{r3, pc}
 440              	.L28:
 441 0022 00BF     		.align	2
 442              	.L27:
 443 0024 00000000 		.word	.LANCHOR0
 444              		.cfi_endproc
 445              	.LFE11:
 446              		.size	thread2, .-thread2
 447 0028 AFF30080 		.section	.text.thread4,"ax",%progbits
 447      AFF30080 
 448              		.align	2
 449              		.p2align 4,,15
 450              		.thumb
 451              		.thumb_func
ARM GAS  /tmp/ccpSqIf7.s 			page 9


 452              		.type	thread4, %function
 453              	thread4:
 454              	.LFB16:
 455              		.loc 1 246 0
 456              		.cfi_startproc
 457              		@ args = 0, pretend = 0, frame = 0
 458              		@ frame_needed = 0, uses_anonymous_args = 0
 459              	.LVL34:
 460 0000 08B5     		push	{r3, lr}
 461              		.cfi_def_cfa_offset 8
 462              		.cfi_offset 3, -8
 463              		.cfi_offset 14, -4
 464              	.LBB7:
 465              		.loc 1 248 0
 466 0002 2023     		movs	r3, #32
 467              	@ 248 "../../../test/testsem.c" 1
 468 0004 83F31188 		msr     BASEPRI, r3
 469              	@ 0 "" 2
 470              		.thumb
 471              	.LBE7:
 472 0008 8368     		ldr	r3, [r0, #8]
 473 000a 002B     		cmp	r3, #0
 474 000c 06DD     		ble	.L32
 475              	.LVL35:
 476              	.L30:
 477              		.loc 1 248 0 is_stmt 0 discriminator 3
 478 000e FFF7FEFF 		bl	chSchRescheduleS
 479              	.LVL36:
 480              	.LBB8:
 481 0012 0023     		movs	r3, #0
 482              	@ 248 "../../../test/testsem.c" 1
 483 0014 83F31188 		msr     BASEPRI, r3
 484              	@ 0 "" 2
 485              		.thumb
 486              	.LBE8:
 487              		.loc 1 250 0 is_stmt 1 discriminator 3
 488 0018 1846     		mov	r0, r3
 489 001a 08BD     		pop	{r3, pc}
 490              	.LVL37:
 491              	.L32:
 492              		.loc 1 248 0 discriminator 1
 493 001c FFF7FEFF 		bl	chSemSignalI
 494              	.LVL38:
 495 0020 F5E7     		b	.L30
 496              		.cfi_endproc
 497              	.LFE16:
 498              		.size	thread4, .-thread4
 499              		.section	.text.sem4_execute,"ax",%progbits
 500              		.align	2
 501              		.p2align 4,,15
 502              		.thumb
 503              		.thumb_func
 504              		.type	sem4_execute, %function
 505              	sem4_execute:
 506              	.LFB17:
 507              		.loc 1 252 0
 508              		.cfi_startproc
ARM GAS  /tmp/ccpSqIf7.s 			page 10


 509              		@ args = 0, pretend = 0, frame = 16
 510              		@ frame_needed = 0, uses_anonymous_args = 0
 511 0000 00B5     		push	{lr}
 512              		.cfi_def_cfa_offset 4
 513              		.cfi_offset 14, -4
 514 0002 87B0     		sub	sp, sp, #28
 515              		.cfi_def_cfa_offset 32
 516              		.loc 1 256 0
 517 0004 03A8     		add	r0, sp, #12
 518 0006 0021     		movs	r1, #0
 519 0008 FFF7FEFF 		bl	chSemInit
 520              	.LVL39:
 521              		.loc 1 257 0
 522 000c 03A8     		add	r0, sp, #12
 523 000e 0021     		movs	r1, #0
 524 0010 FFF7FEFF 		bl	chSemReset
 525              	.LVL40:
 526              		.loc 1 258 0
 527 0014 0599     		ldr	r1, [sp, #20]
 528 0016 0029     		cmp	r1, #0
 529 0018 CCBF     		ite	gt
 530 001a 0021     		movgt	r1, #0
 531 001c 0121     		movle	r1, #1
 532 001e 0120     		movs	r0, #1
 533 0020 FFF7FEFF 		bl	_test_assert
 534              	.LVL41:
 535 0024 10B1     		cbz	r0, .L39
 536              	.L33:
 537              		.loc 1 280 0
 538 0026 07B0     		add	sp, sp, #28
 539              		.cfi_remember_state
 540              		.cfi_def_cfa_offset 4
 541              		@ sp needed
 542 0028 5DF804FB 		ldr	pc, [sp], #4
 543              	.L39:
 544              		.cfi_restore_state
 545              		.loc 1 262 0
 546 002c 314B     		ldr	r3, .L42
 547              		.loc 1 261 0
 548 002e 324A     		ldr	r2, .L42+4
 549              		.loc 1 262 0
 550 0030 9B69     		ldr	r3, [r3, #24]
 551              		.loc 1 261 0
 552 0032 1068     		ldr	r0, [r2]
 553 0034 9A68     		ldr	r2, [r3, #8]
 554 0036 314B     		ldr	r3, .L42+8
 555 0038 03A9     		add	r1, sp, #12
 556 003a 0091     		str	r1, [sp]
 557 003c 013A     		subs	r2, r2, #1
 558 003e 4FF4A871 		mov	r1, #336
 559 0042 FFF7FEFF 		bl	chThdCreateStatic
 560              	.LVL42:
 561 0046 2E4B     		ldr	r3, .L42+12
 562 0048 1860     		str	r0, [r3]
 563              		.loc 1 265 0
 564 004a 03A8     		add	r0, sp, #12
 565 004c FFF7FEFF 		bl	chSemWait
ARM GAS  /tmp/ccpSqIf7.s 			page 11


 566              	.LVL43:
 567              		.loc 1 268 0
 568 0050 0599     		ldr	r1, [sp, #20]
 569 0052 0029     		cmp	r1, #0
 570 0054 CCBF     		ite	gt
 571 0056 0021     		movgt	r1, #0
 572 0058 0121     		movle	r1, #1
 573 005a 0220     		movs	r0, #2
 574 005c FFF7FEFF 		bl	_test_assert
 575              	.LVL44:
 576 0060 0028     		cmp	r0, #0
 577 0062 E0D1     		bne	.L33
 578              	.LBB9:
 579              		.loc 1 272 0
 580 0064 2023     		movs	r3, #32
 581              	@ 272 "../../../test/testsem.c" 1
 582 0066 83F31188 		msr     BASEPRI, r3
 583              	@ 0 "" 2
 584              		.thumb
 585              	.LBE9:
 586 006a 059B     		ldr	r3, [sp, #20]
 587 006c 002B     		cmp	r3, #0
 588 006e 38DD     		ble	.L40
 589              	.L35:
 590              		.loc 1 272 0 is_stmt 0 discriminator 3
 591 0070 FFF7FEFF 		bl	chSchRescheduleS
 592              	.LVL45:
 593              	.LBB10:
 594 0074 0023     		movs	r3, #0
 595              	@ 272 "../../../test/testsem.c" 1
 596 0076 83F31188 		msr     BASEPRI, r3
 597              	@ 0 "" 2
 598              		.thumb
 599              	.LBE10:
 600              		.loc 1 273 0 is_stmt 1 discriminator 3
 601 007a 0599     		ldr	r1, [sp, #20]
 602 007c 9942     		cmp	r1, r3
 603 007e D4BF     		ite	le
 604 0080 0021     		movle	r1, #0
 605 0082 0121     		movgt	r1, #1
 606 0084 0320     		movs	r0, #3
 607 0086 FFF7FEFF 		bl	_test_assert
 608              	.LVL46:
 609 008a 0028     		cmp	r0, #0
 610 008c CBD1     		bne	.L33
 611              		.loc 1 274 0
 612 008e 0599     		ldr	r1, [sp, #20]
 613 0090 0420     		movs	r0, #4
 614 0092 A1F10101 		sub	r1, #1
 615 0096 B1FA81F1 		clz	r1, r1
 616 009a 4909     		lsrs	r1, r1, #5
 617 009c FFF7FEFF 		bl	_test_assert
 618              	.LVL47:
 619 00a0 0028     		cmp	r0, #0
 620 00a2 C0D1     		bne	.L33
 621              	.LBB11:
 622              		.loc 1 277 0
ARM GAS  /tmp/ccpSqIf7.s 			page 12


 623 00a4 2023     		movs	r3, #32
 624              	@ 277 "../../../test/testsem.c" 1
 625 00a6 83F31188 		msr     BASEPRI, r3
 626              	@ 0 "" 2
 627              		.thumb
 628              	.LBE11:
 629 00aa 059B     		ldr	r3, [sp, #20]
 630 00ac 002B     		cmp	r3, #0
 631 00ae 1CDD     		ble	.L41
 632              	.L36:
 633              		.loc 1 277 0 is_stmt 0 discriminator 3
 634 00b0 FFF7FEFF 		bl	chSchRescheduleS
 635              	.LVL48:
 636              	.LBB12:
 637 00b4 0023     		movs	r3, #0
 638              	@ 277 "../../../test/testsem.c" 1
 639 00b6 83F31188 		msr     BASEPRI, r3
 640              	@ 0 "" 2
 641              		.thumb
 642              	.LBE12:
 643              		.loc 1 278 0 is_stmt 1 discriminator 3
 644 00ba 0599     		ldr	r1, [sp, #20]
 645 00bc 9942     		cmp	r1, r3
 646 00be D4BF     		ite	le
 647 00c0 0021     		movle	r1, #0
 648 00c2 0121     		movgt	r1, #1
 649 00c4 0320     		movs	r0, #3
 650 00c6 FFF7FEFF 		bl	_test_assert
 651              	.LVL49:
 652 00ca 0028     		cmp	r0, #0
 653 00cc ABD1     		bne	.L33
 654              		.loc 1 279 0
 655 00ce 0599     		ldr	r1, [sp, #20]
 656 00d0 0520     		movs	r0, #5
 657 00d2 A1F10101 		sub	r1, #1
 658 00d6 B1FA81F1 		clz	r1, r1
 659 00da 4909     		lsrs	r1, r1, #5
 660 00dc FFF7FEFF 		bl	_test_assert
 661              	.LVL50:
 662 00e0 A1E7     		b	.L33
 663              	.L40:
 664              		.loc 1 272 0 discriminator 1
 665 00e2 03A8     		add	r0, sp, #12
 666 00e4 FFF7FEFF 		bl	chSemSignalI
 667              	.LVL51:
 668 00e8 C2E7     		b	.L35
 669              	.L41:
 670              		.loc 1 277 0 discriminator 1
 671 00ea 03A8     		add	r0, sp, #12
 672 00ec FFF7FEFF 		bl	chSemSignalI
 673              	.LVL52:
 674 00f0 DEE7     		b	.L36
 675              	.L43:
 676 00f2 00BF     		.align	2
 677              	.L42:
 678 00f4 00000000 		.word	rlist
 679 00f8 00000000 		.word	wa
ARM GAS  /tmp/ccpSqIf7.s 			page 13


 680 00fc 00000000 		.word	thread4
 681 0100 00000000 		.word	threads
 682              		.cfi_endproc
 683              	.LFE17:
 684              		.size	sem4_execute, .-sem4_execute
 685 0104 AFF30080 		.section	.text.sem2_execute,"ax",%progbits
 685      AFF30080 
 685      AFF30080 
 686              		.align	2
 687              		.p2align 4,,15
 688              		.thumb
 689              		.thumb_func
 690              		.type	sem2_execute, %function
 691              	sem2_execute:
 692              	.LFB12:
 693              		.loc 1 145 0
 694              		.cfi_startproc
 695              		@ args = 0, pretend = 0, frame = 0
 696              		@ frame_needed = 0, uses_anonymous_args = 0
 697 0000 70B5     		push	{r4, r5, r6, lr}
 698              		.cfi_def_cfa_offset 16
 699              		.cfi_offset 4, -16
 700              		.cfi_offset 5, -12
 701              		.cfi_offset 6, -8
 702              		.cfi_offset 14, -4
 703              		.loc 1 153 0
 704 0002 4A4C     		ldr	r4, .L52
 705              		.loc 1 145 0
 706 0004 82B0     		sub	sp, sp, #8
 707              		.cfi_def_cfa_offset 24
 708              		.loc 1 153 0
 709 0006 0021     		movs	r1, #0
 710 0008 2046     		mov	r0, r4
 711 000a FFF7FEFF 		bl	chSemWaitTimeout
 712              	.LVL53:
 713              		.loc 1 154 0
 714 000e A0F1FF31 		sub	r1, r0, #-1
 715 0012 0120     		movs	r0, #1
 716              	.LVL54:
 717 0014 B1FA81F1 		clz	r1, r1
 718              	.LVL55:
 719 0018 4909     		lsrs	r1, r1, #5
 720 001a FFF7FEFF 		bl	_test_assert
 721              	.LVL56:
 722 001e 08B1     		cbz	r0, .L51
 723              	.L44:
 724              		.loc 1 183 0
 725 0020 02B0     		add	sp, sp, #8
 726              		.cfi_remember_state
 727              		.cfi_def_cfa_offset 16
 728              		@ sp needed
 729 0022 70BD     		pop	{r4, r5, r6, pc}
 730              	.L51:
 731              		.cfi_restore_state
 732              		.loc 1 155 0
 733 0024 2168     		ldr	r1, [r4]
 734 0026 0220     		movs	r0, #2
ARM GAS  /tmp/ccpSqIf7.s 			page 14


 735 0028 091B     		subs	r1, r1, r4
 736 002a B1FA81F1 		clz	r1, r1
 737 002e 4909     		lsrs	r1, r1, #5
 738 0030 FFF7FEFF 		bl	_test_assert
 739              	.LVL57:
 740 0034 0028     		cmp	r0, #0
 741 0036 F3D1     		bne	.L44
 742              		.loc 1 156 0
 743 0038 A168     		ldr	r1, [r4, #8]
 744 003a B1FA81F1 		clz	r1, r1
 745 003e 0320     		movs	r0, #3
 746 0040 4909     		lsrs	r1, r1, #5
 747 0042 FFF7FEFF 		bl	_test_assert
 748              	.LVL58:
 749 0046 0028     		cmp	r0, #0
 750 0048 EAD1     		bne	.L44
 751              	.LBB15:
 752              	.LBB16:
 753              		.loc 1 161 0
 754 004a 394B     		ldr	r3, .L52+4
 755 004c 394A     		ldr	r2, .L52+8
 756 004e 9B69     		ldr	r3, [r3, #24]
 757 0050 1168     		ldr	r1, [r2]
 758 0052 9A68     		ldr	r2, [r3, #8]
 759 0054 384B     		ldr	r3, .L52+12
 760 0056 0090     		str	r0, [sp]
 761 0058 013A     		subs	r2, r2, #1
 762 005a 0846     		mov	r0, r1
 763 005c 4FF4A871 		mov	r1, #336
 764 0060 FFF7FEFF 		bl	chThdCreateStatic
 765              	.LVL59:
 766 0064 354B     		ldr	r3, .L52+16
 767              		.loc 1 163 0
 768 0066 4FF4FA71 		mov	r1, #500
 769              		.loc 1 161 0
 770 006a 1860     		str	r0, [r3]
 771              		.loc 1 163 0
 772 006c 2046     		mov	r0, r4
 773 006e FFF7FEFF 		bl	chSemWaitTimeout
 774              	.LVL60:
 775 0072 0546     		mov	r5, r0
 776              	.LVL61:
 777              		.loc 1 164 0
 778 0074 FFF7FEFF 		bl	test_wait_threads
 779              	.LVL62:
 780              		.loc 1 165 0
 781 0078 B5FA85F1 		clz	r1, r5
 782 007c 0420     		movs	r0, #4
 783 007e 4909     		lsrs	r1, r1, #5
 784 0080 FFF7FEFF 		bl	_test_assert
 785              	.LVL63:
 786 0084 0028     		cmp	r0, #0
 787 0086 CBD1     		bne	.L44
 788              		.loc 1 166 0
 789 0088 2168     		ldr	r1, [r4]
 790 008a 0520     		movs	r0, #5
 791 008c 091B     		subs	r1, r1, r4
ARM GAS  /tmp/ccpSqIf7.s 			page 15


 792 008e B1FA81F1 		clz	r1, r1
 793 0092 4909     		lsrs	r1, r1, #5
 794 0094 FFF7FEFF 		bl	_test_assert
 795              	.LVL64:
 796 0098 0028     		cmp	r0, #0
 797 009a C1D1     		bne	.L44
 798              		.loc 1 167 0
 799 009c A168     		ldr	r1, [r4, #8]
 800 009e B1FA81F1 		clz	r1, r1
 801 00a2 0620     		movs	r0, #6
 802 00a4 4909     		lsrs	r1, r1, #5
 803 00a6 FFF7FEFF 		bl	_test_assert
 804              	.LVL65:
 805 00aa 0028     		cmp	r0, #0
 806 00ac B8D1     		bne	.L44
 807              		.loc 1 172 0
 808 00ae FFF7FEFF 		bl	test_wait_tick
 809              	.LVL66:
 810              		.loc 1 173 0
 811 00b2 234B     		ldr	r3, .L52+20
 812 00b4 DE68     		ldr	r6, [r3, #12]
 813              	.LVL67:
 814 00b6 4125     		movs	r5, #65
 815              	.LVL68:
 816              	.L48:
 817              		.loc 1 175 0
 818 00b8 2846     		mov	r0, r5
 819 00ba FFF7FEFF 		bl	test_emit_token
 820              	.LVL69:
 821              		.loc 1 176 0
 822 00be 4FF4FA71 		mov	r1, #500
 823 00c2 1A48     		ldr	r0, .L52
 824 00c4 FFF7FEFF 		bl	chSemWaitTimeout
 825              	.LVL70:
 826              		.loc 1 177 0
 827 00c8 A0F1FF31 		sub	r1, r0, #-1
 828 00cc 0720     		movs	r0, #7
 829              	.LVL71:
 830 00ce B1FA81F1 		clz	r1, r1
 831              	.LVL72:
 832 00d2 4909     		lsrs	r1, r1, #5
 833 00d4 FFF7FEFF 		bl	_test_assert
 834              	.LVL73:
 835 00d8 0028     		cmp	r0, #0
 836 00da A1D1     		bne	.L44
 837              		.loc 1 178 0
 838 00dc 2168     		ldr	r1, [r4]
 839 00de 0820     		movs	r0, #8
 840 00e0 091B     		subs	r1, r1, r4
 841 00e2 B1FA81F1 		clz	r1, r1
 842 00e6 4909     		lsrs	r1, r1, #5
 843 00e8 FFF7FEFF 		bl	_test_assert
 844              	.LVL74:
 845 00ec 0028     		cmp	r0, #0
 846 00ee 97D1     		bne	.L44
 847              		.loc 1 179 0
 848 00f0 A168     		ldr	r1, [r4, #8]
ARM GAS  /tmp/ccpSqIf7.s 			page 16


 849 00f2 B1FA81F1 		clz	r1, r1
 850 00f6 0920     		movs	r0, #9
 851 00f8 4909     		lsrs	r1, r1, #5
 852 00fa FFF7FEFF 		bl	_test_assert
 853              	.LVL75:
 854 00fe 0135     		adds	r5, r5, #1
 855 0100 EDB2     		uxtb	r5, r5
 856 0102 0028     		cmp	r0, #0
 857 0104 8CD1     		bne	.L44
 858              		.loc 1 174 0
 859 0106 462D     		cmp	r5, #70
 860 0108 D6D1     		bne	.L48
 861              		.loc 1 181 0
 862 010a 0A20     		movs	r0, #10
 863 010c 0D49     		ldr	r1, .L52+24
 864 010e FFF7FEFF 		bl	_test_assert_sequence
 865              	.LVL76:
 866 0112 0028     		cmp	r0, #0
 867 0114 84D1     		bne	.L44
 868              		.loc 1 182 0
 869 0116 0B20     		movs	r0, #11
 870 0118 06F6C411 		addw	r1, r6, #2500
 871 011c 06F6C912 		addw	r2, r6, #2505
 872              	.LBE16:
 873              	.LBE15:
 874              		.loc 1 183 0
 875 0120 02B0     		add	sp, sp, #8
 876              		.cfi_def_cfa_offset 16
 877              		@ sp needed
 878 0122 BDE87040 		pop	{r4, r5, r6, lr}
 879              		.cfi_restore 14
 880              		.cfi_restore 6
 881              		.cfi_restore 5
 882              		.cfi_restore 4
 883              		.cfi_def_cfa_offset 0
 884              	.LVL77:
 885              	.LBB18:
 886              	.LBB17:
 887              		.loc 1 182 0
 888 0126 FFF7FEBF 		b	_test_assert_time_window
 889              	.LVL78:
 890              	.L53:
 891 012a 00BF     		.align	2
 892              	.L52:
 893 012c 00000000 		.word	.LANCHOR0
 894 0130 00000000 		.word	rlist
 895 0134 00000000 		.word	wa
 896 0138 00000000 		.word	thread2
 897 013c 00000000 		.word	threads
 898 0140 00000000 		.word	vtlist
 899 0144 14000000 		.word	.LC5
 900              	.LBE17:
 901              	.LBE18:
 902              		.cfi_endproc
 903              	.LFE12:
 904              		.size	sem2_execute, .-sem2_execute
 905 0148 AFF30080 		.section	.text.sem3_execute,"ax",%progbits
ARM GAS  /tmp/ccpSqIf7.s 			page 17


 905      AFF30080 
 906              		.align	2
 907              		.p2align 4,,15
 908              		.thumb
 909              		.thumb_func
 910              		.type	sem3_execute, %function
 911              	sem3_execute:
 912              	.LFB15:
 913              		.loc 1 218 0
 914              		.cfi_startproc
 915              		@ args = 0, pretend = 0, frame = 0
 916              		@ frame_needed = 0, uses_anonymous_args = 0
 917 0000 10B5     		push	{r4, lr}
 918              		.cfi_def_cfa_offset 8
 919              		.cfi_offset 4, -8
 920              		.cfi_offset 14, -4
 921              		.loc 1 220 0
 922 0002 204B     		ldr	r3, .L60
 923 0004 204A     		ldr	r2, .L60+4
 924 0006 9B69     		ldr	r3, [r3, #24]
 925 0008 1068     		ldr	r0, [r2]
 926 000a 9A68     		ldr	r2, [r3, #8]
 927 000c 1F4B     		ldr	r3, .L60+8
 928              		.loc 1 221 0
 929 000e 204C     		ldr	r4, .L60+12
 930              		.loc 1 218 0
 931 0010 82B0     		sub	sp, sp, #8
 932              		.cfi_def_cfa_offset 16
 933              		.loc 1 220 0
 934 0012 0021     		movs	r1, #0
 935 0014 0132     		adds	r2, r2, #1
 936 0016 0091     		str	r1, [sp]
 937 0018 4FF4A871 		mov	r1, #336
 938 001c FFF7FEFF 		bl	chThdCreateStatic
 939              	.LVL79:
 940 0020 1C4B     		ldr	r3, .L60+16
 941              		.loc 1 221 0
 942 0022 2146     		mov	r1, r4
 943              		.loc 1 220 0
 944 0024 1860     		str	r0, [r3]
 945              		.loc 1 221 0
 946 0026 2046     		mov	r0, r4
 947 0028 FFF7FEFF 		bl	chSemSignalWait
 948              	.LVL80:
 949              		.loc 1 222 0
 950 002c 2168     		ldr	r1, [r4]
 951 002e 0120     		movs	r0, #1
 952 0030 091B     		subs	r1, r1, r4
 953 0032 B1FA81F1 		clz	r1, r1
 954 0036 4909     		lsrs	r1, r1, #5
 955 0038 FFF7FEFF 		bl	_test_assert
 956              	.LVL81:
 957 003c 08B1     		cbz	r0, .L59
 958              	.L54:
 959              		.loc 1 228 0
 960 003e 02B0     		add	sp, sp, #8
 961              		.cfi_remember_state
ARM GAS  /tmp/ccpSqIf7.s 			page 18


 962              		.cfi_def_cfa_offset 8
 963              		@ sp needed
 964 0040 10BD     		pop	{r4, pc}
 965              	.L59:
 966              		.cfi_restore_state
 967              		.loc 1 223 0
 968 0042 A168     		ldr	r1, [r4, #8]
 969 0044 B1FA81F1 		clz	r1, r1
 970 0048 0220     		movs	r0, #2
 971 004a 4909     		lsrs	r1, r1, #5
 972 004c FFF7FEFF 		bl	_test_assert
 973              	.LVL82:
 974 0050 0028     		cmp	r0, #0
 975 0052 F4D1     		bne	.L54
 976              	.LBB21:
 977              	.LBB22:
 978              		.loc 1 225 0
 979 0054 2146     		mov	r1, r4
 980 0056 2046     		mov	r0, r4
 981 0058 FFF7FEFF 		bl	chSemSignalWait
 982              	.LVL83:
 983              		.loc 1 226 0
 984 005c 2168     		ldr	r1, [r4]
 985 005e 0320     		movs	r0, #3
 986 0060 091B     		subs	r1, r1, r4
 987 0062 B1FA81F1 		clz	r1, r1
 988 0066 4909     		lsrs	r1, r1, #5
 989 0068 FFF7FEFF 		bl	_test_assert
 990              	.LVL84:
 991 006c 0028     		cmp	r0, #0
 992 006e E6D1     		bne	.L54
 993              		.loc 1 227 0
 994 0070 A168     		ldr	r1, [r4, #8]
 995 0072 B1FA81F1 		clz	r1, r1
 996 0076 0420     		movs	r0, #4
 997 0078 4909     		lsrs	r1, r1, #5
 998              	.LBE22:
 999              	.LBE21:
 1000              		.loc 1 228 0
 1001 007a 02B0     		add	sp, sp, #8
 1002              		.cfi_def_cfa_offset 8
 1003              		@ sp needed
 1004 007c BDE81040 		pop	{r4, lr}
 1005              		.cfi_restore 14
 1006              		.cfi_restore 4
 1007              		.cfi_def_cfa_offset 0
 1008              	.LBB24:
 1009              	.LBB23:
 1010              		.loc 1 227 0
 1011 0080 FFF7FEBF 		b	_test_assert
 1012              	.LVL85:
 1013              	.L61:
 1014              		.align	2
 1015              	.L60:
 1016 0084 00000000 		.word	rlist
 1017 0088 00000000 		.word	wa
 1018 008c 00000000 		.word	thread3
ARM GAS  /tmp/ccpSqIf7.s 			page 19


 1019 0090 00000000 		.word	.LANCHOR0
 1020 0094 00000000 		.word	threads
 1021              	.LBE23:
 1022              	.LBE24:
 1023              		.cfi_endproc
 1024              	.LFE15:
 1025              		.size	sem3_execute, .-sem3_execute
 1026              		.global	patternsem
 1027              		.global	testsem4
 1028              		.global	testsem3
 1029              		.global	testsem2
 1030              		.global	testsem1
 1031 0098 AFF30080 		.section	.rodata.testsem1,"a",%progbits
 1031      AFF30080 
 1032              		.align	2
 1033              		.type	testsem1, %object
 1034              		.size	testsem1, 16
 1035              	testsem1:
 1036 0000 74000000 		.word	.LC9
 1037 0004 00000000 		.word	sem1_setup
 1038 0008 00000000 		.word	0
 1039 000c 00000000 		.word	sem1_execute
 1040              		.section	.rodata.testsem2,"a",%progbits
 1041              		.align	2
 1042              		.type	testsem2, %object
 1043              		.size	testsem2, 16
 1044              	testsem2:
 1045 0000 60000000 		.word	.LC8
 1046 0004 00000000 		.word	sem2_setup
 1047 0008 00000000 		.word	0
 1048 000c 00000000 		.word	sem2_execute
 1049              		.section	.rodata.testsem3,"a",%progbits
 1050              		.align	2
 1051              		.type	testsem3, %object
 1052              		.size	testsem3, 16
 1053              	testsem3:
 1054 0000 40000000 		.word	.LC7
 1055 0004 00000000 		.word	sem3_setup
 1056 0008 00000000 		.word	0
 1057 000c 00000000 		.word	sem3_execute
 1058              		.section	.rodata.testsem4,"a",%progbits
 1059              		.align	2
 1060              		.type	testsem4, %object
 1061              		.size	testsem4, 16
 1062              	testsem4:
 1063 0000 1C000000 		.word	.LC6
 1064 0004 00000000 		.word	0
 1065 0008 00000000 		.word	0
 1066 000c 00000000 		.word	sem4_execute
 1067              		.section	.data.sem1,"aw",%progbits
 1068              		.align	2
 1069              		.set	.LANCHOR0,. + 0
 1070              		.type	sem1, %object
 1071              		.size	sem1, 12
 1072              	sem1:
 1073 0000 00000000 		.word	sem1
 1074 0004 00000000 		.word	sem1
ARM GAS  /tmp/ccpSqIf7.s 			page 20


 1075 0008 00000000 		.word	0
 1076              		.section	.rodata.patternsem,"a",%progbits
 1077              		.align	2
 1078              		.type	patternsem, %object
 1079              		.size	patternsem, 20
 1080              	patternsem:
 1081 0000 00000000 		.word	testsem1
 1082 0004 00000000 		.word	testsem2
 1083 0008 00000000 		.word	testsem3
 1084 000c 00000000 		.word	testsem4
 1085 0010 00000000 		.word	0
 1086              		.section	.rodata.str1.4,"aMS",%progbits,1
 1087              		.align	2
 1088              	.LC0:
 1089 0000 4100     		.ascii	"A\000"
 1090 0002 0000     		.space	2
 1091              	.LC1:
 1092 0004 4200     		.ascii	"B\000"
 1093 0006 0000     		.space	2
 1094              	.LC2:
 1095 0008 4300     		.ascii	"C\000"
 1096 000a 0000     		.space	2
 1097              	.LC3:
 1098 000c 4400     		.ascii	"D\000"
 1099 000e 0000     		.space	2
 1100              	.LC4:
 1101 0010 4500     		.ascii	"E\000"
 1102 0012 0000     		.space	2
 1103              	.LC5:
 1104 0014 41424344 		.ascii	"ABCDE\000"
 1104      4500
 1105 001a 0000     		.space	2
 1106              	.LC6:
 1107 001c 42696E61 		.ascii	"Binary Semaphores, functionality\000"
 1107      72792053 
 1107      656D6170 
 1107      686F7265 
 1107      732C2066 
 1108 003d 000000   		.space	3
 1109              	.LC7:
 1110 0040 53656D61 		.ascii	"Semaphores, atomic signal-wait\000"
 1110      70686F72 
 1110      65732C20 
 1110      61746F6D 
 1110      69632073 
 1111 005f 00       		.space	1
 1112              	.LC8:
 1113 0060 53656D61 		.ascii	"Semaphores, timeout\000"
 1113      70686F72 
 1113      65732C20 
 1113      74696D65 
 1113      6F757400 
 1114              	.LC9:
 1115 0074 53656D61 		.ascii	"Semaphores, enqueuing\000"
 1115      70686F72 
 1115      65732C20 
 1115      656E7175 
ARM GAS  /tmp/ccpSqIf7.s 			page 21


 1115      6575696E 
 1116 008a 0000     		.text
 1117              	.Letext0:
 1118              		.file 2 "/usr/lib/gcc/arm-none-eabi/4.9.2/include/stddef.h"
 1119              		.file 3 "/usr/arm-none-eabi/include/machine/_default_types.h"
 1120              		.file 4 "/usr/arm-none-eabi/include/stdint.h"
 1121              		.file 5 "../../../os/ports/GCC/ARMCMx/chtypes.h"
 1122              		.file 6 "../../../os/kernel/include/chlists.h"
 1123              		.file 7 "../../../os/kernel/include/chthreads.h"
 1124              		.file 8 "../../../os/ports/GCC/ARMCMx/chcore_v7m.h"
 1125              		.file 9 "../../../os/kernel/include/chvt.h"
 1126              		.file 10 "../../../os/kernel/include/chschd.h"
 1127              		.file 11 "../../../os/kernel/include/chsem.h"
 1128              		.file 12 "../../../os/kernel/include/chbsem.h"
 1129              		.file 13 "../../../os/kernel/include/chmtx.h"
 1130              		.file 14 "../../../test/test.h"