ARM GAS  /tmp/ccexArGk.s 			page 1


   1              		.syntax unified
   2              		.cpu cortex-m4
   3              		.fpu softvfp
   4              		.eabi_attribute 20, 1
   5              		.eabi_attribute 21, 1
   6              		.eabi_attribute 23, 3
   7              		.eabi_attribute 24, 1
   8              		.eabi_attribute 25, 1
   9              		.eabi_attribute 26, 1
  10              		.eabi_attribute 30, 2
  11              		.eabi_attribute 34, 1
  12              		.eabi_attribute 18, 4
  13              		.thumb
  14              		.file	"testmtx.c"
  15              		.text
  16              	.Ltext0:
  17              		.cfi_sections	.debug_frame
  18              		.section	.text.mtx1_execute,"ax",%progbits
  19              		.align	2
  20              		.p2align 4,,15
  21              		.thumb
  22              		.thumb_func
  23              		.type	mtx1_execute, %function
  24              	mtx1_execute:
  25              	.LFB9:
  26              		.file 1 "../../../test/testmtx.c"
  27              		.loc 1 97 0
  28              		.cfi_startproc
  29              		@ args = 0, pretend = 0, frame = 0
  30              		@ frame_needed = 0, uses_anonymous_args = 0
  31 0000 F0B5     		push	{r4, r5, r6, r7, lr}
  32              		.cfi_def_cfa_offset 20
  33              		.cfi_offset 4, -20
  34              		.cfi_offset 5, -16
  35              		.cfi_offset 6, -12
  36              		.cfi_offset 7, -8
  37              		.cfi_offset 14, -4
  38              		.loc 1 99 0
  39 0002 2B4F     		ldr	r7, .L6
  40              		.loc 1 101 0
  41 0004 2B4E     		ldr	r6, .L6+4
  42              		.loc 1 99 0
  43 0006 BB69     		ldr	r3, [r7, #24]
  44              		.loc 1 100 0
  45 0008 2B48     		ldr	r0, .L6+8
  46              		.loc 1 99 0
  47 000a 9C68     		ldr	r4, [r3, #8]
  48              	.LVL0:
  49              		.loc 1 101 0
  50 000c 2B4D     		ldr	r5, .L6+12
  51              		.loc 1 97 0
  52 000e 83B0     		sub	sp, sp, #12
  53              		.cfi_def_cfa_offset 32
  54              		.loc 1 100 0
  55 0010 FFF7FEFF 		bl	chMtxLock
  56              	.LVL1:
  57              		.loc 1 101 0
ARM GAS  /tmp/ccexArGk.s 			page 2


  58 0014 2A4B     		ldr	r3, .L6+16
  59 0016 0093     		str	r3, [sp]
  60 0018 621C     		adds	r2, r4, #1
  61 001a 4FF4A871 		mov	r1, #336
  62 001e 294B     		ldr	r3, .L6+20
  63 0020 3068     		ldr	r0, [r6]
  64 0022 FFF7FEFF 		bl	chThdCreateStatic
  65              	.LVL2:
  66              		.loc 1 102 0
  67 0026 7168     		ldr	r1, [r6, #4]
  68 0028 274B     		ldr	r3, .L6+24
  69              		.loc 1 101 0
  70 002a 2860     		str	r0, [r5]
  71              		.loc 1 102 0
  72 002c A21C     		adds	r2, r4, #2
  73 002e 0846     		mov	r0, r1
  74 0030 0093     		str	r3, [sp]
  75 0032 4FF4A871 		mov	r1, #336
  76 0036 234B     		ldr	r3, .L6+20
  77 0038 FFF7FEFF 		bl	chThdCreateStatic
  78              	.LVL3:
  79              		.loc 1 103 0
  80 003c B168     		ldr	r1, [r6, #8]
  81 003e 234B     		ldr	r3, .L6+28
  82              		.loc 1 102 0
  83 0040 6860     		str	r0, [r5, #4]
  84              		.loc 1 103 0
  85 0042 E21C     		adds	r2, r4, #3
  86 0044 0846     		mov	r0, r1
  87 0046 0093     		str	r3, [sp]
  88 0048 4FF4A871 		mov	r1, #336
  89 004c 1D4B     		ldr	r3, .L6+20
  90 004e FFF7FEFF 		bl	chThdCreateStatic
  91              	.LVL4:
  92              		.loc 1 104 0
  93 0052 F168     		ldr	r1, [r6, #12]
  94 0054 1E4B     		ldr	r3, .L6+32
  95              		.loc 1 103 0
  96 0056 A860     		str	r0, [r5, #8]
  97              		.loc 1 104 0
  98 0058 221D     		adds	r2, r4, #4
  99 005a 0846     		mov	r0, r1
 100 005c 0093     		str	r3, [sp]
 101 005e 4FF4A871 		mov	r1, #336
 102 0062 184B     		ldr	r3, .L6+20
 103 0064 FFF7FEFF 		bl	chThdCreateStatic
 104              	.LVL5:
 105              		.loc 1 105 0
 106 0068 3169     		ldr	r1, [r6, #16]
 107 006a 1A4B     		ldr	r3, .L6+36
 108              		.loc 1 104 0
 109 006c E860     		str	r0, [r5, #12]
 110              		.loc 1 105 0
 111 006e 621D     		adds	r2, r4, #5
 112 0070 0846     		mov	r0, r1
 113 0072 0093     		str	r3, [sp]
 114 0074 4FF4A871 		mov	r1, #336
ARM GAS  /tmp/ccexArGk.s 			page 3


 115 0078 124B     		ldr	r3, .L6+20
 116 007a FFF7FEFF 		bl	chThdCreateStatic
 117              	.LVL6:
 118 007e 2861     		str	r0, [r5, #16]
 119              		.loc 1 106 0
 120 0080 FFF7FEFF 		bl	chMtxUnlock
 121              	.LVL7:
 122              		.loc 1 107 0
 123 0084 FFF7FEFF 		bl	test_wait_threads
 124              	.LVL8:
 125              		.loc 1 108 0
 126 0088 BB69     		ldr	r3, [r7, #24]
 127 008a 9968     		ldr	r1, [r3, #8]
 128 008c 0120     		movs	r0, #1
 129 008e 091B     		subs	r1, r1, r4
 130 0090 B1FA81F1 		clz	r1, r1
 131 0094 4909     		lsrs	r1, r1, #5
 132 0096 FFF7FEFF 		bl	_test_assert
 133              	.LVL9:
 134 009a 08B1     		cbz	r0, .L5
 135              		.loc 1 110 0
 136 009c 03B0     		add	sp, sp, #12
 137              		.cfi_remember_state
 138              		.cfi_def_cfa_offset 20
 139              		@ sp needed
 140 009e F0BD     		pop	{r4, r5, r6, r7, pc}
 141              	.LVL10:
 142              	.L5:
 143              		.cfi_restore_state
 144              		.loc 1 109 0
 145 00a0 0D49     		ldr	r1, .L6+40
 146 00a2 0220     		movs	r0, #2
 147              		.loc 1 110 0
 148 00a4 03B0     		add	sp, sp, #12
 149              		.cfi_def_cfa_offset 20
 150              		@ sp needed
 151 00a6 BDE8F040 		pop	{r4, r5, r6, r7, lr}
 152              		.cfi_restore 14
 153              		.cfi_restore 7
 154              		.cfi_restore 6
 155              		.cfi_restore 5
 156              		.cfi_restore 4
 157              		.cfi_def_cfa_offset 0
 158              	.LVL11:
 159              		.loc 1 109 0
 160 00aa FFF7FEBF 		b	_test_assert_sequence
 161              	.LVL12:
 162              	.L7:
 163 00ae 00BF     		.align	2
 164              	.L6:
 165 00b0 00000000 		.word	rlist
 166 00b4 00000000 		.word	wa
 167 00b8 00000000 		.word	.LANCHOR0
 168 00bc 00000000 		.word	threads
 169 00c0 00000000 		.word	.LC0
 170 00c4 00000000 		.word	thread1
 171 00c8 04000000 		.word	.LC1
ARM GAS  /tmp/ccexArGk.s 			page 4


 172 00cc 08000000 		.word	.LC2
 173 00d0 0C000000 		.word	.LC3
 174 00d4 10000000 		.word	.LC4
 175 00d8 14000000 		.word	.LC5
 176              		.cfi_endproc
 177              	.LFE9:
 178              		.size	mtx1_execute, .-mtx1_execute
 179 00dc AFF30080 		.section	.text.thread1,"ax",%progbits
 180              		.align	2
 181              		.p2align 4,,15
 182              		.thumb
 183              		.thumb_func
 184              		.type	thread1, %function
 185              	thread1:
 186              	.LFB8:
 187              		.loc 1 89 0
 188              		.cfi_startproc
 189              		@ args = 0, pretend = 0, frame = 0
 190              		@ frame_needed = 0, uses_anonymous_args = 0
 191              	.LVL13:
 192 0000 10B5     		push	{r4, lr}
 193              		.cfi_def_cfa_offset 8
 194              		.cfi_offset 4, -8
 195              		.cfi_offset 14, -4
 196              		.loc 1 89 0
 197 0002 0446     		mov	r4, r0
 198              		.loc 1 91 0
 199 0004 0448     		ldr	r0, .L10
 200              	.LVL14:
 201 0006 FFF7FEFF 		bl	chMtxLock
 202              	.LVL15:
 203              		.loc 1 92 0
 204 000a 2078     		ldrb	r0, [r4]	@ zero_extendqisi2
 205 000c FFF7FEFF 		bl	test_emit_token
 206              	.LVL16:
 207              		.loc 1 93 0
 208 0010 FFF7FEFF 		bl	chMtxUnlock
 209              	.LVL17:
 210              		.loc 1 95 0
 211 0014 0020     		movs	r0, #0
 212 0016 10BD     		pop	{r4, pc}
 213              	.LVL18:
 214              	.L11:
 215              		.align	2
 216              	.L10:
 217 0018 00000000 		.word	.LANCHOR0
 218              		.cfi_endproc
 219              	.LFE8:
 220              		.size	thread1, .-thread1
 221 001c AFF30080 		.section	.text.thread12,"ax",%progbits
 222              		.align	2
 223              		.p2align 4,,15
 224              		.thumb
 225              		.thumb_func
 226              		.type	thread12, %function
 227              	thread12:
 228              	.LFB35:
ARM GAS  /tmp/ccexArGk.s 			page 5


 229              		.loc 1 588 0
 230              		.cfi_startproc
 231              		@ args = 0, pretend = 0, frame = 0
 232              		@ frame_needed = 0, uses_anonymous_args = 0
 233              	.LVL19:
 234 0000 10B5     		push	{r4, lr}
 235              		.cfi_def_cfa_offset 8
 236              		.cfi_offset 4, -8
 237              		.cfi_offset 14, -4
 238              		.loc 1 588 0
 239 0002 0446     		mov	r4, r0
 240              		.loc 1 590 0
 241 0004 0448     		ldr	r0, .L14
 242              	.LVL20:
 243 0006 FFF7FEFF 		bl	chMtxLock
 244              	.LVL21:
 245              		.loc 1 591 0
 246 000a 2078     		ldrb	r0, [r4]	@ zero_extendqisi2
 247 000c FFF7FEFF 		bl	test_emit_token
 248              	.LVL22:
 249              		.loc 1 592 0
 250 0010 FFF7FEFF 		bl	chMtxUnlock
 251              	.LVL23:
 252              		.loc 1 594 0
 253 0014 0020     		movs	r0, #0
 254 0016 10BD     		pop	{r4, pc}
 255              	.LVL24:
 256              	.L15:
 257              		.align	2
 258              	.L14:
 259 0018 00000000 		.word	.LANCHOR1
 260              		.cfi_endproc
 261              	.LFE35:
 262              		.size	thread12, .-thread12
 263 001c AFF30080 		.section	.text.mtx1_setup,"ax",%progbits
 264              		.align	2
 265              		.p2align 4,,15
 266              		.thumb
 267              		.thumb_func
 268              		.type	mtx1_setup, %function
 269              	mtx1_setup:
 270              	.LFB7:
 271              		.loc 1 84 0
 272              		.cfi_startproc
 273              		@ args = 0, pretend = 0, frame = 0
 274              		@ frame_needed = 0, uses_anonymous_args = 0
 275              		@ link register save eliminated.
 276              		.loc 1 86 0
 277 0000 0148     		ldr	r0, .L17
 278 0002 FFF7FEBF 		b	chMtxInit
 279              	.LVL25:
 280              	.L18:
 281 0006 00BF     		.align	2
 282              	.L17:
 283 0008 00000000 		.word	.LANCHOR0
 284              		.cfi_endproc
 285              	.LFE7:
ARM GAS  /tmp/ccexArGk.s 			page 6


 286              		.size	mtx1_setup, .-mtx1_setup
 287 000c AFF30080 		.section	.text.mtx2_setup,"ax",%progbits
 288              		.align	2
 289              		.p2align 4,,15
 290              		.thumb
 291              		.thumb_func
 292              		.type	mtx2_setup, %function
 293              	mtx2_setup:
 294              	.LFB10:
 295              		.loc 1 151 0
 296              		.cfi_startproc
 297              		@ args = 0, pretend = 0, frame = 0
 298              		@ frame_needed = 0, uses_anonymous_args = 0
 299              		@ link register save eliminated.
 300              		.loc 1 153 0
 301 0000 0148     		ldr	r0, .L20
 302 0002 FFF7FEBF 		b	chMtxInit
 303              	.LVL26:
 304              	.L21:
 305 0006 00BF     		.align	2
 306              	.L20:
 307 0008 00000000 		.word	.LANCHOR0
 308              		.cfi_endproc
 309              	.LFE10:
 310              		.size	mtx2_setup, .-mtx2_setup
 311 000c AFF30080 		.section	.text.mtx3_setup,"ax",%progbits
 312              		.align	2
 313              		.p2align 4,,15
 314              		.thumb
 315              		.thumb_func
 316              		.type	mtx3_setup, %function
 317              	mtx3_setup:
 318              	.LFB15:
 319              		.loc 1 241 0
 320              		.cfi_startproc
 321              		@ args = 0, pretend = 0, frame = 0
 322              		@ frame_needed = 0, uses_anonymous_args = 0
 323 0000 08B5     		push	{r3, lr}
 324              		.cfi_def_cfa_offset 8
 325              		.cfi_offset 3, -8
 326              		.cfi_offset 14, -4
 327              		.loc 1 243 0
 328 0002 0448     		ldr	r0, .L24
 329 0004 FFF7FEFF 		bl	chMtxInit
 330              	.LVL27:
 331              		.loc 1 244 0
 332 0008 0348     		ldr	r0, .L24+4
 333              		.loc 1 245 0
 334 000a BDE80840 		pop	{r3, lr}
 335              		.cfi_restore 14
 336              		.cfi_restore 3
 337              		.cfi_def_cfa_offset 0
 338              		.loc 1 244 0
 339 000e FFF7FEBF 		b	chMtxInit
 340              	.LVL28:
 341              	.L25:
 342 0012 00BF     		.align	2
ARM GAS  /tmp/ccexArGk.s 			page 7


 343              	.L24:
 344 0014 00000000 		.word	.LANCHOR0
 345 0018 00000000 		.word	.LANCHOR1
 346              		.cfi_endproc
 347              	.LFE15:
 348              		.size	mtx3_setup, .-mtx3_setup
 349 001c AFF30080 		.section	.text.mtx4_setup,"ax",%progbits
 350              		.align	2
 351              		.p2align 4,,15
 352              		.thumb
 353              		.thumb_func
 354              		.type	mtx4_setup, %function
 355              	mtx4_setup:
 356              	.LFB22:
 357              		.loc 1 341 0
 358              		.cfi_startproc
 359              		@ args = 0, pretend = 0, frame = 0
 360              		@ frame_needed = 0, uses_anonymous_args = 0
 361 0000 08B5     		push	{r3, lr}
 362              		.cfi_def_cfa_offset 8
 363              		.cfi_offset 3, -8
 364              		.cfi_offset 14, -4
 365              		.loc 1 343 0
 366 0002 0448     		ldr	r0, .L28
 367 0004 FFF7FEFF 		bl	chMtxInit
 368              	.LVL29:
 369              		.loc 1 344 0
 370 0008 0348     		ldr	r0, .L28+4
 371              		.loc 1 345 0
 372 000a BDE80840 		pop	{r3, lr}
 373              		.cfi_restore 14
 374              		.cfi_restore 3
 375              		.cfi_def_cfa_offset 0
 376              		.loc 1 344 0
 377 000e FFF7FEBF 		b	chMtxInit
 378              	.LVL30:
 379              	.L29:
 380 0012 00BF     		.align	2
 381              	.L28:
 382 0014 00000000 		.word	.LANCHOR0
 383 0018 00000000 		.word	.LANCHOR1
 384              		.cfi_endproc
 385              	.LFE22:
 386              		.size	mtx4_setup, .-mtx4_setup
 387 001c AFF30080 		.section	.text.mtx5_setup,"ax",%progbits
 388              		.align	2
 389              		.p2align 4,,15
 390              		.thumb
 391              		.thumb_func
 392              		.type	mtx5_setup, %function
 393              	mtx5_setup:
 394              	.LFB26:
 395              		.loc 1 429 0
 396              		.cfi_startproc
 397              		@ args = 0, pretend = 0, frame = 0
 398              		@ frame_needed = 0, uses_anonymous_args = 0
 399              		@ link register save eliminated.
ARM GAS  /tmp/ccexArGk.s 			page 8


 400              		.loc 1 431 0
 401 0000 0148     		ldr	r0, .L31
 402 0002 FFF7FEBF 		b	chMtxInit
 403              	.LVL31:
 404              	.L32:
 405 0006 00BF     		.align	2
 406              	.L31:
 407 0008 00000000 		.word	.LANCHOR0
 408              		.cfi_endproc
 409              	.LFE26:
 410              		.size	mtx5_setup, .-mtx5_setup
 411 000c AFF30080 		.section	.text.mtx2_execute,"ax",%progbits
 412              		.align	2
 413              		.p2align 4,,15
 414              		.thumb
 415              		.thumb_func
 416              		.type	mtx2_execute, %function
 417              	mtx2_execute:
 418              	.LFB14:
 419              		.loc 1 190 0
 420              		.cfi_startproc
 421              		@ args = 0, pretend = 0, frame = 0
 422              		@ frame_needed = 0, uses_anonymous_args = 0
 423 0000 2DE9F041 		push	{r4, r5, r6, r7, r8, lr}
 424              		.cfi_def_cfa_offset 24
 425              		.cfi_offset 4, -24
 426              		.cfi_offset 5, -20
 427              		.cfi_offset 6, -16
 428              		.cfi_offset 7, -12
 429              		.cfi_offset 8, -8
 430              		.cfi_offset 14, -4
 431              		.loc 1 195 0
 432 0004 204F     		ldr	r7, .L37
 433 0006 214E     		ldr	r6, .L37+4
 434 0008 214C     		ldr	r4, .L37+8
 435              		.loc 1 190 0
 436 000a 82B0     		sub	sp, sp, #8
 437              		.cfi_def_cfa_offset 32
 438              		.loc 1 193 0
 439 000c FFF7FEFF 		bl	test_wait_tick
 440              	.LVL32:
 441              		.loc 1 195 0
 442 0010 BB69     		ldr	r3, [r7, #24]
 443              		.loc 1 194 0
 444 0012 2049     		ldr	r1, .L37+12
 445              		.loc 1 195 0
 446 0014 9A68     		ldr	r2, [r3, #8]
 447              		.loc 1 194 0
 448 0016 D1F80C80 		ldr	r8, [r1, #12]
 449              	.LVL33:
 450              		.loc 1 195 0
 451 001a 1F4B     		ldr	r3, .L37+16
 452 001c 3068     		ldr	r0, [r6]
 453 001e 0025     		movs	r5, #0
 454 0020 013A     		subs	r2, r2, #1
 455 0022 4FF4A871 		mov	r1, #336
 456 0026 0095     		str	r5, [sp]
ARM GAS  /tmp/ccexArGk.s 			page 9


 457 0028 FFF7FEFF 		bl	chThdCreateStatic
 458              	.LVL34:
 459              		.loc 1 196 0
 460 002c BA69     		ldr	r2, [r7, #24]
 461 002e 7368     		ldr	r3, [r6, #4]
 462 0030 9268     		ldr	r2, [r2, #8]
 463              		.loc 1 195 0
 464 0032 2060     		str	r0, [r4]
 465              		.loc 1 196 0
 466 0034 023A     		subs	r2, r2, #2
 467 0036 1846     		mov	r0, r3
 468 0038 4FF4A871 		mov	r1, #336
 469 003c 174B     		ldr	r3, .L37+20
 470 003e 0095     		str	r5, [sp]
 471 0040 FFF7FEFF 		bl	chThdCreateStatic
 472              	.LVL35:
 473              		.loc 1 197 0
 474 0044 B969     		ldr	r1, [r7, #24]
 475 0046 B368     		ldr	r3, [r6, #8]
 476 0048 8A68     		ldr	r2, [r1, #8]
 477              		.loc 1 196 0
 478 004a 6060     		str	r0, [r4, #4]
 479              		.loc 1 197 0
 480 004c 4FF4A871 		mov	r1, #336
 481 0050 033A     		subs	r2, r2, #3
 482 0052 1846     		mov	r0, r3
 483 0054 0095     		str	r5, [sp]
 484 0056 124B     		ldr	r3, .L37+24
 485 0058 FFF7FEFF 		bl	chThdCreateStatic
 486              	.LVL36:
 487 005c A060     		str	r0, [r4, #8]
 488              		.loc 1 198 0
 489 005e FFF7FEFF 		bl	test_wait_threads
 490              	.LVL37:
 491              		.loc 1 199 0
 492 0062 0120     		movs	r0, #1
 493 0064 0F49     		ldr	r1, .L37+28
 494 0066 FFF7FEFF 		bl	_test_assert_sequence
 495              	.LVL38:
 496 006a 10B1     		cbz	r0, .L36
 497              		.loc 1 201 0
 498 006c 02B0     		add	sp, sp, #8
 499              		.cfi_remember_state
 500              		.cfi_def_cfa_offset 24
 501              		@ sp needed
 502 006e BDE8F081 		pop	{r4, r5, r6, r7, r8, pc}
 503              	.LVL39:
 504              	.L36:
 505              		.cfi_restore_state
 506              		.loc 1 200 0
 507 0072 0220     		movs	r0, #2
 508 0074 08F16401 		add	r1, r8, #100
 509 0078 08F16902 		add	r2, r8, #105
 510              		.loc 1 201 0
 511 007c 02B0     		add	sp, sp, #8
 512              		.cfi_def_cfa_offset 24
 513              		@ sp needed
ARM GAS  /tmp/ccexArGk.s 			page 10


 514 007e BDE8F041 		pop	{r4, r5, r6, r7, r8, lr}
 515              		.cfi_restore 14
 516              		.cfi_restore 8
 517              		.cfi_restore 7
 518              		.cfi_restore 6
 519              		.cfi_restore 5
 520              		.cfi_restore 4
 521              		.cfi_def_cfa_offset 0
 522              	.LVL40:
 523              		.loc 1 200 0
 524 0082 FFF7FEBF 		b	_test_assert_time_window
 525              	.LVL41:
 526              	.L38:
 527 0086 00BF     		.align	2
 528              	.L37:
 529 0088 00000000 		.word	rlist
 530 008c 00000000 		.word	wa
 531 0090 00000000 		.word	threads
 532 0094 00000000 		.word	vtlist
 533 0098 00000000 		.word	thread2H
 534 009c 00000000 		.word	thread2M
 535 00a0 00000000 		.word	thread2L
 536 00a4 1C000000 		.word	.LC6
 537              		.cfi_endproc
 538              	.LFE14:
 539              		.size	mtx2_execute, .-mtx2_execute
 540 00a8 AFF30080 		.section	.text.mtx3_execute,"ax",%progbits
 540      AFF30080 
 541              		.align	2
 542              		.p2align 4,,15
 543              		.thumb
 544              		.thumb_func
 545              		.type	mtx3_execute, %function
 546              	mtx3_execute:
 547              	.LFB21:
 548              		.loc 1 308 0
 549              		.cfi_startproc
 550              		@ args = 0, pretend = 0, frame = 0
 551              		@ frame_needed = 0, uses_anonymous_args = 0
 552 0000 2DE9F041 		push	{r4, r5, r6, r7, r8, lr}
 553              		.cfi_def_cfa_offset 24
 554              		.cfi_offset 4, -24
 555              		.cfi_offset 5, -20
 556              		.cfi_offset 6, -16
 557              		.cfi_offset 7, -12
 558              		.cfi_offset 8, -8
 559              		.cfi_offset 14, -4
 560              		.loc 1 313 0
 561 0004 2C4F     		ldr	r7, .L43
 562 0006 2D4E     		ldr	r6, .L43+4
 563 0008 2D4C     		ldr	r4, .L43+8
 564              		.loc 1 308 0
 565 000a 82B0     		sub	sp, sp, #8
 566              		.cfi_def_cfa_offset 32
 567              		.loc 1 311 0
 568 000c FFF7FEFF 		bl	test_wait_tick
 569              	.LVL42:
ARM GAS  /tmp/ccexArGk.s 			page 11


 570              		.loc 1 313 0
 571 0010 BB69     		ldr	r3, [r7, #24]
 572              		.loc 1 312 0
 573 0012 2C49     		ldr	r1, .L43+12
 574              		.loc 1 313 0
 575 0014 9A68     		ldr	r2, [r3, #8]
 576              		.loc 1 312 0
 577 0016 D1F80C80 		ldr	r8, [r1, #12]
 578              	.LVL43:
 579              		.loc 1 313 0
 580 001a 2B4B     		ldr	r3, .L43+16
 581 001c 3068     		ldr	r0, [r6]
 582 001e 0025     		movs	r5, #0
 583 0020 053A     		subs	r2, r2, #5
 584 0022 4FF4A871 		mov	r1, #336
 585 0026 0095     		str	r5, [sp]
 586 0028 FFF7FEFF 		bl	chThdCreateStatic
 587              	.LVL44:
 588              		.loc 1 314 0
 589 002c BA69     		ldr	r2, [r7, #24]
 590 002e 7368     		ldr	r3, [r6, #4]
 591 0030 9268     		ldr	r2, [r2, #8]
 592              		.loc 1 313 0
 593 0032 2060     		str	r0, [r4]
 594              		.loc 1 314 0
 595 0034 043A     		subs	r2, r2, #4
 596 0036 1846     		mov	r0, r3
 597 0038 4FF4A871 		mov	r1, #336
 598 003c 234B     		ldr	r3, .L43+20
 599 003e 0095     		str	r5, [sp]
 600 0040 FFF7FEFF 		bl	chThdCreateStatic
 601              	.LVL45:
 602              		.loc 1 315 0
 603 0044 BA69     		ldr	r2, [r7, #24]
 604 0046 B368     		ldr	r3, [r6, #8]
 605 0048 9268     		ldr	r2, [r2, #8]
 606              		.loc 1 314 0
 607 004a 6060     		str	r0, [r4, #4]
 608              		.loc 1 315 0
 609 004c 033A     		subs	r2, r2, #3
 610 004e 1846     		mov	r0, r3
 611 0050 4FF4A871 		mov	r1, #336
 612 0054 1E4B     		ldr	r3, .L43+24
 613 0056 0095     		str	r5, [sp]
 614 0058 FFF7FEFF 		bl	chThdCreateStatic
 615              	.LVL46:
 616              		.loc 1 316 0
 617 005c BA69     		ldr	r2, [r7, #24]
 618 005e F368     		ldr	r3, [r6, #12]
 619 0060 9268     		ldr	r2, [r2, #8]
 620              		.loc 1 315 0
 621 0062 A060     		str	r0, [r4, #8]
 622              		.loc 1 316 0
 623 0064 023A     		subs	r2, r2, #2
 624 0066 1846     		mov	r0, r3
 625 0068 4FF4A871 		mov	r1, #336
 626 006c 194B     		ldr	r3, .L43+28
ARM GAS  /tmp/ccexArGk.s 			page 12


 627 006e 0095     		str	r5, [sp]
 628 0070 FFF7FEFF 		bl	chThdCreateStatic
 629              	.LVL47:
 630              		.loc 1 317 0
 631 0074 B969     		ldr	r1, [r7, #24]
 632 0076 3369     		ldr	r3, [r6, #16]
 633 0078 8A68     		ldr	r2, [r1, #8]
 634              		.loc 1 316 0
 635 007a E060     		str	r0, [r4, #12]
 636              		.loc 1 317 0
 637 007c 4FF4A871 		mov	r1, #336
 638 0080 013A     		subs	r2, r2, #1
 639 0082 1846     		mov	r0, r3
 640 0084 0095     		str	r5, [sp]
 641 0086 144B     		ldr	r3, .L43+32
 642 0088 FFF7FEFF 		bl	chThdCreateStatic
 643              	.LVL48:
 644 008c 2061     		str	r0, [r4, #16]
 645              		.loc 1 318 0
 646 008e FFF7FEFF 		bl	test_wait_threads
 647              	.LVL49:
 648              		.loc 1 319 0
 649 0092 0120     		movs	r0, #1
 650 0094 1149     		ldr	r1, .L43+36
 651 0096 FFF7FEFF 		bl	_test_assert_sequence
 652              	.LVL50:
 653 009a 10B1     		cbz	r0, .L42
 654              		.loc 1 321 0
 655 009c 02B0     		add	sp, sp, #8
 656              		.cfi_remember_state
 657              		.cfi_def_cfa_offset 24
 658              		@ sp needed
 659 009e BDE8F081 		pop	{r4, r5, r6, r7, r8, pc}
 660              	.LVL51:
 661              	.L42:
 662              		.cfi_restore_state
 663              		.loc 1 320 0
 664 00a2 0220     		movs	r0, #2
 665 00a4 08F16E01 		add	r1, r8, #110
 666 00a8 08F17302 		add	r2, r8, #115
 667              		.loc 1 321 0
 668 00ac 02B0     		add	sp, sp, #8
 669              		.cfi_def_cfa_offset 24
 670              		@ sp needed
 671 00ae BDE8F041 		pop	{r4, r5, r6, r7, r8, lr}
 672              		.cfi_restore 14
 673              		.cfi_restore 8
 674              		.cfi_restore 7
 675              		.cfi_restore 6
 676              		.cfi_restore 5
 677              		.cfi_restore 4
 678              		.cfi_def_cfa_offset 0
 679              	.LVL52:
 680              		.loc 1 320 0
 681 00b2 FFF7FEBF 		b	_test_assert_time_window
 682              	.LVL53:
 683              	.L44:
ARM GAS  /tmp/ccexArGk.s 			page 13


 684 00b6 00BF     		.align	2
 685              	.L43:
 686 00b8 00000000 		.word	rlist
 687 00bc 00000000 		.word	wa
 688 00c0 00000000 		.word	threads
 689 00c4 00000000 		.word	vtlist
 690 00c8 00000000 		.word	thread3LL
 691 00cc 00000000 		.word	thread3L
 692 00d0 00000000 		.word	thread3M
 693 00d4 00000000 		.word	thread3H
 694 00d8 00000000 		.word	thread3HH
 695 00dc 14000000 		.word	.LC5
 696              		.cfi_endproc
 697              	.LFE21:
 698              		.size	mtx3_execute, .-mtx3_execute
 699              		.section	.text.thread2L,"ax",%progbits
 700              		.align	2
 701              		.p2align 4,,15
 702              		.thumb
 703              		.thumb_func
 704              		.type	thread2L, %function
 705              	thread2L:
 706              	.LFB11:
 707              		.loc 1 157 0
 708              		.cfi_startproc
 709              		@ args = 0, pretend = 0, frame = 0
 710              		@ frame_needed = 0, uses_anonymous_args = 0
 711              	.LVL54:
 712 0000 08B5     		push	{r3, lr}
 713              		.cfi_def_cfa_offset 8
 714              		.cfi_offset 3, -8
 715              		.cfi_offset 14, -4
 716              		.loc 1 160 0
 717 0002 0848     		ldr	r0, .L47
 718              	.LVL55:
 719 0004 FFF7FEFF 		bl	chMtxLock
 720              	.LVL56:
 721              		.loc 1 161 0
 722 0008 2820     		movs	r0, #40
 723 000a FFF7FEFF 		bl	test_cpu_pulse
 724              	.LVL57:
 725              		.loc 1 162 0
 726 000e FFF7FEFF 		bl	chMtxUnlock
 727              	.LVL58:
 728              		.loc 1 163 0
 729 0012 0A20     		movs	r0, #10
 730 0014 FFF7FEFF 		bl	test_cpu_pulse
 731              	.LVL59:
 732              		.loc 1 164 0
 733 0018 4320     		movs	r0, #67
 734 001a FFF7FEFF 		bl	test_emit_token
 735              	.LVL60:
 736              		.loc 1 166 0
 737 001e 0020     		movs	r0, #0
 738 0020 08BD     		pop	{r3, pc}
 739              	.L48:
 740 0022 00BF     		.align	2
ARM GAS  /tmp/ccexArGk.s 			page 14


 741              	.L47:
 742 0024 00000000 		.word	.LANCHOR0
 743              		.cfi_endproc
 744              	.LFE11:
 745              		.size	thread2L, .-thread2L
 746 0028 AFF30080 		.section	.text.thread3LL,"ax",%progbits
 746      AFF30080 
 747              		.align	2
 748              		.p2align 4,,15
 749              		.thumb
 750              		.thumb_func
 751              		.type	thread3LL, %function
 752              	thread3LL:
 753              	.LFB16:
 754              		.loc 1 248 0
 755              		.cfi_startproc
 756              		@ args = 0, pretend = 0, frame = 0
 757              		@ frame_needed = 0, uses_anonymous_args = 0
 758              	.LVL61:
 759 0000 08B5     		push	{r3, lr}
 760              		.cfi_def_cfa_offset 8
 761              		.cfi_offset 3, -8
 762              		.cfi_offset 14, -4
 763              		.loc 1 251 0
 764 0002 0648     		ldr	r0, .L51
 765              	.LVL62:
 766 0004 FFF7FEFF 		bl	chMtxLock
 767              	.LVL63:
 768              		.loc 1 252 0
 769 0008 1E20     		movs	r0, #30
 770 000a FFF7FEFF 		bl	test_cpu_pulse
 771              	.LVL64:
 772              		.loc 1 253 0
 773 000e FFF7FEFF 		bl	chMtxUnlock
 774              	.LVL65:
 775              		.loc 1 254 0
 776 0012 4520     		movs	r0, #69
 777 0014 FFF7FEFF 		bl	test_emit_token
 778              	.LVL66:
 779              		.loc 1 256 0
 780 0018 0020     		movs	r0, #0
 781 001a 08BD     		pop	{r3, pc}
 782              	.L52:
 783              		.align	2
 784              	.L51:
 785 001c 00000000 		.word	.LANCHOR0
 786              		.cfi_endproc
 787              	.LFE16:
 788              		.size	thread3LL, .-thread3LL
 789              		.section	.text.thread2M,"ax",%progbits
 790              		.align	2
 791              		.p2align 4,,15
 792              		.thumb
 793              		.thumb_func
 794              		.type	thread2M, %function
 795              	thread2M:
 796              	.LFB12:
ARM GAS  /tmp/ccexArGk.s 			page 15


 797              		.loc 1 169 0
 798              		.cfi_startproc
 799              		@ args = 0, pretend = 0, frame = 0
 800              		@ frame_needed = 0, uses_anonymous_args = 0
 801              	.LVL67:
 802 0000 08B5     		push	{r3, lr}
 803              		.cfi_def_cfa_offset 8
 804              		.cfi_offset 3, -8
 805              		.cfi_offset 14, -4
 806              		.loc 1 172 0
 807 0002 1420     		movs	r0, #20
 808              	.LVL68:
 809 0004 FFF7FEFF 		bl	chThdSleep
 810              	.LVL69:
 811              		.loc 1 173 0
 812 0008 2820     		movs	r0, #40
 813 000a FFF7FEFF 		bl	test_cpu_pulse
 814              	.LVL70:
 815              		.loc 1 174 0
 816 000e 4220     		movs	r0, #66
 817 0010 FFF7FEFF 		bl	test_emit_token
 818              	.LVL71:
 819              		.loc 1 176 0
 820 0014 0020     		movs	r0, #0
 821 0016 08BD     		pop	{r3, pc}
 822              		.cfi_endproc
 823              	.LFE12:
 824              		.size	thread2M, .-thread2M
 825 0018 AFF30080 		.section	.text.thread2H,"ax",%progbits
 825      AFF30080 
 826              		.align	2
 827              		.p2align 4,,15
 828              		.thumb
 829              		.thumb_func
 830              		.type	thread2H, %function
 831              	thread2H:
 832              	.LFB13:
 833              		.loc 1 179 0
 834              		.cfi_startproc
 835              		@ args = 0, pretend = 0, frame = 0
 836              		@ frame_needed = 0, uses_anonymous_args = 0
 837              	.LVL72:
 838 0000 08B5     		push	{r3, lr}
 839              		.cfi_def_cfa_offset 8
 840              		.cfi_offset 3, -8
 841              		.cfi_offset 14, -4
 842              		.loc 1 182 0
 843 0002 2820     		movs	r0, #40
 844              	.LVL73:
 845 0004 FFF7FEFF 		bl	chThdSleep
 846              	.LVL74:
 847              		.loc 1 183 0
 848 0008 0648     		ldr	r0, .L57
 849 000a FFF7FEFF 		bl	chMtxLock
 850              	.LVL75:
 851              		.loc 1 184 0
 852 000e 0A20     		movs	r0, #10
ARM GAS  /tmp/ccexArGk.s 			page 16


 853 0010 FFF7FEFF 		bl	test_cpu_pulse
 854              	.LVL76:
 855              		.loc 1 185 0
 856 0014 FFF7FEFF 		bl	chMtxUnlock
 857              	.LVL77:
 858              		.loc 1 186 0
 859 0018 4120     		movs	r0, #65
 860 001a FFF7FEFF 		bl	test_emit_token
 861              	.LVL78:
 862              		.loc 1 188 0
 863 001e 0020     		movs	r0, #0
 864 0020 08BD     		pop	{r3, pc}
 865              	.L58:
 866 0022 00BF     		.align	2
 867              	.L57:
 868 0024 00000000 		.word	.LANCHOR0
 869              		.cfi_endproc
 870              	.LFE13:
 871              		.size	thread2H, .-thread2H
 872 0028 AFF30080 		.section	.text.thread3HH,"ax",%progbits
 872      AFF30080 
 873              		.align	2
 874              		.p2align 4,,15
 875              		.thumb
 876              		.thumb_func
 877              		.type	thread3HH, %function
 878              	thread3HH:
 879              	.LFB20:
 880              		.loc 1 297 0
 881              		.cfi_startproc
 882              		@ args = 0, pretend = 0, frame = 0
 883              		@ frame_needed = 0, uses_anonymous_args = 0
 884              	.LVL79:
 885 0000 08B5     		push	{r3, lr}
 886              		.cfi_def_cfa_offset 8
 887              		.cfi_offset 3, -8
 888              		.cfi_offset 14, -4
 889              		.loc 1 300 0
 890 0002 3220     		movs	r0, #50
 891              	.LVL80:
 892 0004 FFF7FEFF 		bl	chThdSleep
 893              	.LVL81:
 894              		.loc 1 301 0
 895 0008 0648     		ldr	r0, .L61
 896 000a FFF7FEFF 		bl	chMtxLock
 897              	.LVL82:
 898              		.loc 1 302 0
 899 000e 0A20     		movs	r0, #10
 900 0010 FFF7FEFF 		bl	test_cpu_pulse
 901              	.LVL83:
 902              		.loc 1 303 0
 903 0014 FFF7FEFF 		bl	chMtxUnlock
 904              	.LVL84:
 905              		.loc 1 304 0
 906 0018 4120     		movs	r0, #65
 907 001a FFF7FEFF 		bl	test_emit_token
 908              	.LVL85:
ARM GAS  /tmp/ccexArGk.s 			page 17


 909              		.loc 1 306 0
 910 001e 0020     		movs	r0, #0
 911 0020 08BD     		pop	{r3, pc}
 912              	.L62:
 913 0022 00BF     		.align	2
 914              	.L61:
 915 0024 00000000 		.word	.LANCHOR1
 916              		.cfi_endproc
 917              	.LFE20:
 918              		.size	thread3HH, .-thread3HH
 919 0028 AFF30080 		.section	.text.thread3H,"ax",%progbits
 919      AFF30080 
 920              		.align	2
 921              		.p2align 4,,15
 922              		.thumb
 923              		.thumb_func
 924              		.type	thread3H, %function
 925              	thread3H:
 926              	.LFB19:
 927              		.loc 1 287 0
 928              		.cfi_startproc
 929              		@ args = 0, pretend = 0, frame = 0
 930              		@ frame_needed = 0, uses_anonymous_args = 0
 931              	.LVL86:
 932 0000 08B5     		push	{r3, lr}
 933              		.cfi_def_cfa_offset 8
 934              		.cfi_offset 3, -8
 935              		.cfi_offset 14, -4
 936              		.loc 1 290 0
 937 0002 2820     		movs	r0, #40
 938              	.LVL87:
 939 0004 FFF7FEFF 		bl	chThdSleep
 940              	.LVL88:
 941              		.loc 1 291 0
 942 0008 1420     		movs	r0, #20
 943 000a FFF7FEFF 		bl	test_cpu_pulse
 944              	.LVL89:
 945              		.loc 1 292 0
 946 000e 4220     		movs	r0, #66
 947 0010 FFF7FEFF 		bl	test_emit_token
 948              	.LVL90:
 949              		.loc 1 294 0
 950 0014 0020     		movs	r0, #0
 951 0016 08BD     		pop	{r3, pc}
 952              		.cfi_endproc
 953              	.LFE19:
 954              		.size	thread3H, .-thread3H
 955 0018 AFF30080 		.section	.text.thread3M,"ax",%progbits
 955      AFF30080 
 956              		.align	2
 957              		.p2align 4,,15
 958              		.thumb
 959              		.thumb_func
 960              		.type	thread3M, %function
 961              	thread3M:
 962              	.LFB18:
 963              		.loc 1 275 0
ARM GAS  /tmp/ccexArGk.s 			page 18


 964              		.cfi_startproc
 965              		@ args = 0, pretend = 0, frame = 0
 966              		@ frame_needed = 0, uses_anonymous_args = 0
 967              	.LVL91:
 968 0000 08B5     		push	{r3, lr}
 969              		.cfi_def_cfa_offset 8
 970              		.cfi_offset 3, -8
 971              		.cfi_offset 14, -4
 972              		.loc 1 278 0
 973 0002 1420     		movs	r0, #20
 974              	.LVL92:
 975 0004 FFF7FEFF 		bl	chThdSleep
 976              	.LVL93:
 977              		.loc 1 279 0
 978 0008 0648     		ldr	r0, .L67
 979 000a FFF7FEFF 		bl	chMtxLock
 980              	.LVL94:
 981              		.loc 1 280 0
 982 000e 0A20     		movs	r0, #10
 983 0010 FFF7FEFF 		bl	test_cpu_pulse
 984              	.LVL95:
 985              		.loc 1 281 0
 986 0014 FFF7FEFF 		bl	chMtxUnlock
 987              	.LVL96:
 988              		.loc 1 282 0
 989 0018 4320     		movs	r0, #67
 990 001a FFF7FEFF 		bl	test_emit_token
 991              	.LVL97:
 992              		.loc 1 284 0
 993 001e 0020     		movs	r0, #0
 994 0020 08BD     		pop	{r3, pc}
 995              	.L68:
 996 0022 00BF     		.align	2
 997              	.L67:
 998 0024 00000000 		.word	.LANCHOR1
 999              		.cfi_endproc
 1000              	.LFE18:
 1001              		.size	thread3M, .-thread3M
 1002 0028 AFF30080 		.section	.text.thread3L,"ax",%progbits
 1002      AFF30080 
 1003              		.align	2
 1004              		.p2align 4,,15
 1005              		.thumb
 1006              		.thumb_func
 1007              		.type	thread3L, %function
 1008              	thread3L:
 1009              	.LFB17:
 1010              		.loc 1 259 0
 1011              		.cfi_startproc
 1012              		@ args = 0, pretend = 0, frame = 0
 1013              		@ frame_needed = 0, uses_anonymous_args = 0
 1014              	.LVL98:
 1015 0000 08B5     		push	{r3, lr}
 1016              		.cfi_def_cfa_offset 8
 1017              		.cfi_offset 3, -8
 1018              		.cfi_offset 14, -4
 1019              		.loc 1 262 0
ARM GAS  /tmp/ccexArGk.s 			page 19


 1020 0002 0A20     		movs	r0, #10
 1021              	.LVL99:
 1022 0004 FFF7FEFF 		bl	chThdSleep
 1023              	.LVL100:
 1024              		.loc 1 263 0
 1025 0008 0B48     		ldr	r0, .L71
 1026 000a FFF7FEFF 		bl	chMtxLock
 1027              	.LVL101:
 1028              		.loc 1 264 0
 1029 000e 1420     		movs	r0, #20
 1030 0010 FFF7FEFF 		bl	test_cpu_pulse
 1031              	.LVL102:
 1032              		.loc 1 265 0
 1033 0014 0948     		ldr	r0, .L71+4
 1034 0016 FFF7FEFF 		bl	chMtxLock
 1035              	.LVL103:
 1036              		.loc 1 266 0
 1037 001a 0A20     		movs	r0, #10
 1038 001c FFF7FEFF 		bl	test_cpu_pulse
 1039              	.LVL104:
 1040              		.loc 1 267 0
 1041 0020 FFF7FEFF 		bl	chMtxUnlock
 1042              	.LVL105:
 1043              		.loc 1 268 0
 1044 0024 0A20     		movs	r0, #10
 1045 0026 FFF7FEFF 		bl	test_cpu_pulse
 1046              	.LVL106:
 1047              		.loc 1 269 0
 1048 002a FFF7FEFF 		bl	chMtxUnlock
 1049              	.LVL107:
 1050              		.loc 1 270 0
 1051 002e 4420     		movs	r0, #68
 1052 0030 FFF7FEFF 		bl	test_emit_token
 1053              	.LVL108:
 1054              		.loc 1 272 0
 1055 0034 0020     		movs	r0, #0
 1056 0036 08BD     		pop	{r3, pc}
 1057              	.L72:
 1058              		.align	2
 1059              	.L71:
 1060 0038 00000000 		.word	.LANCHOR1
 1061 003c 00000000 		.word	.LANCHOR0
 1062              		.cfi_endproc
 1063              	.LFE17:
 1064              		.size	thread3L, .-thread3L
 1065              		.section	.text.thread4b,"ax",%progbits
 1066              		.align	2
 1067              		.p2align 4,,15
 1068              		.thumb
 1069              		.thumb_func
 1070              		.type	thread4b, %function
 1071              	thread4b:
 1072              	.LFB24:
 1073              		.loc 1 356 0
 1074              		.cfi_startproc
 1075              		@ args = 0, pretend = 0, frame = 0
 1076              		@ frame_needed = 0, uses_anonymous_args = 0
ARM GAS  /tmp/ccexArGk.s 			page 20


 1077              	.LVL109:
 1078 0000 08B5     		push	{r3, lr}
 1079              		.cfi_def_cfa_offset 8
 1080              		.cfi_offset 3, -8
 1081              		.cfi_offset 14, -4
 1082              		.loc 1 359 0
 1083 0002 9620     		movs	r0, #150
 1084              	.LVL110:
 1085 0004 FFF7FEFF 		bl	chThdSleep
 1086              	.LVL111:
 1087              		.loc 1 360 0
 1088 0008 0348     		ldr	r0, .L75
 1089 000a FFF7FEFF 		bl	chMtxLock
 1090              	.LVL112:
 1091              		.loc 1 361 0
 1092 000e FFF7FEFF 		bl	chMtxUnlock
 1093              	.LVL113:
 1094              		.loc 1 363 0
 1095 0012 0020     		movs	r0, #0
 1096 0014 08BD     		pop	{r3, pc}
 1097              	.L76:
 1098 0016 00BF     		.align	2
 1099              	.L75:
 1100 0018 00000000 		.word	.LANCHOR0
 1101              		.cfi_endproc
 1102              	.LFE24:
 1103              		.size	thread4b, .-thread4b
 1104 001c AFF30080 		.section	.text.thread4a,"ax",%progbits
 1105              		.align	2
 1106              		.p2align 4,,15
 1107              		.thumb
 1108              		.thumb_func
 1109              		.type	thread4a, %function
 1110              	thread4a:
 1111              	.LFB23:
 1112              		.loc 1 347 0
 1113              		.cfi_startproc
 1114              		@ args = 0, pretend = 0, frame = 0
 1115              		@ frame_needed = 0, uses_anonymous_args = 0
 1116              	.LVL114:
 1117 0000 08B5     		push	{r3, lr}
 1118              		.cfi_def_cfa_offset 8
 1119              		.cfi_offset 3, -8
 1120              		.cfi_offset 14, -4
 1121              		.loc 1 350 0
 1122 0002 3220     		movs	r0, #50
 1123              	.LVL115:
 1124 0004 FFF7FEFF 		bl	chThdSleep
 1125              	.LVL116:
 1126              		.loc 1 351 0
 1127 0008 0348     		ldr	r0, .L79
 1128 000a FFF7FEFF 		bl	chMtxLock
 1129              	.LVL117:
 1130              		.loc 1 352 0
 1131 000e FFF7FEFF 		bl	chMtxUnlock
 1132              	.LVL118:
 1133              		.loc 1 354 0
ARM GAS  /tmp/ccexArGk.s 			page 21


 1134 0012 0020     		movs	r0, #0
 1135 0014 08BD     		pop	{r3, pc}
 1136              	.L80:
 1137 0016 00BF     		.align	2
 1138              	.L79:
 1139 0018 00000000 		.word	.LANCHOR1
 1140              		.cfi_endproc
 1141              	.LFE23:
 1142              		.size	thread4a, .-thread4a
 1143 001c AFF30080 		.section	.text.mtx4_execute,"ax",%progbits
 1144              		.align	2
 1145              		.p2align 4,,15
 1146              		.thumb
 1147              		.thumb_func
 1148              		.type	mtx4_execute, %function
 1149              	mtx4_execute:
 1150              	.LFB25:
 1151              		.loc 1 365 0
 1152              		.cfi_startproc
 1153              		@ args = 0, pretend = 0, frame = 8
 1154              		@ frame_needed = 0, uses_anonymous_args = 0
 1155 0000 2DE9F046 		push	{r4, r5, r6, r7, r9, r10, lr}
 1156              		.cfi_def_cfa_offset 28
 1157              		.cfi_offset 4, -28
 1158              		.cfi_offset 5, -24
 1159              		.cfi_offset 6, -20
 1160              		.cfi_offset 7, -16
 1161              		.cfi_offset 9, -12
 1162              		.cfi_offset 10, -8
 1163              		.cfi_offset 14, -4
 1164              		.loc 1 368 0
 1165 0004 8A4D     		ldr	r5, .L87
 1166              		.loc 1 371 0
 1167 0006 8B4E     		ldr	r6, .L87+4
 1168              		.loc 1 368 0
 1169 0008 AB69     		ldr	r3, [r5, #24]
 1170              		.loc 1 371 0
 1171 000a 3268     		ldr	r2, [r6]
 1172              		.loc 1 368 0
 1173 000c 9C68     		ldr	r4, [r3, #8]
 1174              	.LVL119:
 1175              		.loc 1 371 0
 1176 000e 8A4B     		ldr	r3, .L87+8
 1177 0010 8A4F     		ldr	r7, .L87+12
 1178              		.loc 1 365 0
 1179 0012 85B0     		sub	sp, sp, #20
 1180              		.cfi_def_cfa_offset 48
 1181              		.loc 1 369 0
 1182 0014 04F10109 		add	r9, r4, #1
 1183              	.LVL120:
 1184              		.loc 1 371 0
 1185 0018 1046     		mov	r0, r2
 1186 001a 0392     		str	r2, [sp, #12]
 1187 001c 0093     		str	r3, [sp]
 1188 001e 4A46     		mov	r2, r9
 1189 0020 4FF4A871 		mov	r1, #336
 1190 0024 864B     		ldr	r3, .L87+16
ARM GAS  /tmp/ccexArGk.s 			page 22


 1191 0026 FFF7FEFF 		bl	chThdCreateStatic
 1192              	.LVL121:
 1193              		.loc 1 372 0
 1194 002a 7668     		ldr	r6, [r6, #4]
 1195 002c 854B     		ldr	r3, .L87+20
 1196              		.loc 1 371 0
 1197 002e 3860     		str	r0, [r7]
 1198              		.loc 1 370 0
 1199 0030 04F1020A 		add	r10, r4, #2
 1200              	.LVL122:
 1201              		.loc 1 372 0
 1202 0034 4FF4A871 		mov	r1, #336
 1203 0038 5246     		mov	r2, r10
 1204 003a 0093     		str	r3, [sp]
 1205 003c 3046     		mov	r0, r6
 1206 003e 824B     		ldr	r3, .L87+24
 1207 0040 FFF7FEFF 		bl	chThdCreateStatic
 1208              	.LVL123:
 1209 0044 7860     		str	r0, [r7, #4]
 1210              		.loc 1 373 0
 1211 0046 8148     		ldr	r0, .L87+28
 1212 0048 FFF7FEFF 		bl	chMtxLock
 1213              	.LVL124:
 1214              		.loc 1 374 0
 1215 004c AB69     		ldr	r3, [r5, #24]
 1216 004e 9968     		ldr	r1, [r3, #8]
 1217 0050 0120     		movs	r0, #1
 1218 0052 091B     		subs	r1, r1, r4
 1219 0054 B1FA81F1 		clz	r1, r1
 1220 0058 4909     		lsrs	r1, r1, #5
 1221 005a FFF7FEFF 		bl	_test_assert
 1222              	.LVL125:
 1223 005e 10B1     		cbz	r0, .L86
 1224              	.L81:
 1225              		.loc 1 410 0
 1226 0060 05B0     		add	sp, sp, #20
 1227              		.cfi_remember_state
 1228              		.cfi_def_cfa_offset 28
 1229              		@ sp needed
 1230 0062 BDE8F086 		pop	{r4, r5, r6, r7, r9, r10, pc}
 1231              	.LVL126:
 1232              	.L86:
 1233              		.cfi_restore_state
 1234              		.loc 1 375 0
 1235 0066 6420     		movs	r0, #100
 1236 0068 FFF7FEFF 		bl	chThdSleep
 1237              	.LVL127:
 1238              		.loc 1 376 0
 1239 006c AB69     		ldr	r3, [r5, #24]
 1240 006e 9968     		ldr	r1, [r3, #8]
 1241 0070 0220     		movs	r0, #2
 1242 0072 C9EB0101 		rsb	r1, r9, r1
 1243 0076 B1FA81F1 		clz	r1, r1
 1244 007a 4909     		lsrs	r1, r1, #5
 1245 007c FFF7FEFF 		bl	_test_assert
 1246              	.LVL128:
 1247 0080 0028     		cmp	r0, #0
ARM GAS  /tmp/ccexArGk.s 			page 23


 1248 0082 EDD1     		bne	.L81
 1249              		.loc 1 377 0
 1250 0084 7248     		ldr	r0, .L87+32
 1251 0086 FFF7FEFF 		bl	chMtxLock
 1252              	.LVL129:
 1253              		.loc 1 378 0
 1254 008a AB69     		ldr	r3, [r5, #24]
 1255 008c 9968     		ldr	r1, [r3, #8]
 1256 008e 0320     		movs	r0, #3
 1257 0090 C9EB0101 		rsb	r1, r9, r1
 1258 0094 B1FA81F1 		clz	r1, r1
 1259 0098 4909     		lsrs	r1, r1, #5
 1260 009a FFF7FEFF 		bl	_test_assert
 1261              	.LVL130:
 1262 009e 0028     		cmp	r0, #0
 1263 00a0 DED1     		bne	.L81
 1264              		.loc 1 379 0
 1265 00a2 6420     		movs	r0, #100
 1266 00a4 FFF7FEFF 		bl	chThdSleep
 1267              	.LVL131:
 1268              		.loc 1 380 0
 1269 00a8 AB69     		ldr	r3, [r5, #24]
 1270 00aa 9968     		ldr	r1, [r3, #8]
 1271 00ac 0420     		movs	r0, #4
 1272 00ae CAEB0101 		rsb	r1, r10, r1
 1273 00b2 B1FA81F1 		clz	r1, r1
 1274 00b6 4909     		lsrs	r1, r1, #5
 1275 00b8 FFF7FEFF 		bl	_test_assert
 1276              	.LVL132:
 1277 00bc 0028     		cmp	r0, #0
 1278 00be CFD1     		bne	.L81
 1279              		.loc 1 381 0
 1280 00c0 FFF7FEFF 		bl	chMtxUnlock
 1281              	.LVL133:
 1282              		.loc 1 382 0
 1283 00c4 AB69     		ldr	r3, [r5, #24]
 1284 00c6 9968     		ldr	r1, [r3, #8]
 1285 00c8 0520     		movs	r0, #5
 1286 00ca C9EB0101 		rsb	r1, r9, r1
 1287 00ce B1FA81F1 		clz	r1, r1
 1288 00d2 4909     		lsrs	r1, r1, #5
 1289 00d4 FFF7FEFF 		bl	_test_assert
 1290              	.LVL134:
 1291 00d8 0028     		cmp	r0, #0
 1292 00da C1D1     		bne	.L81
 1293              		.loc 1 383 0
 1294 00dc 6420     		movs	r0, #100
 1295 00de FFF7FEFF 		bl	chThdSleep
 1296              	.LVL135:
 1297              		.loc 1 384 0
 1298 00e2 AB69     		ldr	r3, [r5, #24]
 1299 00e4 9968     		ldr	r1, [r3, #8]
 1300 00e6 0620     		movs	r0, #6
 1301 00e8 C9EB0101 		rsb	r1, r9, r1
 1302 00ec B1FA81F1 		clz	r1, r1
 1303 00f0 4909     		lsrs	r1, r1, #5
 1304 00f2 FFF7FEFF 		bl	_test_assert
ARM GAS  /tmp/ccexArGk.s 			page 24


 1305              	.LVL136:
 1306 00f6 0028     		cmp	r0, #0
 1307 00f8 B2D1     		bne	.L81
 1308              		.loc 1 385 0
 1309 00fa FFF7FEFF 		bl	chMtxUnlockAll
 1310              	.LVL137:
 1311              		.loc 1 386 0
 1312 00fe AB69     		ldr	r3, [r5, #24]
 1313 0100 9968     		ldr	r1, [r3, #8]
 1314 0102 0720     		movs	r0, #7
 1315 0104 091B     		subs	r1, r1, r4
 1316 0106 B1FA81F1 		clz	r1, r1
 1317 010a 4909     		lsrs	r1, r1, #5
 1318 010c FFF7FEFF 		bl	_test_assert
 1319              	.LVL138:
 1320 0110 0028     		cmp	r0, #0
 1321 0112 A5D1     		bne	.L81
 1322              		.loc 1 387 0
 1323 0114 FFF7FEFF 		bl	test_wait_threads
 1324              	.LVL139:
 1325              		.loc 1 390 0
 1326 0118 4E4B     		ldr	r3, .L87+36
 1327 011a 0093     		str	r3, [sp]
 1328 011c 4FF4A871 		mov	r1, #336
 1329 0120 4A46     		mov	r2, r9
 1330 0122 474B     		ldr	r3, .L87+16
 1331 0124 0398     		ldr	r0, [sp, #12]
 1332 0126 FFF7FEFF 		bl	chThdCreateStatic
 1333              	.LVL140:
 1334              		.loc 1 391 0
 1335 012a 4B4B     		ldr	r3, .L87+40
 1336              		.loc 1 390 0
 1337 012c 3860     		str	r0, [r7]
 1338              		.loc 1 391 0
 1339 012e 4FF4A871 		mov	r1, #336
 1340 0132 0093     		str	r3, [sp]
 1341 0134 5246     		mov	r2, r10
 1342 0136 444B     		ldr	r3, .L87+24
 1343 0138 3046     		mov	r0, r6
 1344 013a FFF7FEFF 		bl	chThdCreateStatic
 1345              	.LVL141:
 1346 013e 7860     		str	r0, [r7, #4]
 1347              		.loc 1 392 0
 1348 0140 4248     		ldr	r0, .L87+28
 1349 0142 FFF7FEFF 		bl	chMtxLock
 1350              	.LVL142:
 1351              		.loc 1 393 0
 1352 0146 AB69     		ldr	r3, [r5, #24]
 1353 0148 9968     		ldr	r1, [r3, #8]
 1354 014a 0820     		movs	r0, #8
 1355 014c 091B     		subs	r1, r1, r4
 1356 014e B1FA81F1 		clz	r1, r1
 1357 0152 4909     		lsrs	r1, r1, #5
 1358 0154 FFF7FEFF 		bl	_test_assert
 1359              	.LVL143:
 1360 0158 0028     		cmp	r0, #0
 1361 015a 81D1     		bne	.L81
ARM GAS  /tmp/ccexArGk.s 			page 25


 1362              		.loc 1 394 0
 1363 015c 6420     		movs	r0, #100
 1364 015e FFF7FEFF 		bl	chThdSleep
 1365              	.LVL144:
 1366              		.loc 1 395 0
 1367 0162 AB69     		ldr	r3, [r5, #24]
 1368 0164 9968     		ldr	r1, [r3, #8]
 1369 0166 C9EB010C 		rsb	ip, r9, r1
 1370 016a DCF10001 		rsbs	r1, ip, #0
 1371 016e 41EB0C01 		adc	r1, r1, ip
 1372 0172 0920     		movs	r0, #9
 1373 0174 FFF7FEFF 		bl	_test_assert
 1374              	.LVL145:
 1375 0178 0028     		cmp	r0, #0
 1376 017a 7FF471AF 		bne	.L81
 1377              		.loc 1 396 0
 1378 017e 3448     		ldr	r0, .L87+32
 1379 0180 FFF7FEFF 		bl	chMtxLock
 1380              	.LVL146:
 1381              		.loc 1 397 0
 1382 0184 AB69     		ldr	r3, [r5, #24]
 1383 0186 9968     		ldr	r1, [r3, #8]
 1384 0188 C9EB010E 		rsb	lr, r9, r1
 1385 018c DEF10001 		rsbs	r1, lr, #0
 1386 0190 41EB0E01 		adc	r1, r1, lr
 1387 0194 0A20     		movs	r0, #10
 1388 0196 FFF7FEFF 		bl	_test_assert
 1389              	.LVL147:
 1390 019a 0028     		cmp	r0, #0
 1391 019c 7FF460AF 		bne	.L81
 1392              		.loc 1 398 0
 1393 01a0 6420     		movs	r0, #100
 1394 01a2 FFF7FEFF 		bl	chThdSleep
 1395              	.LVL148:
 1396              		.loc 1 399 0
 1397 01a6 AB69     		ldr	r3, [r5, #24]
 1398 01a8 9968     		ldr	r1, [r3, #8]
 1399 01aa CAEB0107 		rsb	r7, r10, r1
 1400 01ae 7942     		rsbs	r1, r7, #0
 1401 01b0 4FF00B00 		mov	r0, #11
 1402 01b4 7941     		adcs	r1, r1, r7
 1403 01b6 FFF7FEFF 		bl	_test_assert
 1404              	.LVL149:
 1405 01ba 0646     		mov	r6, r0
 1406 01bc 0028     		cmp	r0, #0
 1407 01be 7FF44FAF 		bne	.L81
 1408              	.LBB2:
 1409              		.loc 1 400 0
 1410 01c2 2023     		movs	r3, #32
 1411              	@ 400 "../../../test/testmtx.c" 1
 1412 01c4 83F31188 		msr     BASEPRI, r3
 1413              	@ 0 "" 2
 1414              		.thumb
 1415              	.LBE2:
 1416              		.loc 1 401 0
 1417 01c8 FFF7FEFF 		bl	chMtxUnlockS
 1418              	.LVL150:
ARM GAS  /tmp/ccexArGk.s 			page 26


 1419              		.loc 1 402 0
 1420 01cc FFF7FEFF 		bl	chSchRescheduleS
 1421              	.LVL151:
 1422              	.LBB3:
 1423              		.loc 1 403 0
 1424 01d0 3346     		mov	r3, r6
 1425              	@ 403 "../../../test/testmtx.c" 1
 1426 01d2 83F31188 		msr     BASEPRI, r3
 1427              	@ 0 "" 2
 1428              		.thumb
 1429              	.LBE3:
 1430              		.loc 1 404 0
 1431 01d6 AB69     		ldr	r3, [r5, #24]
 1432 01d8 9968     		ldr	r1, [r3, #8]
 1433 01da C9EB0106 		rsb	r6, r9, r1
 1434 01de 7142     		rsbs	r1, r6, #0
 1435 01e0 7141     		adcs	r1, r1, r6
 1436 01e2 0C20     		movs	r0, #12
 1437 01e4 FFF7FEFF 		bl	_test_assert
 1438              	.LVL152:
 1439 01e8 0028     		cmp	r0, #0
 1440 01ea 7FF439AF 		bne	.L81
 1441              		.loc 1 405 0
 1442 01ee 6420     		movs	r0, #100
 1443 01f0 FFF7FEFF 		bl	chThdSleep
 1444              	.LVL153:
 1445              		.loc 1 406 0
 1446 01f4 AB69     		ldr	r3, [r5, #24]
 1447 01f6 9968     		ldr	r1, [r3, #8]
 1448 01f8 C9EB0102 		rsb	r2, r9, r1
 1449 01fc 5142     		rsbs	r1, r2, #0
 1450 01fe 5141     		adcs	r1, r1, r2
 1451 0200 0D20     		movs	r0, #13
 1452 0202 FFF7FEFF 		bl	_test_assert
 1453              	.LVL154:
 1454 0206 0028     		cmp	r0, #0
 1455 0208 7FF42AAF 		bne	.L81
 1456              		.loc 1 407 0
 1457 020c FFF7FEFF 		bl	chMtxUnlockAll
 1458              	.LVL155:
 1459              		.loc 1 408 0
 1460 0210 AB69     		ldr	r3, [r5, #24]
 1461 0212 9968     		ldr	r1, [r3, #8]
 1462 0214 0B1B     		subs	r3, r1, r4
 1463 0216 5942     		rsbs	r1, r3, #0
 1464 0218 5941     		adcs	r1, r1, r3
 1465 021a 0E20     		movs	r0, #14
 1466 021c FFF7FEFF 		bl	_test_assert
 1467              	.LVL156:
 1468 0220 0028     		cmp	r0, #0
 1469 0222 7FF41DAF 		bne	.L81
 1470              		.loc 1 410 0
 1471 0226 05B0     		add	sp, sp, #20
 1472              		.cfi_def_cfa_offset 28
 1473              		@ sp needed
 1474 0228 BDE8F046 		pop	{r4, r5, r6, r7, r9, r10, lr}
 1475              		.cfi_restore 14
ARM GAS  /tmp/ccexArGk.s 			page 27


 1476              		.cfi_restore 10
 1477              		.cfi_restore 9
 1478              		.cfi_restore 7
 1479              		.cfi_restore 6
 1480              		.cfi_restore 5
 1481              		.cfi_restore 4
 1482              		.cfi_def_cfa_offset 0
 1483              	.LVL157:
 1484              		.loc 1 409 0
 1485 022c FFF7FEBF 		b	test_wait_threads
 1486              	.LVL158:
 1487              	.L88:
 1488              		.align	2
 1489              	.L87:
 1490 0230 00000000 		.word	rlist
 1491 0234 00000000 		.word	wa
 1492 0238 0C000000 		.word	.LC3
 1493 023c 00000000 		.word	threads
 1494 0240 00000000 		.word	thread4a
 1495 0244 10000000 		.word	.LC4
 1496 0248 00000000 		.word	thread4b
 1497 024c 00000000 		.word	.LANCHOR1
 1498 0250 00000000 		.word	.LANCHOR0
 1499 0254 04000000 		.word	.LC1
 1500 0258 08000000 		.word	.LC2
 1501              		.cfi_endproc
 1502              	.LFE25:
 1503              		.size	mtx4_execute, .-mtx4_execute
 1504 025c AFF30080 		.section	.text.mtx5_execute,"ax",%progbits
 1505              		.align	2
 1506              		.p2align 4,,15
 1507              		.thumb
 1508              		.thumb_func
 1509              		.type	mtx5_execute, %function
 1510              	mtx5_execute:
 1511              	.LFB27:
 1512              		.loc 1 434 0
 1513              		.cfi_startproc
 1514              		@ args = 0, pretend = 0, frame = 0
 1515              		@ frame_needed = 0, uses_anonymous_args = 0
 1516 0000 F8B5     		push	{r3, r4, r5, r6, r7, lr}
 1517              		.cfi_def_cfa_offset 24
 1518              		.cfi_offset 3, -24
 1519              		.cfi_offset 4, -20
 1520              		.cfi_offset 5, -16
 1521              		.cfi_offset 6, -12
 1522              		.cfi_offset 7, -8
 1523              		.cfi_offset 14, -4
 1524              		.loc 1 438 0
 1525 0002 2B4D     		ldr	r5, .L95
 1526              		.loc 1 440 0
 1527 0004 2B4C     		ldr	r4, .L95+4
 1528              		.loc 1 438 0
 1529 0006 AB69     		ldr	r3, [r5, #24]
 1530              		.loc 1 440 0
 1531 0008 2046     		mov	r0, r4
 1532              		.loc 1 438 0
ARM GAS  /tmp/ccexArGk.s 			page 28


 1533 000a 9E68     		ldr	r6, [r3, #8]
 1534              	.LVL159:
 1535              		.loc 1 440 0
 1536 000c FFF7FEFF 		bl	chMtxTryLock
 1537              	.LVL160:
 1538              		.loc 1 441 0
 1539 0010 0146     		mov	r1, r0
 1540 0012 0120     		movs	r0, #1
 1541              	.LVL161:
 1542 0014 FFF7FEFF 		bl	_test_assert
 1543              	.LVL162:
 1544 0018 00B1     		cbz	r0, .L94
 1545              	.L89:
 1546 001a F8BD     		pop	{r3, r4, r5, r6, r7, pc}
 1547              	.LVL163:
 1548              	.L94:
 1549              		.loc 1 443 0
 1550 001c 2046     		mov	r0, r4
 1551 001e FFF7FEFF 		bl	chMtxTryLock
 1552              	.LVL164:
 1553              		.loc 1 444 0
 1554 0022 80F00101 		eor	r1, r0, #1
 1555 0026 C9B2     		uxtb	r1, r1
 1556 0028 0220     		movs	r0, #2
 1557              	.LVL165:
 1558 002a FFF7FEFF 		bl	_test_assert
 1559              	.LVL166:
 1560 002e 0746     		mov	r7, r0
 1561 0030 0028     		cmp	r0, #0
 1562 0032 F2D1     		bne	.L89
 1563              	.LBB4:
 1564              		.loc 1 446 0
 1565 0034 2023     		movs	r3, #32
 1566              	@ 446 "../../../test/testmtx.c" 1
 1567 0036 83F31188 		msr     BASEPRI, r3
 1568              	@ 0 "" 2
 1569              		.thumb
 1570              	.LBE4:
 1571              		.loc 1 447 0
 1572 003a FFF7FEFF 		bl	chMtxUnlockS
 1573              	.LVL167:
 1574              	.LBB5:
 1575              		.loc 1 448 0
 1576 003e 3B46     		mov	r3, r7
 1577              	@ 448 "../../../test/testmtx.c" 1
 1578 0040 83F31188 		msr     BASEPRI, r3
 1579              	@ 0 "" 2
 1580              		.thumb
 1581              	.LBE5:
 1582              		.loc 1 450 0
 1583 0044 2168     		ldr	r1, [r4]
 1584 0046 0320     		movs	r0, #3
 1585 0048 091B     		subs	r1, r1, r4
 1586 004a B1FA81F1 		clz	r1, r1
 1587 004e 4909     		lsrs	r1, r1, #5
 1588 0050 FFF7FEFF 		bl	_test_assert
 1589              	.LVL168:
ARM GAS  /tmp/ccexArGk.s 			page 29


 1590 0054 0028     		cmp	r0, #0
 1591 0056 E0D1     		bne	.L89
 1592              		.loc 1 451 0
 1593 0058 A168     		ldr	r1, [r4, #8]
 1594 005a B1FA81F1 		clz	r1, r1
 1595 005e 0420     		movs	r0, #4
 1596 0060 4909     		lsrs	r1, r1, #5
 1597 0062 FFF7FEFF 		bl	_test_assert
 1598              	.LVL169:
 1599 0066 0028     		cmp	r0, #0
 1600 0068 D7D1     		bne	.L89
 1601              		.loc 1 452 0
 1602 006a AB69     		ldr	r3, [r5, #24]
 1603 006c 9968     		ldr	r1, [r3, #8]
 1604 006e 0520     		movs	r0, #5
 1605 0070 891B     		subs	r1, r1, r6
 1606 0072 B1FA81F1 		clz	r1, r1
 1607 0076 4909     		lsrs	r1, r1, #5
 1608 0078 FFF7FEFF 		bl	_test_assert
 1609              	.LVL170:
 1610 007c 0028     		cmp	r0, #0
 1611 007e CCD1     		bne	.L89
 1612              		.loc 1 454 0
 1613 0080 2046     		mov	r0, r4
 1614 0082 FFF7FEFF 		bl	chMtxLock
 1615              	.LVL171:
 1616              		.loc 1 455 0
 1617 0086 FFF7FEFF 		bl	chMtxUnlockAll
 1618              	.LVL172:
 1619              		.loc 1 456 0
 1620 008a 2168     		ldr	r1, [r4]
 1621 008c 0620     		movs	r0, #6
 1622 008e 091B     		subs	r1, r1, r4
 1623 0090 B1FA81F1 		clz	r1, r1
 1624 0094 4909     		lsrs	r1, r1, #5
 1625 0096 FFF7FEFF 		bl	_test_assert
 1626              	.LVL173:
 1627 009a 0028     		cmp	r0, #0
 1628 009c BDD1     		bne	.L89
 1629              		.loc 1 457 0
 1630 009e A168     		ldr	r1, [r4, #8]
 1631 00a0 B1FA81F1 		clz	r1, r1
 1632 00a4 0720     		movs	r0, #7
 1633 00a6 4909     		lsrs	r1, r1, #5
 1634              		.loc 1 458 0
 1635 00a8 BDE8F840 		pop	{r3, r4, r5, r6, r7, lr}
 1636              		.cfi_restore 14
 1637              		.cfi_restore 7
 1638              		.cfi_restore 6
 1639              		.cfi_restore 5
 1640              		.cfi_restore 4
 1641              		.cfi_restore 3
 1642              		.cfi_def_cfa_offset 0
 1643              	.LVL174:
 1644              		.loc 1 457 0
 1645 00ac FFF7FEBF 		b	_test_assert
 1646              	.LVL175:
ARM GAS  /tmp/ccexArGk.s 			page 30


 1647              	.L96:
 1648              		.align	2
 1649              	.L95:
 1650 00b0 00000000 		.word	rlist
 1651 00b4 00000000 		.word	.LANCHOR0
 1652              		.cfi_endproc
 1653              	.LFE27:
 1654              		.size	mtx5_execute, .-mtx5_execute
 1655 00b8 AFF30080 		.section	.text.mtx6_execute,"ax",%progbits
 1655      AFF30080 
 1656              		.align	2
 1657              		.p2align 4,,15
 1658              		.thumb
 1659              		.thumb_func
 1660              		.type	mtx6_execute, %function
 1661              	mtx6_execute:
 1662              	.LFB30:
 1663              		.loc 1 494 0
 1664              		.cfi_startproc
 1665              		@ args = 0, pretend = 0, frame = 0
 1666              		@ frame_needed = 0, uses_anonymous_args = 0
 1667 0000 F0B5     		push	{r4, r5, r6, r7, lr}
 1668              		.cfi_def_cfa_offset 20
 1669              		.cfi_offset 4, -20
 1670              		.cfi_offset 5, -16
 1671              		.cfi_offset 6, -12
 1672              		.cfi_offset 7, -8
 1673              		.cfi_offset 14, -4
 1674              		.loc 1 496 0
 1675 0002 2F4B     		ldr	r3, .L99
 1676              		.loc 1 497 0
 1677 0004 2F4F     		ldr	r7, .L99+4
 1678              		.loc 1 496 0
 1679 0006 9B69     		ldr	r3, [r3, #24]
 1680              		.loc 1 497 0
 1681 0008 2F4D     		ldr	r5, .L99+8
 1682              		.loc 1 496 0
 1683 000a 9E68     		ldr	r6, [r3, #8]
 1684              	.LVL176:
 1685              		.loc 1 497 0
 1686 000c 2F4B     		ldr	r3, .L99+12
 1687 000e 3868     		ldr	r0, [r7]
 1688 0010 2F4C     		ldr	r4, .L99+16
 1689              		.loc 1 494 0
 1690 0012 83B0     		sub	sp, sp, #12
 1691              		.cfi_def_cfa_offset 32
 1692              		.loc 1 497 0
 1693 0014 721C     		adds	r2, r6, #1
 1694 0016 0093     		str	r3, [sp]
 1695 0018 4FF4A871 		mov	r1, #336
 1696 001c 2B46     		mov	r3, r5
 1697 001e FFF7FEFF 		bl	chThdCreateStatic
 1698              	.LVL177:
 1699              		.loc 1 498 0
 1700 0022 7B68     		ldr	r3, [r7, #4]
 1701 0024 2B49     		ldr	r1, .L99+20
 1702              		.loc 1 497 0
ARM GAS  /tmp/ccexArGk.s 			page 31


 1703 0026 2060     		str	r0, [r4]
 1704              		.loc 1 498 0
 1705 0028 B21C     		adds	r2, r6, #2
 1706 002a 0091     		str	r1, [sp]
 1707 002c 1846     		mov	r0, r3
 1708 002e 4FF4A871 		mov	r1, #336
 1709 0032 2B46     		mov	r3, r5
 1710 0034 FFF7FEFF 		bl	chThdCreateStatic
 1711              	.LVL178:
 1712              		.loc 1 499 0
 1713 0038 BB68     		ldr	r3, [r7, #8]
 1714 003a 2749     		ldr	r1, .L99+24
 1715              		.loc 1 498 0
 1716 003c 6060     		str	r0, [r4, #4]
 1717              		.loc 1 499 0
 1718 003e F21C     		adds	r2, r6, #3
 1719 0040 0091     		str	r1, [sp]
 1720 0042 1846     		mov	r0, r3
 1721 0044 4FF4A871 		mov	r1, #336
 1722 0048 2B46     		mov	r3, r5
 1723 004a FFF7FEFF 		bl	chThdCreateStatic
 1724              	.LVL179:
 1725              		.loc 1 500 0
 1726 004e FB68     		ldr	r3, [r7, #12]
 1727 0050 2249     		ldr	r1, .L99+28
 1728              		.loc 1 499 0
 1729 0052 A060     		str	r0, [r4, #8]
 1730              		.loc 1 500 0
 1731 0054 321D     		adds	r2, r6, #4
 1732 0056 0091     		str	r1, [sp]
 1733 0058 1846     		mov	r0, r3
 1734 005a 4FF4A871 		mov	r1, #336
 1735 005e 2B46     		mov	r3, r5
 1736 0060 FFF7FEFF 		bl	chThdCreateStatic
 1737              	.LVL180:
 1738              		.loc 1 501 0
 1739 0064 3B69     		ldr	r3, [r7, #16]
 1740 0066 1E49     		ldr	r1, .L99+32
 1741              		.loc 1 500 0
 1742 0068 E060     		str	r0, [r4, #12]
 1743              		.loc 1 501 0
 1744 006a 721D     		adds	r2, r6, #5
 1745 006c 0091     		str	r1, [sp]
 1746 006e 1846     		mov	r0, r3
 1747 0070 4FF4A871 		mov	r1, #336
 1748 0074 2B46     		mov	r3, r5
 1749 0076 FFF7FEFF 		bl	chThdCreateStatic
 1750              	.LVL181:
 1751              	.LBB6:
 1752              		.loc 1 502 0
 1753 007a 2023     		movs	r3, #32
 1754              	.LBE6:
 1755              		.loc 1 501 0
 1756 007c 2061     		str	r0, [r4, #16]
 1757              	.LBB7:
 1758              		.loc 1 502 0
 1759              	@ 502 "../../../test/testmtx.c" 1
ARM GAS  /tmp/ccexArGk.s 			page 32


 1760 007e 83F31188 		msr     BASEPRI, r3
 1761              	@ 0 "" 2
 1762              		.thumb
 1763              	.LBE7:
 1764              		.loc 1 503 0
 1765 0082 184C     		ldr	r4, .L99+36
 1766 0084 2046     		mov	r0, r4
 1767 0086 FFF7FEFF 		bl	chCondSignalI
 1768              	.LVL182:
 1769              		.loc 1 504 0
 1770 008a 2046     		mov	r0, r4
 1771 008c FFF7FEFF 		bl	chCondSignalI
 1772              	.LVL183:
 1773              		.loc 1 505 0
 1774 0090 2046     		mov	r0, r4
 1775 0092 FFF7FEFF 		bl	chCondSignalI
 1776              	.LVL184:
 1777              		.loc 1 506 0
 1778 0096 2046     		mov	r0, r4
 1779 0098 FFF7FEFF 		bl	chCondSignalI
 1780              	.LVL185:
 1781              		.loc 1 507 0
 1782 009c 2046     		mov	r0, r4
 1783 009e FFF7FEFF 		bl	chCondSignalI
 1784              	.LVL186:
 1785              		.loc 1 508 0
 1786 00a2 FFF7FEFF 		bl	chSchRescheduleS
 1787              	.LVL187:
 1788              	.LBB8:
 1789              		.loc 1 509 0
 1790 00a6 0023     		movs	r3, #0
 1791              	@ 509 "../../../test/testmtx.c" 1
 1792 00a8 83F31188 		msr     BASEPRI, r3
 1793              	@ 0 "" 2
 1794              		.thumb
 1795              	.LBE8:
 1796              		.loc 1 510 0
 1797 00ac FFF7FEFF 		bl	test_wait_threads
 1798              	.LVL188:
 1799              		.loc 1 511 0
 1800 00b0 0D49     		ldr	r1, .L99+40
 1801 00b2 0120     		movs	r0, #1
 1802              		.loc 1 512 0
 1803 00b4 03B0     		add	sp, sp, #12
 1804              		.cfi_def_cfa_offset 20
 1805              		@ sp needed
 1806 00b6 BDE8F040 		pop	{r4, r5, r6, r7, lr}
 1807              		.cfi_restore 14
 1808              		.cfi_restore 7
 1809              		.cfi_restore 6
 1810              		.cfi_restore 5
 1811              		.cfi_restore 4
 1812              		.cfi_def_cfa_offset 0
 1813              	.LVL189:
 1814              		.loc 1 511 0
 1815 00ba FFF7FEBF 		b	_test_assert_sequence
 1816              	.LVL190:
ARM GAS  /tmp/ccexArGk.s 			page 33


 1817              	.L100:
 1818 00be 00BF     		.align	2
 1819              	.L99:
 1820 00c0 00000000 		.word	rlist
 1821 00c4 00000000 		.word	wa
 1822 00c8 00000000 		.word	thread10
 1823 00cc 00000000 		.word	.LC0
 1824 00d0 00000000 		.word	threads
 1825 00d4 04000000 		.word	.LC1
 1826 00d8 08000000 		.word	.LC2
 1827 00dc 0C000000 		.word	.LC3
 1828 00e0 10000000 		.word	.LC4
 1829 00e4 00000000 		.word	.LANCHOR2
 1830 00e8 14000000 		.word	.LC5
 1831              		.cfi_endproc
 1832              	.LFE30:
 1833              		.size	mtx6_execute, .-mtx6_execute
 1834 00ec AFF30080 		.section	.text.thread10,"ax",%progbits
 1835              		.align	2
 1836              		.p2align 4,,15
 1837              		.thumb
 1838              		.thumb_func
 1839              		.type	thread10, %function
 1840              	thread10:
 1841              	.LFB29:
 1842              		.loc 1 485 0
 1843              		.cfi_startproc
 1844              		@ args = 0, pretend = 0, frame = 0
 1845              		@ frame_needed = 0, uses_anonymous_args = 0
 1846              	.LVL191:
 1847 0000 10B5     		push	{r4, lr}
 1848              		.cfi_def_cfa_offset 8
 1849              		.cfi_offset 4, -8
 1850              		.cfi_offset 14, -4
 1851              		.loc 1 485 0
 1852 0002 0446     		mov	r4, r0
 1853              		.loc 1 487 0
 1854 0004 0648     		ldr	r0, .L103
 1855              	.LVL192:
 1856 0006 FFF7FEFF 		bl	chMtxLock
 1857              	.LVL193:
 1858              		.loc 1 488 0
 1859 000a 0648     		ldr	r0, .L103+4
 1860 000c FFF7FEFF 		bl	chCondWait
 1861              	.LVL194:
 1862              		.loc 1 489 0
 1863 0010 2078     		ldrb	r0, [r4]	@ zero_extendqisi2
 1864 0012 FFF7FEFF 		bl	test_emit_token
 1865              	.LVL195:
 1866              		.loc 1 490 0
 1867 0016 FFF7FEFF 		bl	chMtxUnlock
 1868              	.LVL196:
 1869              		.loc 1 492 0
 1870 001a 0020     		movs	r0, #0
 1871 001c 10BD     		pop	{r4, pc}
 1872              	.LVL197:
 1873              	.L104:
ARM GAS  /tmp/ccexArGk.s 			page 34


 1874 001e 00BF     		.align	2
 1875              	.L103:
 1876 0020 00000000 		.word	.LANCHOR0
 1877 0024 00000000 		.word	.LANCHOR2
 1878              		.cfi_endproc
 1879              	.LFE29:
 1880              		.size	thread10, .-thread10
 1881 0028 AFF30080 		.section	.text.mtx6_setup,"ax",%progbits
 1881      AFF30080 
 1882              		.align	2
 1883              		.p2align 4,,15
 1884              		.thumb
 1885              		.thumb_func
 1886              		.type	mtx6_setup, %function
 1887              	mtx6_setup:
 1888              	.LFB28:
 1889              		.loc 1 479 0
 1890              		.cfi_startproc
 1891              		@ args = 0, pretend = 0, frame = 0
 1892              		@ frame_needed = 0, uses_anonymous_args = 0
 1893 0000 08B5     		push	{r3, lr}
 1894              		.cfi_def_cfa_offset 8
 1895              		.cfi_offset 3, -8
 1896              		.cfi_offset 14, -4
 1897              		.loc 1 481 0
 1898 0002 0448     		ldr	r0, .L107
 1899 0004 FFF7FEFF 		bl	chCondInit
 1900              	.LVL198:
 1901              		.loc 1 482 0
 1902 0008 0348     		ldr	r0, .L107+4
 1903              		.loc 1 483 0
 1904 000a BDE80840 		pop	{r3, lr}
 1905              		.cfi_restore 14
 1906              		.cfi_restore 3
 1907              		.cfi_def_cfa_offset 0
 1908              		.loc 1 482 0
 1909 000e FFF7FEBF 		b	chMtxInit
 1910              	.LVL199:
 1911              	.L108:
 1912 0012 00BF     		.align	2
 1913              	.L107:
 1914 0014 00000000 		.word	.LANCHOR2
 1915 0018 00000000 		.word	.LANCHOR0
 1916              		.cfi_endproc
 1917              	.LFE28:
 1918              		.size	mtx6_setup, .-mtx6_setup
 1919 001c AFF30080 		.section	.text.mtx7_setup,"ax",%progbits
 1920              		.align	2
 1921              		.p2align 4,,15
 1922              		.thumb
 1923              		.thumb_func
 1924              		.type	mtx7_setup, %function
 1925              	mtx7_setup:
 1926              	.LFB31:
 1927              		.loc 1 531 0
 1928              		.cfi_startproc
 1929              		@ args = 0, pretend = 0, frame = 0
ARM GAS  /tmp/ccexArGk.s 			page 35


 1930              		@ frame_needed = 0, uses_anonymous_args = 0
 1931 0000 08B5     		push	{r3, lr}
 1932              		.cfi_def_cfa_offset 8
 1933              		.cfi_offset 3, -8
 1934              		.cfi_offset 14, -4
 1935              		.loc 1 533 0
 1936 0002 0448     		ldr	r0, .L111
 1937 0004 FFF7FEFF 		bl	chCondInit
 1938              	.LVL200:
 1939              		.loc 1 534 0
 1940 0008 0348     		ldr	r0, .L111+4
 1941              		.loc 1 535 0
 1942 000a BDE80840 		pop	{r3, lr}
 1943              		.cfi_restore 14
 1944              		.cfi_restore 3
 1945              		.cfi_def_cfa_offset 0
 1946              		.loc 1 534 0
 1947 000e FFF7FEBF 		b	chMtxInit
 1948              	.LVL201:
 1949              	.L112:
 1950 0012 00BF     		.align	2
 1951              	.L111:
 1952 0014 00000000 		.word	.LANCHOR2
 1953 0018 00000000 		.word	.LANCHOR0
 1954              		.cfi_endproc
 1955              	.LFE31:
 1956              		.size	mtx7_setup, .-mtx7_setup
 1957 001c AFF30080 		.section	.text.mtx8_setup,"ax",%progbits
 1958              		.align	2
 1959              		.p2align 4,,15
 1960              		.thumb
 1961              		.thumb_func
 1962              		.type	mtx8_setup, %function
 1963              	mtx8_setup:
 1964              	.LFB33:
 1965              		.loc 1 566 0
 1966              		.cfi_startproc
 1967              		@ args = 0, pretend = 0, frame = 0
 1968              		@ frame_needed = 0, uses_anonymous_args = 0
 1969 0000 08B5     		push	{r3, lr}
 1970              		.cfi_def_cfa_offset 8
 1971              		.cfi_offset 3, -8
 1972              		.cfi_offset 14, -4
 1973              		.loc 1 568 0
 1974 0002 0548     		ldr	r0, .L115
 1975 0004 FFF7FEFF 		bl	chCondInit
 1976              	.LVL202:
 1977              		.loc 1 569 0
 1978 0008 0448     		ldr	r0, .L115+4
 1979 000a FFF7FEFF 		bl	chMtxInit
 1980              	.LVL203:
 1981              		.loc 1 570 0
 1982 000e 0448     		ldr	r0, .L115+8
 1983              		.loc 1 571 0
 1984 0010 BDE80840 		pop	{r3, lr}
 1985              		.cfi_restore 14
 1986              		.cfi_restore 3
ARM GAS  /tmp/ccexArGk.s 			page 36


 1987              		.cfi_def_cfa_offset 0
 1988              		.loc 1 570 0
 1989 0014 FFF7FEBF 		b	chMtxInit
 1990              	.LVL204:
 1991              	.L116:
 1992              		.align	2
 1993              	.L115:
 1994 0018 00000000 		.word	.LANCHOR2
 1995 001c 00000000 		.word	.LANCHOR0
 1996 0020 00000000 		.word	.LANCHOR1
 1997              		.cfi_endproc
 1998              	.LFE33:
 1999              		.size	mtx8_setup, .-mtx8_setup
 2000 0024 AFF30080 		.section	.text.mtx7_execute,"ax",%progbits
 2000      AFF30080 
 2000      AFF30080 
 2001              		.align	2
 2002              		.p2align 4,,15
 2003              		.thumb
 2004              		.thumb_func
 2005              		.type	mtx7_execute, %function
 2006              	mtx7_execute:
 2007              	.LFB32:
 2008              		.loc 1 537 0
 2009              		.cfi_startproc
 2010              		@ args = 0, pretend = 0, frame = 0
 2011              		@ frame_needed = 0, uses_anonymous_args = 0
 2012 0000 F0B5     		push	{r4, r5, r6, r7, lr}
 2013              		.cfi_def_cfa_offset 20
 2014              		.cfi_offset 4, -20
 2015              		.cfi_offset 5, -16
 2016              		.cfi_offset 6, -12
 2017              		.cfi_offset 7, -8
 2018              		.cfi_offset 14, -4
 2019              		.loc 1 539 0
 2020 0002 244B     		ldr	r3, .L119
 2021              		.loc 1 540 0
 2022 0004 244F     		ldr	r7, .L119+4
 2023              		.loc 1 539 0
 2024 0006 9B69     		ldr	r3, [r3, #24]
 2025              		.loc 1 540 0
 2026 0008 244D     		ldr	r5, .L119+8
 2027              		.loc 1 539 0
 2028 000a 9E68     		ldr	r6, [r3, #8]
 2029              	.LVL205:
 2030              		.loc 1 540 0
 2031 000c 244B     		ldr	r3, .L119+12
 2032 000e 3868     		ldr	r0, [r7]
 2033 0010 244C     		ldr	r4, .L119+16
 2034              		.loc 1 537 0
 2035 0012 83B0     		sub	sp, sp, #12
 2036              		.cfi_def_cfa_offset 32
 2037              		.loc 1 540 0
 2038 0014 721C     		adds	r2, r6, #1
 2039 0016 0093     		str	r3, [sp]
 2040 0018 4FF4A871 		mov	r1, #336
 2041 001c 2B46     		mov	r3, r5
ARM GAS  /tmp/ccexArGk.s 			page 37


 2042 001e FFF7FEFF 		bl	chThdCreateStatic
 2043              	.LVL206:
 2044              		.loc 1 541 0
 2045 0022 7B68     		ldr	r3, [r7, #4]
 2046 0024 2049     		ldr	r1, .L119+20
 2047              		.loc 1 540 0
 2048 0026 2060     		str	r0, [r4]
 2049              		.loc 1 541 0
 2050 0028 B21C     		adds	r2, r6, #2
 2051 002a 0091     		str	r1, [sp]
 2052 002c 1846     		mov	r0, r3
 2053 002e 4FF4A871 		mov	r1, #336
 2054 0032 2B46     		mov	r3, r5
 2055 0034 FFF7FEFF 		bl	chThdCreateStatic
 2056              	.LVL207:
 2057              		.loc 1 542 0
 2058 0038 BB68     		ldr	r3, [r7, #8]
 2059 003a 1C49     		ldr	r1, .L119+24
 2060              		.loc 1 541 0
 2061 003c 6060     		str	r0, [r4, #4]
 2062              		.loc 1 542 0
 2063 003e F21C     		adds	r2, r6, #3
 2064 0040 0091     		str	r1, [sp]
 2065 0042 1846     		mov	r0, r3
 2066 0044 4FF4A871 		mov	r1, #336
 2067 0048 2B46     		mov	r3, r5
 2068 004a FFF7FEFF 		bl	chThdCreateStatic
 2069              	.LVL208:
 2070              		.loc 1 543 0
 2071 004e FB68     		ldr	r3, [r7, #12]
 2072 0050 1749     		ldr	r1, .L119+28
 2073              		.loc 1 542 0
 2074 0052 A060     		str	r0, [r4, #8]
 2075              		.loc 1 543 0
 2076 0054 321D     		adds	r2, r6, #4
 2077 0056 0091     		str	r1, [sp]
 2078 0058 1846     		mov	r0, r3
 2079 005a 4FF4A871 		mov	r1, #336
 2080 005e 2B46     		mov	r3, r5
 2081 0060 FFF7FEFF 		bl	chThdCreateStatic
 2082              	.LVL209:
 2083              		.loc 1 544 0
 2084 0064 3B69     		ldr	r3, [r7, #16]
 2085 0066 1349     		ldr	r1, .L119+32
 2086              		.loc 1 543 0
 2087 0068 E060     		str	r0, [r4, #12]
 2088              		.loc 1 544 0
 2089 006a 721D     		adds	r2, r6, #5
 2090 006c 0091     		str	r1, [sp]
 2091 006e 1846     		mov	r0, r3
 2092 0070 4FF4A871 		mov	r1, #336
 2093 0074 2B46     		mov	r3, r5
 2094 0076 FFF7FEFF 		bl	chThdCreateStatic
 2095              	.LVL210:
 2096 007a 2061     		str	r0, [r4, #16]
 2097              		.loc 1 545 0
 2098 007c 0E48     		ldr	r0, .L119+36
ARM GAS  /tmp/ccexArGk.s 			page 38


 2099 007e FFF7FEFF 		bl	chCondBroadcast
 2100              	.LVL211:
 2101              		.loc 1 546 0
 2102 0082 FFF7FEFF 		bl	test_wait_threads
 2103              	.LVL212:
 2104              		.loc 1 547 0
 2105 0086 0D49     		ldr	r1, .L119+40
 2106 0088 0120     		movs	r0, #1
 2107              		.loc 1 548 0
 2108 008a 03B0     		add	sp, sp, #12
 2109              		.cfi_def_cfa_offset 20
 2110              		@ sp needed
 2111 008c BDE8F040 		pop	{r4, r5, r6, r7, lr}
 2112              		.cfi_restore 14
 2113              		.cfi_restore 7
 2114              		.cfi_restore 6
 2115              		.cfi_restore 5
 2116              		.cfi_restore 4
 2117              		.cfi_def_cfa_offset 0
 2118              	.LVL213:
 2119              		.loc 1 547 0
 2120 0090 FFF7FEBF 		b	_test_assert_sequence
 2121              	.LVL214:
 2122              	.L120:
 2123              		.align	2
 2124              	.L119:
 2125 0094 00000000 		.word	rlist
 2126 0098 00000000 		.word	wa
 2127 009c 00000000 		.word	thread10
 2128 00a0 00000000 		.word	.LC0
 2129 00a4 00000000 		.word	threads
 2130 00a8 04000000 		.word	.LC1
 2131 00ac 08000000 		.word	.LC2
 2132 00b0 0C000000 		.word	.LC3
 2133 00b4 10000000 		.word	.LC4
 2134 00b8 00000000 		.word	.LANCHOR2
 2135 00bc 14000000 		.word	.LC5
 2136              		.cfi_endproc
 2137              	.LFE32:
 2138              		.size	mtx7_execute, .-mtx7_execute
 2139              		.section	.text.mtx8_execute,"ax",%progbits
 2140              		.align	2
 2141              		.p2align 4,,15
 2142              		.thumb
 2143              		.thumb_func
 2144              		.type	mtx8_execute, %function
 2145              	mtx8_execute:
 2146              	.LFB36:
 2147              		.loc 1 596 0
 2148              		.cfi_startproc
 2149              		@ args = 0, pretend = 0, frame = 0
 2150              		@ frame_needed = 0, uses_anonymous_args = 0
 2151 0000 F0B5     		push	{r4, r5, r6, r7, lr}
 2152              		.cfi_def_cfa_offset 20
 2153              		.cfi_offset 4, -20
 2154              		.cfi_offset 5, -16
 2155              		.cfi_offset 6, -12
ARM GAS  /tmp/ccexArGk.s 			page 39


 2156              		.cfi_offset 7, -8
 2157              		.cfi_offset 14, -4
 2158              		.loc 1 598 0
 2159 0002 1B4B     		ldr	r3, .L123
 2160              		.loc 1 599 0
 2161 0004 1B4E     		ldr	r6, .L123+4
 2162              		.loc 1 598 0
 2163 0006 9B69     		ldr	r3, [r3, #24]
 2164              		.loc 1 599 0
 2165 0008 3068     		ldr	r0, [r6]
 2166              		.loc 1 598 0
 2167 000a 9D68     		ldr	r5, [r3, #8]
 2168              	.LVL215:
 2169              		.loc 1 599 0
 2170 000c 1A4B     		ldr	r3, .L123+8
 2171 000e 1B4C     		ldr	r4, .L123+12
 2172              		.loc 1 602 0
 2173 0010 1B4F     		ldr	r7, .L123+16
 2174              		.loc 1 596 0
 2175 0012 83B0     		sub	sp, sp, #12
 2176              		.cfi_def_cfa_offset 32
 2177              		.loc 1 599 0
 2178 0014 6A1C     		adds	r2, r5, #1
 2179 0016 0093     		str	r3, [sp]
 2180 0018 4FF4A871 		mov	r1, #336
 2181 001c 194B     		ldr	r3, .L123+20
 2182 001e FFF7FEFF 		bl	chThdCreateStatic
 2183              	.LVL216:
 2184              		.loc 1 600 0
 2185 0022 7168     		ldr	r1, [r6, #4]
 2186 0024 184B     		ldr	r3, .L123+24
 2187              		.loc 1 599 0
 2188 0026 2060     		str	r0, [r4]
 2189              		.loc 1 600 0
 2190 0028 AA1C     		adds	r2, r5, #2
 2191 002a 0093     		str	r3, [sp]
 2192 002c 0846     		mov	r0, r1
 2193 002e 174B     		ldr	r3, .L123+28
 2194 0030 4FF4A871 		mov	r1, #336
 2195 0034 FFF7FEFF 		bl	chThdCreateStatic
 2196              	.LVL217:
 2197              		.loc 1 601 0
 2198 0038 B168     		ldr	r1, [r6, #8]
 2199 003a 154B     		ldr	r3, .L123+32
 2200              		.loc 1 600 0
 2201 003c 6060     		str	r0, [r4, #4]
 2202              		.loc 1 601 0
 2203 003e EA1C     		adds	r2, r5, #3
 2204 0040 0093     		str	r3, [sp]
 2205 0042 0846     		mov	r0, r1
 2206 0044 134B     		ldr	r3, .L123+36
 2207 0046 4FF4A871 		mov	r1, #336
 2208 004a FFF7FEFF 		bl	chThdCreateStatic
 2209              	.LVL218:
 2210 004e A060     		str	r0, [r4, #8]
 2211              		.loc 1 602 0
 2212 0050 3846     		mov	r0, r7
ARM GAS  /tmp/ccexArGk.s 			page 40


 2213 0052 FFF7FEFF 		bl	chCondSignal
 2214              	.LVL219:
 2215              		.loc 1 603 0
 2216 0056 3846     		mov	r0, r7
 2217 0058 FFF7FEFF 		bl	chCondSignal
 2218              	.LVL220:
 2219              		.loc 1 604 0
 2220 005c FFF7FEFF 		bl	test_wait_threads
 2221              	.LVL221:
 2222              		.loc 1 605 0
 2223 0060 0D49     		ldr	r1, .L123+40
 2224 0062 0120     		movs	r0, #1
 2225              		.loc 1 606 0
 2226 0064 03B0     		add	sp, sp, #12
 2227              		.cfi_def_cfa_offset 20
 2228              		@ sp needed
 2229 0066 BDE8F040 		pop	{r4, r5, r6, r7, lr}
 2230              		.cfi_restore 14
 2231              		.cfi_restore 7
 2232              		.cfi_restore 6
 2233              		.cfi_restore 5
 2234              		.cfi_restore 4
 2235              		.cfi_def_cfa_offset 0
 2236              	.LVL222:
 2237              		.loc 1 605 0
 2238 006a FFF7FEBF 		b	_test_assert_sequence
 2239              	.LVL223:
 2240              	.L124:
 2241 006e 00BF     		.align	2
 2242              	.L123:
 2243 0070 00000000 		.word	rlist
 2244 0074 00000000 		.word	wa
 2245 0078 10000000 		.word	.LC4
 2246 007c 00000000 		.word	threads
 2247 0080 00000000 		.word	.LANCHOR2
 2248 0084 00000000 		.word	thread11
 2249 0088 08000000 		.word	.LC2
 2250 008c 00000000 		.word	thread10
 2251 0090 0C000000 		.word	.LC3
 2252 0094 00000000 		.word	thread12
 2253 0098 1C000000 		.word	.LC6
 2254              		.cfi_endproc
 2255              	.LFE36:
 2256              		.size	mtx8_execute, .-mtx8_execute
 2257 009c AFF30080 		.section	.text.thread11,"ax",%progbits
 2258              		.align	2
 2259              		.p2align 4,,15
 2260              		.thumb
 2261              		.thumb_func
 2262              		.type	thread11, %function
 2263              	thread11:
 2264              	.LFB34:
 2265              		.loc 1 573 0
 2266              		.cfi_startproc
 2267              		@ args = 0, pretend = 0, frame = 0
 2268              		@ frame_needed = 0, uses_anonymous_args = 0
 2269              	.LVL224:
ARM GAS  /tmp/ccexArGk.s 			page 41


 2270 0000 10B5     		push	{r4, lr}
 2271              		.cfi_def_cfa_offset 8
 2272              		.cfi_offset 4, -8
 2273              		.cfi_offset 14, -4
 2274              		.loc 1 573 0
 2275 0002 0446     		mov	r4, r0
 2276              		.loc 1 575 0
 2277 0004 0948     		ldr	r0, .L127
 2278              	.LVL225:
 2279 0006 FFF7FEFF 		bl	chMtxLock
 2280              	.LVL226:
 2281              		.loc 1 576 0
 2282 000a 0948     		ldr	r0, .L127+4
 2283 000c FFF7FEFF 		bl	chMtxLock
 2284              	.LVL227:
 2285              		.loc 1 578 0
 2286 0010 4FF0FF31 		mov	r1, #-1
 2287 0014 0748     		ldr	r0, .L127+8
 2288 0016 FFF7FEFF 		bl	chCondWaitTimeout
 2289              	.LVL228:
 2290              		.loc 1 582 0
 2291 001a 2078     		ldrb	r0, [r4]	@ zero_extendqisi2
 2292 001c FFF7FEFF 		bl	test_emit_token
 2293              	.LVL229:
 2294              		.loc 1 583 0
 2295 0020 FFF7FEFF 		bl	chMtxUnlock
 2296              	.LVL230:
 2297              		.loc 1 584 0
 2298 0024 FFF7FEFF 		bl	chMtxUnlock
 2299              	.LVL231:
 2300              		.loc 1 586 0
 2301 0028 0020     		movs	r0, #0
 2302 002a 10BD     		pop	{r4, pc}
 2303              	.LVL232:
 2304              	.L128:
 2305              		.align	2
 2306              	.L127:
 2307 002c 00000000 		.word	.LANCHOR1
 2308 0030 00000000 		.word	.LANCHOR0
 2309 0034 00000000 		.word	.LANCHOR2
 2310              		.cfi_endproc
 2311              	.LFE34:
 2312              		.size	thread11, .-thread11
 2313              		.global	patternmtx
 2314              		.global	testmtx8
 2315              		.global	testmtx7
 2316              		.global	testmtx6
 2317              		.global	testmtx5
 2318              		.global	testmtx4
 2319              		.global	testmtx3
 2320              		.global	testmtx2
 2321              		.global	testmtx1
 2322 0038 AFF30080 		.section	.rodata.testmtx5,"a",%progbits
 2322      AFF30080 
 2323              		.align	2
 2324              		.type	testmtx5, %object
 2325              		.size	testmtx5, 16
ARM GAS  /tmp/ccexArGk.s 			page 42


 2326              	testmtx5:
 2327 0000 64000000 		.word	.LC10
 2328 0004 00000000 		.word	mtx5_setup
 2329 0008 00000000 		.word	0
 2330 000c 00000000 		.word	mtx5_execute
 2331              		.section	.rodata.testmtx6,"a",%progbits
 2332              		.align	2
 2333              		.type	testmtx6, %object
 2334              		.size	testmtx6, 16
 2335              	testmtx6:
 2336 0000 4C000000 		.word	.LC9
 2337 0004 00000000 		.word	mtx6_setup
 2338 0008 00000000 		.word	0
 2339 000c 00000000 		.word	mtx6_execute
 2340              		.section	.rodata.testmtx7,"a",%progbits
 2341              		.align	2
 2342              		.type	testmtx7, %object
 2343              		.size	testmtx7, 16
 2344              	testmtx7:
 2345 0000 34000000 		.word	.LC8
 2346 0004 00000000 		.word	mtx7_setup
 2347 0008 00000000 		.word	0
 2348 000c 00000000 		.word	mtx7_execute
 2349              		.section	.rodata.testmtx8,"a",%progbits
 2350              		.align	2
 2351              		.type	testmtx8, %object
 2352              		.size	testmtx8, 16
 2353              	testmtx8:
 2354 0000 20000000 		.word	.LC7
 2355 0004 00000000 		.word	mtx8_setup
 2356 0008 00000000 		.word	0
 2357 000c 00000000 		.word	mtx8_execute
 2358              		.section	.data.m1,"aw",%progbits
 2359              		.align	2
 2360              		.set	.LANCHOR0,. + 0
 2361              		.type	m1, %object
 2362              		.size	m1, 16
 2363              	m1:
 2364 0000 00000000 		.word	m1
 2365 0004 00000000 		.word	m1
 2366 0008 00000000 		.word	0
 2367 000c 00000000 		.word	0
 2368              		.section	.data.m2,"aw",%progbits
 2369              		.align	2
 2370              		.set	.LANCHOR1,. + 0
 2371              		.type	m2, %object
 2372              		.size	m2, 16
 2373              	m2:
 2374 0000 00000000 		.word	m2
 2375 0004 00000000 		.word	m2
 2376 0008 00000000 		.word	0
 2377 000c 00000000 		.word	0
 2378              		.section	.rodata.str1.4,"aMS",%progbits,1
 2379              		.align	2
 2380              	.LC0:
 2381 0000 4500     		.ascii	"E\000"
 2382 0002 0000     		.space	2
ARM GAS  /tmp/ccexArGk.s 			page 43


 2383              	.LC1:
 2384 0004 4400     		.ascii	"D\000"
 2385 0006 0000     		.space	2
 2386              	.LC2:
 2387 0008 4300     		.ascii	"C\000"
 2388 000a 0000     		.space	2
 2389              	.LC3:
 2390 000c 4200     		.ascii	"B\000"
 2391 000e 0000     		.space	2
 2392              	.LC4:
 2393 0010 4100     		.ascii	"A\000"
 2394 0012 0000     		.space	2
 2395              	.LC5:
 2396 0014 41424344 		.ascii	"ABCDE\000"
 2396      4500
 2397 001a 0000     		.space	2
 2398              	.LC6:
 2399 001c 41424300 		.ascii	"ABC\000"
 2400              	.LC7:
 2401 0020 436F6E64 		.ascii	"CondVar, boost test\000"
 2401      5661722C 
 2401      20626F6F 
 2401      73742074 
 2401      65737400 
 2402              	.LC8:
 2403 0034 436F6E64 		.ascii	"CondVar, broadcast test\000"
 2403      5661722C 
 2403      2062726F 
 2403      61646361 
 2403      73742074 
 2404              	.LC9:
 2405 004c 436F6E64 		.ascii	"CondVar, signal test\000"
 2405      5661722C 
 2405      20736967 
 2405      6E616C20 
 2405      74657374 
 2406 0061 000000   		.space	3
 2407              	.LC10:
 2408 0064 4D757465 		.ascii	"Mutexes, status\000"
 2408      7865732C 
 2408      20737461 
 2408      74757300 
 2409              	.LC11:
 2410 0074 4D757465 		.ascii	"Mutexes, priority return\000"
 2410      7865732C 
 2410      20707269 
 2410      6F726974 
 2410      79207265 
 2411 008d 000000   		.space	3
 2412              	.LC12:
 2413 0090 4D757465 		.ascii	"Mutexes, priority inheritance, complex case\000"
 2413      7865732C 
 2413      20707269 
 2413      6F726974 
 2413      7920696E 
 2414              	.LC13:
 2415 00bc 4D757465 		.ascii	"Mutexes, priority inheritance, simple case\000"
ARM GAS  /tmp/ccexArGk.s 			page 44


 2415      7865732C 
 2415      20707269 
 2415      6F726974 
 2415      7920696E 
 2416 00e7 00       		.space	1
 2417              	.LC14:
 2418 00e8 4D757465 		.ascii	"Mutexes, priority enqueuing test\000"
 2418      7865732C 
 2418      20707269 
 2418      6F726974 
 2418      7920656E 
 2419 0109 000000   		.section	.rodata.patternmtx,"a",%progbits
 2420              		.align	2
 2421              		.type	patternmtx, %object
 2422              		.size	patternmtx, 36
 2423              	patternmtx:
 2424 0000 00000000 		.word	testmtx1
 2425 0004 00000000 		.word	testmtx2
 2426 0008 00000000 		.word	testmtx3
 2427 000c 00000000 		.word	testmtx4
 2428 0010 00000000 		.word	testmtx5
 2429 0014 00000000 		.word	testmtx6
 2430 0018 00000000 		.word	testmtx7
 2431 001c 00000000 		.word	testmtx8
 2432 0020 00000000 		.word	0
 2433              		.section	.data.c1,"aw",%progbits
 2434              		.align	2
 2435              		.set	.LANCHOR2,. + 0
 2436              		.type	c1, %object
 2437              		.size	c1, 8
 2438              	c1:
 2439 0000 00000000 		.word	c1
 2440 0004 00000000 		.word	c1
 2441              		.section	.rodata.testmtx1,"a",%progbits
 2442              		.align	2
 2443              		.type	testmtx1, %object
 2444              		.size	testmtx1, 16
 2445              	testmtx1:
 2446 0000 E8000000 		.word	.LC14
 2447 0004 00000000 		.word	mtx1_setup
 2448 0008 00000000 		.word	0
 2449 000c 00000000 		.word	mtx1_execute
 2450              		.section	.rodata.testmtx2,"a",%progbits
 2451              		.align	2
 2452              		.type	testmtx2, %object
 2453              		.size	testmtx2, 16
 2454              	testmtx2:
 2455 0000 BC000000 		.word	.LC13
 2456 0004 00000000 		.word	mtx2_setup
 2457 0008 00000000 		.word	0
 2458 000c 00000000 		.word	mtx2_execute
 2459              		.section	.rodata.testmtx3,"a",%progbits
 2460              		.align	2
 2461              		.type	testmtx3, %object
 2462              		.size	testmtx3, 16
 2463              	testmtx3:
 2464 0000 90000000 		.word	.LC12
ARM GAS  /tmp/ccexArGk.s 			page 45


 2465 0004 00000000 		.word	mtx3_setup
 2466 0008 00000000 		.word	0
 2467 000c 00000000 		.word	mtx3_execute
 2468              		.section	.rodata.testmtx4,"a",%progbits
 2469              		.align	2
 2470              		.type	testmtx4, %object
 2471              		.size	testmtx4, 16
 2472              	testmtx4:
 2473 0000 74000000 		.word	.LC11
 2474 0004 00000000 		.word	mtx4_setup
 2475 0008 00000000 		.word	0
 2476 000c 00000000 		.word	mtx4_execute
 2477              		.text
 2478              	.Letext0:
 2479              		.file 2 "/usr/lib/gcc/arm-none-eabi/4.9.2/include/stddef.h"
 2480              		.file 3 "/usr/arm-none-eabi/include/machine/_default_types.h"
 2481              		.file 4 "/usr/arm-none-eabi/include/stdint.h"
 2482              		.file 5 "../../../os/ports/GCC/ARMCMx/chtypes.h"
 2483              		.file 6 "../../../os/kernel/include/chlists.h"
 2484              		.file 7 "../../../os/kernel/include/chthreads.h"
 2485              		.file 8 "../../../os/ports/GCC/ARMCMx/chcore_v7m.h"
 2486              		.file 9 "../../../os/kernel/include/chvt.h"
 2487              		.file 10 "../../../os/kernel/include/chschd.h"
 2488              		.file 11 "../../../os/kernel/include/chmtx.h"
 2489              		.file 12 "../../../os/kernel/include/chcond.h"
 2490              		.file 13 "../../../test/test.h"