ARM GAS  /tmp/ccX0rfmO.s 			page 1


   1              		.syntax unified
   2              		.cpu cortex-m4
   3              		.fpu softvfp
   4              		.eabi_attribute 20, 1
   5              		.eabi_attribute 21, 1
   6              		.eabi_attribute 23, 3
   7              		.eabi_attribute 24, 1
   8              		.eabi_attribute 25, 1
   9              		.eabi_attribute 26, 1
  10              		.eabi_attribute 30, 2
  11              		.eabi_attribute 34, 1
  12              		.eabi_attribute 18, 4
  13              		.thumb
  14              		.file	"testheap.c"
  15              		.text
  16              	.Ltext0:
  17              		.cfi_sections	.debug_frame
  18              		.section	.text.heap1_execute,"ax",%progbits
  19              		.align	2
  20              		.p2align 4,,15
  21              		.thumb
  22              		.thumb_func
  23              		.type	heap1_execute, %function
  24              	heap1_execute:
  25              	.LFB8:
  26              		.file 1 "../../../test/testheap.c"
  27              		.loc 1 69 0
  28              		.cfi_startproc
  29              		@ args = 0, pretend = 0, frame = 8
  30              		@ frame_needed = 0, uses_anonymous_args = 0
  31 0000 70B5     		push	{r4, r5, r6, lr}
  32              		.cfi_def_cfa_offset 16
  33              		.cfi_offset 4, -16
  34              		.cfi_offset 5, -12
  35              		.cfi_offset 6, -8
  36              		.cfi_offset 14, -4
  37 0002 82B0     		sub	sp, sp, #8
  38              		.cfi_def_cfa_offset 24
  39              		.loc 1 74 0
  40 0004 FFF7FEFF 		bl	chCoreStatus
  41              	.LVL0:
  42              		.loc 1 80 0
  43 0008 01A9     		add	r1, sp, #4
  44 000a 0020     		movs	r0, #0
  45 000c FFF7FEFF 		bl	chHeapStatus
  46              	.LVL1:
  47              		.loc 1 81 0
  48 0010 1021     		movs	r1, #16
  49 0012 0020     		movs	r0, #0
  50 0014 FFF7FEFF 		bl	chHeapAlloc
  51              	.LVL2:
  52              		.loc 1 82 0
  53 0018 011C     		adds	r1, r0, #0
  54 001a 0546     		mov	r5, r0
  55 001c 18BF     		it	ne
  56 001e 0121     		movne	r1, #1
  57 0020 0120     		movs	r0, #1
ARM GAS  /tmp/ccX0rfmO.s 			page 2


  58              	.LVL3:
  59 0022 FFF7FEFF 		bl	_test_assert
  60              	.LVL4:
  61 0026 0446     		mov	r4, r0
  62 0028 08B1     		cbz	r0, .L8
  63              	.LVL5:
  64              	.L1:
  65              		.loc 1 140 0
  66 002a 02B0     		add	sp, sp, #8
  67              		.cfi_remember_state
  68              		.cfi_def_cfa_offset 16
  69              		@ sp needed
  70 002c 70BD     		pop	{r4, r5, r6, pc}
  71              	.LVL6:
  72              	.L8:
  73              		.cfi_restore_state
  74              		.loc 1 83 0
  75 002e 2846     		mov	r0, r5
  76 0030 FFF7FEFF 		bl	chHeapFree
  77              	.LVL7:
  78              		.loc 1 84 0
  79 0034 6FF0FF01 		mvn	r1, #255
  80 0038 2046     		mov	r0, r4
  81 003a FFF7FEFF 		bl	chHeapAlloc
  82              	.LVL8:
  83              		.loc 1 85 0
  84 003e B0FA80F1 		clz	r1, r0
  85 0042 0220     		movs	r0, #2
  86              	.LVL9:
  87 0044 4909     		lsrs	r1, r1, #5
  88 0046 FFF7FEFF 		bl	_test_assert
  89              	.LVL10:
  90 004a 0028     		cmp	r0, #0
  91 004c EDD1     		bne	.L1
  92              		.loc 1 88 0
  93 004e 01A9     		add	r1, sp, #4
  94 0050 7B48     		ldr	r0, .L9
  95 0052 FFF7FEFF 		bl	chHeapStatus
  96              	.LVL11:
  97              		.loc 1 91 0
  98 0056 1021     		movs	r1, #16
  99 0058 7948     		ldr	r0, .L9
 100 005a FFF7FEFF 		bl	chHeapAlloc
 101              	.LVL12:
 102              		.loc 1 92 0
 103 005e 1021     		movs	r1, #16
 104              		.loc 1 91 0
 105 0060 0646     		mov	r6, r0
 106              	.LVL13:
 107              		.loc 1 92 0
 108 0062 7748     		ldr	r0, .L9
 109              	.LVL14:
 110 0064 FFF7FEFF 		bl	chHeapAlloc
 111              	.LVL15:
 112              		.loc 1 93 0
 113 0068 1021     		movs	r1, #16
 114              		.loc 1 92 0
ARM GAS  /tmp/ccX0rfmO.s 			page 3


 115 006a 0546     		mov	r5, r0
 116              	.LVL16:
 117              		.loc 1 93 0
 118 006c 7448     		ldr	r0, .L9
 119              	.LVL17:
 120 006e FFF7FEFF 		bl	chHeapAlloc
 121              	.LVL18:
 122 0072 0446     		mov	r4, r0
 123              	.LVL19:
 124              		.loc 1 94 0
 125 0074 3046     		mov	r0, r6
 126              	.LVL20:
 127 0076 FFF7FEFF 		bl	chHeapFree
 128              	.LVL21:
 129              		.loc 1 95 0
 130 007a 2846     		mov	r0, r5
 131 007c FFF7FEFF 		bl	chHeapFree
 132              	.LVL22:
 133              		.loc 1 96 0
 134 0080 2046     		mov	r0, r4
 135 0082 FFF7FEFF 		bl	chHeapFree
 136              	.LVL23:
 137              		.loc 1 97 0
 138 0086 6946     		mov	r1, sp
 139 0088 6D48     		ldr	r0, .L9
 140 008a FFF7FEFF 		bl	chHeapStatus
 141              	.LVL24:
 142 008e A0F10101 		sub	r1, r0, #1
 143 0092 0320     		movs	r0, #3
 144 0094 B1FA81F1 		clz	r1, r1
 145 0098 4909     		lsrs	r1, r1, #5
 146 009a FFF7FEFF 		bl	_test_assert
 147              	.LVL25:
 148 009e 0028     		cmp	r0, #0
 149 00a0 C3D1     		bne	.L1
 150              		.loc 1 100 0
 151 00a2 1021     		movs	r1, #16
 152 00a4 6648     		ldr	r0, .L9
 153 00a6 FFF7FEFF 		bl	chHeapAlloc
 154              	.LVL26:
 155              		.loc 1 101 0
 156 00aa 1021     		movs	r1, #16
 157              		.loc 1 100 0
 158 00ac 0446     		mov	r4, r0
 159              	.LVL27:
 160              		.loc 1 101 0
 161 00ae 6448     		ldr	r0, .L9
 162              	.LVL28:
 163 00b0 FFF7FEFF 		bl	chHeapAlloc
 164              	.LVL29:
 165              		.loc 1 102 0
 166 00b4 1021     		movs	r1, #16
 167              		.loc 1 101 0
 168 00b6 0546     		mov	r5, r0
 169              	.LVL30:
 170              		.loc 1 102 0
 171 00b8 6148     		ldr	r0, .L9
ARM GAS  /tmp/ccX0rfmO.s 			page 4


 172              	.LVL31:
 173 00ba FFF7FEFF 		bl	chHeapAlloc
 174              	.LVL32:
 175              		.loc 1 103 0
 176 00be FFF7FEFF 		bl	chHeapFree
 177              	.LVL33:
 178              		.loc 1 104 0
 179 00c2 2846     		mov	r0, r5
 180 00c4 FFF7FEFF 		bl	chHeapFree
 181              	.LVL34:
 182              		.loc 1 105 0
 183 00c8 2046     		mov	r0, r4
 184 00ca FFF7FEFF 		bl	chHeapFree
 185              	.LVL35:
 186              		.loc 1 106 0
 187 00ce 6946     		mov	r1, sp
 188 00d0 5B48     		ldr	r0, .L9
 189 00d2 FFF7FEFF 		bl	chHeapStatus
 190              	.LVL36:
 191 00d6 A0F10101 		sub	r1, r0, #1
 192 00da 0420     		movs	r0, #4
 193 00dc B1FA81F1 		clz	r1, r1
 194 00e0 4909     		lsrs	r1, r1, #5
 195 00e2 FFF7FEFF 		bl	_test_assert
 196              	.LVL37:
 197 00e6 0028     		cmp	r0, #0
 198 00e8 9FD1     		bne	.L1
 199              		.loc 1 109 0
 200 00ea 1121     		movs	r1, #17
 201 00ec 5448     		ldr	r0, .L9
 202 00ee FFF7FEFF 		bl	chHeapAlloc
 203              	.LVL38:
 204              		.loc 1 110 0
 205 00f2 1021     		movs	r1, #16
 206              		.loc 1 109 0
 207 00f4 0446     		mov	r4, r0
 208              	.LVL39:
 209              		.loc 1 110 0
 210 00f6 5248     		ldr	r0, .L9
 211              	.LVL40:
 212 00f8 FFF7FEFF 		bl	chHeapAlloc
 213              	.LVL41:
 214 00fc 0546     		mov	r5, r0
 215              	.LVL42:
 216              		.loc 1 111 0
 217 00fe 2046     		mov	r0, r4
 218              	.LVL43:
 219 0100 FFF7FEFF 		bl	chHeapFree
 220              	.LVL44:
 221              		.loc 1 112 0
 222 0104 6946     		mov	r1, sp
 223 0106 4E48     		ldr	r0, .L9
 224 0108 FFF7FEFF 		bl	chHeapStatus
 225              	.LVL45:
 226 010c A0F10201 		sub	r1, r0, #2
 227 0110 0520     		movs	r0, #5
 228 0112 B1FA81F1 		clz	r1, r1
ARM GAS  /tmp/ccX0rfmO.s 			page 5


 229 0116 4909     		lsrs	r1, r1, #5
 230 0118 FFF7FEFF 		bl	_test_assert
 231              	.LVL46:
 232 011c 0028     		cmp	r0, #0
 233 011e 84D1     		bne	.L1
 234              		.loc 1 113 0
 235 0120 1021     		movs	r1, #16
 236 0122 4748     		ldr	r0, .L9
 237 0124 FFF7FEFF 		bl	chHeapAlloc
 238              	.LVL47:
 239              		.loc 1 116 0
 240 0128 6946     		mov	r1, sp
 241              		.loc 1 113 0
 242 012a 0446     		mov	r4, r0
 243              	.LVL48:
 244              		.loc 1 116 0
 245 012c 4448     		ldr	r0, .L9
 246              	.LVL49:
 247 012e FFF7FEFF 		bl	chHeapStatus
 248              	.LVL50:
 249 0132 0128     		cmp	r0, #1
 250 0134 00F08180 		beq	.L5
 251              		.loc 1 116 0 is_stmt 0 discriminator 2
 252 0138 6946     		mov	r1, sp
 253 013a 4148     		ldr	r0, .L9
 254 013c FFF7FEFF 		bl	chHeapStatus
 255              	.LVL51:
 256 0140 A0F10201 		sub	r1, r0, #2
 257 0144 B1FA81F1 		clz	r1, r1
 258 0148 4909     		lsrs	r1, r1, #5
 259              	.L3:
 260              		.loc 1 116 0 discriminator 6
 261 014a 0620     		movs	r0, #6
 262 014c FFF7FEFF 		bl	_test_assert
 263              	.LVL52:
 264 0150 0028     		cmp	r0, #0
 265 0152 7FF46AAF 		bne	.L1
 266              		.loc 1 118 0 is_stmt 1
 267 0156 2846     		mov	r0, r5
 268 0158 FFF7FEFF 		bl	chHeapFree
 269              	.LVL53:
 270              		.loc 1 119 0
 271 015c 2046     		mov	r0, r4
 272 015e FFF7FEFF 		bl	chHeapFree
 273              	.LVL54:
 274              		.loc 1 120 0
 275 0162 6946     		mov	r1, sp
 276 0164 3648     		ldr	r0, .L9
 277 0166 FFF7FEFF 		bl	chHeapStatus
 278              	.LVL55:
 279 016a 461E     		subs	r6, r0, #1
 280 016c 7142     		rsbs	r1, r6, #0
 281 016e 7141     		adcs	r1, r1, r6
 282 0170 0720     		movs	r0, #7
 283 0172 FFF7FEFF 		bl	_test_assert
 284              	.LVL56:
 285 0176 0028     		cmp	r0, #0
ARM GAS  /tmp/ccX0rfmO.s 			page 6


 286 0178 7FF457AF 		bne	.L1
 287              		.loc 1 123 0
 288 017c 1021     		movs	r1, #16
 289 017e 3048     		ldr	r0, .L9
 290 0180 FFF7FEFF 		bl	chHeapAlloc
 291              	.LVL57:
 292              		.loc 1 124 0
 293 0184 1021     		movs	r1, #16
 294              		.loc 1 123 0
 295 0186 0546     		mov	r5, r0
 296              	.LVL58:
 297              		.loc 1 124 0
 298 0188 2D48     		ldr	r0, .L9
 299              	.LVL59:
 300 018a FFF7FEFF 		bl	chHeapAlloc
 301              	.LVL60:
 302 018e 0446     		mov	r4, r0
 303              	.LVL61:
 304              		.loc 1 125 0
 305 0190 2846     		mov	r0, r5
 306              	.LVL62:
 307 0192 FFF7FEFF 		bl	chHeapFree
 308              	.LVL63:
 309              		.loc 1 126 0
 310 0196 6946     		mov	r1, sp
 311 0198 2948     		ldr	r0, .L9
 312 019a FFF7FEFF 		bl	chHeapStatus
 313              	.LVL64:
 314 019e 851E     		subs	r5, r0, #2
 315              	.LVL65:
 316 01a0 6942     		rsbs	r1, r5, #0
 317 01a2 6941     		adcs	r1, r1, r5
 318 01a4 0820     		movs	r0, #8
 319 01a6 FFF7FEFF 		bl	_test_assert
 320              	.LVL66:
 321 01aa 0028     		cmp	r0, #0
 322 01ac 7FF43DAF 		bne	.L1
 323              		.loc 1 127 0
 324 01b0 2021     		movs	r1, #32
 325 01b2 2348     		ldr	r0, .L9
 326 01b4 FFF7FEFF 		bl	chHeapAlloc
 327              	.LVL67:
 328              		.loc 1 128 0
 329 01b8 FFF7FEFF 		bl	chHeapFree
 330              	.LVL68:
 331              		.loc 1 129 0
 332 01bc 2046     		mov	r0, r4
 333 01be FFF7FEFF 		bl	chHeapFree
 334              	.LVL69:
 335              		.loc 1 130 0
 336 01c2 6946     		mov	r1, sp
 337 01c4 1E48     		ldr	r0, .L9
 338 01c6 FFF7FEFF 		bl	chHeapStatus
 339              	.LVL70:
 340 01ca 0138     		subs	r0, r0, #1
 341 01cc 4142     		rsbs	r1, r0, #0
 342 01ce 4141     		adcs	r1, r1, r0
ARM GAS  /tmp/ccX0rfmO.s 			page 7


 343 01d0 0920     		movs	r0, #9
 344 01d2 FFF7FEFF 		bl	_test_assert
 345              	.LVL71:
 346 01d6 0028     		cmp	r0, #0
 347 01d8 7FF427AF 		bne	.L1
 348              		.loc 1 133 0
 349 01dc 6946     		mov	r1, sp
 350 01de 1848     		ldr	r0, .L9
 351 01e0 FFF7FEFF 		bl	chHeapStatus
 352              	.LVL72:
 353              		.loc 1 134 0
 354 01e4 0099     		ldr	r1, [sp]
 355 01e6 1648     		ldr	r0, .L9
 356 01e8 FFF7FEFF 		bl	chHeapAlloc
 357              	.LVL73:
 358              		.loc 1 135 0
 359 01ec 6946     		mov	r1, sp
 360              		.loc 1 134 0
 361 01ee 0446     		mov	r4, r0
 362              	.LVL74:
 363              		.loc 1 135 0
 364 01f0 1348     		ldr	r0, .L9
 365              	.LVL75:
 366 01f2 FFF7FEFF 		bl	chHeapStatus
 367              	.LVL76:
 368 01f6 B0FA80F1 		clz	r1, r0
 369 01fa 0A20     		movs	r0, #10
 370 01fc 4909     		lsrs	r1, r1, #5
 371 01fe FFF7FEFF 		bl	_test_assert
 372              	.LVL77:
 373 0202 0028     		cmp	r0, #0
 374 0204 7FF411AF 		bne	.L1
 375              		.loc 1 136 0
 376 0208 2046     		mov	r0, r4
 377 020a FFF7FEFF 		bl	chHeapFree
 378              	.LVL78:
 379              		.loc 1 138 0
 380 020e 6946     		mov	r1, sp
 381 0210 0B48     		ldr	r0, .L9
 382 0212 FFF7FEFF 		bl	chHeapStatus
 383              	.LVL79:
 384 0216 421E     		subs	r2, r0, #1
 385 0218 5142     		rsbs	r1, r2, #0
 386 021a 5141     		adcs	r1, r1, r2
 387 021c 0B20     		movs	r0, #11
 388 021e FFF7FEFF 		bl	_test_assert
 389              	.LVL80:
 390 0222 0028     		cmp	r0, #0
 391 0224 7FF401AF 		bne	.L1
 392              		.loc 1 139 0
 393 0228 9DE80A00 		ldmia	sp, {r1, r3}
 394 022c CB1A     		subs	r3, r1, r3
 395 022e 5942     		rsbs	r1, r3, #0
 396 0230 5941     		adcs	r1, r1, r3
 397 0232 0C20     		movs	r0, #12
 398 0234 FFF7FEFF 		bl	_test_assert
 399              	.LVL81:
ARM GAS  /tmp/ccX0rfmO.s 			page 8


 400 0238 F7E6     		b	.L1
 401              	.LVL82:
 402              	.L5:
 403 023a 0146     		mov	r1, r0
 404 023c 85E7     		b	.L3
 405              	.L10:
 406 023e 00BF     		.align	2
 407              	.L9:
 408 0240 00000000 		.word	.LANCHOR0
 409              		.cfi_endproc
 410              	.LFE8:
 411              		.size	heap1_execute, .-heap1_execute
 412 0244 AFF30080 		.section	.text.heap1_setup,"ax",%progbits
 412      AFF30080 
 412      AFF30080 
 413              		.align	2
 414              		.p2align 4,,15
 415              		.thumb
 416              		.thumb_func
 417              		.type	heap1_setup, %function
 418              	heap1_setup:
 419              	.LFB7:
 420              		.loc 1 64 0
 421              		.cfi_startproc
 422              		@ args = 0, pretend = 0, frame = 0
 423              		@ frame_needed = 0, uses_anonymous_args = 0
 424              		@ link register save eliminated.
 425              		.loc 1 66 0
 426 0000 0248     		ldr	r0, .L12
 427 0002 0349     		ldr	r1, .L12+4
 428 0004 4FF4D262 		mov	r2, #1680
 429 0008 FFF7FEBF 		b	chHeapInit
 430              	.LVL83:
 431              	.L13:
 432              		.align	2
 433              	.L12:
 434 000c 00000000 		.word	.LANCHOR0
 435 0010 00000000 		.word	test
 436              		.cfi_endproc
 437              	.LFE7:
 438              		.size	heap1_setup, .-heap1_setup
 439              		.global	patternheap
 440              		.global	testheap1
 441 0014 AFF30080 		.section	.rodata.patternheap,"a",%progbits
 441      AFF30080 
 441      AFF30080 
 442              		.align	2
 443              		.type	patternheap, %object
 444              		.size	patternheap, 8
 445              	patternheap:
 446 0000 00000000 		.word	testheap1
 447 0004 00000000 		.word	0
 448              		.section	.rodata.str1.4,"aMS",%progbits,1
 449              		.align	2
 450              	.LC0:
 451 0000 48656170 		.ascii	"Heap, allocation and fragmentation test\000"
 451      2C20616C 
ARM GAS  /tmp/ccX0rfmO.s 			page 9


 451      6C6F6361 
 451      74696F6E 
 451      20616E64 
 452              		.section	.rodata.testheap1,"a",%progbits
 453              		.align	2
 454              		.type	testheap1, %object
 455              		.size	testheap1, 16
 456              	testheap1:
 457 0000 00000000 		.word	.LC0
 458 0004 00000000 		.word	heap1_setup
 459 0008 00000000 		.word	0
 460 000c 00000000 		.word	heap1_execute
 461              		.section	.bss.test_heap,"aw",%nobits
 462              		.align	3
 463              		.set	.LANCHOR0,. + 0
 464              		.type	test_heap, %object
 465              		.size	test_heap, 32
 466              	test_heap:
 467 0000 00000000 		.space	32
 467      00000000 
 467      00000000 
 467      00000000 
 467      00000000 
 468              		.text
 469              	.Letext0:
 470              		.file 2 "/usr/lib/gcc/arm-none-eabi/4.9.2/include/stddef.h"
 471              		.file 3 "/usr/arm-none-eabi/include/machine/_default_types.h"
 472              		.file 4 "/usr/arm-none-eabi/include/stdint.h"
 473              		.file 5 "../../../os/ports/GCC/ARMCMx/chtypes.h"
 474              		.file 6 "../../../os/kernel/include/chlists.h"
 475              		.file 7 "../../../os/kernel/include/chthreads.h"
 476              		.file 8 "../../../os/ports/GCC/ARMCMx/chcore_v7m.h"
 477              		.file 9 "../../../os/kernel/include/chmtx.h"
 478              		.file 10 "../../../os/kernel/include/chmemcore.h"
 479              		.file 11 "../../../os/kernel/include/chheap.h"
 480              		.file 12 "../../../test/test.h"