ARM GAS  /tmp/ccAYDtDF.s 			page 1


   1              		.syntax unified
   2              		.cpu cortex-m4
   3              		.fpu softvfp
   4              		.eabi_attribute 20, 1
   5              		.eabi_attribute 21, 1
   6              		.eabi_attribute 23, 3
   7              		.eabi_attribute 24, 1
   8              		.eabi_attribute 25, 1
   9              		.eabi_attribute 26, 1
  10              		.eabi_attribute 30, 2
  11              		.eabi_attribute 34, 1
  12              		.eabi_attribute 18, 4
  13              		.thumb
  14              		.file	"testmbox.c"
  15              		.text
  16              	.Ltext0:
  17              		.cfi_sections	.debug_frame
  18              		.section	.text.mbox1_execute,"ax",%progbits
  19              		.align	2
  20              		.p2align 4,,15
  21              		.thumb
  22              		.thumb_func
  23              		.type	mbox1_execute, %function
  24              	mbox1_execute:
  25              	.LFB8:
  26              		.file 1 "../../../test/testmbox.c"
  27              		.loc 1 76 0
  28              		.cfi_startproc
  29              		@ args = 0, pretend = 0, frame = 8
  30              		@ frame_needed = 0, uses_anonymous_args = 0
  31 0000 F0B5     		push	{r4, r5, r6, r7, lr}
  32              		.cfi_def_cfa_offset 20
  33              		.cfi_offset 4, -20
  34              		.cfi_offset 5, -16
  35              		.cfi_offset 6, -12
  36              		.cfi_offset 7, -8
  37              		.cfi_offset 14, -4
  38              		.loc 1 83 0
  39 0002 B04E     		ldr	r6, .L34
  40 0004 716A     		ldr	r1, [r6, #36]
  41              		.loc 1 76 0
  42 0006 83B0     		sub	sp, sp, #12
  43              		.cfi_def_cfa_offset 32
  44              		.loc 1 83 0
  45 0008 A1F10501 		sub	r1, #5
  46 000c 0120     		movs	r0, #1
  47 000e B1FA81F1 		clz	r1, r1
  48 0012 4909     		lsrs	r1, r1, #5
  49 0014 FFF7FEFF 		bl	_test_assert
  50              	.LVL0:
  51 0018 F0B9     		cbnz	r0, .L1
  52 001a 4224     		movs	r4, #66
  53              	.L3:
  54              	.LVL1:
  55              		.loc 1 89 0
  56 001c A94D     		ldr	r5, .L34
  57 001e 2146     		mov	r1, r4
ARM GAS  /tmp/ccAYDtDF.s 			page 2


  58 0020 4FF0FF32 		mov	r2, #-1
  59 0024 2846     		mov	r0, r5
  60 0026 FFF7FEFF 		bl	chMBPost
  61              	.LVL2:
  62              		.loc 1 90 0
  63 002a B0FA80F1 		clz	r1, r0
  64 002e 0220     		movs	r0, #2
  65              	.LVL3:
  66 0030 4909     		lsrs	r1, r1, #5
  67 0032 FFF7FEFF 		bl	_test_assert
  68              	.LVL4:
  69 0036 0134     		adds	r4, r4, #1
  70              	.LVL5:
  71 0038 70B9     		cbnz	r0, .L1
  72              		.loc 1 88 0 discriminator 2
  73 003a 462C     		cmp	r4, #70
  74 003c EED1     		bne	.L3
  75              		.loc 1 92 0
  76 003e 4121     		movs	r1, #65
  77 0040 2846     		mov	r0, r5
  78 0042 4FF0FF32 		mov	r2, #-1
  79 0046 FFF7FEFF 		bl	chMBPostAhead
  80              	.LVL6:
  81              		.loc 1 93 0
  82 004a B0FA80F1 		clz	r1, r0
  83 004e 0320     		movs	r0, #3
  84              	.LVL7:
  85 0050 4909     		lsrs	r1, r1, #5
  86 0052 FFF7FEFF 		bl	_test_assert
  87              	.LVL8:
  88 0056 08B1     		cbz	r0, .L30
  89              	.LVL9:
  90              	.L1:
  91              		.loc 1 220 0
  92 0058 03B0     		add	sp, sp, #12
  93              		.cfi_remember_state
  94              		.cfi_def_cfa_offset 20
  95              		@ sp needed
  96 005a F0BD     		pop	{r4, r5, r6, r7, pc}
  97              	.LVL10:
  98              	.L30:
  99              		.cfi_restore_state
 100              		.loc 1 98 0
 101 005c 5821     		movs	r1, #88
 102 005e 0122     		movs	r2, #1
 103 0060 2846     		mov	r0, r5
 104 0062 FFF7FEFF 		bl	chMBPost
 105              	.LVL11:
 106              		.loc 1 99 0
 107 0066 A0F1FF31 		sub	r1, r0, #-1
 108 006a 0420     		movs	r0, #4
 109              	.LVL12:
 110 006c B1FA81F1 		clz	r1, r1
 111              	.LVL13:
 112 0070 4909     		lsrs	r1, r1, #5
 113 0072 FFF7FEFF 		bl	_test_assert
 114              	.LVL14:
ARM GAS  /tmp/ccAYDtDF.s 			page 3


 115 0076 0446     		mov	r4, r0
 116              	.LVL15:
 117 0078 0028     		cmp	r0, #0
 118 007a EDD1     		bne	.L1
 119              	.LBB2:
 120              		.loc 1 100 0
 121 007c 2023     		movs	r3, #32
 122              	@ 100 "../../../test/testmbox.c" 1
 123 007e 83F31188 		msr     BASEPRI, r3
 124              	@ 0 "" 2
 125              		.thumb
 126              	.LBE2:
 127              		.loc 1 101 0
 128 0082 5821     		movs	r1, #88
 129 0084 2846     		mov	r0, r5
 130 0086 FFF7FEFF 		bl	chMBPostI
 131              	.LVL16:
 132              	.LBB3:
 133              		.loc 1 102 0
 134 008a 2346     		mov	r3, r4
 135              	.LBE3:
 136              		.loc 1 101 0
 137 008c 0146     		mov	r1, r0
 138              	.LVL17:
 139              	.LBB4:
 140              		.loc 1 102 0
 141              	@ 102 "../../../test/testmbox.c" 1
 142 008e 83F31188 		msr     BASEPRI, r3
 143              	@ 0 "" 2
 144              		.thumb
 145              	.LBE4:
 146              		.loc 1 103 0
 147 0092 0520     		movs	r0, #5
 148              	.LVL18:
 149 0094 A1F1FF31 		sub	r1, r1, #-1
 150              	.LVL19:
 151 0098 B1FA81F1 		clz	r1, r1
 152              	.LVL20:
 153 009c 4909     		lsrs	r1, r1, #5
 154 009e FFF7FEFF 		bl	_test_assert
 155              	.LVL21:
 156 00a2 0028     		cmp	r0, #0
 157 00a4 D8D1     		bne	.L1
 158              		.loc 1 104 0
 159 00a6 5821     		movs	r1, #88
 160 00a8 0122     		movs	r2, #1
 161 00aa 2846     		mov	r0, r5
 162 00ac FFF7FEFF 		bl	chMBPostAhead
 163              	.LVL22:
 164              		.loc 1 105 0
 165 00b0 A0F1FF31 		sub	r1, r0, #-1
 166 00b4 0620     		movs	r0, #6
 167              	.LVL23:
 168 00b6 B1FA81F1 		clz	r1, r1
 169              	.LVL24:
 170 00ba 4909     		lsrs	r1, r1, #5
 171 00bc FFF7FEFF 		bl	_test_assert
ARM GAS  /tmp/ccAYDtDF.s 			page 4


 172              	.LVL25:
 173 00c0 0446     		mov	r4, r0
 174 00c2 0028     		cmp	r0, #0
 175 00c4 C8D1     		bne	.L1
 176              	.LBB5:
 177              		.loc 1 106 0
 178 00c6 2023     		movs	r3, #32
 179              	@ 106 "../../../test/testmbox.c" 1
 180 00c8 83F31188 		msr     BASEPRI, r3
 181              	@ 0 "" 2
 182              		.thumb
 183              	.LBE5:
 184              		.loc 1 107 0
 185 00cc 5821     		movs	r1, #88
 186 00ce 2846     		mov	r0, r5
 187 00d0 FFF7FEFF 		bl	chMBPostAheadI
 188              	.LVL26:
 189              	.LBB6:
 190              		.loc 1 108 0
 191 00d4 2346     		mov	r3, r4
 192              	.LBE6:
 193              		.loc 1 107 0
 194 00d6 0146     		mov	r1, r0
 195              	.LVL27:
 196              	.LBB7:
 197              		.loc 1 108 0
 198              	@ 108 "../../../test/testmbox.c" 1
 199 00d8 83F31188 		msr     BASEPRI, r3
 200              	@ 0 "" 2
 201              		.thumb
 202              	.LBE7:
 203              		.loc 1 109 0
 204 00dc 0720     		movs	r0, #7
 205              	.LVL28:
 206 00de A1F1FF31 		sub	r1, r1, #-1
 207              	.LVL29:
 208 00e2 B1FA81F1 		clz	r1, r1
 209              	.LVL30:
 210 00e6 4909     		lsrs	r1, r1, #5
 211 00e8 FFF7FEFF 		bl	_test_assert
 212              	.LVL31:
 213 00ec 0746     		mov	r7, r0
 214 00ee 0028     		cmp	r0, #0
 215 00f0 B2D1     		bne	.L1
 216              	.LBB8:
 217              		.loc 1 114 0
 218 00f2 2023     		movs	r3, #32
 219              	@ 114 "../../../test/testmbox.c" 1
 220 00f4 83F31188 		msr     BASEPRI, r3
 221              	@ 0 "" 2
 222              		.thumb
 223              	.LBE8:
 224 00f8 0820     		movs	r0, #8
 225 00fa 696A     		ldr	r1, [r5, #36]
 226 00fc B1FA81F1 		clz	r1, r1
 227 0100 4909     		lsrs	r1, r1, #5
 228 0102 FFF7FEFF 		bl	_test_assert
ARM GAS  /tmp/ccAYDtDF.s 			page 5


 229              	.LVL32:
 230 0106 0446     		mov	r4, r0
 231 0108 18B1     		cbz	r0, .L4
 232              	.LBB9:
 233              		.loc 1 114 0 is_stmt 0 discriminator 1
 234 010a 3B46     		mov	r3, r7
 235              	@ 114 "../../../test/testmbox.c" 1
 236 010c 83F31188 		msr     BASEPRI, r3
 237              	@ 0 "" 2
 238              		.thumb
 239              	.LBE9:
 240 0110 A2E7     		b	.L1
 241              	.L4:
 242              	.LBB10:
 243              		.loc 1 114 0 discriminator 2
 244 0112 0346     		mov	r3, r0
 245              	@ 114 "../../../test/testmbox.c" 1
 246 0114 83F31188 		msr     BASEPRI, r3
 247              	@ 0 "" 2
 248              		.thumb
 249              	.LBE10:
 250              	.LBB11:
 251              		.loc 1 115 0 is_stmt 1 discriminator 2
 252 0118 2023     		movs	r3, #32
 253              	@ 115 "../../../test/testmbox.c" 1
 254 011a 83F31188 		msr     BASEPRI, r3
 255              	@ 0 "" 2
 256              		.thumb
 257              	.LBE11:
 258 011e A969     		ldr	r1, [r5, #24]
 259 0120 4F1F     		subs	r7, r1, #5
 260 0122 7942     		rsbs	r1, r7, #0
 261 0124 4FF00900 		mov	r0, #9
 262 0128 7941     		adcs	r1, r1, r7
 263 012a FFF7FEFF 		bl	_test_assert
 264              	.LVL33:
 265 012e 0346     		mov	r3, r0
 266 0130 18B1     		cbz	r0, .L6
 267              	.LBB12:
 268              		.loc 1 115 0 is_stmt 0 discriminator 1
 269 0132 2346     		mov	r3, r4
 270              	@ 115 "../../../test/testmbox.c" 1
 271 0134 83F31188 		msr     BASEPRI, r3
 272              	@ 0 "" 2
 273              		.thumb
 274              	.LBE12:
 275 0138 8EE7     		b	.L1
 276              	.L6:
 277              	.LBB13:
 278              		.loc 1 115 0 discriminator 2
 279              	@ 115 "../../../test/testmbox.c" 1
 280 013a 83F31188 		msr     BASEPRI, r3
 281              	@ 0 "" 2
 282              		.thumb
 283              	.LBE13:
 284              	.LBB14:
 285              		.loc 1 116 0 is_stmt 1 discriminator 2
ARM GAS  /tmp/ccAYDtDF.s 			page 6


 286 013e 2023     		movs	r3, #32
 287              	@ 116 "../../../test/testmbox.c" 1
 288 0140 83F31188 		msr     BASEPRI, r3
 289              	@ 0 "" 2
 290              		.thumb
 291              	.LBE14:
 292 0144 E968     		ldr	r1, [r5, #12]
 293 0146 AB68     		ldr	r3, [r5, #8]
 294 0148 CC1A     		subs	r4, r1, r3
 295 014a 6142     		rsbs	r1, r4, #0
 296 014c 4FF00A00 		mov	r0, #10
 297 0150 6141     		adcs	r1, r1, r4
 298 0152 FFF7FEFF 		bl	_test_assert
 299              	.LVL34:
 300              	.LBB15:
 301 0156 0023     		movs	r3, #0
 302              	.LBE15:
 303 0158 0028     		cmp	r0, #0
 304 015a 40F09A80 		bne	.L21
 305              	.LBB16:
 306              	@ 116 "../../../test/testmbox.c" 1
 307 015e 83F31188 		msr     BASEPRI, r3
 308              	@ 0 "" 2
 309              	.LVL35:
 310              		.thumb
 311 0162 0525     		movs	r5, #5
 312 0164 05E0     		b	.L8
 313              	.LVL36:
 314              	.L32:
 315              	.LBE16:
 316              		.loc 1 124 0 discriminator 2
 317 0166 9DF80400 		ldrb	r0, [sp, #4]	@ zero_extendqisi2
 318 016a FFF7FEFF 		bl	test_emit_token
 319              	.LVL37:
 320              		.loc 1 121 0 discriminator 2
 321 016e 013D     		subs	r5, r5, #1
 322              	.LVL38:
 323 0170 0FD0     		beq	.L31
 324              	.LVL39:
 325              	.L8:
 326              		.loc 1 122 0
 327 0172 544C     		ldr	r4, .L34
 328 0174 01A9     		add	r1, sp, #4
 329 0176 2046     		mov	r0, r4
 330 0178 4FF0FF32 		mov	r2, #-1
 331 017c FFF7FEFF 		bl	chMBFetch
 332              	.LVL40:
 333              		.loc 1 123 0
 334 0180 B0FA80F1 		clz	r1, r0
 335 0184 0B20     		movs	r0, #11
 336              	.LVL41:
 337 0186 4909     		lsrs	r1, r1, #5
 338 0188 FFF7FEFF 		bl	_test_assert
 339              	.LVL42:
 340 018c 0028     		cmp	r0, #0
 341 018e EAD0     		beq	.L32
 342 0190 62E7     		b	.L1
ARM GAS  /tmp/ccAYDtDF.s 			page 7


 343              	.L31:
 344              		.loc 1 126 0
 345 0192 0C20     		movs	r0, #12
 346 0194 4C49     		ldr	r1, .L34+4
 347 0196 FFF7FEFF 		bl	_test_assert_sequence
 348              	.LVL43:
 349 019a 0028     		cmp	r0, #0
 350 019c 7FF45CAF 		bne	.L1
 351              		.loc 1 131 0
 352 01a0 4721     		movs	r1, #71
 353 01a2 2046     		mov	r0, r4
 354 01a4 4FF0FF32 		mov	r2, #-1
 355 01a8 FFF7FEFF 		bl	chMBPost
 356              	.LVL44:
 357              		.loc 1 132 0
 358 01ac B0FA80F1 		clz	r1, r0
 359 01b0 0D20     		movs	r0, #13
 360              	.LVL45:
 361 01b2 4909     		lsrs	r1, r1, #5
 362 01b4 FFF7FEFF 		bl	_test_assert
 363              	.LVL46:
 364 01b8 0028     		cmp	r0, #0
 365 01ba 7FF44DAF 		bne	.L1
 366              		.loc 1 133 0
 367 01be 01A9     		add	r1, sp, #4
 368 01c0 2046     		mov	r0, r4
 369 01c2 4FF0FF32 		mov	r2, #-1
 370 01c6 FFF7FEFF 		bl	chMBFetch
 371              	.LVL47:
 372              		.loc 1 134 0
 373 01ca B0FA80F1 		clz	r1, r0
 374 01ce 0E20     		movs	r0, #14
 375              	.LVL48:
 376 01d0 4909     		lsrs	r1, r1, #5
 377 01d2 FFF7FEFF 		bl	_test_assert
 378              	.LVL49:
 379 01d6 0028     		cmp	r0, #0
 380 01d8 7FF43EAF 		bne	.L1
 381              		.loc 1 135 0
 382 01dc 2168     		ldr	r1, [r4]
 383 01de A368     		ldr	r3, [r4, #8]
 384 01e0 CA1A     		subs	r2, r1, r3
 385 01e2 5142     		rsbs	r1, r2, #0
 386 01e4 5141     		adcs	r1, r1, r2
 387 01e6 0F20     		movs	r0, #15
 388 01e8 FFF7FEFF 		bl	_test_assert
 389              	.LVL50:
 390 01ec 0028     		cmp	r0, #0
 391 01ee 7FF433AF 		bne	.L1
 392              		.loc 1 136 0
 393 01f2 2168     		ldr	r1, [r4]
 394 01f4 E368     		ldr	r3, [r4, #12]
 395 01f6 CB1A     		subs	r3, r1, r3
 396 01f8 5942     		rsbs	r1, r3, #0
 397 01fa 5941     		adcs	r1, r1, r3
 398 01fc 1020     		movs	r0, #16
 399 01fe FFF7FEFF 		bl	_test_assert
ARM GAS  /tmp/ccAYDtDF.s 			page 8


 400              	.LVL51:
 401 0202 0028     		cmp	r0, #0
 402 0204 7FF428AF 		bne	.L1
 403              		.loc 1 141 0
 404 0208 01A9     		add	r1, sp, #4
 405 020a 2046     		mov	r0, r4
 406 020c 0122     		movs	r2, #1
 407 020e FFF7FEFF 		bl	chMBFetch
 408              	.LVL52:
 409              		.loc 1 142 0
 410 0212 00F1010C 		add	ip, r0, #1
 411 0216 DCF10001 		rsbs	r1, ip, #0
 412 021a 41EB0C01 		adc	r1, r1, ip
 413 021e 1120     		movs	r0, #17
 414              	.LVL53:
 415 0220 FFF7FEFF 		bl	_test_assert
 416              	.LVL54:
 417 0224 0028     		cmp	r0, #0
 418 0226 7FF417AF 		bne	.L1
 419              	.LBB17:
 420              		.loc 1 143 0
 421 022a 2023     		movs	r3, #32
 422              	@ 143 "../../../test/testmbox.c" 1
 423 022c 83F31188 		msr     BASEPRI, r3
 424              	@ 0 "" 2
 425              		.thumb
 426              	.LBE17:
 427              		.loc 1 144 0
 428 0230 01A9     		add	r1, sp, #4
 429 0232 2046     		mov	r0, r4
 430 0234 FFF7FEFF 		bl	chMBFetchI
 431              	.LVL55:
 432              	.LBB18:
 433              		.loc 1 145 0
 434 0238 2B46     		mov	r3, r5
 435              	.LBE18:
 436              		.loc 1 144 0
 437 023a 0146     		mov	r1, r0
 438              	.LVL56:
 439              	.LBB19:
 440              		.loc 1 145 0
 441              	@ 145 "../../../test/testmbox.c" 1
 442 023c 83F31188 		msr     BASEPRI, r3
 443              	@ 0 "" 2
 444              		.thumb
 445              	.LBE19:
 446              		.loc 1 146 0
 447 0240 01F1010E 		add	lr, r1, #1
 448 0244 DEF10001 		rsbs	r1, lr, #0
 449 0248 41EB0E01 		adc	r1, r1, lr
 450 024c 1220     		movs	r0, #18
 451              	.LVL57:
 452 024e FFF7FEFF 		bl	_test_assert
 453              	.LVL58:
 454 0252 0028     		cmp	r0, #0
 455 0254 7FF400AF 		bne	.L1
 456              	.LBB20:
ARM GAS  /tmp/ccAYDtDF.s 			page 9


 457              		.loc 1 151 0
 458 0258 2023     		movs	r3, #32
 459              	@ 151 "../../../test/testmbox.c" 1
 460 025a 83F31188 		msr     BASEPRI, r3
 461              	@ 0 "" 2
 462              		.thumb
 463              	.LBE20:
 464 025e 616A     		ldr	r1, [r4, #36]
 465 0260 4F1F     		subs	r7, r1, #5
 466 0262 7942     		rsbs	r1, r7, #0
 467 0264 4FF01300 		mov	r0, #19
 468 0268 7941     		adcs	r1, r1, r7
 469 026a FFF7FEFF 		bl	_test_assert
 470              	.LVL59:
 471              	.LBB21:
 472 026e 0023     		movs	r3, #0
 473              	.LBE21:
 474 0270 78B9     		cbnz	r0, .L21
 475              	.LBB22:
 476              		.loc 1 151 0 is_stmt 0 discriminator 2
 477              	@ 151 "../../../test/testmbox.c" 1
 478 0272 83F31188 		msr     BASEPRI, r3
 479              	@ 0 "" 2
 480              		.thumb
 481              	.LBE22:
 482              	.LBB23:
 483              		.loc 1 152 0 is_stmt 1 discriminator 2
 484 0276 2023     		movs	r3, #32
 485              	@ 152 "../../../test/testmbox.c" 1
 486 0278 83F31188 		msr     BASEPRI, r3
 487              	@ 0 "" 2
 488              		.thumb
 489              	.LBE23:
 490 027c 1420     		movs	r0, #20
 491 027e B169     		ldr	r1, [r6, #24]
 492 0280 B1FA81F1 		clz	r1, r1
 493 0284 4909     		lsrs	r1, r1, #5
 494 0286 FFF7FEFF 		bl	_test_assert
 495              	.LVL60:
 496 028a 0E4C     		ldr	r4, .L34
 497 028c 0546     		mov	r5, r0
 498              	.LVL61:
 499 028e 18B1     		cbz	r0, .L33
 500              	.L28:
 501              	.LBB24:
 502              		.loc 1 219 0 discriminator 2
 503 0290 0023     		movs	r3, #0
 504              	.L21:
 505              	.LBE24:
 506              	.LBB25:
 507              	@ 219 "../../../test/testmbox.c" 1
 508 0292 83F31188 		msr     BASEPRI, r3
 509              	@ 0 "" 2
 510              		.thumb
 511              	.LBE25:
 512 0296 DFE6     		b	.L1
 513              	.L33:
ARM GAS  /tmp/ccAYDtDF.s 			page 10


 514              	.LBB26:
 515              		.loc 1 152 0 discriminator 2
 516 0298 0346     		mov	r3, r0
 517              	@ 152 "../../../test/testmbox.c" 1
 518 029a 83F31188 		msr     BASEPRI, r3
 519              	@ 0 "" 2
 520              		.thumb
 521              	.LBE26:
 522              	.LBB27:
 523              		.loc 1 153 0 discriminator 2
 524 029e 2023     		movs	r3, #32
 525              	@ 153 "../../../test/testmbox.c" 1
 526 02a0 83F31188 		msr     BASEPRI, r3
 527              	@ 0 "" 2
 528              		.thumb
 529              	.LBE27:
 530 02a4 E168     		ldr	r1, [r4, #12]
 531 02a6 A368     		ldr	r3, [r4, #8]
 532 02a8 CE1A     		subs	r6, r1, r3
 533 02aa 7142     		rsbs	r1, r6, #0
 534 02ac 4FF01500 		mov	r0, #21
 535 02b0 7141     		adcs	r1, r1, r6
 536 02b2 FFF7FEFF 		bl	_test_assert
 537              	.LVL62:
 538 02b6 0346     		mov	r3, r0
 539 02b8 40B1     		cbz	r0, .L11
 540              	.LBB28:
 541              		.loc 1 153 0 is_stmt 0 discriminator 1
 542 02ba 2B46     		mov	r3, r5
 543              	@ 153 "../../../test/testmbox.c" 1
 544 02bc 83F31188 		msr     BASEPRI, r3
 545              	@ 0 "" 2
 546              		.thumb
 547              	.LBE28:
 548 02c0 CAE6     		b	.L1
 549              	.L35:
 550 02c2 00BF     		.align	2
 551              	.L34:
 552 02c4 00000000 		.word	.LANCHOR0
 553 02c8 00000000 		.word	.LC0
 554              	.L11:
 555              	.LBB29:
 556              		.loc 1 153 0 discriminator 2
 557              	@ 153 "../../../test/testmbox.c" 1
 558 02cc 83F31188 		msr     BASEPRI, r3
 559              	@ 0 "" 2
 560              		.thumb
 561              	.LBE29:
 562              	.LBB30:
 563              		.loc 1 158 0 is_stmt 1 discriminator 2
 564 02d0 2023     		movs	r3, #32
 565              	@ 158 "../../../test/testmbox.c" 1
 566 02d2 83F31188 		msr     BASEPRI, r3
 567              	@ 0 "" 2
 568              		.thumb
 569              	.LBE30:
 570              		.loc 1 159 0 discriminator 2
ARM GAS  /tmp/ccAYDtDF.s 			page 11


 571 02d6 4121     		movs	r1, #65
 572 02d8 2046     		mov	r0, r4
 573 02da FFF7FEFF 		bl	chMBPostI
 574              	.LVL63:
 575              		.loc 1 160 0 discriminator 2
 576 02de B0FA80F1 		clz	r1, r0
 577 02e2 1620     		movs	r0, #22
 578              	.LVL64:
 579 02e4 4909     		lsrs	r1, r1, #5
 580 02e6 FFF7FEFF 		bl	_test_assert
 581              	.LVL65:
 582 02ea 0028     		cmp	r0, #0
 583 02ec 7FF4B4AE 		bne	.L1
 584              		.loc 1 161 0
 585 02f0 4221     		movs	r1, #66
 586 02f2 2046     		mov	r0, r4
 587 02f4 FFF7FEFF 		bl	chMBPostI
 588              	.LVL66:
 589              		.loc 1 162 0
 590 02f8 B0FA80F1 		clz	r1, r0
 591 02fc 1720     		movs	r0, #23
 592              	.LVL67:
 593 02fe 4909     		lsrs	r1, r1, #5
 594 0300 FFF7FEFF 		bl	_test_assert
 595              	.LVL68:
 596 0304 0028     		cmp	r0, #0
 597 0306 7FF4A7AE 		bne	.L1
 598              		.loc 1 163 0
 599 030a 4321     		movs	r1, #67
 600 030c 2046     		mov	r0, r4
 601 030e FFF7FEFF 		bl	chMBPostI
 602              	.LVL69:
 603              		.loc 1 164 0
 604 0312 B0FA80F1 		clz	r1, r0
 605 0316 1820     		movs	r0, #24
 606              	.LVL70:
 607 0318 4909     		lsrs	r1, r1, #5
 608 031a FFF7FEFF 		bl	_test_assert
 609              	.LVL71:
 610 031e 0028     		cmp	r0, #0
 611 0320 7FF49AAE 		bne	.L1
 612              		.loc 1 165 0
 613 0324 4421     		movs	r1, #68
 614 0326 2046     		mov	r0, r4
 615 0328 FFF7FEFF 		bl	chMBPostI
 616              	.LVL72:
 617              		.loc 1 166 0
 618 032c B0FA80F1 		clz	r1, r0
 619 0330 1920     		movs	r0, #25
 620              	.LVL73:
 621 0332 4909     		lsrs	r1, r1, #5
 622 0334 FFF7FEFF 		bl	_test_assert
 623              	.LVL74:
 624 0338 0546     		mov	r5, r0
 625 033a 0028     		cmp	r0, #0
 626 033c 7FF48CAE 		bne	.L1
 627              		.loc 1 167 0
ARM GAS  /tmp/ccAYDtDF.s 			page 12


 628 0340 2046     		mov	r0, r4
 629 0342 4521     		movs	r1, #69
 630 0344 FFF7FEFF 		bl	chMBPostI
 631              	.LVL75:
 632              	.LBB31:
 633              		.loc 1 168 0
 634 0348 2B46     		mov	r3, r5
 635              	.LBE31:
 636              		.loc 1 167 0
 637 034a 0146     		mov	r1, r0
 638              	.LVL76:
 639              	.LBB32:
 640              		.loc 1 168 0
 641              	@ 168 "../../../test/testmbox.c" 1
 642 034c 83F31188 		msr     BASEPRI, r3
 643              	@ 0 "" 2
 644              		.thumb
 645              	.LBE32:
 646              		.loc 1 169 0
 647 0350 1A20     		movs	r0, #26
 648              	.LVL77:
 649 0352 B1FA81F1 		clz	r1, r1
 650              	.LVL78:
 651 0356 4909     		lsrs	r1, r1, #5
 652 0358 FFF7FEFF 		bl	_test_assert
 653              	.LVL79:
 654 035c 0028     		cmp	r0, #0
 655 035e 7FF47BAE 		bne	.L1
 656              		.loc 1 170 0
 657 0362 E168     		ldr	r1, [r4, #12]
 658 0364 A368     		ldr	r3, [r4, #8]
 659 0366 CC1A     		subs	r4, r1, r3
 660 0368 6142     		rsbs	r1, r4, #0
 661 036a 6141     		adcs	r1, r1, r4
 662 036c 1B20     		movs	r0, #27
 663 036e FFF7FEFF 		bl	_test_assert
 664              	.LVL80:
 665 0372 0028     		cmp	r0, #0
 666 0374 7FF470AE 		bne	.L1
 667 0378 0525     		movs	r5, #5
 668              	.L12:
 669              	.LVL81:
 670              	.LBB33:
 671              		.loc 1 172 0
 672 037a 2023     		movs	r3, #32
 673              	@ 172 "../../../test/testmbox.c" 1
 674 037c 83F31188 		msr     BASEPRI, r3
 675              	@ 0 "" 2
 676              		.thumb
 677              	.LBE33:
 678              		.loc 1 173 0
 679 0380 9A4C     		ldr	r4, .L36
 680 0382 01A9     		add	r1, sp, #4
 681 0384 2046     		mov	r0, r4
 682 0386 FFF7FEFF 		bl	chMBFetchI
 683              	.LVL82:
 684              	.LBB34:
ARM GAS  /tmp/ccAYDtDF.s 			page 13


 685              		.loc 1 174 0
 686 038a 0023     		movs	r3, #0
 687              	.LBE34:
 688              		.loc 1 173 0
 689 038c 0146     		mov	r1, r0
 690              	.LVL83:
 691              	.LBB35:
 692              		.loc 1 174 0
 693              	@ 174 "../../../test/testmbox.c" 1
 694 038e 83F31188 		msr     BASEPRI, r3
 695              	@ 0 "" 2
 696              		.thumb
 697              	.LBE35:
 698              		.loc 1 175 0
 699 0392 1C20     		movs	r0, #28
 700              	.LVL84:
 701 0394 B1FA81F1 		clz	r1, r1
 702              	.LVL85:
 703 0398 4909     		lsrs	r1, r1, #5
 704 039a FFF7FEFF 		bl	_test_assert
 705              	.LVL86:
 706 039e 0028     		cmp	r0, #0
 707 03a0 7FF45AAE 		bne	.L1
 708              		.loc 1 176 0 discriminator 2
 709 03a4 9DF80400 		ldrb	r0, [sp, #4]	@ zero_extendqisi2
 710 03a8 FFF7FEFF 		bl	test_emit_token
 711              	.LVL87:
 712              		.loc 1 171 0 discriminator 2
 713 03ac 013D     		subs	r5, r5, #1
 714              	.LVL88:
 715 03ae E4D1     		bne	.L12
 716              		.loc 1 178 0
 717 03b0 1D20     		movs	r0, #29
 718 03b2 8F49     		ldr	r1, .L36+4
 719 03b4 FFF7FEFF 		bl	_test_assert_sequence
 720              	.LVL89:
 721 03b8 0028     		cmp	r0, #0
 722 03ba 7FF44DAE 		bne	.L1
 723              	.LBB36:
 724              		.loc 1 179 0
 725 03be 2023     		movs	r3, #32
 726              	@ 179 "../../../test/testmbox.c" 1
 727 03c0 83F31188 		msr     BASEPRI, r3
 728              	@ 0 "" 2
 729              		.thumb
 730              	.LBE36:
 731 03c4 616A     		ldr	r1, [r4, #36]
 732 03c6 4A1F     		subs	r2, r1, #5
 733 03c8 5142     		rsbs	r1, r2, #0
 734 03ca 4FF01E00 		mov	r0, #30
 735 03ce 5141     		adcs	r1, r1, r2
 736 03d0 FFF7FEFF 		bl	_test_assert
 737              	.LVL90:
 738              	.LBB37:
 739 03d4 2B46     		mov	r3, r5
 740              	.LBE37:
 741 03d6 0028     		cmp	r0, #0
ARM GAS  /tmp/ccAYDtDF.s 			page 14


 742 03d8 7FF45BAF 		bne	.L21
 743              	.LBB38:
 744              		.loc 1 179 0 is_stmt 0 discriminator 2
 745              	@ 179 "../../../test/testmbox.c" 1
 746 03dc 83F31188 		msr     BASEPRI, r3
 747              	@ 0 "" 2
 748              		.thumb
 749              	.LBE38:
 750              	.LBB39:
 751              		.loc 1 180 0 is_stmt 1 discriminator 2
 752 03e0 2023     		movs	r3, #32
 753              	@ 180 "../../../test/testmbox.c" 1
 754 03e2 83F31188 		msr     BASEPRI, r3
 755              	@ 0 "" 2
 756              		.thumb
 757              	.LBE39:
 758 03e6 1F20     		movs	r0, #31
 759 03e8 A169     		ldr	r1, [r4, #24]
 760 03ea B1FA81F1 		clz	r1, r1
 761 03ee 4909     		lsrs	r1, r1, #5
 762 03f0 FFF7FEFF 		bl	_test_assert
 763              	.LVL91:
 764              	.LBB40:
 765 03f4 2B46     		mov	r3, r5
 766              	.LBE40:
 767 03f6 0028     		cmp	r0, #0
 768 03f8 7FF44BAF 		bne	.L21
 769              	.LBB41:
 770              	@ 180 "../../../test/testmbox.c" 1
 771 03fc 83F31188 		msr     BASEPRI, r3
 772              	@ 0 "" 2
 773              		.thumb
 774              	.LBE41:
 775              		.loc 1 181 0 discriminator 2
 776 0400 E168     		ldr	r1, [r4, #12]
 777 0402 A368     		ldr	r3, [r4, #8]
 778 0404 CB1A     		subs	r3, r1, r3
 779 0406 5942     		rsbs	r1, r3, #0
 780 0408 5941     		adcs	r1, r1, r3
 781 040a 2020     		movs	r0, #32
 782 040c FFF7FEFF 		bl	_test_assert
 783              	.LVL92:
 784 0410 0028     		cmp	r0, #0
 785 0412 7FF421AE 		bne	.L1
 786              	.LBB42:
 787              		.loc 1 183 0
 788 0416 2023     		movs	r3, #32
 789              	@ 183 "../../../test/testmbox.c" 1
 790 0418 83F31188 		msr     BASEPRI, r3
 791              	@ 0 "" 2
 792              		.thumb
 793              	.LBE42:
 794              		.loc 1 184 0
 795 041c 4521     		movs	r1, #69
 796 041e 2046     		mov	r0, r4
 797 0420 FFF7FEFF 		bl	chMBPostAheadI
 798              	.LVL93:
ARM GAS  /tmp/ccAYDtDF.s 			page 15


 799              		.loc 1 185 0
 800 0424 B0FA80F1 		clz	r1, r0
 801 0428 2120     		movs	r0, #33
 802              	.LVL94:
 803 042a 4909     		lsrs	r1, r1, #5
 804 042c FFF7FEFF 		bl	_test_assert
 805              	.LVL95:
 806 0430 0028     		cmp	r0, #0
 807 0432 7FF411AE 		bne	.L1
 808              		.loc 1 186 0
 809 0436 4421     		movs	r1, #68
 810 0438 2046     		mov	r0, r4
 811 043a FFF7FEFF 		bl	chMBPostAheadI
 812              	.LVL96:
 813              		.loc 1 187 0
 814 043e B0FA80F1 		clz	r1, r0
 815 0442 2220     		movs	r0, #34
 816              	.LVL97:
 817 0444 4909     		lsrs	r1, r1, #5
 818 0446 FFF7FEFF 		bl	_test_assert
 819              	.LVL98:
 820 044a 0028     		cmp	r0, #0
 821 044c 7FF404AE 		bne	.L1
 822              		.loc 1 188 0
 823 0450 4321     		movs	r1, #67
 824 0452 2046     		mov	r0, r4
 825 0454 FFF7FEFF 		bl	chMBPostAheadI
 826              	.LVL99:
 827              		.loc 1 189 0
 828 0458 B0FA80F1 		clz	r1, r0
 829 045c 2320     		movs	r0, #35
 830              	.LVL100:
 831 045e 4909     		lsrs	r1, r1, #5
 832 0460 FFF7FEFF 		bl	_test_assert
 833              	.LVL101:
 834 0464 0028     		cmp	r0, #0
 835 0466 7FF4F7AD 		bne	.L1
 836              		.loc 1 190 0
 837 046a 4221     		movs	r1, #66
 838 046c 2046     		mov	r0, r4
 839 046e FFF7FEFF 		bl	chMBPostAheadI
 840              	.LVL102:
 841              		.loc 1 191 0
 842 0472 B0FA80F1 		clz	r1, r0
 843 0476 2420     		movs	r0, #36
 844              	.LVL103:
 845 0478 4909     		lsrs	r1, r1, #5
 846 047a FFF7FEFF 		bl	_test_assert
 847              	.LVL104:
 848 047e 0028     		cmp	r0, #0
 849 0480 7FF4EAAD 		bne	.L1
 850              		.loc 1 192 0
 851 0484 594C     		ldr	r4, .L36
 852 0486 4121     		movs	r1, #65
 853 0488 2046     		mov	r0, r4
 854 048a FFF7FEFF 		bl	chMBPostAheadI
 855              	.LVL105:
ARM GAS  /tmp/ccAYDtDF.s 			page 16


 856              	.LBB43:
 857              		.loc 1 193 0
 858 048e 0023     		movs	r3, #0
 859              	.LBE43:
 860              		.loc 1 192 0
 861 0490 0146     		mov	r1, r0
 862              	.LVL106:
 863              	.LBB44:
 864              		.loc 1 193 0
 865              	@ 193 "../../../test/testmbox.c" 1
 866 0492 83F31188 		msr     BASEPRI, r3
 867              	@ 0 "" 2
 868              		.thumb
 869              	.LBE44:
 870              		.loc 1 194 0
 871 0496 2520     		movs	r0, #37
 872              	.LVL107:
 873 0498 B1FA81F1 		clz	r1, r1
 874              	.LVL108:
 875 049c 4909     		lsrs	r1, r1, #5
 876 049e FFF7FEFF 		bl	_test_assert
 877              	.LVL109:
 878 04a2 0028     		cmp	r0, #0
 879 04a4 7FF4D8AD 		bne	.L1
 880              		.loc 1 195 0
 881 04a8 E168     		ldr	r1, [r4, #12]
 882 04aa A368     		ldr	r3, [r4, #8]
 883 04ac C3EB010C 		rsb	ip, r3, r1
 884 04b0 DCF10001 		rsbs	r1, ip, #0
 885 04b4 41EB0C01 		adc	r1, r1, ip
 886 04b8 2620     		movs	r0, #38
 887 04ba FFF7FEFF 		bl	_test_assert
 888              	.LVL110:
 889 04be 0028     		cmp	r0, #0
 890 04c0 7FF4CAAD 		bne	.L1
 891 04c4 0524     		movs	r4, #5
 892              	.LVL111:
 893              	.L15:
 894              	.LBB45:
 895              		.loc 1 197 0
 896 04c6 2023     		movs	r3, #32
 897              	@ 197 "../../../test/testmbox.c" 1
 898 04c8 83F31188 		msr     BASEPRI, r3
 899              	@ 0 "" 2
 900              		.thumb
 901              	.LBE45:
 902              		.loc 1 198 0
 903 04cc 474D     		ldr	r5, .L36
 904 04ce 01A9     		add	r1, sp, #4
 905 04d0 2846     		mov	r0, r5
 906 04d2 FFF7FEFF 		bl	chMBFetchI
 907              	.LVL112:
 908              	.LBB46:
 909              		.loc 1 199 0
 910 04d6 0023     		movs	r3, #0
 911              	.LBE46:
 912              		.loc 1 198 0
ARM GAS  /tmp/ccAYDtDF.s 			page 17


 913 04d8 0146     		mov	r1, r0
 914              	.LVL113:
 915              	.LBB47:
 916              		.loc 1 199 0
 917              	@ 199 "../../../test/testmbox.c" 1
 918 04da 83F31188 		msr     BASEPRI, r3
 919              	@ 0 "" 2
 920              		.thumb
 921              	.LBE47:
 922              		.loc 1 200 0
 923 04de 2720     		movs	r0, #39
 924              	.LVL114:
 925 04e0 B1FA81F1 		clz	r1, r1
 926              	.LVL115:
 927 04e4 4909     		lsrs	r1, r1, #5
 928 04e6 FFF7FEFF 		bl	_test_assert
 929              	.LVL116:
 930 04ea 0028     		cmp	r0, #0
 931 04ec 7FF4B4AD 		bne	.L1
 932              		.loc 1 201 0 discriminator 2
 933 04f0 9DF80400 		ldrb	r0, [sp, #4]	@ zero_extendqisi2
 934 04f4 FFF7FEFF 		bl	test_emit_token
 935              	.LVL117:
 936              		.loc 1 196 0 discriminator 2
 937 04f8 013C     		subs	r4, r4, #1
 938              	.LVL118:
 939 04fa E4D1     		bne	.L15
 940              		.loc 1 203 0
 941 04fc 2820     		movs	r0, #40
 942 04fe 3C49     		ldr	r1, .L36+4
 943 0500 FFF7FEFF 		bl	_test_assert_sequence
 944              	.LVL119:
 945 0504 0028     		cmp	r0, #0
 946 0506 7FF4A7AD 		bne	.L1
 947              	.LBB48:
 948              		.loc 1 204 0
 949 050a 2023     		movs	r3, #32
 950              	@ 204 "../../../test/testmbox.c" 1
 951 050c 83F31188 		msr     BASEPRI, r3
 952              	@ 0 "" 2
 953              		.thumb
 954              	.LBE48:
 955 0510 696A     		ldr	r1, [r5, #36]
 956 0512 A1F1050E 		sub	lr, r1, #5
 957 0516 DEF10001 		rsbs	r1, lr, #0
 958 051a 4FF02900 		mov	r0, #41
 959 051e 41EB0E01 		adc	r1, r1, lr
 960 0522 FFF7FEFF 		bl	_test_assert
 961              	.LVL120:
 962              	.LBB49:
 963 0526 2346     		mov	r3, r4
 964              	.LBE49:
 965 0528 0028     		cmp	r0, #0
 966 052a 7FF4B2AE 		bne	.L21
 967              	.LBB50:
 968              		.loc 1 204 0 is_stmt 0 discriminator 2
 969              	@ 204 "../../../test/testmbox.c" 1
ARM GAS  /tmp/ccAYDtDF.s 			page 18


 970 052e 83F31188 		msr     BASEPRI, r3
 971              	@ 0 "" 2
 972              		.thumb
 973              	.LBE50:
 974              	.LBB51:
 975              		.loc 1 205 0 is_stmt 1 discriminator 2
 976 0532 2023     		movs	r3, #32
 977              	@ 205 "../../../test/testmbox.c" 1
 978 0534 83F31188 		msr     BASEPRI, r3
 979              	@ 0 "" 2
 980              		.thumb
 981              	.LBE51:
 982 0538 2A20     		movs	r0, #42
 983 053a A969     		ldr	r1, [r5, #24]
 984 053c B1FA81F1 		clz	r1, r1
 985 0540 4909     		lsrs	r1, r1, #5
 986 0542 FFF7FEFF 		bl	_test_assert
 987              	.LVL121:
 988              	.LBB52:
 989 0546 2346     		mov	r3, r4
 990              	.LBE52:
 991 0548 0028     		cmp	r0, #0
 992 054a 7FF4A2AE 		bne	.L21
 993              	.LBB53:
 994              	@ 205 "../../../test/testmbox.c" 1
 995 054e 83F31188 		msr     BASEPRI, r3
 996              	@ 0 "" 2
 997              		.thumb
 998              	.LBE53:
 999              		.loc 1 206 0 discriminator 2
 1000 0552 E968     		ldr	r1, [r5, #12]
 1001 0554 AB68     		ldr	r3, [r5, #8]
 1002 0556 CF1A     		subs	r7, r1, r3
 1003 0558 7942     		rsbs	r1, r7, #0
 1004 055a 7941     		adcs	r1, r1, r7
 1005 055c 2B20     		movs	r0, #43
 1006 055e FFF7FEFF 		bl	_test_assert
 1007              	.LVL122:
 1008 0562 0028     		cmp	r0, #0
 1009 0564 7FF478AD 		bne	.L1
 1010              		.loc 1 211 0
 1011 0568 2846     		mov	r0, r5
 1012 056a FFF7FEFF 		bl	chMBReset
 1013              	.LVL123:
 1014              	.LBB54:
 1015              		.loc 1 216 0
 1016 056e 2023     		movs	r3, #32
 1017              	@ 216 "../../../test/testmbox.c" 1
 1018 0570 83F31188 		msr     BASEPRI, r3
 1019              	@ 0 "" 2
 1020              		.thumb
 1021              	.LBE54:
 1022 0574 696A     		ldr	r1, [r5, #36]
 1023 0576 4E1F     		subs	r6, r1, #5
 1024 0578 7142     		rsbs	r1, r6, #0
 1025 057a 4FF02C00 		mov	r0, #44
 1026 057e 7141     		adcs	r1, r1, r6
ARM GAS  /tmp/ccAYDtDF.s 			page 19


 1027 0580 FFF7FEFF 		bl	_test_assert
 1028              	.LVL124:
 1029              	.LBB55:
 1030 0584 2346     		mov	r3, r4
 1031              	.LBE55:
 1032 0586 0028     		cmp	r0, #0
 1033 0588 7FF483AE 		bne	.L21
 1034              	.LBB56:
 1035              		.loc 1 216 0 is_stmt 0 discriminator 2
 1036              	@ 216 "../../../test/testmbox.c" 1
 1037 058c 83F31188 		msr     BASEPRI, r3
 1038              	@ 0 "" 2
 1039              		.thumb
 1040              	.LBE56:
 1041              	.LBB57:
 1042              		.loc 1 217 0 is_stmt 1 discriminator 2
 1043 0590 2023     		movs	r3, #32
 1044              	@ 217 "../../../test/testmbox.c" 1
 1045 0592 83F31188 		msr     BASEPRI, r3
 1046              	@ 0 "" 2
 1047              		.thumb
 1048              	.LBE57:
 1049 0596 2D20     		movs	r0, #45
 1050 0598 A969     		ldr	r1, [r5, #24]
 1051 059a B1FA81F1 		clz	r1, r1
 1052 059e 4909     		lsrs	r1, r1, #5
 1053 05a0 FFF7FEFF 		bl	_test_assert
 1054              	.LVL125:
 1055              	.LBB58:
 1056 05a4 2346     		mov	r3, r4
 1057              	.LBE58:
 1058 05a6 0028     		cmp	r0, #0
 1059 05a8 7FF473AE 		bne	.L21
 1060              	.LBB59:
 1061              	@ 217 "../../../test/testmbox.c" 1
 1062 05ac 83F31188 		msr     BASEPRI, r3
 1063              	@ 0 "" 2
 1064              		.thumb
 1065              	.LBE59:
 1066              	.LBB60:
 1067              		.loc 1 218 0 discriminator 2
 1068 05b0 2023     		movs	r3, #32
 1069              	@ 218 "../../../test/testmbox.c" 1
 1070 05b2 83F31188 		msr     BASEPRI, r3
 1071              	@ 0 "" 2
 1072              		.thumb
 1073              	.LBE60:
 1074 05b6 2968     		ldr	r1, [r5]
 1075 05b8 AB68     		ldr	r3, [r5, #8]
 1076 05ba CA1A     		subs	r2, r1, r3
 1077 05bc 5142     		rsbs	r1, r2, #0
 1078 05be 4FF02E00 		mov	r0, #46
 1079 05c2 5141     		adcs	r1, r1, r2
 1080 05c4 FFF7FEFF 		bl	_test_assert
 1081              	.LVL126:
 1082              	.LBB61:
 1083 05c8 2346     		mov	r3, r4
ARM GAS  /tmp/ccAYDtDF.s 			page 20


 1084              	.LBE61:
 1085 05ca 0028     		cmp	r0, #0
 1086 05cc 7FF461AE 		bne	.L21
 1087              	.LBB62:
 1088              	@ 218 "../../../test/testmbox.c" 1
 1089 05d0 83F31188 		msr     BASEPRI, r3
 1090              	@ 0 "" 2
 1091              		.thumb
 1092              	.LBE62:
 1093              	.LBB63:
 1094              		.loc 1 219 0 discriminator 2
 1095 05d4 2023     		movs	r3, #32
 1096              	@ 219 "../../../test/testmbox.c" 1
 1097 05d6 83F31188 		msr     BASEPRI, r3
 1098              	@ 0 "" 2
 1099              		.thumb
 1100              	.LBE63:
 1101 05da 2968     		ldr	r1, [r5]
 1102 05dc EB68     		ldr	r3, [r5, #12]
 1103 05de CB1A     		subs	r3, r1, r3
 1104 05e0 5942     		rsbs	r1, r3, #0
 1105 05e2 5941     		adcs	r1, r1, r3
 1106 05e4 2F20     		movs	r0, #47
 1107 05e6 FFF7FEFF 		bl	_test_assert
 1108              	.LVL127:
 1109 05ea 51E6     		b	.L28
 1110              	.L37:
 1111              		.align	2
 1112              	.L36:
 1113 05ec 00000000 		.word	.LANCHOR0
 1114 05f0 00000000 		.word	.LC0
 1115              		.cfi_endproc
 1116              	.LFE8:
 1117              		.size	mbox1_execute, .-mbox1_execute
 1118 05f4 AFF30080 		.section	.text.mbox1_setup,"ax",%progbits
 1118      AFF30080 
 1118      AFF30080 
 1119              		.align	2
 1120              		.p2align 4,,15
 1121              		.thumb
 1122              		.thumb_func
 1123              		.type	mbox1_setup, %function
 1124              	mbox1_setup:
 1125              	.LFB7:
 1126              		.loc 1 71 0
 1127              		.cfi_startproc
 1128              		@ args = 0, pretend = 0, frame = 0
 1129              		@ frame_needed = 0, uses_anonymous_args = 0
 1130              		@ link register save eliminated.
 1131              		.loc 1 73 0
 1132 0000 0248     		ldr	r0, .L39
 1133 0002 0349     		ldr	r1, .L39+4
 1134 0004 0522     		movs	r2, #5
 1135 0006 FFF7FEBF 		b	chMBInit
 1136              	.LVL128:
 1137              	.L40:
 1138 000a 00BF     		.align	2
ARM GAS  /tmp/ccAYDtDF.s 			page 21


 1139              	.L39:
 1140 000c 00000000 		.word	.LANCHOR0
 1141 0010 00000000 		.word	test
 1142              		.cfi_endproc
 1143              	.LFE7:
 1144              		.size	mbox1_setup, .-mbox1_setup
 1145              		.global	patternmbox
 1146              		.global	testmbox1
 1147 0014 AFF30080 		.section	.data.mb1,"aw",%progbits
 1147      AFF30080 
 1147      AFF30080 
 1148              		.align	2
 1149              		.set	.LANCHOR0,. + 0
 1150              		.type	mb1, %object
 1151              		.size	mb1, 40
 1152              	mb1:
 1153 0000 00000000 		.word	test
 1154 0004 14000000 		.word	test+20
 1155 0008 00000000 		.word	test
 1156 000c 00000000 		.word	test
 1157 0010 10000000 		.word	mb1+16
 1158 0014 10000000 		.word	mb1+16
 1159 0018 00000000 		.word	0
 1160 001c 1C000000 		.word	mb1+28
 1161 0020 1C000000 		.word	mb1+28
 1162 0024 05000000 		.word	5
 1163              		.section	.rodata.patternmbox,"a",%progbits
 1164              		.align	2
 1165              		.type	patternmbox, %object
 1166              		.size	patternmbox, 8
 1167              	patternmbox:
 1168 0000 00000000 		.word	testmbox1
 1169 0004 00000000 		.word	0
 1170              		.section	.rodata.str1.4,"aMS",%progbits,1
 1171              		.align	2
 1172              	.LC0:
 1173 0000 41424344 		.ascii	"ABCDE\000"
 1173      4500
 1174 0006 0000     		.space	2
 1175              	.LC1:
 1176 0008 4D61696C 		.ascii	"Mailboxes, queuing and timeouts\000"
 1176      626F7865 
 1176      732C2071 
 1176      75657569 
 1176      6E672061 
 1177              		.section	.rodata.testmbox1,"a",%progbits
 1178              		.align	2
 1179              		.type	testmbox1, %object
 1180              		.size	testmbox1, 16
 1181              	testmbox1:
 1182 0000 08000000 		.word	.LC1
 1183 0004 00000000 		.word	mbox1_setup
 1184 0008 00000000 		.word	0
 1185 000c 00000000 		.word	mbox1_execute
 1186              		.text
 1187              	.Letext0:
 1188              		.file 2 "/usr/arm-none-eabi/include/machine/_default_types.h"
ARM GAS  /tmp/ccAYDtDF.s 			page 22


 1189              		.file 3 "/usr/arm-none-eabi/include/stdint.h"
 1190              		.file 4 "../../../os/ports/GCC/ARMCMx/chtypes.h"
 1191              		.file 5 "../../../os/kernel/include/chlists.h"
 1192              		.file 6 "../../../os/kernel/include/chthreads.h"
 1193              		.file 7 "../../../os/ports/GCC/ARMCMx/chcore_v7m.h"
 1194              		.file 8 "../../../os/kernel/include/chsem.h"
 1195              		.file 9 "../../../os/kernel/include/chmtx.h"
 1196              		.file 10 "../../../os/kernel/include/chmboxes.h"
 1197              		.file 11 "../../../test/test.h"