ARM GAS  /tmp/ccd8y31t.s 			page 1


   1              		.syntax unified
   2              		.cpu cortex-m4
   3              		.fpu softvfp
   4              		.eabi_attribute 20, 1
   5              		.eabi_attribute 21, 1
   6              		.eabi_attribute 23, 3
   7              		.eabi_attribute 24, 1
   8              		.eabi_attribute 25, 1
   9              		.eabi_attribute 26, 1
  10              		.eabi_attribute 30, 2
  11              		.eabi_attribute 34, 1
  12              		.eabi_attribute 18, 4
  13              		.thumb
  14              		.file	"testbmk.c"
  15              		.text
  16              	.Ltext0:
  17              		.cfi_sections	.debug_frame
  18              		.section	.text.thread2,"ax",%progbits
  19              		.align	2
  20              		.p2align 4,,15
  21              		.thumb
  22              		.thumb_func
  23              		.type	thread2, %function
  24              	thread2:
  25              	.LFB11:
  26              		.file 1 "../../../test/testbmk.c"
  27              		.loc 1 154 0
  28              		.cfi_startproc
  29              		@ args = 0, pretend = 0, frame = 0
  30              		@ frame_needed = 0, uses_anonymous_args = 0
  31              		@ link register save eliminated.
  32              	.LVL0:
  33              		.loc 1 157 0
  34 0000 7047     		bx	lr
  35              		.cfi_endproc
  36              	.LFE11:
  37              		.size	thread2, .-thread2
  38 0002 00BFAFF3 		.section	.text.tmo,"ax",%progbits
  38      0080AFF3 
  38      0080AFF3 
  38      0080
  39              		.align	2
  40              		.p2align 4,,15
  41              		.thumb
  42              		.thumb_func
  43              		.type	tmo, %function
  44              	tmo:
  45              	.LFB23:
  46              		.loc 1 502 0
  47              		.cfi_startproc
  48              		@ args = 0, pretend = 0, frame = 0
  49              		@ frame_needed = 0, uses_anonymous_args = 0
  50              		@ link register save eliminated.
  51              	.LVL1:
  52 0000 7047     		bx	lr
  53              		.cfi_endproc
  54              	.LFE23:
ARM GAS  /tmp/ccd8y31t.s 			page 2


  55              		.size	tmo, .-tmo
  56 0002 00BFAFF3 		.section	.text.bmk13_execute,"ax",%progbits
  56      0080AFF3 
  56      0080AFF3 
  56      0080
  57              		.align	2
  58              		.p2align 4,,15
  59              		.thumb
  60              		.thumb_func
  61              		.type	bmk13_execute, %function
  62              	bmk13_execute:
  63              	.LFB29:
  64              		.loc 1 637 0
  65              		.cfi_startproc
  66              		@ args = 0, pretend = 0, frame = 0
  67              		@ frame_needed = 0, uses_anonymous_args = 0
  68              		.loc 1 637 0
  69 0000 10B5     		push	{r4, lr}
  70              		.cfi_def_cfa_offset 8
  71              		.cfi_offset 4, -8
  72              		.cfi_offset 14, -4
  73              		.loc 1 639 0
  74 0002 2F48     		ldr	r0, .L5
  75              		.loc 1 645 0
  76 0004 2F4C     		ldr	r4, .L5+4
  77              		.loc 1 639 0
  78 0006 FFF7FEFF 		bl	test_print
  79              	.LVL2:
  80              		.loc 1 640 0
  81 000a 4FF4EA70 		mov	r0, #468
  82 000e FFF7FEFF 		bl	test_printn
  83              	.LVL3:
  84              		.loc 1 645 0
  85 0012 2046     		mov	r0, r4
  86 0014 FFF7FEFF 		bl	test_println
  87              	.LVL4:
  88              		.loc 1 646 0
  89 0018 2B48     		ldr	r0, .L5+8
  90 001a FFF7FEFF 		bl	test_print
  91              	.LVL5:
  92              		.loc 1 647 0
  93 001e 4820     		movs	r0, #72
  94 0020 FFF7FEFF 		bl	test_printn
  95              	.LVL6:
  96              		.loc 1 648 0
  97 0024 2046     		mov	r0, r4
  98 0026 FFF7FEFF 		bl	test_println
  99              	.LVL7:
 100              		.loc 1 649 0
 101 002a 2848     		ldr	r0, .L5+12
 102 002c FFF7FEFF 		bl	test_print
 103              	.LVL8:
 104              		.loc 1 650 0
 105 0030 1420     		movs	r0, #20
 106 0032 FFF7FEFF 		bl	test_printn
 107              	.LVL9:
 108              		.loc 1 651 0
ARM GAS  /tmp/ccd8y31t.s 			page 3


 109 0036 2046     		mov	r0, r4
 110 0038 FFF7FEFF 		bl	test_println
 111              	.LVL10:
 112              		.loc 1 653 0
 113 003c 2448     		ldr	r0, .L5+16
 114 003e FFF7FEFF 		bl	test_print
 115              	.LVL11:
 116              		.loc 1 654 0
 117 0042 0C20     		movs	r0, #12
 118 0044 FFF7FEFF 		bl	test_printn
 119              	.LVL12:
 120              		.loc 1 655 0
 121 0048 2046     		mov	r0, r4
 122 004a FFF7FEFF 		bl	test_println
 123              	.LVL13:
 124              		.loc 1 658 0
 125 004e 2148     		ldr	r0, .L5+20
 126 0050 FFF7FEFF 		bl	test_print
 127              	.LVL14:
 128              		.loc 1 659 0
 129 0054 0420     		movs	r0, #4
 130 0056 FFF7FEFF 		bl	test_printn
 131              	.LVL15:
 132              		.loc 1 660 0
 133 005a 2046     		mov	r0, r4
 134 005c FFF7FEFF 		bl	test_println
 135              	.LVL16:
 136              		.loc 1 661 0
 137 0060 1D48     		ldr	r0, .L5+24
 138 0062 FFF7FEFF 		bl	test_print
 139              	.LVL17:
 140              		.loc 1 662 0
 141 0066 1020     		movs	r0, #16
 142 0068 FFF7FEFF 		bl	test_printn
 143              	.LVL18:
 144              		.loc 1 663 0
 145 006c 2046     		mov	r0, r4
 146 006e FFF7FEFF 		bl	test_println
 147              	.LVL19:
 148              		.loc 1 666 0
 149 0072 1A48     		ldr	r0, .L5+28
 150 0074 FFF7FEFF 		bl	test_print
 151              	.LVL20:
 152              		.loc 1 667 0
 153 0078 1020     		movs	r0, #16
 154 007a FFF7FEFF 		bl	test_printn
 155              	.LVL21:
 156              		.loc 1 668 0
 157 007e 2046     		mov	r0, r4
 158 0080 FFF7FEFF 		bl	test_println
 159              	.LVL22:
 160              		.loc 1 671 0
 161 0084 1648     		ldr	r0, .L5+32
 162 0086 FFF7FEFF 		bl	test_print
 163              	.LVL23:
 164              		.loc 1 672 0
 165 008a 0820     		movs	r0, #8
ARM GAS  /tmp/ccd8y31t.s 			page 4


 166 008c FFF7FEFF 		bl	test_printn
 167              	.LVL24:
 168              		.loc 1 673 0
 169 0090 2046     		mov	r0, r4
 170 0092 FFF7FEFF 		bl	test_println
 171              	.LVL25:
 172              		.loc 1 676 0
 173 0096 1348     		ldr	r0, .L5+36
 174 0098 FFF7FEFF 		bl	test_print
 175              	.LVL26:
 176              		.loc 1 677 0
 177 009c 2420     		movs	r0, #36
 178 009e FFF7FEFF 		bl	test_printn
 179              	.LVL27:
 180              		.loc 1 678 0
 181 00a2 2046     		mov	r0, r4
 182 00a4 FFF7FEFF 		bl	test_println
 183              	.LVL28:
 184              		.loc 1 681 0
 185 00a8 0F48     		ldr	r0, .L5+40
 186 00aa FFF7FEFF 		bl	test_print
 187              	.LVL29:
 188              		.loc 1 682 0
 189 00ae 2820     		movs	r0, #40
 190 00b0 FFF7FEFF 		bl	test_printn
 191              	.LVL30:
 192              		.loc 1 683 0
 193 00b4 2046     		mov	r0, r4
 194              		.loc 1 685 0
 195 00b6 BDE81040 		pop	{r4, lr}
 196              		.cfi_restore 14
 197              		.cfi_restore 4
 198              		.cfi_def_cfa_offset 0
 199              		.loc 1 683 0
 200 00ba FFF7FEBF 		b	test_println
 201              	.LVL31:
 202              	.L6:
 203 00be 00BF     		.align	2
 204              	.L5:
 205 00c0 00000000 		.word	.LC0
 206 00c4 10000000 		.word	.LC1
 207 00c8 18000000 		.word	.LC2
 208 00cc 28000000 		.word	.LC3
 209 00d0 38000000 		.word	.LC4
 210 00d4 48000000 		.word	.LC5
 211 00d8 58000000 		.word	.LC6
 212 00dc 68000000 		.word	.LC7
 213 00e0 78000000 		.word	.LC8
 214 00e4 88000000 		.word	.LC9
 215 00e8 98000000 		.word	.LC10
 216              		.cfi_endproc
 217              	.LFE29:
 218              		.size	bmk13_execute, .-bmk13_execute
 219 00ec AFF30080 		.section	.text.thread1,"ax",%progbits
 220              		.align	2
 221              		.p2align 4,,15
 222              		.thumb
ARM GAS  /tmp/ccd8y31t.s 			page 5


 223              		.thumb_func
 224              		.type	thread1, %function
 225              	thread1:
 226              	.LFB7:
 227              		.loc 1 64 0
 228              		.cfi_startproc
 229              		@ args = 0, pretend = 0, frame = 0
 230              		@ frame_needed = 0, uses_anonymous_args = 0
 231              	.LVL32:
 232 0000 10B5     		push	{r4, lr}
 233              		.cfi_def_cfa_offset 8
 234              		.cfi_offset 4, -8
 235              		.cfi_offset 14, -4
 236              	.LVL33:
 237              	.L8:
 238              		.loc 1 70 0 discriminator 1
 239 0002 FFF7FEFF 		bl	chMsgWait
 240              	.LVL34:
 241              		.loc 1 71 0 discriminator 1
 242 0006 446B     		ldr	r4, [r0, #52]
 243              	.LVL35:
 244              		.loc 1 72 0 discriminator 1
 245 0008 2146     		mov	r1, r4
 246 000a FFF7FEFF 		bl	chMsgRelease
 247              	.LVL36:
 248              		.loc 1 73 0 discriminator 1
 249 000e 002C     		cmp	r4, #0
 250 0010 F7D1     		bne	.L8
 251              		.loc 1 75 0
 252 0012 2046     		mov	r0, r4
 253 0014 10BD     		pop	{r4, pc}
 254              		.cfi_endproc
 255              	.LFE7:
 256              		.size	thread1, .-thread1
 257 0016 00BFAFF3 		.section	.text.bmk6_execute,"ax",%progbits
 257      0080AFF3 
 257      0080
 258              		.align	2
 259              		.p2align 4,,15
 260              		.thumb
 261              		.thumb_func
 262              		.type	bmk6_execute, %function
 263              	bmk6_execute:
 264              	.LFB16:
 265              		.loc 1 304 0
 266              		.cfi_startproc
 267              		@ args = 0, pretend = 0, frame = 0
 268              		@ frame_needed = 0, uses_anonymous_args = 0
 269              	.LVL37:
 270 0000 2DE9F041 		push	{r4, r5, r6, r7, r8, lr}
 271              		.cfi_def_cfa_offset 24
 272              		.cfi_offset 4, -24
 273              		.cfi_offset 5, -20
 274              		.cfi_offset 6, -16
 275              		.cfi_offset 7, -12
 276              		.cfi_offset 8, -8
 277              		.cfi_offset 14, -4
ARM GAS  /tmp/ccd8y31t.s 			page 6


 278              		.loc 1 308 0
 279 0004 144B     		ldr	r3, .L17
 280              		.loc 1 307 0
 281 0006 154A     		ldr	r2, .L17+4
 282              		.loc 1 308 0
 283 0008 9B69     		ldr	r3, [r3, #24]
 284              		.loc 1 307 0
 285 000a D2F80080 		ldr	r8, [r2]
 286              	.LVL38:
 287              		.loc 1 308 0
 288 000e 9D68     		ldr	r5, [r3, #8]
 289 0010 134F     		ldr	r7, .L17+8
 290              		.loc 1 304 0
 291 0012 82B0     		sub	sp, sp, #8
 292              		.cfi_def_cfa_offset 32
 293              		.loc 1 309 0
 294 0014 FFF7FEFF 		bl	test_wait_tick
 295              	.LVL39:
 296              		.loc 1 310 0
 297 0018 4FF47A70 		mov	r0, #1000
 298 001c FFF7FEFF 		bl	test_start_timer
 299              	.LVL40:
 300              		.loc 1 306 0
 301 0020 0024     		movs	r4, #0
 302              		.loc 1 308 0
 303 0022 0135     		adds	r5, r5, #1
 304              	.LVL41:
 305              		.loc 1 312 0
 306 0024 2646     		mov	r6, r4
 307              	.LVL42:
 308              	.L13:
 309              		.loc 1 312 0 is_stmt 0 discriminator 1
 310 0026 0F4B     		ldr	r3, .L17+12
 311 0028 0096     		str	r6, [sp]
 312 002a 4046     		mov	r0, r8
 313 002c 4FF4A871 		mov	r1, #336
 314 0030 2A46     		mov	r2, r5
 315 0032 FFF7FEFF 		bl	chThdCreateStatic
 316              	.LVL43:
 317              		.loc 1 317 0 is_stmt 1 discriminator 1
 318 0036 3B78     		ldrb	r3, [r7]	@ zero_extendqisi2
 319              		.loc 1 313 0 discriminator 1
 320 0038 0134     		adds	r4, r4, #1
 321              	.LVL44:
 322              		.loc 1 317 0 discriminator 1
 323 003a 002B     		cmp	r3, #0
 324 003c F3D0     		beq	.L13
 325              		.loc 1 318 0
 326 003e 0A48     		ldr	r0, .L17+16
 327 0040 FFF7FEFF 		bl	test_print
 328              	.LVL45:
 329              		.loc 1 319 0
 330 0044 2046     		mov	r0, r4
 331 0046 FFF7FEFF 		bl	test_printn
 332              	.LVL46:
 333              		.loc 1 320 0
 334 004a 0848     		ldr	r0, .L17+20
ARM GAS  /tmp/ccd8y31t.s 			page 7


 335              		.loc 1 321 0
 336 004c 02B0     		add	sp, sp, #8
 337              		.cfi_def_cfa_offset 24
 338              		@ sp needed
 339 004e BDE8F041 		pop	{r4, r5, r6, r7, r8, lr}
 340              		.cfi_restore 14
 341              		.cfi_restore 8
 342              		.cfi_restore 7
 343              		.cfi_restore 6
 344              		.cfi_restore 5
 345              		.cfi_restore 4
 346              		.cfi_def_cfa_offset 0
 347              	.LVL47:
 348              		.loc 1 320 0
 349 0052 FFF7FEBF 		b	test_println
 350              	.LVL48:
 351              	.L18:
 352 0056 00BF     		.align	2
 353              	.L17:
 354 0058 00000000 		.word	rlist
 355 005c 00000000 		.word	wa
 356 0060 00000000 		.word	test_timer_done
 357 0064 00000000 		.word	thread2
 358 0068 A8000000 		.word	.LC11
 359 006c B8000000 		.word	.LC12
 360              		.cfi_endproc
 361              	.LFE16:
 362              		.size	bmk6_execute, .-bmk6_execute
 363              		.section	.text.msg_loop_test,"ax",%progbits
 364              		.align	2
 365              		.p2align 4,,15
 366              		.thumb
 367              		.thumb_func
 368              		.type	msg_loop_test, %function
 369              	msg_loop_test:
 370              	.LFB8:
 371              		.loc 1 80 0
 372              		.cfi_startproc
 373              		@ args = 0, pretend = 0, frame = 0
 374              		@ frame_needed = 0, uses_anonymous_args = 0
 375              	.LVL49:
 376 0000 70B5     		push	{r4, r5, r6, lr}
 377              		.cfi_def_cfa_offset 16
 378              		.cfi_offset 4, -16
 379              		.cfi_offset 5, -12
 380              		.cfi_offset 6, -8
 381              		.cfi_offset 14, -4
 382              		.loc 1 80 0
 383 0002 0546     		mov	r5, r0
 384              		.loc 1 83 0
 385 0004 FFF7FEFF 		bl	test_wait_tick
 386              	.LVL50:
 387              		.loc 1 84 0
 388 0008 4FF47A70 		mov	r0, #1000
 389 000c FFF7FEFF 		bl	test_start_timer
 390              	.LVL51:
 391 0010 074E     		ldr	r6, .L24
ARM GAS  /tmp/ccd8y31t.s 			page 8


 392              		.loc 1 82 0
 393 0012 0024     		movs	r4, #0
 394              	.LVL52:
 395              	.L20:
 396              		.loc 1 86 0 discriminator 1
 397 0014 2846     		mov	r0, r5
 398 0016 0121     		movs	r1, #1
 399 0018 FFF7FEFF 		bl	chMsgSend
 400              	.LVL53:
 401              		.loc 1 91 0 discriminator 1
 402 001c 3378     		ldrb	r3, [r6]	@ zero_extendqisi2
 403              		.loc 1 87 0 discriminator 1
 404 001e 0134     		adds	r4, r4, #1
 405              	.LVL54:
 406              		.loc 1 91 0 discriminator 1
 407 0020 002B     		cmp	r3, #0
 408 0022 F7D0     		beq	.L20
 409              		.loc 1 92 0
 410 0024 2846     		mov	r0, r5
 411 0026 0021     		movs	r1, #0
 412 0028 FFF7FEFF 		bl	chMsgSend
 413              	.LVL55:
 414              		.loc 1 94 0
 415 002c 2046     		mov	r0, r4
 416 002e 70BD     		pop	{r4, r5, r6, pc}
 417              	.LVL56:
 418              	.L25:
 419              		.align	2
 420              	.L24:
 421 0030 00000000 		.word	test_timer_done
 422              		.cfi_endproc
 423              	.LFE8:
 424              		.size	msg_loop_test, .-msg_loop_test
 425 0034 AFF30080 		.section	.text.bmk1_execute,"ax",%progbits
 425      AFF30080 
 425      AFF30080 
 426              		.align	2
 427              		.p2align 4,,15
 428              		.thumb
 429              		.thumb_func
 430              		.type	bmk1_execute, %function
 431              	bmk1_execute:
 432              	.LFB9:
 433              		.loc 1 105 0
 434              		.cfi_startproc
 435              		@ args = 0, pretend = 0, frame = 0
 436              		@ frame_needed = 0, uses_anonymous_args = 0
 437 0000 10B5     		push	{r4, lr}
 438              		.cfi_def_cfa_offset 8
 439              		.cfi_offset 4, -8
 440              		.cfi_offset 14, -4
 441              		.loc 1 108 0
 442 0002 134B     		ldr	r3, .L28
 443 0004 134A     		ldr	r2, .L28+4
 444 0006 9B69     		ldr	r3, [r3, #24]
 445 0008 1068     		ldr	r0, [r2]
 446 000a 9A68     		ldr	r2, [r3, #8]
ARM GAS  /tmp/ccd8y31t.s 			page 9


 447 000c 124B     		ldr	r3, .L28+8
 448              		.loc 1 105 0
 449 000e 82B0     		sub	sp, sp, #8
 450              		.cfi_def_cfa_offset 16
 451              		.loc 1 108 0
 452 0010 0021     		movs	r1, #0
 453 0012 013A     		subs	r2, r2, #1
 454 0014 0091     		str	r1, [sp]
 455 0016 4FF4A871 		mov	r1, #336
 456 001a FFF7FEFF 		bl	chThdCreateStatic
 457              	.LVL57:
 458 001e 0F4B     		ldr	r3, .L28+12
 459 0020 1860     		str	r0, [r3]
 460              		.loc 1 109 0
 461 0022 FFF7FEFF 		bl	msg_loop_test
 462              	.LVL58:
 463 0026 0446     		mov	r4, r0
 464              	.LVL59:
 465              		.loc 1 110 0
 466 0028 FFF7FEFF 		bl	test_wait_threads
 467              	.LVL60:
 468              		.loc 1 111 0
 469 002c 0C48     		ldr	r0, .L28+16
 470 002e FFF7FEFF 		bl	test_print
 471              	.LVL61:
 472              		.loc 1 112 0
 473 0032 2046     		mov	r0, r4
 474 0034 FFF7FEFF 		bl	test_printn
 475              	.LVL62:
 476              		.loc 1 113 0
 477 0038 0A48     		ldr	r0, .L28+20
 478 003a FFF7FEFF 		bl	test_print
 479              	.LVL63:
 480              		.loc 1 114 0
 481 003e 6000     		lsls	r0, r4, #1
 482 0040 FFF7FEFF 		bl	test_printn
 483              	.LVL64:
 484              		.loc 1 115 0
 485 0044 0848     		ldr	r0, .L28+24
 486              		.loc 1 116 0
 487 0046 02B0     		add	sp, sp, #8
 488              		.cfi_def_cfa_offset 8
 489              		@ sp needed
 490 0048 BDE81040 		pop	{r4, lr}
 491              		.cfi_restore 14
 492              		.cfi_restore 4
 493              		.cfi_def_cfa_offset 0
 494              	.LVL65:
 495              		.loc 1 115 0
 496 004c FFF7FEBF 		b	test_println
 497              	.LVL66:
 498              	.L29:
 499              		.align	2
 500              	.L28:
 501 0050 00000000 		.word	rlist
 502 0054 00000000 		.word	wa
 503 0058 00000000 		.word	thread1
ARM GAS  /tmp/ccd8y31t.s 			page 10


 504 005c 00000000 		.word	threads
 505 0060 A8000000 		.word	.LC11
 506 0064 C4000000 		.word	.LC13
 507 0068 D0000000 		.word	.LC14
 508              		.cfi_endproc
 509              	.LFE9:
 510              		.size	bmk1_execute, .-bmk1_execute
 511 006c AFF30080 		.section	.text.bmk2_execute,"ax",%progbits
 512              		.align	2
 513              		.p2align 4,,15
 514              		.thumb
 515              		.thumb_func
 516              		.type	bmk2_execute, %function
 517              	bmk2_execute:
 518              	.LFB10:
 519              		.loc 1 134 0
 520              		.cfi_startproc
 521              		@ args = 0, pretend = 0, frame = 0
 522              		@ frame_needed = 0, uses_anonymous_args = 0
 523 0000 10B5     		push	{r4, lr}
 524              		.cfi_def_cfa_offset 8
 525              		.cfi_offset 4, -8
 526              		.cfi_offset 14, -4
 527              		.loc 1 137 0
 528 0002 134B     		ldr	r3, .L32
 529 0004 134A     		ldr	r2, .L32+4
 530 0006 9B69     		ldr	r3, [r3, #24]
 531 0008 1068     		ldr	r0, [r2]
 532 000a 9A68     		ldr	r2, [r3, #8]
 533 000c 124B     		ldr	r3, .L32+8
 534              		.loc 1 134 0
 535 000e 82B0     		sub	sp, sp, #8
 536              		.cfi_def_cfa_offset 16
 537              		.loc 1 137 0
 538 0010 0021     		movs	r1, #0
 539 0012 0132     		adds	r2, r2, #1
 540 0014 0091     		str	r1, [sp]
 541 0016 4FF4A871 		mov	r1, #336
 542 001a FFF7FEFF 		bl	chThdCreateStatic
 543              	.LVL67:
 544 001e 0F4B     		ldr	r3, .L32+12
 545 0020 1860     		str	r0, [r3]
 546              		.loc 1 138 0
 547 0022 FFF7FEFF 		bl	msg_loop_test
 548              	.LVL68:
 549 0026 0446     		mov	r4, r0
 550              	.LVL69:
 551              		.loc 1 139 0
 552 0028 FFF7FEFF 		bl	test_wait_threads
 553              	.LVL70:
 554              		.loc 1 140 0
 555 002c 0C48     		ldr	r0, .L32+16
 556 002e FFF7FEFF 		bl	test_print
 557              	.LVL71:
 558              		.loc 1 141 0
 559 0032 2046     		mov	r0, r4
 560 0034 FFF7FEFF 		bl	test_printn
ARM GAS  /tmp/ccd8y31t.s 			page 11


 561              	.LVL72:
 562              		.loc 1 142 0
 563 0038 0A48     		ldr	r0, .L32+20
 564 003a FFF7FEFF 		bl	test_print
 565              	.LVL73:
 566              		.loc 1 143 0
 567 003e 6000     		lsls	r0, r4, #1
 568 0040 FFF7FEFF 		bl	test_printn
 569              	.LVL74:
 570              		.loc 1 144 0
 571 0044 0848     		ldr	r0, .L32+24
 572              		.loc 1 145 0
 573 0046 02B0     		add	sp, sp, #8
 574              		.cfi_def_cfa_offset 8
 575              		@ sp needed
 576 0048 BDE81040 		pop	{r4, lr}
 577              		.cfi_restore 14
 578              		.cfi_restore 4
 579              		.cfi_def_cfa_offset 0
 580              	.LVL75:
 581              		.loc 1 144 0
 582 004c FFF7FEBF 		b	test_println
 583              	.LVL76:
 584              	.L33:
 585              		.align	2
 586              	.L32:
 587 0050 00000000 		.word	rlist
 588 0054 00000000 		.word	wa
 589 0058 00000000 		.word	thread1
 590 005c 00000000 		.word	threads
 591 0060 A8000000 		.word	.LC11
 592 0064 C4000000 		.word	.LC13
 593 0068 D0000000 		.word	.LC14
 594              		.cfi_endproc
 595              	.LFE10:
 596              		.size	bmk2_execute, .-bmk2_execute
 597 006c AFF30080 		.section	.text.bmk3_execute,"ax",%progbits
 598              		.align	2
 599              		.p2align 4,,15
 600              		.thumb
 601              		.thumb_func
 602              		.type	bmk3_execute, %function
 603              	bmk3_execute:
 604              	.LFB12:
 605              		.loc 1 169 0
 606              		.cfi_startproc
 607              		@ args = 0, pretend = 0, frame = 0
 608              		@ frame_needed = 0, uses_anonymous_args = 0
 609 0000 2DE9F041 		push	{r4, r5, r6, r7, r8, lr}
 610              		.cfi_def_cfa_offset 24
 611              		.cfi_offset 4, -24
 612              		.cfi_offset 5, -20
 613              		.cfi_offset 6, -16
 614              		.cfi_offset 7, -12
 615              		.cfi_offset 8, -8
 616              		.cfi_offset 14, -4
 617              		.loc 1 172 0
ARM GAS  /tmp/ccd8y31t.s 			page 12


 618 0004 2C4F     		ldr	r7, .L36
 619 0006 2D4E     		ldr	r6, .L36+4
 620 0008 BB69     		ldr	r3, [r7, #24]
 621 000a 3068     		ldr	r0, [r6]
 622 000c 9A68     		ldr	r2, [r3, #8]
 623 000e 2C4B     		ldr	r3, .L36+8
 624 0010 2C4C     		ldr	r4, .L36+12
 625              		.loc 1 173 0
 626 0012 DFF8C080 		ldr	r8, .L36+28
 627              		.loc 1 169 0
 628 0016 82B0     		sub	sp, sp, #8
 629              		.cfi_def_cfa_offset 32
 630              		.loc 1 172 0
 631 0018 0025     		movs	r5, #0
 632 001a 0132     		adds	r2, r2, #1
 633 001c 0095     		str	r5, [sp]
 634 001e 4FF4A871 		mov	r1, #336
 635 0022 FFF7FEFF 		bl	chThdCreateStatic
 636              	.LVL77:
 637              		.loc 1 173 0
 638 0026 BA69     		ldr	r2, [r7, #24]
 639 0028 7368     		ldr	r3, [r6, #4]
 640 002a 9268     		ldr	r2, [r2, #8]
 641              		.loc 1 172 0
 642 002c 2060     		str	r0, [r4]
 643              		.loc 1 173 0
 644 002e 023A     		subs	r2, r2, #2
 645 0030 0095     		str	r5, [sp]
 646 0032 1846     		mov	r0, r3
 647 0034 4FF4A871 		mov	r1, #336
 648 0038 4346     		mov	r3, r8
 649 003a FFF7FEFF 		bl	chThdCreateStatic
 650              	.LVL78:
 651              		.loc 1 174 0
 652 003e BA69     		ldr	r2, [r7, #24]
 653 0040 B368     		ldr	r3, [r6, #8]
 654 0042 9268     		ldr	r2, [r2, #8]
 655              		.loc 1 173 0
 656 0044 6060     		str	r0, [r4, #4]
 657              		.loc 1 174 0
 658 0046 033A     		subs	r2, r2, #3
 659 0048 0095     		str	r5, [sp]
 660 004a 1846     		mov	r0, r3
 661 004c 4FF4A871 		mov	r1, #336
 662 0050 4346     		mov	r3, r8
 663 0052 FFF7FEFF 		bl	chThdCreateStatic
 664              	.LVL79:
 665              		.loc 1 175 0
 666 0056 BA69     		ldr	r2, [r7, #24]
 667 0058 F368     		ldr	r3, [r6, #12]
 668 005a 9268     		ldr	r2, [r2, #8]
 669              		.loc 1 174 0
 670 005c A060     		str	r0, [r4, #8]
 671              		.loc 1 175 0
 672 005e 043A     		subs	r2, r2, #4
 673 0060 0095     		str	r5, [sp]
 674 0062 1846     		mov	r0, r3
ARM GAS  /tmp/ccd8y31t.s 			page 13


 675 0064 4FF4A871 		mov	r1, #336
 676 0068 4346     		mov	r3, r8
 677 006a FFF7FEFF 		bl	chThdCreateStatic
 678              	.LVL80:
 679              		.loc 1 176 0
 680 006e BA69     		ldr	r2, [r7, #24]
 681 0070 3369     		ldr	r3, [r6, #16]
 682 0072 9268     		ldr	r2, [r2, #8]
 683              		.loc 1 175 0
 684 0074 E060     		str	r0, [r4, #12]
 685              		.loc 1 176 0
 686 0076 053A     		subs	r2, r2, #5
 687 0078 4FF4A871 		mov	r1, #336
 688 007c 1846     		mov	r0, r3
 689 007e 0095     		str	r5, [sp]
 690 0080 4346     		mov	r3, r8
 691 0082 FFF7FEFF 		bl	chThdCreateStatic
 692              	.LVL81:
 693 0086 2061     		str	r0, [r4, #16]
 694              		.loc 1 177 0
 695 0088 2068     		ldr	r0, [r4]
 696 008a FFF7FEFF 		bl	msg_loop_test
 697              	.LVL82:
 698 008e 0446     		mov	r4, r0
 699              	.LVL83:
 700              		.loc 1 178 0
 701 0090 FFF7FEFF 		bl	test_wait_threads
 702              	.LVL84:
 703              		.loc 1 179 0
 704 0094 0C48     		ldr	r0, .L36+16
 705 0096 FFF7FEFF 		bl	test_print
 706              	.LVL85:
 707              		.loc 1 180 0
 708 009a 2046     		mov	r0, r4
 709 009c FFF7FEFF 		bl	test_printn
 710              	.LVL86:
 711              		.loc 1 181 0
 712 00a0 0A48     		ldr	r0, .L36+20
 713 00a2 FFF7FEFF 		bl	test_print
 714              	.LVL87:
 715              		.loc 1 182 0
 716 00a6 6000     		lsls	r0, r4, #1
 717 00a8 FFF7FEFF 		bl	test_printn
 718              	.LVL88:
 719              		.loc 1 183 0
 720 00ac 0848     		ldr	r0, .L36+24
 721              		.loc 1 184 0
 722 00ae 02B0     		add	sp, sp, #8
 723              		.cfi_def_cfa_offset 24
 724              		@ sp needed
 725 00b0 BDE8F041 		pop	{r4, r5, r6, r7, r8, lr}
 726              		.cfi_restore 14
 727              		.cfi_restore 8
 728              		.cfi_restore 7
 729              		.cfi_restore 6
 730              		.cfi_restore 5
 731              		.cfi_restore 4
ARM GAS  /tmp/ccd8y31t.s 			page 14


 732              		.cfi_def_cfa_offset 0
 733              	.LVL89:
 734              		.loc 1 183 0
 735 00b4 FFF7FEBF 		b	test_println
 736              	.LVL90:
 737              	.L37:
 738              		.align	2
 739              	.L36:
 740 00b8 00000000 		.word	rlist
 741 00bc 00000000 		.word	wa
 742 00c0 00000000 		.word	thread1
 743 00c4 00000000 		.word	threads
 744 00c8 A8000000 		.word	.LC11
 745 00cc C4000000 		.word	.LC13
 746 00d0 D0000000 		.word	.LC14
 747 00d4 00000000 		.word	thread2
 748              		.cfi_endproc
 749              	.LFE12:
 750              		.size	bmk3_execute, .-bmk3_execute
 751 00d8 AFF30080 		.section	.text.thread4,"ax",%progbits
 751      AFF30080 
 752              		.align	2
 753              		.p2align 4,,15
 754              		.global	thread4
 755              		.thumb
 756              		.thumb_func
 757              		.type	thread4, %function
 758              	thread4:
 759              	.LFB13:
 760              		.loc 1 203 0
 761              		.cfi_startproc
 762              		@ args = 0, pretend = 0, frame = 0
 763              		@ frame_needed = 0, uses_anonymous_args = 0
 764              	.LVL91:
 765              		.loc 1 205 0
 766 0000 084A     		ldr	r2, .L43
 767              		.loc 1 203 0
 768 0002 10B5     		push	{r4, lr}
 769              		.cfi_def_cfa_offset 8
 770              		.cfi_offset 4, -8
 771              		.cfi_offset 14, -4
 772              	.LBB2:
 773              		.loc 1 208 0
 774 0004 2023     		movs	r3, #32
 775              	.LBE2:
 776              		.loc 1 205 0
 777 0006 9469     		ldr	r4, [r2, #24]
 778              	.LVL92:
 779              	.LBB3:
 780              		.loc 1 208 0
 781              	@ 208 "../../../test/testbmk.c" 1
 782 0008 83F31188 		msr     BASEPRI, r3
 783              	@ 0 "" 2
 784              	.LVL93:
 785              		.thumb
 786              	.L39:
 787              	.LBE3:
ARM GAS  /tmp/ccd8y31t.s 			page 15


 788              		.loc 1 210 0 discriminator 1
 789 000c 0220     		movs	r0, #2
 790 000e FFF7FEFF 		bl	chSchGoSleepS
 791              	.LVL94:
 792              		.loc 1 212 0 discriminator 1
 793 0012 636A     		ldr	r3, [r4, #36]
 794 0014 002B     		cmp	r3, #0
 795 0016 F9D0     		beq	.L39
 796              	.LBB4:
 797              		.loc 1 213 0
 798 0018 0023     		movs	r3, #0
 799              	@ 213 "../../../test/testbmk.c" 1
 800 001a 83F31188 		msr     BASEPRI, r3
 801              	@ 0 "" 2
 802              		.thumb
 803              	.LBE4:
 804              		.loc 1 215 0
 805 001e 1846     		mov	r0, r3
 806 0020 10BD     		pop	{r4, pc}
 807              	.LVL95:
 808              	.L44:
 809 0022 00BF     		.align	2
 810              	.L43:
 811 0024 00000000 		.word	rlist
 812              		.cfi_endproc
 813              	.LFE13:
 814              		.size	thread4, .-thread4
 815 0028 AFF30080 		.section	.text.bmk4_execute,"ax",%progbits
 815      AFF30080 
 816              		.align	2
 817              		.p2align 4,,15
 818              		.thumb
 819              		.thumb_func
 820              		.type	bmk4_execute, %function
 821              	bmk4_execute:
 822              	.LFB14:
 823              		.loc 1 217 0
 824              		.cfi_startproc
 825              		@ args = 0, pretend = 0, frame = 0
 826              		@ frame_needed = 0, uses_anonymous_args = 0
 827 0000 70B5     		push	{r4, r5, r6, lr}
 828              		.cfi_def_cfa_offset 16
 829              		.cfi_offset 4, -16
 830              		.cfi_offset 5, -12
 831              		.cfi_offset 6, -8
 832              		.cfi_offset 14, -4
 833              		.loc 1 221 0
 834 0002 254B     		ldr	r3, .L50
 835 0004 254A     		ldr	r2, .L50+4
 836 0006 9B69     		ldr	r3, [r3, #24]
 837 0008 1068     		ldr	r0, [r2]
 838 000a 9A68     		ldr	r2, [r3, #8]
 839 000c 244B     		ldr	r3, .L50+8
 840 000e 254E     		ldr	r6, .L50+12
 841              		.loc 1 217 0
 842 0010 82B0     		sub	sp, sp, #8
 843              		.cfi_def_cfa_offset 24
ARM GAS  /tmp/ccd8y31t.s 			page 16


 844              		.loc 1 221 0
 845 0012 0025     		movs	r5, #0
 846 0014 0132     		adds	r2, r2, #1
 847 0016 4FF4A871 		mov	r1, #336
 848 001a 0095     		str	r5, [sp]
 849 001c FFF7FEFF 		bl	chThdCreateStatic
 850              	.LVL96:
 851 0020 214B     		ldr	r3, .L50+16
 852 0022 0446     		mov	r4, r0
 853 0024 1860     		str	r0, [r3]
 854              	.LVL97:
 855              		.loc 1 223 0
 856 0026 FFF7FEFF 		bl	test_wait_tick
 857              	.LVL98:
 858              		.loc 1 224 0
 859 002a 4FF47A70 		mov	r0, #1000
 860 002e FFF7FEFF 		bl	test_start_timer
 861              	.LVL99:
 862              	.L46:
 863              	.LBB5:
 864              		.loc 1 226 0 discriminator 1
 865 0032 2023     		movs	r3, #32
 866              	@ 226 "../../../test/testbmk.c" 1
 867 0034 83F31188 		msr     BASEPRI, r3
 868              	@ 0 "" 2
 869              		.thumb
 870              	.LBE5:
 871              		.loc 1 227 0 discriminator 1
 872 0038 0021     		movs	r1, #0
 873 003a 2046     		mov	r0, r4
 874 003c FFF7FEFF 		bl	chSchWakeupS
 875              	.LVL100:
 876              		.loc 1 228 0 discriminator 1
 877 0040 2046     		mov	r0, r4
 878 0042 0021     		movs	r1, #0
 879 0044 FFF7FEFF 		bl	chSchWakeupS
 880              	.LVL101:
 881              		.loc 1 229 0 discriminator 1
 882 0048 2046     		mov	r0, r4
 883 004a 0021     		movs	r1, #0
 884 004c FFF7FEFF 		bl	chSchWakeupS
 885              	.LVL102:
 886              		.loc 1 230 0 discriminator 1
 887 0050 2046     		mov	r0, r4
 888 0052 0021     		movs	r1, #0
 889 0054 FFF7FEFF 		bl	chSchWakeupS
 890              	.LVL103:
 891              	.LBB6:
 892              		.loc 1 231 0 discriminator 1
 893 0058 0023     		movs	r3, #0
 894              	@ 231 "../../../test/testbmk.c" 1
 895 005a 83F31188 		msr     BASEPRI, r3
 896              	@ 0 "" 2
 897              		.thumb
 898              	.LBE6:
 899              		.loc 1 236 0 discriminator 1
 900 005e 3378     		ldrb	r3, [r6]	@ zero_extendqisi2
ARM GAS  /tmp/ccd8y31t.s 			page 17


 901              		.loc 1 232 0 discriminator 1
 902 0060 0435     		adds	r5, r5, #4
 903              	.LVL104:
 904              		.loc 1 236 0 discriminator 1
 905 0062 002B     		cmp	r3, #0
 906 0064 E5D0     		beq	.L46
 907              	.LBB7:
 908              		.loc 1 237 0
 909 0066 2023     		movs	r3, #32
 910              	@ 237 "../../../test/testbmk.c" 1
 911 0068 83F31188 		msr     BASEPRI, r3
 912              	@ 0 "" 2
 913              		.thumb
 914              	.LBE7:
 915              		.loc 1 238 0
 916 006c 4FF0FF31 		mov	r1, #-1
 917 0070 2046     		mov	r0, r4
 918 0072 FFF7FEFF 		bl	chSchWakeupS
 919              	.LVL105:
 920              	.LBB8:
 921              		.loc 1 239 0
 922 0076 0023     		movs	r3, #0
 923              	@ 239 "../../../test/testbmk.c" 1
 924 0078 83F31188 		msr     BASEPRI, r3
 925              	@ 0 "" 2
 926              		.thumb
 927              	.LBE8:
 928              		.loc 1 241 0
 929 007c FFF7FEFF 		bl	test_wait_threads
 930              	.LVL106:
 931              		.loc 1 242 0
 932 0080 0A48     		ldr	r0, .L50+20
 933 0082 FFF7FEFF 		bl	test_print
 934              	.LVL107:
 935              		.loc 1 243 0
 936 0086 6800     		lsls	r0, r5, #1
 937 0088 FFF7FEFF 		bl	test_printn
 938              	.LVL108:
 939              		.loc 1 244 0
 940 008c 0848     		ldr	r0, .L50+24
 941              		.loc 1 245 0
 942 008e 02B0     		add	sp, sp, #8
 943              		.cfi_def_cfa_offset 16
 944              		@ sp needed
 945 0090 BDE87040 		pop	{r4, r5, r6, lr}
 946              		.cfi_restore 14
 947              		.cfi_restore 6
 948              		.cfi_restore 5
 949              		.cfi_restore 4
 950              		.cfi_def_cfa_offset 0
 951              	.LVL109:
 952              		.loc 1 244 0
 953 0094 FFF7FEBF 		b	test_println
 954              	.LVL110:
 955              	.L51:
 956              		.align	2
 957              	.L50:
ARM GAS  /tmp/ccd8y31t.s 			page 18


 958 0098 00000000 		.word	rlist
 959 009c 00000000 		.word	wa
 960 00a0 00000000 		.word	thread4
 961 00a4 00000000 		.word	test_timer_done
 962 00a8 00000000 		.word	threads
 963 00ac A8000000 		.word	.LC11
 964 00b0 D0000000 		.word	.LC14
 965              		.cfi_endproc
 966              	.LFE14:
 967              		.size	bmk4_execute, .-bmk4_execute
 968 00b4 AFF30080 		.section	.text.bmk5_execute,"ax",%progbits
 968      AFF30080 
 968      AFF30080 
 969              		.align	2
 970              		.p2align 4,,15
 971              		.thumb
 972              		.thumb_func
 973              		.type	bmk5_execute, %function
 974              	bmk5_execute:
 975              	.LFB15:
 976              		.loc 1 265 0
 977              		.cfi_startproc
 978              		@ args = 0, pretend = 0, frame = 0
 979              		@ frame_needed = 0, uses_anonymous_args = 0
 980              	.LVL111:
 981 0000 2DE9F041 		push	{r4, r5, r6, r7, r8, lr}
 982              		.cfi_def_cfa_offset 24
 983              		.cfi_offset 4, -24
 984              		.cfi_offset 5, -20
 985              		.cfi_offset 6, -16
 986              		.cfi_offset 7, -12
 987              		.cfi_offset 8, -8
 988              		.cfi_offset 14, -4
 989              		.loc 1 269 0
 990 0004 154B     		ldr	r3, .L57
 991              		.loc 1 268 0
 992 0006 164A     		ldr	r2, .L57+4
 993              		.loc 1 269 0
 994 0008 9B69     		ldr	r3, [r3, #24]
 995              		.loc 1 268 0
 996 000a D2F80080 		ldr	r8, [r2]
 997              	.LVL112:
 998              		.loc 1 269 0
 999 000e 9D68     		ldr	r5, [r3, #8]
 1000 0010 144F     		ldr	r7, .L57+8
 1001              		.loc 1 265 0
 1002 0012 82B0     		sub	sp, sp, #8
 1003              		.cfi_def_cfa_offset 32
 1004              		.loc 1 270 0
 1005 0014 FFF7FEFF 		bl	test_wait_tick
 1006              	.LVL113:
 1007              		.loc 1 271 0
 1008 0018 4FF47A70 		mov	r0, #1000
 1009 001c FFF7FEFF 		bl	test_start_timer
 1010              	.LVL114:
 1011              		.loc 1 267 0
 1012 0020 0024     		movs	r4, #0
ARM GAS  /tmp/ccd8y31t.s 			page 19


 1013              		.loc 1 269 0
 1014 0022 013D     		subs	r5, r5, #1
 1015              	.LVL115:
 1016              		.loc 1 273 0
 1017 0024 2646     		mov	r6, r4
 1018              	.LVL116:
 1019              	.L53:
 1020              		.loc 1 273 0 is_stmt 0 discriminator 1
 1021 0026 104B     		ldr	r3, .L57+12
 1022 0028 0096     		str	r6, [sp]
 1023 002a 4FF4A871 		mov	r1, #336
 1024 002e 2A46     		mov	r2, r5
 1025 0030 4046     		mov	r0, r8
 1026 0032 FFF7FEFF 		bl	chThdCreateStatic
 1027              	.LVL117:
 1028 0036 FFF7FEFF 		bl	chThdWait
 1029              	.LVL118:
 1030              		.loc 1 278 0 is_stmt 1 discriminator 1
 1031 003a 3B78     		ldrb	r3, [r7]	@ zero_extendqisi2
 1032              		.loc 1 274 0 discriminator 1
 1033 003c 0134     		adds	r4, r4, #1
 1034              	.LVL119:
 1035              		.loc 1 278 0 discriminator 1
 1036 003e 002B     		cmp	r3, #0
 1037 0040 F1D0     		beq	.L53
 1038              		.loc 1 279 0
 1039 0042 0A48     		ldr	r0, .L57+16
 1040 0044 FFF7FEFF 		bl	test_print
 1041              	.LVL120:
 1042              		.loc 1 280 0
 1043 0048 2046     		mov	r0, r4
 1044 004a FFF7FEFF 		bl	test_printn
 1045              	.LVL121:
 1046              		.loc 1 281 0
 1047 004e 0848     		ldr	r0, .L57+20
 1048              		.loc 1 282 0
 1049 0050 02B0     		add	sp, sp, #8
 1050              		.cfi_def_cfa_offset 24
 1051              		@ sp needed
 1052 0052 BDE8F041 		pop	{r4, r5, r6, r7, r8, lr}
 1053              		.cfi_restore 14
 1054              		.cfi_restore 8
 1055              		.cfi_restore 7
 1056              		.cfi_restore 6
 1057              		.cfi_restore 5
 1058              		.cfi_restore 4
 1059              		.cfi_def_cfa_offset 0
 1060              	.LVL122:
 1061              		.loc 1 281 0
 1062 0056 FFF7FEBF 		b	test_println
 1063              	.LVL123:
 1064              	.L58:
 1065 005a 00BF     		.align	2
 1066              	.L57:
 1067 005c 00000000 		.word	rlist
 1068 0060 00000000 		.word	wa
 1069 0064 00000000 		.word	test_timer_done
ARM GAS  /tmp/ccd8y31t.s 			page 20


 1070 0068 00000000 		.word	thread2
 1071 006c A8000000 		.word	.LC11
 1072 0070 B8000000 		.word	.LC12
 1073              		.cfi_endproc
 1074              	.LFE15:
 1075              		.size	bmk5_execute, .-bmk5_execute
 1076 0074 AFF30080 		.section	.text.bmk7_execute,"ax",%progbits
 1076      AFF30080 
 1076      AFF30080 
 1077              		.align	2
 1078              		.p2align 4,,15
 1079              		.thumb
 1080              		.thumb_func
 1081              		.type	bmk7_execute, %function
 1082              	bmk7_execute:
 1083              	.LFB19:
 1084              		.loc 1 354 0
 1085              		.cfi_startproc
 1086              		@ args = 0, pretend = 0, frame = 0
 1087              		@ frame_needed = 0, uses_anonymous_args = 0
 1088 0000 2DE9F041 		push	{r4, r5, r6, r7, r8, lr}
 1089              		.cfi_def_cfa_offset 24
 1090              		.cfi_offset 4, -24
 1091              		.cfi_offset 5, -20
 1092              		.cfi_offset 6, -16
 1093              		.cfi_offset 7, -12
 1094              		.cfi_offset 8, -8
 1095              		.cfi_offset 14, -4
 1096              		.loc 1 357 0
 1097 0004 DFF80081 		ldr	r8, .L64+32
 1098 0008 374F     		ldr	r7, .L64
 1099 000a D8F81830 		ldr	r3, [r8, #24]
 1100 000e 3868     		ldr	r0, [r7]
 1101 0010 9A68     		ldr	r2, [r3, #8]
 1102 0012 364B     		ldr	r3, .L64+4
 1103 0014 364E     		ldr	r6, .L64+8
 1104 0016 374D     		ldr	r5, .L64+12
 1105              		.loc 1 354 0
 1106 0018 82B0     		sub	sp, sp, #8
 1107              		.cfi_def_cfa_offset 32
 1108              		.loc 1 357 0
 1109 001a 0024     		movs	r4, #0
 1110 001c 0532     		adds	r2, r2, #5
 1111 001e 4FF4A871 		mov	r1, #336
 1112 0022 0094     		str	r4, [sp]
 1113 0024 FFF7FEFF 		bl	chThdCreateStatic
 1114              	.LVL124:
 1115              		.loc 1 358 0
 1116 0028 D8F81820 		ldr	r2, [r8, #24]
 1117 002c 7B68     		ldr	r3, [r7, #4]
 1118 002e 9268     		ldr	r2, [r2, #8]
 1119              		.loc 1 357 0
 1120 0030 3060     		str	r0, [r6]
 1121              		.loc 1 358 0
 1122 0032 0432     		adds	r2, r2, #4
 1123 0034 1846     		mov	r0, r3
 1124 0036 4FF4A871 		mov	r1, #336
ARM GAS  /tmp/ccd8y31t.s 			page 21


 1125 003a 2C4B     		ldr	r3, .L64+4
 1126 003c 0094     		str	r4, [sp]
 1127 003e FFF7FEFF 		bl	chThdCreateStatic
 1128              	.LVL125:
 1129              		.loc 1 359 0
 1130 0042 D8F81820 		ldr	r2, [r8, #24]
 1131 0046 BB68     		ldr	r3, [r7, #8]
 1132 0048 9268     		ldr	r2, [r2, #8]
 1133              		.loc 1 358 0
 1134 004a 7060     		str	r0, [r6, #4]
 1135              		.loc 1 359 0
 1136 004c 0332     		adds	r2, r2, #3
 1137 004e 1846     		mov	r0, r3
 1138 0050 4FF4A871 		mov	r1, #336
 1139 0054 254B     		ldr	r3, .L64+4
 1140 0056 0094     		str	r4, [sp]
 1141 0058 FFF7FEFF 		bl	chThdCreateStatic
 1142              	.LVL126:
 1143              		.loc 1 360 0
 1144 005c D8F81820 		ldr	r2, [r8, #24]
 1145 0060 FB68     		ldr	r3, [r7, #12]
 1146 0062 9268     		ldr	r2, [r2, #8]
 1147              		.loc 1 359 0
 1148 0064 B060     		str	r0, [r6, #8]
 1149              		.loc 1 360 0
 1150 0066 0232     		adds	r2, r2, #2
 1151 0068 1846     		mov	r0, r3
 1152 006a 4FF4A871 		mov	r1, #336
 1153 006e 1F4B     		ldr	r3, .L64+4
 1154 0070 0094     		str	r4, [sp]
 1155 0072 FFF7FEFF 		bl	chThdCreateStatic
 1156              	.LVL127:
 1157              		.loc 1 361 0
 1158 0076 D8F81820 		ldr	r2, [r8, #24]
 1159 007a 3B69     		ldr	r3, [r7, #16]
 1160 007c 9268     		ldr	r2, [r2, #8]
 1161              		.loc 1 360 0
 1162 007e F060     		str	r0, [r6, #12]
 1163              		.loc 1 361 0
 1164 0080 0132     		adds	r2, r2, #1
 1165 0082 1846     		mov	r0, r3
 1166 0084 4FF4A871 		mov	r1, #336
 1167 0088 184B     		ldr	r3, .L64+4
 1168 008a 0094     		str	r4, [sp]
 1169 008c FFF7FEFF 		bl	chThdCreateStatic
 1170              	.LVL128:
 1171 0090 3061     		str	r0, [r6, #16]
 1172              	.LVL129:
 1173              		.loc 1 364 0
 1174 0092 FFF7FEFF 		bl	test_wait_tick
 1175              	.LVL130:
 1176              		.loc 1 365 0
 1177 0096 4FF47A70 		mov	r0, #1000
 1178 009a FFF7FEFF 		bl	test_start_timer
 1179              	.LVL131:
 1180              	.L60:
 1181              		.loc 1 367 0 discriminator 1
ARM GAS  /tmp/ccd8y31t.s 			page 22


 1182 009e 1648     		ldr	r0, .L64+16
 1183 00a0 0021     		movs	r1, #0
 1184 00a2 FFF7FEFF 		bl	chSemReset
 1185              	.LVL132:
 1186              		.loc 1 372 0 discriminator 1
 1187 00a6 2B78     		ldrb	r3, [r5]	@ zero_extendqisi2
 1188              		.loc 1 368 0 discriminator 1
 1189 00a8 0134     		adds	r4, r4, #1
 1190              	.LVL133:
 1191              		.loc 1 372 0 discriminator 1
 1192 00aa 002B     		cmp	r3, #0
 1193 00ac F7D0     		beq	.L60
 1194              		.loc 1 373 0
 1195 00ae FFF7FEFF 		bl	test_terminate_threads
 1196              	.LVL134:
 1197              		.loc 1 374 0
 1198 00b2 0021     		movs	r1, #0
 1199 00b4 1048     		ldr	r0, .L64+16
 1200 00b6 FFF7FEFF 		bl	chSemReset
 1201              	.LVL135:
 1202              		.loc 1 375 0
 1203 00ba FFF7FEFF 		bl	test_wait_threads
 1204              	.LVL136:
 1205              		.loc 1 377 0
 1206 00be 0F48     		ldr	r0, .L64+20
 1207 00c0 FFF7FEFF 		bl	test_print
 1208              	.LVL137:
 1209              		.loc 1 378 0
 1210 00c4 2046     		mov	r0, r4
 1211 00c6 FFF7FEFF 		bl	test_printn
 1212              	.LVL138:
 1213              		.loc 1 379 0
 1214 00ca 0D48     		ldr	r0, .L64+24
 1215 00cc FFF7FEFF 		bl	test_print
 1216              	.LVL139:
 1217              		.loc 1 380 0
 1218 00d0 04EB4400 		add	r0, r4, r4, lsl #1
 1219 00d4 4000     		lsls	r0, r0, #1
 1220 00d6 FFF7FEFF 		bl	test_printn
 1221              	.LVL140:
 1222              		.loc 1 381 0
 1223 00da 0A48     		ldr	r0, .L64+28
 1224              		.loc 1 382 0
 1225 00dc 02B0     		add	sp, sp, #8
 1226              		.cfi_def_cfa_offset 24
 1227              		@ sp needed
 1228 00de BDE8F041 		pop	{r4, r5, r6, r7, r8, lr}
 1229              		.cfi_restore 14
 1230              		.cfi_restore 8
 1231              		.cfi_restore 7
 1232              		.cfi_restore 6
 1233              		.cfi_restore 5
 1234              		.cfi_restore 4
 1235              		.cfi_def_cfa_offset 0
 1236              	.LVL141:
 1237              		.loc 1 381 0
 1238 00e2 FFF7FEBF 		b	test_println
ARM GAS  /tmp/ccd8y31t.s 			page 23


 1239              	.LVL142:
 1240              	.L65:
 1241 00e6 00BF     		.align	2
 1242              	.L64:
 1243 00e8 00000000 		.word	wa
 1244 00ec 00000000 		.word	thread3
 1245 00f0 00000000 		.word	threads
 1246 00f4 00000000 		.word	test_timer_done
 1247 00f8 00000000 		.word	.LANCHOR0
 1248 00fc A8000000 		.word	.LC11
 1249 0100 DC000000 		.word	.LC15
 1250 0104 D0000000 		.word	.LC14
 1251 0108 00000000 		.word	rlist
 1252              		.cfi_endproc
 1253              	.LFE19:
 1254              		.size	bmk7_execute, .-bmk7_execute
 1255 010c AFF30080 		.section	.text.thread3,"ax",%progbits
 1256              		.align	2
 1257              		.p2align 4,,15
 1258              		.thumb
 1259              		.thumb_func
 1260              		.type	thread3, %function
 1261              	thread3:
 1262              	.LFB17:
 1263              		.loc 1 341 0
 1264              		.cfi_startproc
 1265              		@ args = 0, pretend = 0, frame = 0
 1266              		@ frame_needed = 0, uses_anonymous_args = 0
 1267              	.LVL143:
 1268 0000 10B5     		push	{r4, lr}
 1269              		.cfi_def_cfa_offset 8
 1270              		.cfi_offset 4, -8
 1271              		.cfi_offset 14, -4
 1272              		.loc 1 344 0
 1273 0002 074C     		ldr	r4, .L74
 1274 0004 A369     		ldr	r3, [r4, #24]
 1275 0006 5B7F     		ldrb	r3, [r3, #29]	@ zero_extendqisi2
 1276 0008 5A07     		lsls	r2, r3, #29
 1277 000a 06D4     		bmi	.L72
 1278              	.LVL144:
 1279              	.L67:
 1280              		.loc 1 345 0
 1281 000c 0548     		ldr	r0, .L74+4
 1282 000e FFF7FEFF 		bl	chSemWait
 1283              	.LVL145:
 1284              		.loc 1 344 0
 1285 0012 A369     		ldr	r3, [r4, #24]
 1286 0014 5B7F     		ldrb	r3, [r3, #29]	@ zero_extendqisi2
 1287 0016 5B07     		lsls	r3, r3, #29
 1288 0018 F8D5     		bpl	.L67
 1289              	.L72:
 1290              		.loc 1 347 0
 1291 001a 0020     		movs	r0, #0
 1292 001c 10BD     		pop	{r4, pc}
 1293              	.L75:
 1294 001e 00BF     		.align	2
 1295              	.L74:
ARM GAS  /tmp/ccd8y31t.s 			page 24


 1296 0020 00000000 		.word	rlist
 1297 0024 00000000 		.word	.LANCHOR0
 1298              		.cfi_endproc
 1299              	.LFE17:
 1300              		.size	thread3, .-thread3
 1301 0028 AFF30080 		.section	.text.bmk7_setup,"ax",%progbits
 1301      AFF30080 
 1302              		.align	2
 1303              		.p2align 4,,15
 1304              		.thumb
 1305              		.thumb_func
 1306              		.type	bmk7_setup, %function
 1307              	bmk7_setup:
 1308              	.LFB18:
 1309              		.loc 1 349 0
 1310              		.cfi_startproc
 1311              		@ args = 0, pretend = 0, frame = 0
 1312              		@ frame_needed = 0, uses_anonymous_args = 0
 1313              		@ link register save eliminated.
 1314              		.loc 1 351 0
 1315 0000 0148     		ldr	r0, .L77
 1316 0002 0021     		movs	r1, #0
 1317 0004 FFF7FEBF 		b	chSemInit
 1318              	.LVL146:
 1319              	.L78:
 1320              		.align	2
 1321              	.L77:
 1322 0008 00000000 		.word	.LANCHOR0
 1323              		.cfi_endproc
 1324              	.LFE18:
 1325              		.size	bmk7_setup, .-bmk7_setup
 1326 000c AFF30080 		.section	.text.bmk11_setup,"ax",%progbits
 1327              		.align	2
 1328              		.p2align 4,,15
 1329              		.thumb
 1330              		.thumb_func
 1331              		.type	bmk11_setup, %function
 1332              	bmk11_setup:
 1333              	.LFB25:
 1334              		.loc 1 545 0
 1335              		.cfi_startproc
 1336              		@ args = 0, pretend = 0, frame = 0
 1337              		@ frame_needed = 0, uses_anonymous_args = 0
 1338              		@ link register save eliminated.
 1339              		.loc 1 547 0
 1340 0000 0148     		ldr	r0, .L80
 1341 0002 0121     		movs	r1, #1
 1342 0004 FFF7FEBF 		b	chSemInit
 1343              	.LVL147:
 1344              	.L81:
 1345              		.align	2
 1346              	.L80:
 1347 0008 00000000 		.word	.LANCHOR0
 1348              		.cfi_endproc
 1349              	.LFE25:
 1350              		.size	bmk11_setup, .-bmk11_setup
 1351 000c AFF30080 		.section	.text.bmk8_execute,"ax",%progbits
ARM GAS  /tmp/ccd8y31t.s 			page 25


 1352              		.align	2
 1353              		.p2align 4,,15
 1354              		.thumb
 1355              		.thumb_func
 1356              		.type	bmk8_execute, %function
 1357              	bmk8_execute:
 1358              	.LFB21:
 1359              		.loc 1 416 0
 1360              		.cfi_startproc
 1361              		@ args = 0, pretend = 0, frame = 8
 1362              		@ frame_needed = 0, uses_anonymous_args = 0
 1363 0000 2DE9F041 		push	{r4, r5, r6, r7, r8, lr}
 1364              		.cfi_def_cfa_offset 24
 1365              		.cfi_offset 4, -24
 1366              		.cfi_offset 5, -20
 1367              		.cfi_offset 6, -16
 1368              		.cfi_offset 7, -12
 1369              		.cfi_offset 8, -8
 1370              		.cfi_offset 14, -4
 1371 0004 84B0     		sub	sp, sp, #16
 1372              		.cfi_def_cfa_offset 40
 1373              		.loc 1 419 0
 1374 0006 04AC     		add	r4, sp, #16
 1375              		.loc 1 422 0
 1376 0008 DFF8CC80 		ldr	r8, .L84+20
 1377 000c 2D4F     		ldr	r7, .L84
 1378 000e 2E4E     		ldr	r6, .L84+4
 1379 0010 2E4D     		ldr	r5, .L84+8
 1380              		.loc 1 419 0
 1381 0012 0023     		movs	r3, #0
 1382 0014 44F8043D 		str	r3, [r4, #-4]!
 1383              		.loc 1 420 0
 1384 0018 FFF7FEFF 		bl	test_wait_tick
 1385              	.LVL148:
 1386              		.loc 1 422 0
 1387 001c D8F81830 		ldr	r3, [r8, #24]
 1388 0020 3868     		ldr	r0, [r7]
 1389 0022 9A68     		ldr	r2, [r3, #8]
 1390 0024 0094     		str	r4, [sp]
 1391 0026 3346     		mov	r3, r6
 1392 0028 013A     		subs	r2, r2, #1
 1393 002a 4FF4A871 		mov	r1, #336
 1394 002e FFF7FEFF 		bl	chThdCreateStatic
 1395              	.LVL149:
 1396              		.loc 1 423 0
 1397 0032 D8F81820 		ldr	r2, [r8, #24]
 1398 0036 7B68     		ldr	r3, [r7, #4]
 1399 0038 9268     		ldr	r2, [r2, #8]
 1400              		.loc 1 422 0
 1401 003a 2860     		str	r0, [r5]
 1402              		.loc 1 423 0
 1403 003c 013A     		subs	r2, r2, #1
 1404 003e 0094     		str	r4, [sp]
 1405 0040 1846     		mov	r0, r3
 1406 0042 4FF4A871 		mov	r1, #336
 1407 0046 3346     		mov	r3, r6
 1408 0048 FFF7FEFF 		bl	chThdCreateStatic
ARM GAS  /tmp/ccd8y31t.s 			page 26


 1409              	.LVL150:
 1410              		.loc 1 424 0
 1411 004c D8F81820 		ldr	r2, [r8, #24]
 1412 0050 BB68     		ldr	r3, [r7, #8]
 1413 0052 9268     		ldr	r2, [r2, #8]
 1414              		.loc 1 423 0
 1415 0054 6860     		str	r0, [r5, #4]
 1416              		.loc 1 424 0
 1417 0056 013A     		subs	r2, r2, #1
 1418 0058 0094     		str	r4, [sp]
 1419 005a 1846     		mov	r0, r3
 1420 005c 4FF4A871 		mov	r1, #336
 1421 0060 3346     		mov	r3, r6
 1422 0062 FFF7FEFF 		bl	chThdCreateStatic
 1423              	.LVL151:
 1424              		.loc 1 425 0
 1425 0066 D8F81820 		ldr	r2, [r8, #24]
 1426 006a FB68     		ldr	r3, [r7, #12]
 1427 006c 9268     		ldr	r2, [r2, #8]
 1428              		.loc 1 424 0
 1429 006e A860     		str	r0, [r5, #8]
 1430              		.loc 1 425 0
 1431 0070 013A     		subs	r2, r2, #1
 1432 0072 0094     		str	r4, [sp]
 1433 0074 1846     		mov	r0, r3
 1434 0076 4FF4A871 		mov	r1, #336
 1435 007a 3346     		mov	r3, r6
 1436 007c FFF7FEFF 		bl	chThdCreateStatic
 1437              	.LVL152:
 1438              		.loc 1 426 0
 1439 0080 D8F81820 		ldr	r2, [r8, #24]
 1440 0084 3B69     		ldr	r3, [r7, #16]
 1441 0086 9268     		ldr	r2, [r2, #8]
 1442              		.loc 1 425 0
 1443 0088 E860     		str	r0, [r5, #12]
 1444              		.loc 1 426 0
 1445 008a 013A     		subs	r2, r2, #1
 1446 008c 4FF4A871 		mov	r1, #336
 1447 0090 0094     		str	r4, [sp]
 1448 0092 1846     		mov	r0, r3
 1449 0094 3346     		mov	r3, r6
 1450 0096 FFF7FEFF 		bl	chThdCreateStatic
 1451              	.LVL153:
 1452 009a 2861     		str	r0, [r5, #16]
 1453              		.loc 1 428 0
 1454 009c 4FF47A70 		mov	r0, #1000
 1455 00a0 FFF7FEFF 		bl	chThdSleep
 1456              	.LVL154:
 1457              		.loc 1 429 0
 1458 00a4 FFF7FEFF 		bl	test_terminate_threads
 1459              	.LVL155:
 1460              		.loc 1 430 0
 1461 00a8 FFF7FEFF 		bl	test_wait_threads
 1462              	.LVL156:
 1463              		.loc 1 432 0
 1464 00ac 0848     		ldr	r0, .L84+12
 1465 00ae FFF7FEFF 		bl	test_print
ARM GAS  /tmp/ccd8y31t.s 			page 27


 1466              	.LVL157:
 1467              		.loc 1 433 0
 1468 00b2 0398     		ldr	r0, [sp, #12]
 1469 00b4 FFF7FEFF 		bl	test_printn
 1470              	.LVL158:
 1471              		.loc 1 434 0
 1472 00b8 0648     		ldr	r0, .L84+16
 1473 00ba FFF7FEFF 		bl	test_println
 1474              	.LVL159:
 1475              		.loc 1 435 0
 1476 00be 04B0     		add	sp, sp, #16
 1477              		.cfi_def_cfa_offset 24
 1478              		@ sp needed
 1479 00c0 BDE8F081 		pop	{r4, r5, r6, r7, r8, pc}
 1480              	.L85:
 1481              		.align	2
 1482              	.L84:
 1483 00c4 00000000 		.word	wa
 1484 00c8 00000000 		.word	thread8
 1485 00cc 00000000 		.word	threads
 1486 00d0 A8000000 		.word	.LC11
 1487 00d4 D0000000 		.word	.LC14
 1488 00d8 00000000 		.word	rlist
 1489              		.cfi_endproc
 1490              	.LFE21:
 1491              		.size	bmk8_execute, .-bmk8_execute
 1492 00dc AFF30080 		.section	.text.thread8,"ax",%progbits
 1493              		.align	2
 1494              		.p2align 4,,15
 1495              		.thumb
 1496              		.thumb_func
 1497              		.type	thread8, %function
 1498              	thread8:
 1499              	.LFB20:
 1500              		.loc 1 401 0
 1501              		.cfi_startproc
 1502              		@ args = 0, pretend = 0, frame = 0
 1503              		@ frame_needed = 0, uses_anonymous_args = 0
 1504              	.LVL160:
 1505 0000 38B5     		push	{r3, r4, r5, lr}
 1506              		.cfi_def_cfa_offset 16
 1507              		.cfi_offset 3, -16
 1508              		.cfi_offset 4, -12
 1509              		.cfi_offset 5, -8
 1510              		.cfi_offset 14, -4
 1511 0002 094D     		ldr	r5, .L91
 1512              		.loc 1 401 0
 1513 0004 0446     		mov	r4, r0
 1514              	.LVL161:
 1515              	.L87:
 1516              		.loc 1 404 0 discriminator 1
 1517 0006 FFF7FEFF 		bl	chThdYield
 1518              	.LVL162:
 1519              		.loc 1 405 0 discriminator 1
 1520 000a FFF7FEFF 		bl	chThdYield
 1521              	.LVL163:
 1522              		.loc 1 406 0 discriminator 1
ARM GAS  /tmp/ccd8y31t.s 			page 28


 1523 000e FFF7FEFF 		bl	chThdYield
 1524              	.LVL164:
 1525              		.loc 1 407 0 discriminator 1
 1526 0012 FFF7FEFF 		bl	chThdYield
 1527              	.LVL165:
 1528              		.loc 1 408 0 discriminator 1
 1529 0016 2368     		ldr	r3, [r4]
 1530              		.loc 1 412 0 discriminator 1
 1531 0018 AA69     		ldr	r2, [r5, #24]
 1532              		.loc 1 408 0 discriminator 1
 1533 001a 0433     		adds	r3, r3, #4
 1534 001c 2360     		str	r3, [r4]
 1535              		.loc 1 412 0 discriminator 1
 1536 001e 537F     		ldrb	r3, [r2, #29]	@ zero_extendqisi2
 1537 0020 5B07     		lsls	r3, r3, #29
 1538 0022 F0D5     		bpl	.L87
 1539              		.loc 1 414 0
 1540 0024 0020     		movs	r0, #0
 1541 0026 38BD     		pop	{r3, r4, r5, pc}
 1542              	.LVL166:
 1543              	.L92:
 1544              		.align	2
 1545              	.L91:
 1546 0028 00000000 		.word	rlist
 1547              		.cfi_endproc
 1548              	.LFE20:
 1549              		.size	thread8, .-thread8
 1550 002c AFF30080 		.section	.text.bmk9_execute,"ax",%progbits
 1551              		.align	2
 1552              		.p2align 4,,15
 1553              		.thumb
 1554              		.thumb_func
 1555              		.type	bmk9_execute, %function
 1556              	bmk9_execute:
 1557              	.LFB22:
 1558              		.loc 1 455 0
 1559              		.cfi_startproc
 1560              		@ args = 0, pretend = 0, frame = 0
 1561              		@ frame_needed = 0, uses_anonymous_args = 0
 1562 0000 30B5     		push	{r4, r5, lr}
 1563              		.cfi_def_cfa_offset 12
 1564              		.cfi_offset 4, -12
 1565              		.cfi_offset 5, -8
 1566              		.cfi_offset 14, -4
 1567 0002 83B0     		sub	sp, sp, #12
 1568              		.cfi_def_cfa_offset 24
 1569              		.loc 1 460 0
 1570 0004 0024     		movs	r4, #0
 1571 0006 2346     		mov	r3, r4
 1572 0008 2348     		ldr	r0, .L98
 1573 000a 2449     		ldr	r1, .L98+4
 1574 000c 0094     		str	r4, [sp]
 1575 000e 1022     		movs	r2, #16
 1576 0010 FFF7FEFF 		bl	chIQInit
 1577              	.LVL167:
 1578              		.loc 1 462 0
 1579 0014 FFF7FEFF 		bl	test_wait_tick
ARM GAS  /tmp/ccd8y31t.s 			page 29


 1580              	.LVL168:
 1581              		.loc 1 463 0
 1582 0018 4FF47A70 		mov	r0, #1000
 1583 001c 204D     		ldr	r5, .L98+8
 1584 001e FFF7FEFF 		bl	test_start_timer
 1585              	.LVL169:
 1586              	.L94:
 1587              	.LBB9:
 1588              		.loc 1 465 0 discriminator 1
 1589 0022 2023     		movs	r3, #32
 1590              	@ 465 "../../../test/testbmk.c" 1
 1591 0024 83F31188 		msr     BASEPRI, r3
 1592              	@ 0 "" 2
 1593              		.thumb
 1594              	.LBE9:
 1595              		.loc 1 466 0 discriminator 1
 1596 0028 0021     		movs	r1, #0
 1597 002a 1B48     		ldr	r0, .L98
 1598 002c FFF7FEFF 		bl	chIQPutI
 1599              	.LVL170:
 1600              		.loc 1 467 0 discriminator 1
 1601 0030 0121     		movs	r1, #1
 1602 0032 1948     		ldr	r0, .L98
 1603 0034 FFF7FEFF 		bl	chIQPutI
 1604              	.LVL171:
 1605              		.loc 1 468 0 discriminator 1
 1606 0038 0221     		movs	r1, #2
 1607 003a 1748     		ldr	r0, .L98
 1608 003c FFF7FEFF 		bl	chIQPutI
 1609              	.LVL172:
 1610              		.loc 1 469 0 discriminator 1
 1611 0040 0321     		movs	r1, #3
 1612 0042 1548     		ldr	r0, .L98
 1613 0044 FFF7FEFF 		bl	chIQPutI
 1614              	.LVL173:
 1615              	.LBB10:
 1616              		.loc 1 470 0 discriminator 1
 1617 0048 0023     		movs	r3, #0
 1618              	@ 470 "../../../test/testbmk.c" 1
 1619 004a 83F31188 		msr     BASEPRI, r3
 1620              	@ 0 "" 2
 1621              		.thumb
 1622              	.LBE10:
 1623              		.loc 1 471 0 discriminator 1
 1624 004e 4FF0FF31 		mov	r1, #-1
 1625 0052 1148     		ldr	r0, .L98
 1626 0054 FFF7FEFF 		bl	chIQGetTimeout
 1627              	.LVL174:
 1628              		.loc 1 472 0 discriminator 1
 1629 0058 4FF0FF31 		mov	r1, #-1
 1630 005c 0E48     		ldr	r0, .L98
 1631 005e FFF7FEFF 		bl	chIQGetTimeout
 1632              	.LVL175:
 1633              		.loc 1 473 0 discriminator 1
 1634 0062 4FF0FF31 		mov	r1, #-1
 1635 0066 0C48     		ldr	r0, .L98
 1636 0068 FFF7FEFF 		bl	chIQGetTimeout
ARM GAS  /tmp/ccd8y31t.s 			page 30


 1637              	.LVL176:
 1638              		.loc 1 474 0 discriminator 1
 1639 006c 0A48     		ldr	r0, .L98
 1640 006e 4FF0FF31 		mov	r1, #-1
 1641 0072 FFF7FEFF 		bl	chIQGetTimeout
 1642              	.LVL177:
 1643              		.loc 1 479 0 discriminator 1
 1644 0076 2B78     		ldrb	r3, [r5]	@ zero_extendqisi2
 1645              		.loc 1 475 0 discriminator 1
 1646 0078 0134     		adds	r4, r4, #1
 1647              	.LVL178:
 1648              		.loc 1 479 0 discriminator 1
 1649 007a 002B     		cmp	r3, #0
 1650 007c D1D0     		beq	.L94
 1651              		.loc 1 480 0
 1652 007e 0948     		ldr	r0, .L98+12
 1653 0080 FFF7FEFF 		bl	test_print
 1654              	.LVL179:
 1655              		.loc 1 481 0
 1656 0084 A000     		lsls	r0, r4, #2
 1657 0086 FFF7FEFF 		bl	test_printn
 1658              	.LVL180:
 1659              		.loc 1 482 0
 1660 008a 0748     		ldr	r0, .L98+16
 1661              		.loc 1 483 0
 1662 008c 03B0     		add	sp, sp, #12
 1663              		.cfi_def_cfa_offset 12
 1664              		@ sp needed
 1665 008e BDE83040 		pop	{r4, r5, lr}
 1666              		.cfi_restore 14
 1667              		.cfi_restore 5
 1668              		.cfi_restore 4
 1669              		.cfi_def_cfa_offset 0
 1670              	.LVL181:
 1671              		.loc 1 482 0
 1672 0092 FFF7FEBF 		b	test_println
 1673              	.LVL182:
 1674              	.L99:
 1675 0096 00BF     		.align	2
 1676              	.L98:
 1677 0098 00000000 		.word	.LANCHOR1
 1678 009c 00000000 		.word	.LANCHOR2
 1679 00a0 00000000 		.word	test_timer_done
 1680 00a4 A8000000 		.word	.LC11
 1681 00a8 F0000000 		.word	.LC16
 1682              		.cfi_endproc
 1683              	.LFE22:
 1684              		.size	bmk9_execute, .-bmk9_execute
 1685 00ac AFF30080 		.section	.text.bmk10_execute,"ax",%progbits
 1686              		.align	2
 1687              		.p2align 4,,15
 1688              		.thumb
 1689              		.thumb_func
 1690              		.type	bmk10_execute, %function
 1691              	bmk10_execute:
 1692              	.LFB24:
 1693              		.loc 1 504 0
ARM GAS  /tmp/ccd8y31t.s 			page 31


 1694              		.cfi_startproc
 1695              		@ args = 0, pretend = 0, frame = 0
 1696              		@ frame_needed = 0, uses_anonymous_args = 0
 1697              	.LVL183:
 1698 0000 38B5     		push	{r3, r4, r5, lr}
 1699              		.cfi_def_cfa_offset 16
 1700              		.cfi_offset 3, -16
 1701              		.cfi_offset 4, -12
 1702              		.cfi_offset 5, -8
 1703              		.cfi_offset 14, -4
 1704              		.loc 1 508 0
 1705 0002 FFF7FEFF 		bl	test_wait_tick
 1706              	.LVL184:
 1707              		.loc 1 509 0
 1708 0006 4FF47A70 		mov	r0, #1000
 1709 000a FFF7FEFF 		bl	test_start_timer
 1710              	.LVL185:
 1711 000e 154D     		ldr	r5, .L105
 1712              		.loc 1 506 0
 1713 0010 0024     		movs	r4, #0
 1714              	.LVL186:
 1715              	.L101:
 1716              	.LBB11:
 1717              		.loc 1 511 0 discriminator 1
 1718 0012 2023     		movs	r3, #32
 1719              	@ 511 "../../../test/testbmk.c" 1
 1720 0014 83F31188 		msr     BASEPRI, r3
 1721              	@ 0 "" 2
 1722              		.thumb
 1723              	.LBE11:
 1724              		.loc 1 512 0 discriminator 1
 1725 0018 1348     		ldr	r0, .L105+4
 1726 001a 144A     		ldr	r2, .L105+8
 1727 001c 0121     		movs	r1, #1
 1728 001e 0023     		movs	r3, #0
 1729 0020 FFF7FEFF 		bl	chVTSetI
 1730              	.LVL187:
 1731              		.loc 1 513 0 discriminator 1
 1732 0024 114A     		ldr	r2, .L105+8
 1733 0026 1248     		ldr	r0, .L105+12
 1734 0028 42F21071 		movw	r1, #10000
 1735 002c 0023     		movs	r3, #0
 1736 002e FFF7FEFF 		bl	chVTSetI
 1737              	.LVL188:
 1738              		.loc 1 514 0 discriminator 1
 1739 0032 0D48     		ldr	r0, .L105+4
 1740 0034 FFF7FEFF 		bl	chVTResetI
 1741              	.LVL189:
 1742              		.loc 1 515 0 discriminator 1
 1743 0038 0D48     		ldr	r0, .L105+12
 1744 003a FFF7FEFF 		bl	chVTResetI
 1745              	.LVL190:
 1746              	.LBB12:
 1747              		.loc 1 516 0 discriminator 1
 1748 003e 0023     		movs	r3, #0
 1749              	@ 516 "../../../test/testbmk.c" 1
 1750 0040 83F31188 		msr     BASEPRI, r3
ARM GAS  /tmp/ccd8y31t.s 			page 32


 1751              	@ 0 "" 2
 1752              		.thumb
 1753              	.LBE12:
 1754              		.loc 1 521 0 discriminator 1
 1755 0044 2B78     		ldrb	r3, [r5]	@ zero_extendqisi2
 1756              		.loc 1 517 0 discriminator 1
 1757 0046 0134     		adds	r4, r4, #1
 1758              	.LVL191:
 1759              		.loc 1 521 0 discriminator 1
 1760 0048 002B     		cmp	r3, #0
 1761 004a E2D0     		beq	.L101
 1762              		.loc 1 522 0
 1763 004c 0948     		ldr	r0, .L105+16
 1764 004e FFF7FEFF 		bl	test_print
 1765              	.LVL192:
 1766              		.loc 1 523 0
 1767 0052 6000     		lsls	r0, r4, #1
 1768 0054 FFF7FEFF 		bl	test_printn
 1769              	.LVL193:
 1770              		.loc 1 524 0
 1771 0058 0748     		ldr	r0, .L105+20
 1772              		.loc 1 525 0
 1773 005a BDE83840 		pop	{r3, r4, r5, lr}
 1774              		.cfi_restore 14
 1775              		.cfi_restore 5
 1776              		.cfi_restore 4
 1777              		.cfi_restore 3
 1778              		.cfi_def_cfa_offset 0
 1779              	.LVL194:
 1780              		.loc 1 524 0
 1781 005e FFF7FEBF 		b	test_println
 1782              	.LVL195:
 1783              	.L106:
 1784 0062 00BF     		.align	2
 1785              	.L105:
 1786 0064 00000000 		.word	test_timer_done
 1787 0068 00000000 		.word	.LANCHOR3
 1788 006c 00000000 		.word	tmo
 1789 0070 00000000 		.word	.LANCHOR4
 1790 0074 A8000000 		.word	.LC11
 1791 0078 FC000000 		.word	.LC17
 1792              		.cfi_endproc
 1793              	.LFE24:
 1794              		.size	bmk10_execute, .-bmk10_execute
 1795 007c AFF30080 		.section	.text.bmk11_execute,"ax",%progbits
 1796              		.align	2
 1797              		.p2align 4,,15
 1798              		.thumb
 1799              		.thumb_func
 1800              		.type	bmk11_execute, %function
 1801              	bmk11_execute:
 1802              	.LFB26:
 1803              		.loc 1 550 0
 1804              		.cfi_startproc
 1805              		@ args = 0, pretend = 0, frame = 0
 1806              		@ frame_needed = 0, uses_anonymous_args = 0
 1807              	.LVL196:
ARM GAS  /tmp/ccd8y31t.s 			page 33


 1808 0000 38B5     		push	{r3, r4, r5, lr}
 1809              		.cfi_def_cfa_offset 16
 1810              		.cfi_offset 3, -16
 1811              		.cfi_offset 4, -12
 1812              		.cfi_offset 5, -8
 1813              		.cfi_offset 14, -4
 1814              		.loc 1 553 0
 1815 0002 FFF7FEFF 		bl	test_wait_tick
 1816              	.LVL197:
 1817              		.loc 1 554 0
 1818 0006 4FF47A70 		mov	r0, #1000
 1819 000a FFF7FEFF 		bl	test_start_timer
 1820              	.LVL198:
 1821 000e 144D     		ldr	r5, .L112
 1822              		.loc 1 551 0
 1823 0010 0024     		movs	r4, #0
 1824              	.LVL199:
 1825              	.L108:
 1826              		.loc 1 556 0 discriminator 1
 1827 0012 1448     		ldr	r0, .L112+4
 1828 0014 FFF7FEFF 		bl	chSemWait
 1829              	.LVL200:
 1830              		.loc 1 557 0 discriminator 1
 1831 0018 1248     		ldr	r0, .L112+4
 1832 001a FFF7FEFF 		bl	chSemSignal
 1833              	.LVL201:
 1834              		.loc 1 558 0 discriminator 1
 1835 001e 1148     		ldr	r0, .L112+4
 1836 0020 FFF7FEFF 		bl	chSemWait
 1837              	.LVL202:
 1838              		.loc 1 559 0 discriminator 1
 1839 0024 0F48     		ldr	r0, .L112+4
 1840 0026 FFF7FEFF 		bl	chSemSignal
 1841              	.LVL203:
 1842              		.loc 1 560 0 discriminator 1
 1843 002a 0E48     		ldr	r0, .L112+4
 1844 002c FFF7FEFF 		bl	chSemWait
 1845              	.LVL204:
 1846              		.loc 1 561 0 discriminator 1
 1847 0030 0C48     		ldr	r0, .L112+4
 1848 0032 FFF7FEFF 		bl	chSemSignal
 1849              	.LVL205:
 1850              		.loc 1 562 0 discriminator 1
 1851 0036 0B48     		ldr	r0, .L112+4
 1852 0038 FFF7FEFF 		bl	chSemWait
 1853              	.LVL206:
 1854              		.loc 1 563 0 discriminator 1
 1855 003c 0948     		ldr	r0, .L112+4
 1856 003e FFF7FEFF 		bl	chSemSignal
 1857              	.LVL207:
 1858              		.loc 1 568 0 discriminator 1
 1859 0042 2B78     		ldrb	r3, [r5]	@ zero_extendqisi2
 1860              		.loc 1 564 0 discriminator 1
 1861 0044 0134     		adds	r4, r4, #1
 1862              	.LVL208:
 1863              		.loc 1 568 0 discriminator 1
 1864 0046 002B     		cmp	r3, #0
ARM GAS  /tmp/ccd8y31t.s 			page 34


 1865 0048 E3D0     		beq	.L108
 1866              		.loc 1 569 0
 1867 004a 0748     		ldr	r0, .L112+8
 1868 004c FFF7FEFF 		bl	test_print
 1869              	.LVL209:
 1870              		.loc 1 570 0
 1871 0050 A000     		lsls	r0, r4, #2
 1872 0052 FFF7FEFF 		bl	test_printn
 1873              	.LVL210:
 1874              		.loc 1 571 0
 1875 0056 0548     		ldr	r0, .L112+12
 1876              		.loc 1 572 0
 1877 0058 BDE83840 		pop	{r3, r4, r5, lr}
 1878              		.cfi_restore 14
 1879              		.cfi_restore 5
 1880              		.cfi_restore 4
 1881              		.cfi_restore 3
 1882              		.cfi_def_cfa_offset 0
 1883              	.LVL211:
 1884              		.loc 1 571 0
 1885 005c FFF7FEBF 		b	test_println
 1886              	.LVL212:
 1887              	.L113:
 1888              		.align	2
 1889              	.L112:
 1890 0060 00000000 		.word	test_timer_done
 1891 0064 00000000 		.word	.LANCHOR0
 1892 0068 A8000000 		.word	.LC11
 1893 006c 08010000 		.word	.LC18
 1894              		.cfi_endproc
 1895              	.LFE26:
 1896              		.size	bmk11_execute, .-bmk11_execute
 1897              		.section	.text.bmk12_execute,"ax",%progbits
 1898              		.align	2
 1899              		.p2align 4,,15
 1900              		.thumb
 1901              		.thumb_func
 1902              		.type	bmk12_execute, %function
 1903              	bmk12_execute:
 1904              	.LFB28:
 1905              		.loc 1 598 0
 1906              		.cfi_startproc
 1907              		@ args = 0, pretend = 0, frame = 0
 1908              		@ frame_needed = 0, uses_anonymous_args = 0
 1909              	.LVL213:
 1910 0000 38B5     		push	{r3, r4, r5, lr}
 1911              		.cfi_def_cfa_offset 16
 1912              		.cfi_offset 3, -16
 1913              		.cfi_offset 4, -12
 1914              		.cfi_offset 5, -8
 1915              		.cfi_offset 14, -4
 1916              		.loc 1 601 0
 1917 0002 FFF7FEFF 		bl	test_wait_tick
 1918              	.LVL214:
 1919              		.loc 1 602 0
 1920 0006 4FF47A70 		mov	r0, #1000
 1921 000a FFF7FEFF 		bl	test_start_timer
ARM GAS  /tmp/ccd8y31t.s 			page 35


 1922              	.LVL215:
 1923 000e 124D     		ldr	r5, .L119
 1924              		.loc 1 599 0
 1925 0010 0024     		movs	r4, #0
 1926              	.LVL216:
 1927              	.L115:
 1928              		.loc 1 604 0 discriminator 1
 1929 0012 1248     		ldr	r0, .L119+4
 1930 0014 FFF7FEFF 		bl	chMtxLock
 1931              	.LVL217:
 1932              		.loc 1 605 0 discriminator 1
 1933 0018 FFF7FEFF 		bl	chMtxUnlock
 1934              	.LVL218:
 1935              		.loc 1 606 0 discriminator 1
 1936 001c 0F48     		ldr	r0, .L119+4
 1937 001e FFF7FEFF 		bl	chMtxLock
 1938              	.LVL219:
 1939              		.loc 1 607 0 discriminator 1
 1940 0022 FFF7FEFF 		bl	chMtxUnlock
 1941              	.LVL220:
 1942              		.loc 1 608 0 discriminator 1
 1943 0026 0D48     		ldr	r0, .L119+4
 1944 0028 FFF7FEFF 		bl	chMtxLock
 1945              	.LVL221:
 1946              		.loc 1 609 0 discriminator 1
 1947 002c FFF7FEFF 		bl	chMtxUnlock
 1948              	.LVL222:
 1949              		.loc 1 610 0 discriminator 1
 1950 0030 0A48     		ldr	r0, .L119+4
 1951 0032 FFF7FEFF 		bl	chMtxLock
 1952              	.LVL223:
 1953              		.loc 1 611 0 discriminator 1
 1954 0036 FFF7FEFF 		bl	chMtxUnlock
 1955              	.LVL224:
 1956              		.loc 1 616 0 discriminator 1
 1957 003a 2B78     		ldrb	r3, [r5]	@ zero_extendqisi2
 1958              		.loc 1 612 0 discriminator 1
 1959 003c 0134     		adds	r4, r4, #1
 1960              	.LVL225:
 1961              		.loc 1 616 0 discriminator 1
 1962 003e 002B     		cmp	r3, #0
 1963 0040 E7D0     		beq	.L115
 1964              		.loc 1 617 0
 1965 0042 0748     		ldr	r0, .L119+8
 1966 0044 FFF7FEFF 		bl	test_print
 1967              	.LVL226:
 1968              		.loc 1 618 0
 1969 0048 A000     		lsls	r0, r4, #2
 1970 004a FFF7FEFF 		bl	test_printn
 1971              	.LVL227:
 1972              		.loc 1 619 0
 1973 004e 0548     		ldr	r0, .L119+12
 1974              		.loc 1 620 0
 1975 0050 BDE83840 		pop	{r3, r4, r5, lr}
 1976              		.cfi_restore 14
 1977              		.cfi_restore 5
 1978              		.cfi_restore 4
ARM GAS  /tmp/ccd8y31t.s 			page 36


 1979              		.cfi_restore 3
 1980              		.cfi_def_cfa_offset 0
 1981              	.LVL228:
 1982              		.loc 1 619 0
 1983 0054 FFF7FEBF 		b	test_println
 1984              	.LVL229:
 1985              	.L120:
 1986              		.align	2
 1987              	.L119:
 1988 0058 00000000 		.word	test_timer_done
 1989 005c 00000000 		.word	.LANCHOR5
 1990 0060 A8000000 		.word	.LC11
 1991 0064 18010000 		.word	.LC19
 1992              		.cfi_endproc
 1993              	.LFE28:
 1994              		.size	bmk12_execute, .-bmk12_execute
 1995 0068 AFF30080 		.section	.text.bmk12_setup,"ax",%progbits
 1995      AFF30080 
 1996              		.align	2
 1997              		.p2align 4,,15
 1998              		.thumb
 1999              		.thumb_func
 2000              		.type	bmk12_setup, %function
 2001              	bmk12_setup:
 2002              	.LFB27:
 2003              		.loc 1 593 0
 2004              		.cfi_startproc
 2005              		@ args = 0, pretend = 0, frame = 0
 2006              		@ frame_needed = 0, uses_anonymous_args = 0
 2007              		@ link register save eliminated.
 2008              		.loc 1 595 0
 2009 0000 0148     		ldr	r0, .L122
 2010 0002 FFF7FEBF 		b	chMtxInit
 2011              	.LVL230:
 2012              	.L123:
 2013 0006 00BF     		.align	2
 2014              	.L122:
 2015 0008 00000000 		.word	.LANCHOR5
 2016              		.cfi_endproc
 2017              	.LFE27:
 2018              		.size	bmk12_setup, .-bmk12_setup
 2019              		.global	patternbmk
 2020              		.global	testbmk13
 2021              		.global	testbmk12
 2022              		.global	testbmk11
 2023              		.global	testbmk10
 2024              		.global	testbmk9
 2025              		.global	testbmk8
 2026              		.global	testbmk7
 2027              		.global	testbmk6
 2028              		.global	testbmk5
 2029              		.global	testbmk4
 2030              		.global	testbmk3
 2031              		.global	testbmk2
 2032              		.global	testbmk1
 2033 000c AFF30080 		.section	.rodata.testbmk8,"a",%progbits
 2034              		.align	2
ARM GAS  /tmp/ccd8y31t.s 			page 37


 2035              		.type	testbmk8, %object
 2036              		.size	testbmk8, 16
 2037              	testbmk8:
 2038 0000 D0010000 		.word	.LC25
 2039 0004 00000000 		.word	0
 2040 0008 00000000 		.word	0
 2041 000c 00000000 		.word	bmk8_execute
 2042              		.section	.rodata.patternbmk,"a",%progbits
 2043              		.align	2
 2044              		.type	patternbmk, %object
 2045              		.size	patternbmk, 56
 2046              	patternbmk:
 2047 0000 00000000 		.word	testbmk1
 2048 0004 00000000 		.word	testbmk2
 2049 0008 00000000 		.word	testbmk3
 2050 000c 00000000 		.word	testbmk4
 2051 0010 00000000 		.word	testbmk5
 2052 0014 00000000 		.word	testbmk6
 2053 0018 00000000 		.word	testbmk7
 2054 001c 00000000 		.word	testbmk8
 2055 0020 00000000 		.word	testbmk9
 2056 0024 00000000 		.word	testbmk10
 2057 0028 00000000 		.word	testbmk11
 2058 002c 00000000 		.word	testbmk12
 2059 0030 00000000 		.word	testbmk13
 2060 0034 00000000 		.word	0
 2061              		.section	.rodata.testbmk2,"a",%progbits
 2062              		.align	2
 2063              		.type	testbmk2, %object
 2064              		.size	testbmk2, 16
 2065              	testbmk2:
 2066 0000 98020000 		.word	.LC31
 2067 0004 00000000 		.word	0
 2068 0008 00000000 		.word	0
 2069 000c 00000000 		.word	bmk2_execute
 2070              		.section	.rodata.testbmk10,"a",%progbits
 2071              		.align	2
 2072              		.type	testbmk10, %object
 2073              		.size	testbmk10, 16
 2074              	testbmk10:
 2075 0000 88010000 		.word	.LC23
 2076 0004 00000000 		.word	0
 2077 0008 00000000 		.word	0
 2078 000c 00000000 		.word	bmk10_execute
 2079              		.section	.rodata.testbmk4,"a",%progbits
 2080              		.align	2
 2081              		.type	testbmk4, %object
 2082              		.size	testbmk4, 16
 2083              	testbmk4:
 2084 0000 64020000 		.word	.LC29
 2085 0004 00000000 		.word	0
 2086 0008 00000000 		.word	0
 2087 000c 00000000 		.word	bmk4_execute
 2088              		.section	.bss.vt2.4973,"aw",%nobits
 2089              		.align	2
 2090              		.set	.LANCHOR4,. + 0
 2091              		.type	vt2.4973, %object
ARM GAS  /tmp/ccd8y31t.s 			page 38


 2092              		.size	vt2.4973, 20
 2093              	vt2.4973:
 2094 0000 00000000 		.space	20
 2094      00000000 
 2094      00000000 
 2094      00000000 
 2094      00000000 
 2095              		.section	.rodata.testbmk3,"a",%progbits
 2096              		.align	2
 2097              		.type	testbmk3, %object
 2098              		.size	testbmk3, 16
 2099              	testbmk3:
 2100 0000 80020000 		.word	.LC30
 2101 0004 00000000 		.word	0
 2102 0008 00000000 		.word	0
 2103 000c 00000000 		.word	bmk3_execute
 2104              		.section	.bss.ib.4959,"aw",%nobits
 2105              		.align	2
 2106              		.set	.LANCHOR2,. + 0
 2107              		.type	ib.4959, %object
 2108              		.size	ib.4959, 16
 2109              	ib.4959:
 2110 0000 00000000 		.space	16
 2110      00000000 
 2110      00000000 
 2110      00000000 
 2111              		.section	.bss.iq.4960,"aw",%nobits
 2112              		.align	2
 2113              		.set	.LANCHOR1,. + 0
 2114              		.type	iq.4960, %object
 2115              		.size	iq.4960, 36
 2116              	iq.4960:
 2117 0000 00000000 		.space	36
 2117      00000000 
 2117      00000000 
 2117      00000000 
 2117      00000000 
 2118              		.section	.rodata.str1.4,"aMS",%progbits,1
 2119              		.align	2
 2120              	.LC0:
 2121 0000 2D2D2D20 		.ascii	"--- System: \000"
 2121      53797374 
 2121      656D3A20 
 2121      00
 2122 000d 000000   		.space	3
 2123              	.LC1:
 2124 0010 20627974 		.ascii	" bytes\000"
 2124      657300
 2125 0017 00       		.space	1
 2126              	.LC2:
 2127 0018 2D2D2D20 		.ascii	"--- Thread: \000"
 2127      54687265 
 2127      61643A20 
 2127      00
 2128 0025 000000   		.space	3
 2129              	.LC3:
 2130 0028 2D2D2D20 		.ascii	"--- Timer : \000"
ARM GAS  /tmp/ccd8y31t.s 			page 39


 2130      54696D65 
 2130      72203A20 
 2130      00
 2131 0035 000000   		.space	3
 2132              	.LC4:
 2133 0038 2D2D2D20 		.ascii	"--- Semaph: \000"
 2133      53656D61 
 2133      70683A20 
 2133      00
 2134 0045 000000   		.space	3
 2135              	.LC5:
 2136 0048 2D2D2D20 		.ascii	"--- EventS: \000"
 2136      4576656E 
 2136      74533A20 
 2136      00
 2137 0055 000000   		.space	3
 2138              	.LC6:
 2139 0058 2D2D2D20 		.ascii	"--- EventL: \000"
 2139      4576656E 
 2139      744C3A20 
 2139      00
 2140 0065 000000   		.space	3
 2141              	.LC7:
 2142 0068 2D2D2D20 		.ascii	"--- Mutex : \000"
 2142      4D757465 
 2142      78203A20 
 2142      00
 2143 0075 000000   		.space	3
 2144              	.LC8:
 2145 0078 2D2D2D20 		.ascii	"--- CondV.: \000"
 2145      436F6E64 
 2145      562E3A20 
 2145      00
 2146 0085 000000   		.space	3
 2147              	.LC9:
 2148 0088 2D2D2D20 		.ascii	"--- Queue : \000"
 2148      51756575 
 2148      65203A20 
 2148      00
 2149 0095 000000   		.space	3
 2150              	.LC10:
 2151 0098 2D2D2D20 		.ascii	"--- MailB.: \000"
 2151      4D61696C 
 2151      422E3A20 
 2151      00
 2152 00a5 000000   		.space	3
 2153              	.LC11:
 2154 00a8 2D2D2D20 		.ascii	"--- Score : \000"
 2154      53636F72 
 2154      65203A20 
 2154      00
 2155 00b5 000000   		.space	3
 2156              	.LC12:
 2157 00b8 20746872 		.ascii	" threads/S\000"
 2157      65616473 
 2157      2F5300
 2158 00c3 00       		.space	1
ARM GAS  /tmp/ccd8y31t.s 			page 40


 2159              	.LC13:
 2160 00c4 206D7367 		.ascii	" msgs/S, \000"
 2160      732F532C 
 2160      2000
 2161 00ce 0000     		.space	2
 2162              	.LC14:
 2163 00d0 20637478 		.ascii	" ctxswc/S\000"
 2163      7377632F 
 2163      5300
 2164 00da 0000     		.space	2
 2165              	.LC15:
 2166 00dc 20726573 		.ascii	" reschedules/S, \000"
 2166      63686564 
 2166      756C6573 
 2166      2F532C20 
 2166      00
 2167 00ed 000000   		.space	3
 2168              	.LC16:
 2169 00f0 20627974 		.ascii	" bytes/S\000"
 2169      65732F53 
 2169      00
 2170 00f9 000000   		.space	3
 2171              	.LC17:
 2172 00fc 2074696D 		.ascii	" timers/S\000"
 2172      6572732F 
 2172      5300
 2173 0106 0000     		.space	2
 2174              	.LC18:
 2175 0108 20776169 		.ascii	" wait+signal/S\000"
 2175      742B7369 
 2175      676E616C 
 2175      2F5300
 2176 0117 00       		.space	1
 2177              	.LC19:
 2178 0118 206C6F63 		.ascii	" lock+unlock/S\000"
 2178      6B2B756E 
 2178      6C6F636B 
 2178      2F5300
 2179 0127 00       		.space	1
 2180              	.LC20:
 2181 0128 42656E63 		.ascii	"Benchmark, RAM footprint\000"
 2181      686D6172 
 2181      6B2C2052 
 2181      414D2066 
 2181      6F6F7470 
 2182 0141 000000   		.space	3
 2183              	.LC21:
 2184 0144 42656E63 		.ascii	"Benchmark, mutexes lock/unlock\000"
 2184      686D6172 
 2184      6B2C206D 
 2184      75746578 
 2184      6573206C 
 2185 0163 00       		.space	1
 2186              	.LC22:
 2187 0164 42656E63 		.ascii	"Benchmark, semaphores wait/signal\000"
 2187      686D6172 
 2187      6B2C2073 
ARM GAS  /tmp/ccd8y31t.s 			page 41


 2187      656D6170 
 2187      686F7265 
 2188 0186 0000     		.space	2
 2189              	.LC23:
 2190 0188 42656E63 		.ascii	"Benchmark, virtual timers set/reset\000"
 2190      686D6172 
 2190      6B2C2076 
 2190      69727475 
 2190      616C2074 
 2191              	.LC24:
 2192 01ac 42656E63 		.ascii	"Benchmark, I/O Queues throughput\000"
 2192      686D6172 
 2192      6B2C2049 
 2192      2F4F2051 
 2192      75657565 
 2193 01cd 000000   		.space	3
 2194              	.LC25:
 2195 01d0 42656E63 		.ascii	"Benchmark, round robin context switching\000"
 2195      686D6172 
 2195      6B2C2072 
 2195      6F756E64 
 2195      20726F62 
 2196 01f9 000000   		.space	3
 2197              	.LC26:
 2198 01fc 42656E63 		.ascii	"Benchmark, mass reschedule, 5 threads\000"
 2198      686D6172 
 2198      6B2C206D 
 2198      61737320 
 2198      72657363 
 2199 0222 0000     		.space	2
 2200              	.LC27:
 2201 0224 42656E63 		.ascii	"Benchmark, threads, create only\000"
 2201      686D6172 
 2201      6B2C2074 
 2201      68726561 
 2201      64732C20 
 2202              	.LC28:
 2203 0244 42656E63 		.ascii	"Benchmark, threads, full cycle\000"
 2203      686D6172 
 2203      6B2C2074 
 2203      68726561 
 2203      64732C20 
 2204 0263 00       		.space	1
 2205              	.LC29:
 2206 0264 42656E63 		.ascii	"Benchmark, context switch\000"
 2206      686D6172 
 2206      6B2C2063 
 2206      6F6E7465 
 2206      78742073 
 2207 027e 0000     		.space	2
 2208              	.LC30:
 2209 0280 42656E63 		.ascii	"Benchmark, messages #3\000"
 2209      686D6172 
 2209      6B2C206D 
 2209      65737361 
 2209      67657320 
 2210 0297 00       		.space	1
ARM GAS  /tmp/ccd8y31t.s 			page 42


 2211              	.LC31:
 2212 0298 42656E63 		.ascii	"Benchmark, messages #2\000"
 2212      686D6172 
 2212      6B2C206D 
 2212      65737361 
 2212      67657320 
 2213 02af 00       		.space	1
 2214              	.LC32:
 2215 02b0 42656E63 		.ascii	"Benchmark, messages #1\000"
 2215      686D6172 
 2215      6B2C206D 
 2215      65737361 
 2215      67657320 
 2216 02c7 00       		.section	.rodata.testbmk9,"a",%progbits
 2217              		.align	2
 2218              		.type	testbmk9, %object
 2219              		.size	testbmk9, 16
 2220              	testbmk9:
 2221 0000 AC010000 		.word	.LC24
 2222 0004 00000000 		.word	0
 2223 0008 00000000 		.word	0
 2224 000c 00000000 		.word	bmk9_execute
 2225              		.section	.bss.vt1.4972,"aw",%nobits
 2226              		.align	2
 2227              		.set	.LANCHOR3,. + 0
 2228              		.type	vt1.4972, %object
 2229              		.size	vt1.4972, 20
 2230              	vt1.4972:
 2231 0000 00000000 		.space	20
 2231      00000000 
 2231      00000000 
 2231      00000000 
 2231      00000000 
 2232              		.section	.bss.sem1,"aw",%nobits
 2233              		.align	2
 2234              		.set	.LANCHOR0,. + 0
 2235              		.type	sem1, %object
 2236              		.size	sem1, 12
 2237              	sem1:
 2238 0000 00000000 		.space	12
 2238      00000000 
 2238      00000000 
 2239              		.section	.bss.mtx1,"aw",%nobits
 2240              		.align	2
 2241              		.set	.LANCHOR5,. + 0
 2242              		.type	mtx1, %object
 2243              		.size	mtx1, 16
 2244              	mtx1:
 2245 0000 00000000 		.space	16
 2245      00000000 
 2245      00000000 
 2245      00000000 
 2246              		.section	.rodata.testbmk1,"a",%progbits
 2247              		.align	2
 2248              		.type	testbmk1, %object
 2249              		.size	testbmk1, 16
 2250              	testbmk1:
ARM GAS  /tmp/ccd8y31t.s 			page 43


 2251 0000 B0020000 		.word	.LC32
 2252 0004 00000000 		.word	0
 2253 0008 00000000 		.word	0
 2254 000c 00000000 		.word	bmk1_execute
 2255              		.section	.rodata.testbmk11,"a",%progbits
 2256              		.align	2
 2257              		.type	testbmk11, %object
 2258              		.size	testbmk11, 16
 2259              	testbmk11:
 2260 0000 64010000 		.word	.LC22
 2261 0004 00000000 		.word	bmk11_setup
 2262 0008 00000000 		.word	0
 2263 000c 00000000 		.word	bmk11_execute
 2264              		.section	.rodata.testbmk12,"a",%progbits
 2265              		.align	2
 2266              		.type	testbmk12, %object
 2267              		.size	testbmk12, 16
 2268              	testbmk12:
 2269 0000 44010000 		.word	.LC21
 2270 0004 00000000 		.word	bmk12_setup
 2271 0008 00000000 		.word	0
 2272 000c 00000000 		.word	bmk12_execute
 2273              		.section	.rodata.testbmk13,"a",%progbits
 2274              		.align	2
 2275              		.type	testbmk13, %object
 2276              		.size	testbmk13, 16
 2277              	testbmk13:
 2278 0000 28010000 		.word	.LC20
 2279 0004 00000000 		.word	0
 2280 0008 00000000 		.word	0
 2281 000c 00000000 		.word	bmk13_execute
 2282              		.section	.rodata.testbmk5,"a",%progbits
 2283              		.align	2
 2284              		.type	testbmk5, %object
 2285              		.size	testbmk5, 16
 2286              	testbmk5:
 2287 0000 44020000 		.word	.LC28
 2288 0004 00000000 		.word	0
 2289 0008 00000000 		.word	0
 2290 000c 00000000 		.word	bmk5_execute
 2291              		.section	.rodata.testbmk6,"a",%progbits
 2292              		.align	2
 2293              		.type	testbmk6, %object
 2294              		.size	testbmk6, 16
 2295              	testbmk6:
 2296 0000 24020000 		.word	.LC27
 2297 0004 00000000 		.word	0
 2298 0008 00000000 		.word	0
 2299 000c 00000000 		.word	bmk6_execute
 2300              		.section	.rodata.testbmk7,"a",%progbits
 2301              		.align	2
 2302              		.type	testbmk7, %object
 2303              		.size	testbmk7, 16
 2304              	testbmk7:
 2305 0000 FC010000 		.word	.LC26
 2306 0004 00000000 		.word	bmk7_setup
 2307 0008 00000000 		.word	0
ARM GAS  /tmp/ccd8y31t.s 			page 44


 2308 000c 00000000 		.word	bmk7_execute
 2309              		.text
 2310              	.Letext0:
 2311              		.file 2 "/usr/lib/gcc/arm-none-eabi/4.9.2/include/stddef.h"
 2312              		.file 3 "/usr/arm-none-eabi/include/machine/_default_types.h"
 2313              		.file 4 "/usr/arm-none-eabi/include/stdint.h"
 2314              		.file 5 "../../../os/ports/GCC/ARMCMx/chtypes.h"
 2315              		.file 6 "../../../os/kernel/include/chlists.h"
 2316              		.file 7 "../../../os/kernel/include/chthreads.h"
 2317              		.file 8 "../../../os/ports/GCC/ARMCMx/chcore_v7m.h"
 2318              		.file 9 "../../../os/kernel/include/chvt.h"
 2319              		.file 10 "../../../os/kernel/include/chschd.h"
 2320              		.file 11 "../../../os/kernel/include/chsem.h"
 2321              		.file 12 "../../../os/kernel/include/chmtx.h"
 2322              		.file 13 "../../../os/kernel/include/chqueues.h"
 2323              		.file 14 "../../../test/test.h"
 2324              		.file 15 "../../../os/kernel/include/chmsg.h"