ARM GAS  /tmp/ccx8xhSH.s 			page 1


   1              		.syntax unified
   2              		.cpu cortex-m4
   3              		.fpu softvfp
   4              		.eabi_attribute 20, 1
   5              		.eabi_attribute 21, 1
   6              		.eabi_attribute 23, 3
   7              		.eabi_attribute 24, 1
   8              		.eabi_attribute 25, 1
   9              		.eabi_attribute 26, 1
  10              		.eabi_attribute 30, 2
  11              		.eabi_attribute 34, 1
  12              		.eabi_attribute 18, 4
  13              		.thumb
  14              		.file	"tm.c"
  15              		.text
  16              	.Ltext0:
  17              		.cfi_sections	.debug_frame
  18              		.section	.text.tm_start,"ax",%progbits
  19              		.align	2
  20              		.p2align 4,,15
  21              		.thumb
  22              		.thumb_func
  23              		.type	tm_start, %function
  24              	tm_start:
  25              	.LFB118:
  26              		.file 1 "../../../os/hal/src/tm.c"
  27              		.loc 1 69 0
  28              		.cfi_startproc
  29              		@ args = 0, pretend = 0, frame = 0
  30              		@ frame_needed = 0, uses_anonymous_args = 0
  31              		@ link register save eliminated.
  32              	.LVL0:
  33              		.loc 1 71 0
  34 0000 014B     		ldr	r3, .L2
  35 0002 5B68     		ldr	r3, [r3, #4]
  36 0004 8360     		str	r3, [r0, #8]
  37 0006 7047     		bx	lr
  38              	.L3:
  39              		.align	2
  40              	.L2:
  41 0008 001000E0 		.word	-536866816
  42              		.cfi_endproc
  43              	.LFE118:
  44              		.size	tm_start, .-tm_start
  45 000c AFF30080 		.section	.text.tm_stop,"ax",%progbits
  46              		.align	2
  47              		.p2align 4,,15
  48              		.thumb
  49              		.thumb_func
  50              		.type	tm_stop, %function
  51              	tm_stop:
  52              	.LFB119:
  53              		.loc 1 81 0
  54              		.cfi_startproc
  55              		@ args = 0, pretend = 0, frame = 0
  56              		@ frame_needed = 0, uses_anonymous_args = 0
  57              		@ link register save eliminated.
ARM GAS  /tmp/ccx8xhSH.s 			page 2


  58              	.LVL1:
  59              		.loc 1 83 0
  60 0000 0B4A     		ldr	r2, .L10
  61              		.loc 1 84 0
  62 0002 0C49     		ldr	r1, .L10+4
  63 0004 8368     		ldr	r3, [r0, #8]
  64              		.loc 1 83 0
  65 0006 5268     		ldr	r2, [r2, #4]
  66              	.LVL2:
  67              		.loc 1 81 0
  68 0008 10B4     		push	{r4}
  69              		.cfi_def_cfa_offset 4
  70              		.cfi_offset 4, -4
  71              		.loc 1 84 0
  72 000a 0C68     		ldr	r4, [r1]
  73              		.loc 1 85 0
  74 000c C168     		ldr	r1, [r0, #12]
  75              		.loc 1 84 0
  76 000e D31A     		subs	r3, r2, r3
  77 0010 1B1B     		subs	r3, r3, r4
  78              		.loc 1 85 0
  79 0012 8B42     		cmp	r3, r1
  80              		.loc 1 84 0
  81 0014 8360     		str	r3, [r0, #8]
  82              		.loc 1 85 0
  83 0016 06D8     		bhi	.L9
  84              		.loc 1 87 0
  85 0018 0269     		ldr	r2, [r0, #16]
  86              	.LVL3:
  87              		.loc 1 89 0
  88 001a 5DF8044B 		ldr	r4, [sp], #4
  89              		.cfi_remember_state
  90              		.cfi_restore 4
  91              		.cfi_def_cfa_offset 0
  92              		.loc 1 87 0
  93 001e 9342     		cmp	r3, r2
  94              		.loc 1 88 0
  95 0020 38BF     		it	cc
  96 0022 0361     		strcc	r3, [r0, #16]
  97              		.loc 1 89 0
  98 0024 7047     		bx	lr
  99              	.LVL4:
 100              	.L9:
 101              		.cfi_restore_state
 102              		.loc 1 86 0
 103 0026 C360     		str	r3, [r0, #12]
 104              		.loc 1 89 0
 105 0028 5DF8044B 		ldr	r4, [sp], #4
 106              		.cfi_restore 4
 107              		.cfi_def_cfa_offset 0
 108 002c 7047     		bx	lr
 109              	.L11:
 110 002e 00BF     		.align	2
 111              	.L10:
 112 0030 001000E0 		.word	-536866816
 113 0034 00000000 		.word	.LANCHOR0
 114              		.cfi_endproc
ARM GAS  /tmp/ccx8xhSH.s 			page 3


 115              	.LFE119:
 116              		.size	tm_stop, .-tm_stop
 117 0038 AFF30080 		.section	.text.tmInit,"ax",%progbits
 117      AFF30080 
 118              		.align	2
 119              		.p2align 4,,15
 120              		.global	tmInit
 121              		.thumb
 122              		.thumb_func
 123              		.type	tmInit, %function
 124              	tmInit:
 125              	.LFB120:
 126              		.loc 1 104 0
 127              		.cfi_startproc
 128              		@ args = 0, pretend = 0, frame = 24
 129              		@ frame_needed = 0, uses_anonymous_args = 0
 130 0000 10B5     		push	{r4, lr}
 131              		.cfi_def_cfa_offset 8
 132              		.cfi_offset 4, -8
 133              		.cfi_offset 14, -4
 134 0002 86B0     		sub	sp, sp, #24
 135              		.cfi_def_cfa_offset 32
 136              		.loc 1 110 0
 137 0004 0A4C     		ldr	r4, .L14
 138              	.LBB8:
 139              	.LBB9:
 140              		.loc 1 126 0
 141 0006 0B4B     		ldr	r3, .L14+4
 142              	.LBE9:
 143              	.LBE8:
 144              	.LBB15:
 145              	.LBB16:
 146              		.loc 1 71 0
 147 0008 0B49     		ldr	r1, .L14+8
 148              	.LBE16:
 149              	.LBE15:
 150              	.LBB19:
 151              	.LBB10:
 152              		.loc 1 126 0
 153 000a 0193     		str	r3, [sp, #4]
 154              		.loc 1 130 0
 155 000c 4FF0FF30 		mov	r0, #-1
 156              	.LBE10:
 157              	.LBE19:
 158              		.loc 1 110 0
 159 0010 0023     		movs	r3, #0
 160              	.LBB20:
 161              	.LBB11:
 162              		.loc 1 130 0
 163 0012 0590     		str	r0, [sp, #20]
 164              	.LBE11:
 165              	.LBE20:
 166              		.loc 1 110 0
 167 0014 2360     		str	r3, [r4]
 168              	.LVL5:
 169              	.LBB21:
 170              	.LBB12:
ARM GAS  /tmp/ccx8xhSH.s 			page 4


 171              		.loc 1 129 0
 172 0016 0493     		str	r3, [sp, #16]
 173              	.LBE12:
 174              	.LBE21:
 175              	.LBB22:
 176              	.LBB17:
 177              		.loc 1 71 0
 178 0018 4B68     		ldr	r3, [r1, #4]
 179              	.LBE17:
 180              	.LBE22:
 181              	.LBB23:
 182              	.LBB13:
 183              		.loc 1 127 0
 184 001a 084A     		ldr	r2, .L14+12
 185              	.LBE13:
 186              	.LBE23:
 187              	.LBB24:
 188              	.LBB18:
 189              		.loc 1 71 0
 190 001c 0393     		str	r3, [sp, #12]
 191              	.LBE18:
 192              	.LBE24:
 193              		.loc 1 113 0
 194 001e 01A8     		add	r0, sp, #4
 195              	.LVL6:
 196              	.LBB25:
 197              	.LBB14:
 198              		.loc 1 127 0
 199 0020 0292     		str	r2, [sp, #8]
 200              	.LBE14:
 201              	.LBE25:
 202              		.loc 1 113 0
 203 0022 FFF7FEFF 		bl	tm_stop
 204              	.LVL7:
 205              		.loc 1 114 0
 206 0026 039B     		ldr	r3, [sp, #12]
 207 0028 2360     		str	r3, [r4]
 208              		.loc 1 115 0
 209 002a 06B0     		add	sp, sp, #24
 210              		.cfi_def_cfa_offset 8
 211              		@ sp needed
 212 002c 10BD     		pop	{r4, pc}
 213              	.LVL8:
 214              	.L15:
 215 002e 00BF     		.align	2
 216              	.L14:
 217 0030 00000000 		.word	.LANCHOR0
 218 0034 00000000 		.word	tm_start
 219 0038 001000E0 		.word	-536866816
 220 003c 00000000 		.word	tm_stop
 221              		.cfi_endproc
 222              	.LFE120:
 223              		.size	tmInit, .-tmInit
 224              		.section	.text.tmObjectInit,"ax",%progbits
 225              		.align	2
 226              		.p2align 4,,15
 227              		.global	tmObjectInit
ARM GAS  /tmp/ccx8xhSH.s 			page 5


 228              		.thumb
 229              		.thumb_func
 230              		.type	tmObjectInit, %function
 231              	tmObjectInit:
 232              	.LFB121:
 233              		.loc 1 124 0
 234              		.cfi_startproc
 235              		@ args = 0, pretend = 0, frame = 0
 236              		@ frame_needed = 0, uses_anonymous_args = 0
 237              		@ link register save eliminated.
 238              	.LVL9:
 239              		.loc 1 126 0
 240 0000 054B     		ldr	r3, .L17
 241              		.loc 1 127 0
 242 0002 0649     		ldr	r1, .L17+4
 243              		.loc 1 126 0
 244 0004 0360     		str	r3, [r0]
 245              		.loc 1 130 0
 246 0006 4FF0FF32 		mov	r2, #-1
 247              		.loc 1 128 0
 248 000a 0023     		movs	r3, #0
 249              		.loc 1 127 0
 250 000c 4160     		str	r1, [r0, #4]
 251              		.loc 1 130 0
 252 000e 0261     		str	r2, [r0, #16]
 253              		.loc 1 128 0
 254 0010 8360     		str	r3, [r0, #8]
 255              		.loc 1 129 0
 256 0012 C360     		str	r3, [r0, #12]
 257 0014 7047     		bx	lr
 258              	.L18:
 259 0016 00BF     		.align	2
 260              	.L17:
 261 0018 00000000 		.word	tm_start
 262 001c 00000000 		.word	tm_stop
 263              		.cfi_endproc
 264              	.LFE121:
 265              		.size	tmObjectInit, .-tmObjectInit
 266              		.section	.bss.measurement_offset,"aw",%nobits
 267              		.align	2
 268              		.set	.LANCHOR0,. + 0
 269              		.type	measurement_offset, %object
 270              		.size	measurement_offset, 4
 271              	measurement_offset:
 272 0000 00000000 		.space	4
 273              		.text
 274              	.Letext0:
 275              		.file 2 "/usr/arm-none-eabi/include/machine/_default_types.h"
 276              		.file 3 "/usr/arm-none-eabi/include/stdint.h"
 277              		.file 4 "../../../os/ports/common/ARMCMx/nvic.h"
 278              		.file 5 "../../../os/hal/platforms/STM32F4xx/hal_lld.h"
 279              		.file 6 "../../../os/hal/include/tm.h"
 280              		.file 7 "../../../os/ports/common/ARMCMx/CMSIS/include/core_cm4.h"