ARM GAS  /tmp/cceMFToX.s 			page 1


   1              		.syntax unified
   2              		.cpu cortex-m4
   3              		.fpu softvfp
   4              		.eabi_attribute 20, 1
   5              		.eabi_attribute 21, 1
   6              		.eabi_attribute 23, 3
   7              		.eabi_attribute 24, 1
   8              		.eabi_attribute 25, 1
   9              		.eabi_attribute 26, 1
  10              		.eabi_attribute 30, 1
  11              		.eabi_attribute 34, 1
  12              		.eabi_attribute 18, 4
  13              		.thumb
  14              		.file	"can.c"
  15              		.text
  16              	.Ltext0:
  17              		.cfi_sections	.debug_frame
  18              		.section	.text.canInit,"ax",%progbits
  19              		.align	2
  20              		.p2align 4,,15
  21              		.global	canInit
  22              		.thumb
  23              		.thumb_func
  24              		.type	canInit, %function
  25              	canInit:
  26              	.LFB118:
  27              		.file 1 "../../ChibiOS-RT/os/hal/src/can.c"
  28              		.loc 1 68 0
  29              		.cfi_startproc
  30              		@ args = 0, pretend = 0, frame = 0
  31              		@ frame_needed = 0, uses_anonymous_args = 0
  32 0000 08B5     		push	{r3, lr}
  33              		.cfi_def_cfa_offset 8
  34              		.cfi_offset 3, -8
  35              		.cfi_offset 14, -4
  36              		.loc 1 70 0
  37 0002 FFF7FEFF 		bl	can_lld_init
  38              	.LVL0:
  39 0006 08BD     		pop	{r3, pc}
  40              		.cfi_endproc
  41              	.LFE118:
  42              		.size	canInit, .-canInit
  43 0008 AFF30080 		.section	.text.canObjectInit,"ax",%progbits
  43      AFF30080 
  44              		.align	2
  45              		.p2align 4,,15
  46              		.global	canObjectInit
  47              		.thumb
  48              		.thumb_func
  49              		.type	canObjectInit, %function
  50              	canObjectInit:
  51              	.LFB119:
  52              		.loc 1 80 0
  53              		.cfi_startproc
  54              		@ args = 0, pretend = 0, frame = 0
  55              		@ frame_needed = 0, uses_anonymous_args = 0
  56              	.LVL1:
ARM GAS  /tmp/cceMFToX.s 			page 2


  57 0000 38B5     		push	{r3, r4, r5, lr}
  58              		.cfi_def_cfa_offset 16
  59              		.cfi_offset 3, -16
  60              		.cfi_offset 4, -12
  61              		.cfi_offset 5, -8
  62              		.cfi_offset 14, -4
  63 0002 0446     		mov	r4, r0
  64              		.loc 1 82 0
  65 0004 0123     		movs	r3, #1
  66 0006 0370     		strb	r3, [r0]
  67              		.loc 1 83 0
  68 0008 0025     		movs	r5, #0
  69 000a 4560     		str	r5, [r0, #4]
  70              		.loc 1 84 0
  71 000c 0830     		adds	r0, r0, #8
  72              	.LVL2:
  73 000e 2946     		mov	r1, r5
  74 0010 FFF7FEFF 		bl	chSemInit
  75              	.LVL3:
  76              		.loc 1 85 0
  77 0014 04F11400 		add	r0, r4, #20
  78 0018 2946     		mov	r1, r5
  79 001a FFF7FEFF 		bl	chSemInit
  80              	.LVL4:
  81              		.loc 1 86 0
  82 001e 04F12003 		add	r3, r4, #32
  83 0022 2362     		str	r3, [r4, #32]
  84              		.loc 1 87 0
  85 0024 04F12403 		add	r3, r4, #36
  86 0028 6362     		str	r3, [r4, #36]
  87              		.loc 1 88 0
  88 002a 04F12803 		add	r3, r4, #40
  89 002e A362     		str	r3, [r4, #40]
  90              		.loc 1 90 0
  91 0030 04F12C03 		add	r3, r4, #44
  92 0034 E362     		str	r3, [r4, #44]
  93              		.loc 1 91 0
  94 0036 04F13003 		add	r3, r4, #48
  95 003a 2363     		str	r3, [r4, #48]
  96 003c 38BD     		pop	{r3, r4, r5, pc}
  97              		.cfi_endproc
  98              	.LFE119:
  99              		.size	canObjectInit, .-canObjectInit
 100 003e 00BF     		.section	.text.canStart,"ax",%progbits
 101              		.align	2
 102              		.p2align 4,,15
 103              		.global	canStart
 104              		.thumb
 105              		.thumb_func
 106              		.type	canStart, %function
 107              	canStart:
 108              	.LFB120:
 109              		.loc 1 107 0
 110              		.cfi_startproc
 111              		@ args = 0, pretend = 0, frame = 0
 112              		@ frame_needed = 0, uses_anonymous_args = 0
 113              	.LVL5:
ARM GAS  /tmp/cceMFToX.s 			page 3


 114 0000 38B5     		push	{r3, r4, r5, lr}
 115              		.cfi_def_cfa_offset 16
 116              		.cfi_offset 3, -16
 117              		.cfi_offset 4, -12
 118              		.cfi_offset 5, -8
 119              		.cfi_offset 14, -4
 120 0002 0446     		mov	r4, r0
 121 0004 0D46     		mov	r5, r1
 122              	.LBB2:
 123              		.loc 1 111 0
 124 0006 2023     		movs	r3, #32
 125              	@ 111 "../../ChibiOS-RT/os/hal/src/can.c" 1
 126 0008 83F31188 		msr     BASEPRI, r3
 127              	@ 0 "" 2
 128              		.thumb
 129              	.LBE2:
 130 000c FFF7FEFF 		bl	dbg_check_lock
 131              	.LVL6:
 132              		.loc 1 112 0
 133 0010 2378     		ldrb	r3, [r4]	@ zero_extendqisi2
 134 0012 013B     		subs	r3, r3, #1
 135 0014 DBB2     		uxtb	r3, r3
 136 0016 022B     		cmp	r3, #2
 137 0018 07D9     		bls	.L7
 138              		.loc 1 112 0 is_stmt 0 discriminator 1
 139 001a 0C48     		ldr	r0, .L11
 140 001c FFF7FEFF 		bl	chDbgPanic
 141              	.LVL7:
 142 0020 03E0     		b	.L7
 143              	.L8:
 144              		.loc 1 117 0 is_stmt 1
 145 0022 0620     		movs	r0, #6
 146 0024 0121     		movs	r1, #1
 147 0026 FFF7FEFF 		bl	chSchGoSleepTimeoutS
 148              	.LVL8:
 149              	.L7:
 150              		.loc 1 116 0
 151 002a 2378     		ldrb	r3, [r4]	@ zero_extendqisi2
 152 002c 022B     		cmp	r3, #2
 153 002e F8D0     		beq	.L8
 154              		.loc 1 118 0
 155 0030 012B     		cmp	r3, #1
 156 0032 05D1     		bne	.L9
 157              		.loc 1 119 0
 158 0034 6560     		str	r5, [r4, #4]
 159              		.loc 1 120 0
 160 0036 2046     		mov	r0, r4
 161 0038 FFF7FEFF 		bl	can_lld_start
 162              	.LVL9:
 163              		.loc 1 121 0
 164 003c 0323     		movs	r3, #3
 165 003e 2370     		strb	r3, [r4]
 166              	.L9:
 167              		.loc 1 123 0
 168 0040 FFF7FEFF 		bl	dbg_check_unlock
 169              	.LVL10:
 170              	.LBB3:
ARM GAS  /tmp/cceMFToX.s 			page 4


 171 0044 0023     		movs	r3, #0
 172              	@ 123 "../../ChibiOS-RT/os/hal/src/can.c" 1
 173 0046 83F31188 		msr     BASEPRI, r3
 174              	@ 0 "" 2
 175              		.thumb
 176 004a 38BD     		pop	{r3, r4, r5, pc}
 177              	.LVL11:
 178              	.L12:
 179              		.align	2
 180              	.L11:
 181 004c 00000000 		.word	.LC0
 182              	.LBE3:
 183              		.cfi_endproc
 184              	.LFE120:
 185              		.size	canStart, .-canStart
 186              		.section	.text.canStop,"ax",%progbits
 187              		.align	2
 188              		.p2align 4,,15
 189              		.global	canStop
 190              		.thumb
 191              		.thumb_func
 192              		.type	canStop, %function
 193              	canStop:
 194              	.LFB121:
 195              		.loc 1 133 0
 196              		.cfi_startproc
 197              		@ args = 0, pretend = 0, frame = 0
 198              		@ frame_needed = 0, uses_anonymous_args = 0
 199              	.LVL12:
 200 0000 10B5     		push	{r4, lr}
 201              		.cfi_def_cfa_offset 8
 202              		.cfi_offset 4, -8
 203              		.cfi_offset 14, -4
 204 0002 0446     		mov	r4, r0
 205              	.LBB4:
 206              		.loc 1 137 0
 207 0004 2023     		movs	r3, #32
 208              	@ 137 "../../ChibiOS-RT/os/hal/src/can.c" 1
 209 0006 83F31188 		msr     BASEPRI, r3
 210              	@ 0 "" 2
 211              		.thumb
 212              	.LBE4:
 213 000a FFF7FEFF 		bl	dbg_check_lock
 214              	.LVL13:
 215              		.loc 1 138 0
 216 000e 2378     		ldrb	r3, [r4]	@ zero_extendqisi2
 217 0010 012B     		cmp	r3, #1
 218 0012 04D0     		beq	.L14
 219              		.loc 1 138 0 is_stmt 0 discriminator 1
 220 0014 032B     		cmp	r3, #3
 221 0016 02D0     		beq	.L14
 222              		.loc 1 138 0 discriminator 2
 223 0018 0C48     		ldr	r0, .L16
 224 001a FFF7FEFF 		bl	chDbgPanic
 225              	.LVL14:
 226              	.L14:
 227              		.loc 1 140 0 is_stmt 1
ARM GAS  /tmp/cceMFToX.s 			page 5


 228 001e 2046     		mov	r0, r4
 229 0020 FFF7FEFF 		bl	can_lld_stop
 230              	.LVL15:
 231              		.loc 1 141 0
 232 0024 2046     		mov	r0, r4
 233 0026 0123     		movs	r3, #1
 234 0028 00F8143B 		strb	r3, [r0], #20
 235              		.loc 1 142 0
 236 002c 0021     		movs	r1, #0
 237 002e FFF7FEFF 		bl	chSemResetI
 238              	.LVL16:
 239              		.loc 1 143 0
 240 0032 04F10800 		add	r0, r4, #8
 241 0036 0021     		movs	r1, #0
 242 0038 FFF7FEFF 		bl	chSemResetI
 243              	.LVL17:
 244              		.loc 1 144 0
 245 003c FFF7FEFF 		bl	chSchRescheduleS
 246              	.LVL18:
 247              		.loc 1 145 0
 248 0040 FFF7FEFF 		bl	dbg_check_unlock
 249              	.LVL19:
 250              	.LBB5:
 251 0044 0023     		movs	r3, #0
 252              	@ 145 "../../ChibiOS-RT/os/hal/src/can.c" 1
 253 0046 83F31188 		msr     BASEPRI, r3
 254              	@ 0 "" 2
 255              		.thumb
 256 004a 10BD     		pop	{r4, pc}
 257              	.LVL20:
 258              	.L17:
 259              		.align	2
 260              	.L16:
 261 004c 10000000 		.word	.LC1
 262              	.LBE5:
 263              		.cfi_endproc
 264              	.LFE121:
 265              		.size	canStop, .-canStop
 266              		.section	.text.canTransmit,"ax",%progbits
 267              		.align	2
 268              		.p2align 4,,15
 269              		.global	canTransmit
 270              		.thumb
 271              		.thumb_func
 272              		.type	canTransmit, %function
 273              	canTransmit:
 274              	.LFB122:
 275              		.loc 1 172 0
 276              		.cfi_startproc
 277              		@ args = 0, pretend = 0, frame = 0
 278              		@ frame_needed = 0, uses_anonymous_args = 0
 279              	.LVL21:
 280 0000 2DE9F041 		push	{r4, r5, r6, r7, r8, lr}
 281              		.cfi_def_cfa_offset 24
 282              		.cfi_offset 4, -24
 283              		.cfi_offset 5, -20
 284              		.cfi_offset 6, -16
ARM GAS  /tmp/cceMFToX.s 			page 6


 285              		.cfi_offset 7, -12
 286              		.cfi_offset 8, -8
 287              		.cfi_offset 14, -4
 288 0004 0446     		mov	r4, r0
 289 0006 0F46     		mov	r7, r1
 290 0008 9046     		mov	r8, r2
 291 000a 1E46     		mov	r6, r3
 292              	.LBB6:
 293              		.loc 1 177 0
 294 000c 2023     		movs	r3, #32
 295              	.LVL22:
 296              	@ 177 "../../ChibiOS-RT/os/hal/src/can.c" 1
 297 000e 83F31188 		msr     BASEPRI, r3
 298              	@ 0 "" 2
 299              		.thumb
 300              	.LBE6:
 301 0012 FFF7FEFF 		bl	dbg_check_lock
 302              	.LVL23:
 303              		.loc 1 178 0
 304 0016 2378     		ldrb	r3, [r4]	@ zero_extendqisi2
 305 0018 033B     		subs	r3, r3, #3
 306 001a DBB2     		uxtb	r3, r3
 307 001c 012B     		cmp	r3, #1
 308 001e 12D9     		bls	.L20
 309              		.loc 1 178 0 is_stmt 0 discriminator 1
 310 0020 1448     		ldr	r0, .L24
 311 0022 FFF7FEFF 		bl	chDbgPanic
 312              	.LVL24:
 313 0026 0EE0     		b	.L20
 314              	.L22:
 315              	.LBB7:
 316              		.loc 1 181 0 is_stmt 1
 317 0028 04F10800 		add	r0, r4, #8
 318 002c 3146     		mov	r1, r6
 319 002e FFF7FEFF 		bl	chSemWaitTimeoutS
 320              	.LVL25:
 321              		.loc 1 182 0
 322 0032 0546     		mov	r5, r0
 323 0034 38B1     		cbz	r0, .L20
 324              		.loc 1 183 0
 325 0036 FFF7FEFF 		bl	dbg_check_unlock
 326              	.LVL26:
 327              	.LBB8:
 328 003a 0023     		movs	r3, #0
 329              	@ 183 "../../ChibiOS-RT/os/hal/src/can.c" 1
 330 003c 83F31188 		msr     BASEPRI, r3
 331              	@ 0 "" 2
 332              		.thumb
 333              	.LBE8:
 334              		.loc 1 184 0
 335 0040 2846     		mov	r0, r5
 336 0042 BDE8F081 		pop	{r4, r5, r6, r7, r8, pc}
 337              	.LVL27:
 338              	.L20:
 339              	.LBE7:
 340              		.loc 1 180 0
 341 0046 2078     		ldrb	r0, [r4]	@ zero_extendqisi2
ARM GAS  /tmp/cceMFToX.s 			page 7


 342 0048 0428     		cmp	r0, #4
 343 004a EDD0     		beq	.L22
 344              		.loc 1 180 0 is_stmt 0 discriminator 1
 345 004c 2046     		mov	r0, r4
 346 004e 3946     		mov	r1, r7
 347 0050 FFF7FEFF 		bl	can_lld_is_tx_empty
 348              	.LVL28:
 349 0054 0028     		cmp	r0, #0
 350 0056 E7D0     		beq	.L22
 351              		.loc 1 187 0 is_stmt 1
 352 0058 2046     		mov	r0, r4
 353 005a 3946     		mov	r1, r7
 354 005c 4246     		mov	r2, r8
 355 005e FFF7FEFF 		bl	can_lld_transmit
 356              	.LVL29:
 357              		.loc 1 188 0
 358 0062 FFF7FEFF 		bl	dbg_check_unlock
 359              	.LVL30:
 360              	.LBB9:
 361 0066 0023     		movs	r3, #0
 362              	@ 188 "../../ChibiOS-RT/os/hal/src/can.c" 1
 363 0068 83F31188 		msr     BASEPRI, r3
 364              	@ 0 "" 2
 365              		.thumb
 366              	.LBE9:
 367              		.loc 1 189 0
 368 006c 1846     		mov	r0, r3
 369              		.loc 1 190 0
 370 006e BDE8F081 		pop	{r4, r5, r6, r7, r8, pc}
 371              	.LVL31:
 372              	.L25:
 373 0072 00BF     		.align	2
 374              	.L24:
 375 0074 20000000 		.word	.LC2
 376              		.cfi_endproc
 377              	.LFE122:
 378              		.size	canTransmit, .-canTransmit
 379 0078 AFF30080 		.section	.text.canReceive,"ax",%progbits
 379      AFF30080 
 380              		.align	2
 381              		.p2align 4,,15
 382              		.global	canReceive
 383              		.thumb
 384              		.thumb_func
 385              		.type	canReceive, %function
 386              	canReceive:
 387              	.LFB123:
 388              		.loc 1 217 0
 389              		.cfi_startproc
 390              		@ args = 0, pretend = 0, frame = 0
 391              		@ frame_needed = 0, uses_anonymous_args = 0
 392              	.LVL32:
 393 0000 2DE9F041 		push	{r4, r5, r6, r7, r8, lr}
 394              		.cfi_def_cfa_offset 24
 395              		.cfi_offset 4, -24
 396              		.cfi_offset 5, -20
 397              		.cfi_offset 6, -16
ARM GAS  /tmp/cceMFToX.s 			page 8


 398              		.cfi_offset 7, -12
 399              		.cfi_offset 8, -8
 400              		.cfi_offset 14, -4
 401 0004 0446     		mov	r4, r0
 402 0006 0F46     		mov	r7, r1
 403 0008 9046     		mov	r8, r2
 404 000a 1E46     		mov	r6, r3
 405              	.LBB10:
 406              		.loc 1 222 0
 407 000c 2023     		movs	r3, #32
 408              	.LVL33:
 409              	@ 222 "../../ChibiOS-RT/os/hal/src/can.c" 1
 410 000e 83F31188 		msr     BASEPRI, r3
 411              	@ 0 "" 2
 412              		.thumb
 413              	.LBE10:
 414 0012 FFF7FEFF 		bl	dbg_check_lock
 415              	.LVL34:
 416              		.loc 1 223 0
 417 0016 2378     		ldrb	r3, [r4]	@ zero_extendqisi2
 418 0018 033B     		subs	r3, r3, #3
 419 001a DBB2     		uxtb	r3, r3
 420 001c 012B     		cmp	r3, #1
 421 001e 12D9     		bls	.L28
 422              		.loc 1 223 0 is_stmt 0 discriminator 1
 423 0020 1448     		ldr	r0, .L32
 424 0022 FFF7FEFF 		bl	chDbgPanic
 425              	.LVL35:
 426 0026 0EE0     		b	.L28
 427              	.L30:
 428              	.LBB11:
 429              		.loc 1 226 0 is_stmt 1
 430 0028 04F11400 		add	r0, r4, #20
 431 002c 3146     		mov	r1, r6
 432 002e FFF7FEFF 		bl	chSemWaitTimeoutS
 433              	.LVL36:
 434              		.loc 1 227 0
 435 0032 0546     		mov	r5, r0
 436 0034 38B1     		cbz	r0, .L28
 437              		.loc 1 228 0
 438 0036 FFF7FEFF 		bl	dbg_check_unlock
 439              	.LVL37:
 440              	.LBB12:
 441 003a 0023     		movs	r3, #0
 442              	@ 228 "../../ChibiOS-RT/os/hal/src/can.c" 1
 443 003c 83F31188 		msr     BASEPRI, r3
 444              	@ 0 "" 2
 445              		.thumb
 446              	.LBE12:
 447              		.loc 1 229 0
 448 0040 2846     		mov	r0, r5
 449 0042 BDE8F081 		pop	{r4, r5, r6, r7, r8, pc}
 450              	.LVL38:
 451              	.L28:
 452              	.LBE11:
 453              		.loc 1 225 0
 454 0046 2078     		ldrb	r0, [r4]	@ zero_extendqisi2
ARM GAS  /tmp/cceMFToX.s 			page 9


 455 0048 0428     		cmp	r0, #4
 456 004a EDD0     		beq	.L30
 457              		.loc 1 225 0 is_stmt 0 discriminator 1
 458 004c 2046     		mov	r0, r4
 459 004e 3946     		mov	r1, r7
 460 0050 FFF7FEFF 		bl	can_lld_is_rx_nonempty
 461              	.LVL39:
 462 0054 0028     		cmp	r0, #0
 463 0056 E7D0     		beq	.L30
 464              		.loc 1 232 0 is_stmt 1
 465 0058 2046     		mov	r0, r4
 466 005a 3946     		mov	r1, r7
 467 005c 4246     		mov	r2, r8
 468 005e FFF7FEFF 		bl	can_lld_receive
 469              	.LVL40:
 470              		.loc 1 233 0
 471 0062 FFF7FEFF 		bl	dbg_check_unlock
 472              	.LVL41:
 473              	.LBB13:
 474 0066 0023     		movs	r3, #0
 475              	@ 233 "../../ChibiOS-RT/os/hal/src/can.c" 1
 476 0068 83F31188 		msr     BASEPRI, r3
 477              	@ 0 "" 2
 478              		.thumb
 479              	.LBE13:
 480              		.loc 1 234 0
 481 006c 1846     		mov	r0, r3
 482              		.loc 1 235 0
 483 006e BDE8F081 		pop	{r4, r5, r6, r7, r8, pc}
 484              	.LVL42:
 485              	.L33:
 486 0072 00BF     		.align	2
 487              	.L32:
 488 0074 34000000 		.word	.LC3
 489              		.cfi_endproc
 490              	.LFE123:
 491              		.size	canReceive, .-canReceive
 492 0078 AFF30080 		.section	.text.canSleep,"ax",%progbits
 492      AFF30080 
 493              		.align	2
 494              		.p2align 4,,15
 495              		.global	canSleep
 496              		.thumb
 497              		.thumb_func
 498              		.type	canSleep, %function
 499              	canSleep:
 500              	.LFB124:
 501              		.loc 1 250 0
 502              		.cfi_startproc
 503              		@ args = 0, pretend = 0, frame = 0
 504              		@ frame_needed = 0, uses_anonymous_args = 0
 505              	.LVL43:
 506 0000 10B5     		push	{r4, lr}
 507              		.cfi_def_cfa_offset 8
 508              		.cfi_offset 4, -8
 509              		.cfi_offset 14, -4
 510 0002 0446     		mov	r4, r0
ARM GAS  /tmp/cceMFToX.s 			page 10


 511              	.LBB14:
 512              		.loc 1 254 0
 513 0004 2023     		movs	r3, #32
 514              	@ 254 "../../ChibiOS-RT/os/hal/src/can.c" 1
 515 0006 83F31188 		msr     BASEPRI, r3
 516              	@ 0 "" 2
 517              		.thumb
 518              	.LBE14:
 519 000a FFF7FEFF 		bl	dbg_check_lock
 520              	.LVL44:
 521              		.loc 1 255 0
 522 000e 2378     		ldrb	r3, [r4]	@ zero_extendqisi2
 523 0010 033B     		subs	r3, r3, #3
 524 0012 DBB2     		uxtb	r3, r3
 525 0014 012B     		cmp	r3, #1
 526 0016 02D9     		bls	.L35
 527              		.loc 1 255 0 is_stmt 0 discriminator 1
 528 0018 0B48     		ldr	r0, .L38
 529 001a FFF7FEFF 		bl	chDbgPanic
 530              	.LVL45:
 531              	.L35:
 532              		.loc 1 257 0 is_stmt 1
 533 001e 2378     		ldrb	r3, [r4]	@ zero_extendqisi2
 534 0020 032B     		cmp	r3, #3
 535 0022 0BD1     		bne	.L36
 536              		.loc 1 258 0
 537 0024 2046     		mov	r0, r4
 538 0026 FFF7FEFF 		bl	can_lld_sleep
 539              	.LVL46:
 540              		.loc 1 259 0
 541 002a 2046     		mov	r0, r4
 542 002c 0423     		movs	r3, #4
 543 002e 00F82C3B 		strb	r3, [r0], #44
 544              		.loc 1 260 0
 545 0032 0021     		movs	r1, #0
 546 0034 FFF7FEFF 		bl	chEvtBroadcastFlagsI
 547              	.LVL47:
 548              		.loc 1 261 0
 549 0038 FFF7FEFF 		bl	chSchRescheduleS
 550              	.LVL48:
 551              	.L36:
 552              		.loc 1 263 0
 553 003c FFF7FEFF 		bl	dbg_check_unlock
 554              	.LVL49:
 555              	.LBB15:
 556 0040 0023     		movs	r3, #0
 557              	@ 263 "../../ChibiOS-RT/os/hal/src/can.c" 1
 558 0042 83F31188 		msr     BASEPRI, r3
 559              	@ 0 "" 2
 560              		.thumb
 561 0046 10BD     		pop	{r4, pc}
 562              	.LVL50:
 563              	.L39:
 564              		.align	2
 565              	.L38:
 566 0048 48000000 		.word	.LC4
 567              	.LBE15:
ARM GAS  /tmp/cceMFToX.s 			page 11


 568              		.cfi_endproc
 569              	.LFE124:
 570              		.size	canSleep, .-canSleep
 571 004c AFF30080 		.section	.text.canWakeup,"ax",%progbits
 572              		.align	2
 573              		.p2align 4,,15
 574              		.global	canWakeup
 575              		.thumb
 576              		.thumb_func
 577              		.type	canWakeup, %function
 578              	canWakeup:
 579              	.LFB125:
 580              		.loc 1 273 0
 581              		.cfi_startproc
 582              		@ args = 0, pretend = 0, frame = 0
 583              		@ frame_needed = 0, uses_anonymous_args = 0
 584              	.LVL51:
 585 0000 10B5     		push	{r4, lr}
 586              		.cfi_def_cfa_offset 8
 587              		.cfi_offset 4, -8
 588              		.cfi_offset 14, -4
 589 0002 0446     		mov	r4, r0
 590              	.LBB16:
 591              		.loc 1 277 0
 592 0004 2023     		movs	r3, #32
 593              	@ 277 "../../ChibiOS-RT/os/hal/src/can.c" 1
 594 0006 83F31188 		msr     BASEPRI, r3
 595              	@ 0 "" 2
 596              		.thumb
 597              	.LBE16:
 598 000a FFF7FEFF 		bl	dbg_check_lock
 599              	.LVL52:
 600              		.loc 1 278 0
 601 000e 2378     		ldrb	r3, [r4]	@ zero_extendqisi2
 602 0010 033B     		subs	r3, r3, #3
 603 0012 DBB2     		uxtb	r3, r3
 604 0014 012B     		cmp	r3, #1
 605 0016 02D9     		bls	.L41
 606              		.loc 1 278 0 is_stmt 0 discriminator 1
 607 0018 0B48     		ldr	r0, .L44
 608 001a FFF7FEFF 		bl	chDbgPanic
 609              	.LVL53:
 610              	.L41:
 611              		.loc 1 280 0 is_stmt 1
 612 001e 2378     		ldrb	r3, [r4]	@ zero_extendqisi2
 613 0020 042B     		cmp	r3, #4
 614 0022 0BD1     		bne	.L42
 615              		.loc 1 281 0
 616 0024 2046     		mov	r0, r4
 617 0026 FFF7FEFF 		bl	can_lld_wakeup
 618              	.LVL54:
 619              		.loc 1 282 0
 620 002a 2046     		mov	r0, r4
 621 002c 0323     		movs	r3, #3
 622 002e 00F8303B 		strb	r3, [r0], #48
 623              		.loc 1 283 0
 624 0032 0021     		movs	r1, #0
ARM GAS  /tmp/cceMFToX.s 			page 12


 625 0034 FFF7FEFF 		bl	chEvtBroadcastFlagsI
 626              	.LVL55:
 627              		.loc 1 284 0
 628 0038 FFF7FEFF 		bl	chSchRescheduleS
 629              	.LVL56:
 630              	.L42:
 631              		.loc 1 286 0
 632 003c FFF7FEFF 		bl	dbg_check_unlock
 633              	.LVL57:
 634              	.LBB17:
 635 0040 0023     		movs	r3, #0
 636              	@ 286 "../../ChibiOS-RT/os/hal/src/can.c" 1
 637 0042 83F31188 		msr     BASEPRI, r3
 638              	@ 0 "" 2
 639              		.thumb
 640 0046 10BD     		pop	{r4, pc}
 641              	.LVL58:
 642              	.L45:
 643              		.align	2
 644              	.L44:
 645 0048 58000000 		.word	.LC5
 646              	.LBE17:
 647              		.cfi_endproc
 648              	.LFE125:
 649              		.size	canWakeup, .-canWakeup
 650 004c AFF30080 		.section	.rodata.str1.4,"aMS",%progbits,1
 651              		.align	2
 652              	.LC0:
 653 0000 63616E53 		.ascii	"canStart(), #1\000"
 653      74617274 
 653      28292C20 
 653      233100
 654 000f 00       		.space	1
 655              	.LC1:
 656 0010 63616E53 		.ascii	"canStop(), #1\000"
 656      746F7028 
 656      292C2023 
 656      3100
 657 001e 0000     		.space	2
 658              	.LC2:
 659 0020 63616E54 		.ascii	"canTransmit(), #1\000"
 659      72616E73 
 659      6D697428 
 659      292C2023 
 659      3100
 660 0032 0000     		.space	2
 661              	.LC3:
 662 0034 63616E52 		.ascii	"canReceive(), #1\000"
 662      65636569 
 662      76652829 
 662      2C202331 
 662      00
 663 0045 000000   		.space	3
 664              	.LC4:
 665 0048 63616E53 		.ascii	"canSleep(), #1\000"
 665      6C656570 
 665      28292C20 
ARM GAS  /tmp/cceMFToX.s 			page 13


 665      233100
 666 0057 00       		.space	1
 667              	.LC5:
 668 0058 63616E57 		.ascii	"canWakeup(), #1\000"
 668      616B6575 
 668      7028292C 
 668      20233100 
 669              		.text
 670              	.Letext0:
 671              		.file 2 "/usr/arm-none-eabi/include/machine/_default_types.h"
 672              		.file 3 "/usr/arm-none-eabi/include/stdint.h"
 673              		.file 4 "../../ChibiOS-RT/os/ports/GCC/ARMCMx/chtypes.h"
 674              		.file 5 "../../ChibiOS-RT/os/kernel/include/chlists.h"
 675              		.file 6 "../../ChibiOS-RT/os/kernel/include/chthreads.h"
 676              		.file 7 "../../ChibiOS-RT/os/ports/GCC/ARMCMx/chcore_v7m.h"
 677              		.file 8 "../../ChibiOS-RT/os/kernel/include/chsem.h"
 678              		.file 9 "../../ChibiOS-RT/os/kernel/include/chmtx.h"
 679              		.file 10 "../../ChibiOS-RT/os/kernel/include/chevents.h"
 680              		.file 11 "../../ChibiOS-RT/os/hal/platforms/STM32F4xx/stm32f4xx.h"
 681              		.file 12 "../../ChibiOS-RT/os/hal/include/can.h"
 682              		.file 13 "../../ChibiOS-RT/os/hal/platforms/STM32/can_lld.h"
 683              		.file 14 "../../ChibiOS-RT/os/kernel/include/chdebug.h"
 684              		.file 15 "../../ChibiOS-RT/os/kernel/include/chschd.h"
 685              		.file 16 "../../ChibiOS-RT/os/ports/common/ARMCMx/CMSIS/include/core_cm4.h"