ARM GAS  /tmp/cceMFToX.s 			page 1


   1              		.syntax unified
   2              		.cpu cortex-m4
   3              		.fpu softvfp
   4              		.eabi_attribute 20, 1
   5              		.eabi_attribute 21, 1
   6              		.eabi_attribute 23, 3
   7              		.eabi_attribute 24, 1
   8              		.eabi_attribute 25, 1
   9              		.eabi_attribute 26, 1
  10              		.eabi_attribute 30, 1
  11              		.eabi_attribute 34, 1
  12              		.eabi_attribute 18, 4
  13              		.thumb
  14              		.file	"can.c"
  15              		.text
  16              	.Ltext0:
  17              		.cfi_sections	.debug_frame
  18              		.section	.text.canInit,"ax",%progbits
  19              		.align	2
  20              		.p2align 4,,15
  21              		.global	canInit
  22              		.thumb
  23              		.thumb_func
  24              		.type	canInit, %function
  25              	canInit:
  26              	.LFB118:
  27              		.file 1 "../../ChibiOS-RT/os/hal/src/can.c"
  28              		.loc 1 68 0
  29              		.cfi_startproc
  30              		@ args = 0, pretend = 0, frame = 0
  31              		@ frame_needed = 0, uses_anonymous_args = 0
  32 0000 08B5     		push	{r3, lr}
  33              		.cfi_def_cfa_offset 8
  34              		.cfi_offset 3, -8
  35              		.cfi_offset 14, -4
  36              		.loc 1 70 0
  37 0002 FFF7FEFF 		bl	can_lld_init
  38              	.LVL0:
  39 0006 08BD     		pop	{r3, pc}
  40              		.cfi_endproc
  41              	.LFE118:
  42              		.size	canInit, .-canInit
  43 0008 AFF30080 		.section	.text.canObjectInit,"ax",%progbits
  43      AFF30080 
  44              		.align	2
  45              		.p2align 4,,15
  46              		.global	canObjectInit
  47              		.thumb
  48              		.thumb_func
  49              		.type	canObjectInit, %function
  50              	canObjectInit:
  51              	.LFB119:
  52              		.loc 1 80 0
  53              		.cfi_startproc
  54              		@ args = 0, pretend = 0, frame = 0
  55              		@ frame_needed = 0, uses_anonymous_args = 0
  56              	.LVL1:
ARM GAS  /tmp/cceMFToX.s 			page 2


  57 0000 38B5     		push	{r3, r4, r5, lr}
  58              		.cfi_def_cfa_offset 16
  59              		.cfi_offset 3, -16
  60              		.cfi_offset 4, -12
  61              		.cfi_offset 5, -8
  62              		.cfi_offset 14, -4
  63 0002 0446     		mov	r4, r0
  64              		.loc 1 82 0
  65 0004 0123     		movs	r3, #1
  66 0006 0370     		strb	r3, [r0]
  67              		.loc 1 83 0
  68 0008 0025     		movs	r5, #0
  69 000a 4560     		str	r5, [r0, #4]
  70              		.loc 1 84 0
  71 000c 0830     		adds	r0, r0, #8
  72              	.LVL2:
  73 000e 2946     		mov	r1, r5
  74 0010 FFF7FEFF 		bl	chSemInit
  75              	.LVL3:
  76              		.loc 1 85 0
  77 0014 04F11400 		add	r0, r4, #20
  78 0018 2946     		mov	r1, r5
  79 001a FFF7FEFF 		bl	chSemInit
  80              	.LVL4:
  81              		.loc 1 86 0
  82 001e 04F12003 		add	r3, r4, #32
  83 0022 2362     		str	r3, [r4, #32]
  84              		.loc 1 87 0
  85 0024 04F12403 		add	r3, r4, #36
  86 0028 6362     		str	r3, [r4, #36]
  87              		.loc 1 88 0
  88 002a 04F12803 		add	r3, r4, #40
  89 002e A362     		str	r3, [r4, #40]
  90              		.loc 1 90 0
  91 0030 04F12C03 		add	r3, r4, #44
  92 0034 E362     		str	r3, [r4, #44]
  93              		.loc 1 91 0
  94 0036 04F13003 		add	r3, r4, #48
  95 003a 2363     		str	r3, [r4, #48]
  96 003c 38BD     		pop	{r3, r4, r5, pc}
  97              		.cfi_endproc
  98              	.LFE119:
  99              		.size	canObjectInit, .-canObjectInit
 100 003e 00BF     		.section	.text.canStart,"ax",%progbits
 101              		.align	2
 102              		.p2align 4,,15
 103              		.global	canStart
 104              		.thumb
 105              		.thumb_func
 106              		.type	canStart, %function
 107              	canStart:
 108              	.LFB120:
 109              		.loc 1 107 0
 110              		.cfi_startproc
 111              		@ args = 0, pretend = 0, frame = 0
 112              		@ frame_needed = 0, uses_anonymous_args = 0
 113              	.LVL5:
ARM GAS  /tmp/cceMFToX.s 			page 3


 114 0000 38B5     		push	{r3, r4, r5, lr}
 115              		.cfi_def_cfa_offset 16
 116              		.cfi_offset 3, -16
 117              		.cfi_offset 4, -12
 118              		.cfi_offset 5, -8
 119              		.cfi_offset 14, -4
 120 0002 0446     		mov	r4, r0
 121 0004 0D46     		mov	r5, r1
 122              	.LBB2:
 123              		.loc 1 111 0
 124 0006 2023     		movs	r3, #32
 125              	@ 111 "../../ChibiOS-RT/os/hal/src/can.c" 1
 126 0008 83F31188 		msr     BASEPRI, r3
 127              	@ 0 "" 2
 128              		.thumb
 129              	.LBE2:
 130 000c FFF7FEFF 		bl	dbg_check_lock
 131              	.LVL6:
 132              		.loc 1 112 0
 133 0010 2378     		ldrb	r3, [r4]	@ zero_extendqisi2
 134 0012 013B     		subs	r3, r3, #1
 135 0014 DBB2     		uxtb	r3, r3
 136 0016 022B     		cmp	r3, #2
 137 0018 07D9     		bls	.L7
 138              		.loc 1 112 0 is_stmt 0 discriminator 1
 139 001a 0C48     		ldr	r0, .L11
 140 001c FFF7FEFF 		bl	chDbgPanic
 141              	.LVL7:
 142 0020 03E0     		b	.L7
 143              	.L8:
 144              		.loc 1 117 0 is_stmt 1
 145 0022 0620     		movs	r0, #6
 146 0024 0121     		movs	r1, #1
 147 0026 FFF7FEFF 		bl	chSchGoSleepTimeoutS
 148              	.LVL8:
 149              	.L7:
 150              		.loc 1 116 0
 151 002a 2378     		ldrb	r3, [r4]	@ zero_extendqisi2
 152 002c 022B     		cmp	r3, #2
 153 002e F8D0     		beq	.L8
 154              		.loc 1 118 0
 155 0030 012B     		cmp	r3, #1
 156 0032 05D1     		bne	.L9
 157              		.loc 1 119 0
 158 0034 6560     		str	r5, [r4, #4]
 159              		.loc 1 120 0
 160 0036 2046     		mov	r0, r4
 161 0038 FFF7FEFF 		bl	can_lld_start
 162              	.LVL9:
 163              		.loc 1 121 0
 164 003c 0323     		movs	r3, #3
 165 003e 2370     		strb	r3, [r4]
 166              	.L9:
 167              		.loc 1 123 0
 168 0040 FFF7FEFF 		bl	dbg_check_unlock
 169              	.LVL10:
 170              	.LBB3:
ARM GAS  /tmp/cceMFToX.s 			page 4


 171 0044 0023     		movs	r3, #0
 172              	@ 123 "../../ChibiOS-RT/os/hal/src/can.c" 1
 173 0046 83F31188 		msr     BASEPRI, r3
 174              	@ 0 "" 2
 175              		.thumb
 176 004a 38BD     		pop	{r3, r4, r5, pc}
 177              	.LVL11:
 178              	.L12:
 179              		.align	2
 180              	.L11:
 181 004c 00000000 		.word	.LC0
 182              	.LBE3:
 183              		.cfi_endproc
 184              	.LFE120:
 185              		.size	canStart, .-canStart
 186              		.section	.text.canStop,"ax",%progbits
 187              		.align	2
 188              		.p2align 4,,15
 189              		.global	canStop
 190              		.thumb
 191              		.thumb_func
 192              		.type	canStop, %function
 193              	canStop:
 194              	.LFB121:
 195              		.loc 1 133 0
 196              		.cfi_startproc
 197              		@ args = 0, pretend = 0, frame = 0
 198              		@ frame_needed = 0, uses_anonymous_args = 0
 199              	.LVL12:
 200 0000 10B5     		push	{r4, lr}
 201              		.cfi_def_cfa_offset 8
 202              		.cfi_offset 4, -8
 203              		.cfi_offset 14, -4
 204 0002 0446     		mov	r4, r0
 205              	.LBB4:
 206              		.loc 1 137 0
 207 0004 2023     		movs	r3, #32
 208              	@ 137 "../../ChibiOS-RT/os/hal/src/can.c" 1
 209 0006 83F31188 		msr     BASEPRI, r3
 210              	@ 0 "" 2
 211              		.thumb
 212              	.LBE4:
 213 000a FFF7FEFF 		bl	dbg_check_lock
 214              	.LVL13:
 215              		.loc 1 138 0
 216 000e 2378     		ldrb	r3, [r4]	@ zero_extendqisi2
 217 0010 012B     		cmp	r3, #1
 218 0012 04D0     		beq	.L14
 219              		.loc 1 138 0 is_stmt 0 discriminator 1
 220 0014 032B     		cmp	r3, #3
 221 0016 02D0     		beq	.L14
 222              		.loc 1 138 0 discriminator 2
 223 0018 0C48     		ldr	r0, .L16
 224 001a FFF7FEFF 		bl	chDbgPanic
 225              	.LVL14:
 226              	.L14:
 227              		.loc 1 140 0 is_stmt 1
ARM GAS  /tmp/cceMFToX.s 			page 5


 228 001e 2046     		mov	r0, r4
 229 0020 FFF7FEFF 		bl	can_lld_stop
 230              	.LVL15:
 231              		.loc 1 141 0
 232 0024 2046     		mov	r0, r4
 233 0026 0123     		movs	r3, #1
 234 0028 00F8143B 		strb	r3, [r0], #20
 235              		.loc 1 142 0
 236 002c 0021     		movs	r1, #0
 237 002e FFF7FEFF 		bl	chSemResetI
 238              	.LVL16:
 239              		.loc 1 143 0
 240 0032 04F10800 		add	r0, r4, #8
 241 0036 0021     		movs	r1, #0
 242 0038 FFF7FEFF 		bl	chSemResetI
 243              	.LVL17:
 244              		.loc 1 144 0
 245 003c FFF7FEFF 		bl	chSchRescheduleS
 246              	.LVL18:
 247              		.loc 1 145 0
 248 0040 FFF7FEFF 		bl	dbg_check_unlock
 249              	.LVL19:
 250              	.LBB5:
 251 0044 0023     		movs	r3, #0
 252              	@ 145 "../../ChibiOS-RT/os/hal/src/can.c" 1
 253 0046 83F31188 		msr     BASEPRI, r3
 254              	@ 0 "" 2
 255              		.thumb
 256 004a 10BD     		pop	{r4, pc}
 257              	.LVL20:
 258              	.L17:
 259              		.align	2
 260              	.L16:
 261 004c 10000000 		.word	.LC1
 262              	.LBE5:
 263              		.cfi_endproc
 264              	.LFE121:
 265              		.size	canStop, .-canStop
 266              		.section	.text.canTransmit,"ax",%progbits
 267              		.align	2
 268              		.p2align 4,,15
 269              		.global	canTransmit
 270              		.thumb
 271              		.thumb_func
 272              		.type	canTransmit, %function
 273              	canTransmit:
 274              	.LFB122:
 275              		.loc 1 172 0
 276              		.cfi_startproc
 277              		@ args = 0, pretend = 0, frame = 0
 278              		@ frame_needed = 0, uses_anonymous_args = 0
 279              	.LVL21:
 280 0000 2DE9F041 		push	{r4, r5, r6, r7, r8, lr}
 281              		.cfi_def_cfa_offset 24
 282              		.cfi_offset 4, -24
 283              		.cfi_offset 5, -20
 284              		.cfi_offset 6, -16
ARM GAS  /tmp/cceMFToX.s 			page 6


 285              		.cfi_offset 7, -12
 286              		.cfi_offset 8, -8
 287              		.cfi_offset 14, -4
 288 0004 0446     		mov	r4, r0
 289 0006 0F46     		mov	r7, r1
 290 0008 9046     		mov	r8, r2
 291 000a 1E46     		mov	r6, r3
 292              	.LBB6:
 293              		.loc 1 177 0
 294 000c 2023     		movs	r3, #32
 295              	.LVL22:
 296              	@ 177 "../../ChibiOS-RT/os/hal/src/can.c" 1
 297 000e 83F31188 		msr     BASEPRI, r3
 298              	@ 0 "" 2
 299              		.thumb
 300              	.LBE6:
 301 0012 FFF7FEFF 		bl	dbg_check_lock
 302              	.LVL23:
 303              		.loc 1 178 0
 304 0016 2378     		ldrb	r3, [r4]	@ zero_extendqisi2
 305 0018 033B     		subs	r3, r3, #3
 306 001a DBB2     		uxtb	r3, r3
 307 001c 012B     		cmp	r3, #1
 308 001e 12D9     		bls	.L20
 309              		.loc 1 178 0 is_stmt 0 discriminator 1
 310 0020 1448     		ldr	r0, .L24
 311 0022 FFF7FEFF 		bl	chDbgPanic
 312              	.LVL24:
 313 0026 0EE0     		b	.L20
 314              	.L22:
 315              	.LBB7:
 316              		.loc 1 181 0 is_stmt 1
 317 0028 04F10800 		add	r0, r4, #8
 318 002c 3146     		mov	r1, r6
 319 002e FFF7FEFF 		bl	chSemWaitTimeoutS
 320              	.LVL25:
 321              		.loc 1 182 0
 322 0032 0546     		mov	r5, r0
 323 0034 38B1     		cbz	r0, .L20
 324              		.loc 1 183 0
 325 0036 FFF7FEFF 		bl	dbg_check_unlock
 326              	.LVL26:
 327              	.LBB8:
 328 003a 0023     		movs	r3, #0
 329              	@ 183 "../../ChibiOS-RT/os/hal/src/can.c" 1
 330 003c 83F31188 		msr     BASEPRI, r3
 331              	@ 0 "" 2
 332              		.thumb
 333              	.LBE8:
 334              		.loc 1 184 0
 335 0040 2846     		mov	r0, r5
 336 0042 BDE8F081 		pop	{r4, r5, r6, r7, r8, pc}
 337              	.LVL27:
 338              	.L20:
 339              	.LBE7:
 340              		.loc 1 180 0
 341 0046 2078     		ldrb	r0, [r4]	@ zero_extendqisi2
ARM GAS  /tmp/cceMFToX.s 			page 7


 342 0048 0428     		cmp	r0, #4
 343 004a EDD0     		beq	.L22
 344              		.loc 1 180 0 is_stmt 0 discriminator 1
 345 004c 2046     		mov	r0, r4
 346 004e 3946     		mov	r1, r7
 347 0050 FFF7FEFF 		bl	can_lld_is_tx_empty
 348              	.LVL28:
 349 0054 0028     		cmp	r0, #0
 350 0056 E7D0     		beq	.L22
 351              		.loc 1 187 0 is_stmt 1
 352 0058 2046     		mov	r0, r4
 353 005a 3946     		mov	r1, r7
 354 005c 4246     		mov	r2, r8
 355 005e FFF7FEFF 		bl	can_lld_transmit
 356              	.LVL29:
 357              		.loc 1 188 0
 358 0062 FFF7FEFF 		bl	dbg_check_unlock
 359              	.LVL30:
 360              	.LBB9:
 361 0066 0023     		movs	r3, #0
 362              	@ 188 "../../ChibiOS-RT/os/hal/src/can.c" 1
 363 0068 83F31188 		msr     BASEPRI, r3
 364              	@ 0 "" 2
 365              		.thumb
 366              	.LBE9:
 367              		.loc 1 189 0
 368 006c 1846     		mov	r0, r3
 369              		.loc 1 190 0
 370 006e BDE8F081 		pop	{r4, r5, r6, r7, r8, pc}
 371              	.LVL31:
 372              	.L25:
 373 0072 00BF     		.align	2
 374              	.L24:
 375 0074 20000000 		.word	.LC2
 376              		.cfi_endproc
 377              	.LFE122:
 378              		.size	canTransmit, .-canTransmit
 379 0078 AFF30080 		.section	.text.canReceive,"ax",%progbits
 379      AFF30080 
 380              		.align	2
 381              		.p2align 4,,15
 382              		.global	canReceive
 383              		.thumb
 384              		.thumb_func
 385              		.type	canReceive, %function
 386              	canReceive:
 387              	.LFB123:
 388              		.loc 1 217 0
 389              		.cfi_startproc
 390              		@ args = 0, pretend = 0, frame = 0
 391              		@ frame_needed = 0, uses_anonymous_args = 0
 392              	.LVL32:
 393 0000 2DE9F041 		push	{r4, r5, r6, r7, r8, lr}
 394              		.cfi_def_cfa_offset 24
 395              		.cfi_offset 4, -24
 396              		.cfi_offset 5, -20
 397              		.cfi_offset 6, -16
ARM GAS  /tmp/cceMFToX.s 			page 8


 398              		.cfi_offset 7, -12
 399              		.cfi_offset 8, -8
 400              		.cfi_offset 14, -4
 401 0004 0446     		mov	r4, r0
 402 0006 0F46     		mov	r7, r1
 403 0008 9046     		mov	r8, r2
 404 000a 1E46     		mov	r6, r3
 405              	.LBB10:
 406              		.loc 1 222 0
 407 000c 2023     		movs	r3, #32
 408              	.LVL33:
 409              	@ 222 "../../ChibiOS-RT/os/hal/src/can.c" 1
 410 000e 83F31188 		msr     BASEPRI, r3
 411              	@ 0 "" 2
 412              		.thumb
 413              	.LBE10:
 414 0012 FFF7FEFF 		bl	dbg_check_lock
 415              	.LVL34:
 416              		.loc 1 223 0
 417 0016 2378     		ldrb	r3, [r4]	@ zero_extendqisi2
 418 0018 033B     		subs	r3, r3, #3
 419 001a DBB2     		uxtb	r3, r3
 420 001c 012B     		cmp	r3, #1
 421 001e 12D9     		bls	.L28
 422              		.loc 1 223 0 is_stmt 0 discriminator 1
 423 0020 1448     		ldr	r0, .L32
 424 0022 FFF7FEFF 		bl	chDbgPanic
 425              	.LVL35:
 426 0026 0EE0     		b	.L28
 427              	.L30:
 428              	.LBB11:
 429              		.loc 1 226 0 is_stmt 1
 430 0028 04F11400 		add	r0, r4, #20
 431 002c 3146     		mov	r1, r6
 432 002e FFF7FEFF 		bl	chSemWaitTimeoutS
 433              	.LVL36:
 434              		.loc 1 227 0
 435 0032 0546     		mov	r5, r0
 436 0034 38B1     		cbz	r0, .L28
 437              		.loc 1 228 0
 438 0036 FFF7FEFF 		bl	dbg_check_unlock
 439              	.LVL37:
 440              	.LBB12:
 441 003a 0023     		movs	r3, #0
 442              	@ 228 "../../ChibiOS-RT/os/hal/src/can.c" 1
 443 003c 83F31188 		msr     BASEPRI, r3
 444              	@ 0 "" 2
 445              		.thumb
 446              	.LBE12:
 447              		.loc 1 229 0
 448 0040 2846     		mov	r0, r5
 449 0042 BDE8F081 		pop	{r4, r5, r6, r7, r8, pc}
 450              	.LVL38:
 451              	.L28:
 452              	.LBE11:
 453              		.loc 1 225 0
 454 0046 2078     		ldrb	r0, [r4]	@ zero_extendqisi2
ARM GAS  /tmp/cceMFToX.s 			page 9


 455 0048 0428     		cmp	r0, #4
 456 004a EDD0     		beq	.L30
 457              		.loc 1 225 0 is_stmt 0 discriminator 1
 458 004c 2046     		mov	r0, r4
 459 004e 3946     		mov	r1, r7
 460 0050 FFF7FEFF 		bl	can_lld_is_rx_nonempty
 461              	.LVL39:
 462 0054 0028     		cmp	r0, #0
 463 0056 E7D0     		beq	.L30
 464              		.loc 1 232 0 is_stmt 1
 465 0058 2046     		mov	r0, r4
 466 005a 3946     		mov	r1, r7
 467 005c 4246     		mov	r2, r8
 468 005e FFF7FEFF 		bl	can_lld_receive
 469              	.LVL40:
 470              		.loc 1 233 0
 471 0062 FFF7FEFF 		bl	dbg_check_unlock
 472              	.LVL41:
 473              	.LBB13:
 474 0066 0023     		movs	r3, #0
 475              	@ 233 "../../ChibiOS-RT/os/hal/src/can.c" 1
 476 0068 83F31188 		msr     BASEPRI, r3
 477              	@ 0 "" 2
 478              		.thumb
 479              	.LBE13:
 480              		.loc 1 234 0
 481 006c 1846     		mov	r0, r3
 482              		.loc 1 235 0
 483 006e BDE8F081 		pop	{r4, r5, r6, r7, r8, pc}
 484              	.LVL42:
 485              	.L33:
 486 0072 00BF     		.align	2
 487              	.L32:
 488 0074 34000000 		.word	.LC3
 489              		.cfi_endproc
 490              	.LFE123:
 491              		.size	canReceive, .-canReceive
 492 0078 AFF30080 		.section	.text.canSleep,"ax",%progbits
 492      AFF30080 
 493              		.align	2
 494              		.p2align 4,,15
 495              		.global	canSleep
 496              		.thumb
 497              		.thumb_func
 498              		.type	canSleep, %function
 499              	canSleep:
 500              	.LFB124:
 501              		.loc 1 250 0
 502              		.cfi_startproc
 503              		@ args = 0, pretend = 0, frame = 0
 504              		@ frame_needed = 0, uses_anonymous_args = 0
 505              	.LVL43:
 506 0000 10B5     		push	{r4, lr}
 507              		.cfi_def_cfa_offset 8
 508              		.cfi_offset 4, -8
 509              		.cfi_offset 14, -4
 510 0002 0446     		mov	r4, r0
ARM GAS  /tmp/cceMFToX.s 			page 10


 511              	.LBB14:
 512              		.loc 1 254 0
 513 0004 2023     		movs	r3, #32
 514              	@ 254 "../../ChibiOS-RT/os/hal/src/can.c" 1
 515 0006 83F31188 		msr     BASEPRI, r3
 516              	@ 0 "" 2
 517              		.thumb
 518              	.LBE14:
 519 000a FFF7FEFF 		bl	dbg_check_lock
 520              	.LVL44:
 521              		.loc 1 255 0
 522 000e 2378     		ldrb	r3, [r4]	@ zero_extendqisi2
 523 0010 033B     		subs	r3, r3, #3
 524 0012 DBB2     		uxtb	r3, r3
 525 0014 012B     		cmp	r3, #1
 526 0016 02D9     		bls	.L35
 527              		.loc 1 255 0 is_stmt 0 discriminator 1
 528 0018 0B48     		ldr	r0, .L38
 529 001a FFF7FEFF 		bl	chDbgPanic
 530              	.LVL45:
 531              	.L35:
 532              		.loc 1 257 0 is_stmt 1
 533 001e 2378     		ldrb	r3, [r4]	@ zero_extendqisi2
 534 0020 032B     		cmp	r3, #3
 535 0022 0BD1     		bne	.L36
 536              		.loc 1 258 0
 537 0024 2046     		mov	r0, r4
 538 0026 FFF7FEFF 		bl	can_lld_sleep
 539              	.LVL46:
 540              		.loc 1 259 0
 541 002a 2046     		mov	r0, r4
 542 002c 0423     		movs	r3, #4
 543 002e 00F82C3B 		strb	r3, [r0], #44
 544              		.loc 1 260 0
 545 0032 0021     		movs	r1, #0
 546 0034 FFF7FEFF 		bl	chEvtBroadcastFlagsI
 547              	.LVL47:
 548              		.loc 1 261 0
 549 0038 FFF7FEFF 		bl	chSchRescheduleS
 550              	.LVL48:
 551              	.L36:
 552              		.loc 1 263 0
 553 003c FFF7FEFF 		bl	dbg_check_unlock
 554              	.LVL49:
 555              	.LBB15:
 556 0040 0023     		movs	r3, #0
 557              	@ 263 "../../ChibiOS-RT/os/hal/src/can.c" 1
 558 0042 83F31188 		msr     BASEPRI, r3
 559              	@ 0 "" 2
 560              		.thumb
 561 0046 10BD     		pop	{r4, pc}
 562              	.LVL50:
 563              	.L39:
 564              		.align	2
 565              	.L38:
 566 0048 48000000 		.word	.LC4
 567              	.LBE15:
ARM GAS  /tmp/cceMFToX.s 			page 11


 568              		.cfi_endproc
 569              	.LFE124:
 570              		.size	canSleep, .-canSleep
 571 004c AFF30080 		.section	.text.canWakeup,"ax",%progbits
 572              		.align	2
 573              		.p2align 4,,15
 574              		.global	canWakeup
 575              		.thumb
 576              		.thumb_func
 577              		.type	canWakeup, %function
 578              	canWakeup:
 579              	.LFB125:
 580              		.loc 1 273 0
 581              		.cfi_startproc
 582              		@ args = 0, pretend = 0, frame = 0
 583              		@ frame_needed = 0, uses_anonymous_args = 0
 584              	.LVL51:
 585 0000 10B5     		push	{r4, lr}
 586              		.cfi_def_cfa_offset 8
 587              		.cfi_offset 4, -8
 588              		.cfi_offset 14, -4
 589 0002 0446     		mov	r4, r0
 590              	.LBB16:
 591              		.loc 1 277 0
 592 0004 2023     		movs	r3, #32
 593              	@ 277 "../../ChibiOS-RT/os/hal/src/can.c" 1
 594 0006 83F31188 		msr     BASEPRI, r3
 595              	@ 0 "" 2
 596              		.thumb
 597              	.LBE16:
 598 000a FFF7FEFF 		bl	dbg_check_lock
 599              	.LVL52:
 600              		.loc 1 278 0
 601 000e 2378     		ldrb	r3, [r4]	@ zero_extendqisi2
 602 0010 033B     		subs	r3, r3, #3
 603 0012 DBB2     		uxtb	r3, r3
 604 0014 012B     		cmp	r3, #1
 605 0016 02D9     		bls	.L41
 606              		.loc 1 278 0 is_stmt 0 discriminator 1
 607 0018 0B48     		ldr	r0, .L44
 608 001a FFF7FEFF 		bl	chDbgPanic
 609              	.LVL53:
 610              	.L41:
 611              		.loc 1 280 0 is_stmt 1
 612 001e 2378     		ldrb	r3, [r4]	@ zero_extendqisi2
 613 0020 042B     		cmp	r3, #4
 614 0022 0BD1     		bne	.L42
 615              		.loc 1 281 0
 616 0024 2046     		mov	r0, r4
 617 0026 FFF7FEFF 		bl	can_lld_wakeup
 618              	.LVL54:
 619              		.loc 1 282 0
 620 002a 2046     		mov	r0, r4
 621 002c 0323     		movs	r3, #3
 622 002e 00F8303B 		strb	r3, [r0], #48
 623              		.loc 1 283 0
 624 0032 0021     		movs	r1, #0
ARM GAS  /tmp/cceMFToX.s 			page 12


 625 0034 FFF7FEFF 		bl	chEvtBroadcastFlagsI
 626              	.LVL55:
 627              		.loc 1 284 0
 628 0038 FFF7FEFF 		bl	chSchRescheduleS
 629              	.LVL56:
 630              	.L42:
 631              		.loc 1 286 0
 632 003c FFF7FEFF 		bl	dbg_check_unlock
 633              	.LVL57:
 634              	.LBB17:
 635 0040 0023     		movs	r3, #0
 636              	@ 286 "../../ChibiOS-RT/os/hal/src/can.c" 1
 637 0042 83F31188 		msr     BASEPRI, r3
 638              	@ 0 "" 2
 639              		.thumb
 640 0046 10BD     		pop	{r4, pc}
 641              	.LVL58:
 642              	.L45:
 643              		.align	2
 644              	.L44:
 645 0048 58000000 		.word	.LC5
 646              	.LBE17:
 647              		.cfi_endproc
 648              	.LFE125:
 649              		.size	canWakeup, .-canWakeup
 650 004c AFF30080 		.section	.rodata.str1.4,"aMS",%progbits,1
 651              		.align	2
 652              	.LC0:
 653 0000 63616E53 		.ascii	"canStart(), #1\000"
 653      74617274 
 653      28292C20 
 653      233100
 654 000f 00       		.space	1
 655              	.LC1:
 656 0010 63616E53 		.ascii	"canStop(), #1\000"
 656      746F7028 
 656      292C2023 
 656      3100
 657 001e 0000     		.space	2
 658              	.LC2:
 659 0020 63616E54 		.ascii	"canTransmit(), #1\000"
 659      72616E73 
 659      6D697428 
 659      292C2023 
 659      3100
 660 0032 0000     		.space	2
 661              	.LC3:
 662 0034 63616E52 		.ascii	"canReceive(), #1\000"
 662      65636569 
 662      76652829 
 662      2C202331 
 662      00
 663 0045 000000   		.space	3
 664              	.LC4:
 665 0048 63616E53 		.ascii	"canSleep(), #1\000"
 665      6C656570 
 665      28292C20 
ARM GAS  /tmp/cceMFToX.s 			page 13


 665      233100
 666 0057 00       		.space	1
 667              	.LC5:
 668 0058 63616E57 		.ascii	"canWakeup(), #1\000"
 668      616B6575 
 668      7028292C 
 668      20233100 
 669              		.text
 670              	.Letext0:
 671              		.file 2 "/usr/arm-none-eabi/include/machine/_default_types.h"
 672              		.file 3 "/usr/arm-none-eabi/include/stdint.h"
 673              		.file 4 "../../ChibiOS-RT/os/ports/GCC/ARMCMx/chtypes.h"
 674              		.file 5 "../../ChibiOS-RT/os/kernel/include/chlists.h"
 675              		.file 6 "../../ChibiOS-RT/os/kernel/include/chthreads.h"
 676              		.file 7 "../../ChibiOS-RT/os/ports/GCC/ARMCMx/chcore_v7m.h"
 677              		.file 8 "../../ChibiOS-RT/os/kernel/include/chsem.h"
 678              		.file 9 "../../ChibiOS-RT/os/kernel/include/chmtx.h"
 679              		.file 10 "../../ChibiOS-RT/os/kernel/include/chevents.h"
 680              		.file 11 "../../ChibiOS-RT/os/hal/platforms/STM32F4xx/stm32f4xx.h"
 681              		.file 12 "../../ChibiOS-RT/os/hal/include/can.h"
 682              		.file 13 "../../ChibiOS-RT/os/hal/platforms/STM32/can_lld.h"
 683              		.file 14 "../../ChibiOS-RT/os/kernel/include/chdebug.h"
 684              		.file 15 "../../ChibiOS-RT/os/kernel/include/chschd.h"
 685              		.file 16 "../../ChibiOS-RT/os/ports/common/ARMCMx/CMSIS/include/core_cm4.h"
 686              		.section	.debug_info,"",%progbits
 687              	.Ldebug_info0:
 688 0000 B9110000 		.4byte	0x11b9
 689 0004 0400     		.2byte	0x4
 690 0006 00000000 		.4byte	.Ldebug_abbrev0
 691 000a 04       		.byte	0x4
 692 000b 01       		.uleb128 0x1
 693 000c D9020000 		.4byte	.LASF157
 694 0010 01       		.byte	0x1
 695 0011 E7060000 		.4byte	.LASF158
 696 0015 0A000000 		.4byte	.LASF159
 697 0019 00000000 		.4byte	.Ldebug_ranges0+0
 698 001d 00000000 		.4byte	0
 699 0021 00000000 		.4byte	.Ldebug_line0
 700 0025 02       		.uleb128 0x2
 701 0026 04       		.byte	0x4
 702 0027 05       		.byte	0x5
 703 0028 696E7400 		.ascii	"int\000"
 704 002c 03       		.uleb128 0x3
 705 002d 04       		.byte	0x4
 706 002e 07       		.byte	0x7
 707 002f 2C020000 		.4byte	.LASF0
 708 0033 03       		.uleb128 0x3
 709 0034 01       		.byte	0x1
 710 0035 06       		.byte	0x6
 711 0036 C7000000 		.4byte	.LASF1
 712 003a 04       		.uleb128 0x4
 713 003b 5F000000 		.4byte	.LASF4
 714 003f 02       		.byte	0x2
 715 0040 1D       		.byte	0x1d
 716 0041 45000000 		.4byte	0x45
 717 0045 03       		.uleb128 0x3
 718 0046 01       		.byte	0x1
ARM GAS  /tmp/cceMFToX.s 			page 14


 719 0047 08       		.byte	0x8
 720 0048 DD040000 		.4byte	.LASF2
 721 004c 03       		.uleb128 0x3
 722 004d 02       		.byte	0x2
 723 004e 05       		.byte	0x5
 724 004f 24050000 		.4byte	.LASF3
 725 0053 04       		.uleb128 0x4
 726 0054 CC050000 		.4byte	.LASF5
 727 0058 02       		.byte	0x2
 728 0059 2B       		.byte	0x2b
 729 005a 5E000000 		.4byte	0x5e
 730 005e 03       		.uleb128 0x3
 731 005f 02       		.byte	0x2
 732 0060 07       		.byte	0x7
 733 0061 AA010000 		.4byte	.LASF6
 734 0065 04       		.uleb128 0x4
 735 0066 F8050000 		.4byte	.LASF7
 736 006a 02       		.byte	0x2
 737 006b 3F       		.byte	0x3f
 738 006c 70000000 		.4byte	0x70
 739 0070 03       		.uleb128 0x3
 740 0071 04       		.byte	0x4
 741 0072 05       		.byte	0x5
 742 0073 28010000 		.4byte	.LASF8
 743 0077 04       		.uleb128 0x4
 744 0078 E4010000 		.4byte	.LASF9
 745 007c 02       		.byte	0x2
 746 007d 41       		.byte	0x41
 747 007e 82000000 		.4byte	0x82
 748 0082 03       		.uleb128 0x3
 749 0083 04       		.byte	0x4
 750 0084 07       		.byte	0x7
 751 0085 9C050000 		.4byte	.LASF10
 752 0089 03       		.uleb128 0x3
 753 008a 08       		.byte	0x8
 754 008b 05       		.byte	0x5
 755 008c B9000000 		.4byte	.LASF11
 756 0090 04       		.uleb128 0x4
 757 0091 5F040000 		.4byte	.LASF12
 758 0095 02       		.byte	0x2
 759 0096 5B       		.byte	0x5b
 760 0097 9B000000 		.4byte	0x9b
 761 009b 03       		.uleb128 0x3
 762 009c 08       		.byte	0x8
 763 009d 07       		.byte	0x7
 764 009e 7F000000 		.4byte	.LASF13
 765 00a2 04       		.uleb128 0x4
 766 00a3 81060000 		.4byte	.LASF14
 767 00a7 03       		.byte	0x3
 768 00a8 15       		.byte	0x15
 769 00a9 3A000000 		.4byte	0x3a
 770 00ad 04       		.uleb128 0x4
 771 00ae 66010000 		.4byte	.LASF15
 772 00b2 03       		.byte	0x3
 773 00b3 21       		.byte	0x21
 774 00b4 53000000 		.4byte	0x53
 775 00b8 04       		.uleb128 0x4
ARM GAS  /tmp/cceMFToX.s 			page 15


 776 00b9 D5040000 		.4byte	.LASF16
 777 00bd 03       		.byte	0x3
 778 00be 2C       		.byte	0x2c
 779 00bf 65000000 		.4byte	0x65
 780 00c3 04       		.uleb128 0x4
 781 00c4 85050000 		.4byte	.LASF17
 782 00c8 03       		.byte	0x3
 783 00c9 2D       		.byte	0x2d
 784 00ca 77000000 		.4byte	0x77
 785 00ce 04       		.uleb128 0x4
 786 00cf 56000000 		.4byte	.LASF18
 787 00d3 03       		.byte	0x3
 788 00d4 39       		.byte	0x39
 789 00d5 90000000 		.4byte	0x90
 790 00d9 04       		.uleb128 0x4
 791 00da F0000000 		.4byte	.LASF19
 792 00de 04       		.byte	0x4
 793 00df 2B       		.byte	0x2b
 794 00e0 E4000000 		.4byte	0xe4
 795 00e4 03       		.uleb128 0x3
 796 00e5 01       		.byte	0x1
 797 00e6 02       		.byte	0x2
 798 00e7 CF040000 		.4byte	.LASF20
 799 00eb 04       		.uleb128 0x4
 800 00ec A9020000 		.4byte	.LASF21
 801 00f0 04       		.byte	0x4
 802 00f1 2C       		.byte	0x2c
 803 00f2 A2000000 		.4byte	0xa2
 804 00f6 04       		.uleb128 0x4
 805 00f7 31010000 		.4byte	.LASF22
 806 00fb 04       		.byte	0x4
 807 00fc 2D       		.byte	0x2d
 808 00fd A2000000 		.4byte	0xa2
 809 0101 04       		.uleb128 0x4
 810 0102 B1000000 		.4byte	.LASF23
 811 0106 04       		.byte	0x4
 812 0107 2E       		.byte	0x2e
 813 0108 A2000000 		.4byte	0xa2
 814 010c 04       		.uleb128 0x4
 815 010d 13010000 		.4byte	.LASF24
 816 0111 04       		.byte	0x4
 817 0112 2F       		.byte	0x2f
 818 0113 A2000000 		.4byte	0xa2
 819 0117 04       		.uleb128 0x4
 820 0118 B4040000 		.4byte	.LASF25
 821 011c 04       		.byte	0x4
 822 011d 30       		.byte	0x30
 823 011e C3000000 		.4byte	0xc3
 824 0122 04       		.uleb128 0x4
 825 0123 9B020000 		.4byte	.LASF26
 826 0127 04       		.byte	0x4
 827 0128 31       		.byte	0x31
 828 0129 B8000000 		.4byte	0xb8
 829 012d 04       		.uleb128 0x4
 830 012e CD020000 		.4byte	.LASF27
 831 0132 04       		.byte	0x4
 832 0133 33       		.byte	0x33
ARM GAS  /tmp/cceMFToX.s 			page 16


 833 0134 C3000000 		.4byte	0xc3
 834 0138 04       		.uleb128 0x4
 835 0139 36060000 		.4byte	.LASF28
 836 013d 04       		.byte	0x4
 837 013e 34       		.byte	0x34
 838 013f C3000000 		.4byte	0xc3
 839 0143 04       		.uleb128 0x4
 840 0144 E3050000 		.4byte	.LASF29
 841 0148 04       		.byte	0x4
 842 0149 35       		.byte	0x35
 843 014a C3000000 		.4byte	0xc3
 844 014e 04       		.uleb128 0x4
 845 014f 1B020000 		.4byte	.LASF30
 846 0153 04       		.byte	0x4
 847 0154 36       		.byte	0x36
 848 0155 B8000000 		.4byte	0xb8
 849 0159 04       		.uleb128 0x4
 850 015a 64050000 		.4byte	.LASF31
 851 015e 05       		.byte	0x5
 852 015f 2A       		.byte	0x2a
 853 0160 64010000 		.4byte	0x164
 854 0164 05       		.uleb128 0x5
 855 0165 64050000 		.4byte	.LASF31
 856 0169 4C       		.byte	0x4c
 857 016a 06       		.byte	0x6
 858 016b 5E       		.byte	0x5e
 859 016c 6D020000 		.4byte	0x26d
 860 0170 06       		.uleb128 0x6
 861 0171 47050000 		.4byte	.LASF32
 862 0175 06       		.byte	0x6
 863 0176 5F       		.byte	0x5f
 864 0177 8E020000 		.4byte	0x28e
 865 017b 00       		.byte	0
 866 017c 06       		.uleb128 0x6
 867 017d AD040000 		.4byte	.LASF33
 868 0181 06       		.byte	0x6
 869 0182 61       		.byte	0x61
 870 0183 8E020000 		.4byte	0x28e
 871 0187 04       		.byte	0x4
 872 0188 06       		.uleb128 0x6
 873 0189 E6030000 		.4byte	.LASF34
 874 018d 06       		.byte	0x6
 875 018e 63       		.byte	0x63
 876 018f 17010000 		.4byte	0x117
 877 0193 08       		.byte	0x8
 878 0194 06       		.uleb128 0x6
 879 0195 41070000 		.4byte	.LASF35
 880 0199 06       		.byte	0x6
 881 019a 64       		.byte	0x64
 882 019b 53030000 		.4byte	0x353
 883 019f 0C       		.byte	0xc
 884 01a0 06       		.uleb128 0x6
 885 01a1 90010000 		.4byte	.LASF36
 886 01a5 06       		.byte	0x6
 887 01a6 66       		.byte	0x66
 888 01a7 8E020000 		.4byte	0x28e
 889 01ab 10       		.byte	0x10
ARM GAS  /tmp/cceMFToX.s 			page 17


 890 01ac 06       		.uleb128 0x6
 891 01ad FF030000 		.4byte	.LASF37
 892 01b1 06       		.byte	0x6
 893 01b2 67       		.byte	0x67
 894 01b3 8E020000 		.4byte	0x28e
 895 01b7 14       		.byte	0x14
 896 01b8 06       		.uleb128 0x6
 897 01b9 4E060000 		.4byte	.LASF38
 898 01bd 06       		.byte	0x6
 899 01be 6E       		.byte	0x6e
 900 01bf 9E040000 		.4byte	0x49e
 901 01c3 18       		.byte	0x18
 902 01c4 06       		.uleb128 0x6
 903 01c5 21020000 		.4byte	.LASF39
 904 01c9 06       		.byte	0x6
 905 01ca 74       		.byte	0x74
 906 01cb B0040000 		.4byte	0x4b0
 907 01cf 1C       		.byte	0x1c
 908 01d0 06       		.uleb128 0x6
 909 01d1 2E050000 		.4byte	.LASF40
 910 01d5 06       		.byte	0x6
 911 01d6 79       		.byte	0x79
 912 01d7 F6000000 		.4byte	0xf6
 913 01db 20       		.byte	0x20
 914 01dc 06       		.uleb128 0x6
 915 01dd 4E050000 		.4byte	.LASF41
 916 01e1 06       		.byte	0x6
 917 01e2 7D       		.byte	0x7d
 918 01e3 EB000000 		.4byte	0xeb
 919 01e7 21       		.byte	0x21
 920 01e8 06       		.uleb128 0x6
 921 01e9 50010000 		.4byte	.LASF42
 922 01ed 06       		.byte	0x6
 923 01ee 82       		.byte	0x82
 924 01ef 01010000 		.4byte	0x101
 925 01f3 22       		.byte	0x22
 926 01f4 06       		.uleb128 0x6
 927 01f5 36050000 		.4byte	.LASF43
 928 01f9 06       		.byte	0x6
 929 01fa 88       		.byte	0x88
 930 01fb 0C010000 		.4byte	0x10c
 931 01ff 23       		.byte	0x23
 932 0200 06       		.uleb128 0x6
 933 0201 6F010000 		.4byte	.LASF44
 934 0205 06       		.byte	0x6
 935 0206 8F       		.byte	0x8f
 936 0207 80030000 		.4byte	0x380
 937 020b 24       		.byte	0x24
 938 020c 07       		.uleb128 0x7
 939 020d 705F7500 		.ascii	"p_u\000"
 940 0211 06       		.byte	0x6
 941 0212 B4       		.byte	0xb4
 942 0213 69040000 		.4byte	0x469
 943 0217 28       		.byte	0x28
 944 0218 06       		.uleb128 0x6
 945 0219 47070000 		.4byte	.LASF45
 946 021d 06       		.byte	0x6
ARM GAS  /tmp/cceMFToX.s 			page 18


 947 021e B9       		.byte	0xb9
 948 021f B4020000 		.4byte	0x2b4
 949 0223 2C       		.byte	0x2c
 950 0224 06       		.uleb128 0x6
 951 0225 44020000 		.4byte	.LASF46
 952 0229 06       		.byte	0x6
 953 022a BF       		.byte	0xbf
 954 022b 94020000 		.4byte	0x294
 955 022f 30       		.byte	0x30
 956 0230 06       		.uleb128 0x6
 957 0231 2E070000 		.4byte	.LASF47
 958 0235 06       		.byte	0x6
 959 0236 C3       		.byte	0xc3
 960 0237 22010000 		.4byte	0x122
 961 023b 38       		.byte	0x38
 962 023c 06       		.uleb128 0x6
 963 023d 6B050000 		.4byte	.LASF48
 964 0241 06       		.byte	0x6
 965 0242 C9       		.byte	0xc9
 966 0243 2D010000 		.4byte	0x12d
 967 0247 3C       		.byte	0x3c
 968 0248 06       		.uleb128 0x6
 969 0249 1A050000 		.4byte	.LASF49
 970 024d 06       		.byte	0x6
 971 024e D0       		.byte	0xd0
 972 024f B6040000 		.4byte	0x4b6
 973 0253 40       		.byte	0x40
 974 0254 06       		.uleb128 0x6
 975 0255 ED050000 		.4byte	.LASF50
 976 0259 06       		.byte	0x6
 977 025a D4       		.byte	0xd4
 978 025b 17010000 		.4byte	0x117
 979 025f 44       		.byte	0x44
 980 0260 06       		.uleb128 0x6
 981 0261 E8000000 		.4byte	.LASF51
 982 0265 06       		.byte	0x6
 983 0266 DA       		.byte	0xda
 984 0267 CA020000 		.4byte	0x2ca
 985 026b 48       		.byte	0x48
 986 026c 00       		.byte	0
 987 026d 08       		.uleb128 0x8
 988 026e 08       		.byte	0x8
 989 026f 05       		.byte	0x5
 990 0270 61       		.byte	0x61
 991 0271 8E020000 		.4byte	0x28e
 992 0275 06       		.uleb128 0x6
 993 0276 47050000 		.4byte	.LASF32
 994 027a 05       		.byte	0x5
 995 027b 62       		.byte	0x62
 996 027c 8E020000 		.4byte	0x28e
 997 0280 00       		.byte	0
 998 0281 06       		.uleb128 0x6
 999 0282 AD040000 		.4byte	.LASF33
 1000 0286 05       		.byte	0x5
 1001 0287 64       		.byte	0x64
 1002 0288 8E020000 		.4byte	0x28e
 1003 028c 04       		.byte	0x4
ARM GAS  /tmp/cceMFToX.s 			page 19


 1004 028d 00       		.byte	0
 1005 028e 09       		.uleb128 0x9
 1006 028f 04       		.byte	0x4
 1007 0290 59010000 		.4byte	0x159
 1008 0294 04       		.uleb128 0x4
 1009 0295 07040000 		.4byte	.LASF52
 1010 0299 05       		.byte	0x5
 1011 029a 66       		.byte	0x66
 1012 029b 6D020000 		.4byte	0x26d
 1013 029f 08       		.uleb128 0x8
 1014 02a0 04       		.byte	0x4
 1015 02a1 05       		.byte	0x5
 1016 02a2 6B       		.byte	0x6b
 1017 02a3 B4020000 		.4byte	0x2b4
 1018 02a7 06       		.uleb128 0x6
 1019 02a8 47050000 		.4byte	.LASF32
 1020 02ac 05       		.byte	0x5
 1021 02ad 6D       		.byte	0x6d
 1022 02ae 8E020000 		.4byte	0x28e
 1023 02b2 00       		.byte	0
 1024 02b3 00       		.byte	0
 1025 02b4 04       		.uleb128 0x4
 1026 02b5 B1020000 		.4byte	.LASF53
 1027 02b9 05       		.byte	0x5
 1028 02ba 70       		.byte	0x70
 1029 02bb 9F020000 		.4byte	0x29f
 1030 02bf 04       		.uleb128 0x4
 1031 02c0 EF010000 		.4byte	.LASF54
 1032 02c4 07       		.byte	0x7
 1033 02c5 E5       		.byte	0xe5
 1034 02c6 CA020000 		.4byte	0x2ca
 1035 02ca 0A       		.uleb128 0xa
 1036 02cb 04       		.byte	0x4
 1037 02cc 04       		.uleb128 0x4
 1038 02cd 9D030000 		.4byte	.LASF55
 1039 02d1 07       		.byte	0x7
 1040 02d2 EB       		.byte	0xeb
 1041 02d3 CE000000 		.4byte	0xce
 1042 02d7 0B       		.uleb128 0xb
 1043 02d8 25060000 		.4byte	.LASF56
 1044 02dc 24       		.byte	0x24
 1045 02dd 07       		.byte	0x7
 1046 02de 0C01     		.2byte	0x10c
 1047 02e0 53030000 		.4byte	0x353
 1048 02e4 0C       		.uleb128 0xc
 1049 02e5 723400   		.ascii	"r4\000"
 1050 02e8 07       		.byte	0x7
 1051 02e9 1F01     		.2byte	0x11f
 1052 02eb BF020000 		.4byte	0x2bf
 1053 02ef 00       		.byte	0
 1054 02f0 0C       		.uleb128 0xc
 1055 02f1 723500   		.ascii	"r5\000"
 1056 02f4 07       		.byte	0x7
 1057 02f5 2001     		.2byte	0x120
 1058 02f7 BF020000 		.4byte	0x2bf
 1059 02fb 04       		.byte	0x4
 1060 02fc 0C       		.uleb128 0xc
ARM GAS  /tmp/cceMFToX.s 			page 20


 1061 02fd 723600   		.ascii	"r6\000"
 1062 0300 07       		.byte	0x7
 1063 0301 2101     		.2byte	0x121
 1064 0303 BF020000 		.4byte	0x2bf
 1065 0307 08       		.byte	0x8
 1066 0308 0C       		.uleb128 0xc
 1067 0309 723700   		.ascii	"r7\000"
 1068 030c 07       		.byte	0x7
 1069 030d 2201     		.2byte	0x122
 1070 030f BF020000 		.4byte	0x2bf
 1071 0313 0C       		.byte	0xc
 1072 0314 0C       		.uleb128 0xc
 1073 0315 723800   		.ascii	"r8\000"
 1074 0318 07       		.byte	0x7
 1075 0319 2301     		.2byte	0x123
 1076 031b BF020000 		.4byte	0x2bf
 1077 031f 10       		.byte	0x10
 1078 0320 0C       		.uleb128 0xc
 1079 0321 723900   		.ascii	"r9\000"
 1080 0324 07       		.byte	0x7
 1081 0325 2401     		.2byte	0x124
 1082 0327 BF020000 		.4byte	0x2bf
 1083 032b 14       		.byte	0x14
 1084 032c 0C       		.uleb128 0xc
 1085 032d 72313000 		.ascii	"r10\000"
 1086 0331 07       		.byte	0x7
 1087 0332 2501     		.2byte	0x125
 1088 0334 BF020000 		.4byte	0x2bf
 1089 0338 18       		.byte	0x18
 1090 0339 0C       		.uleb128 0xc
 1091 033a 72313100 		.ascii	"r11\000"
 1092 033e 07       		.byte	0x7
 1093 033f 2601     		.2byte	0x126
 1094 0341 BF020000 		.4byte	0x2bf
 1095 0345 1C       		.byte	0x1c
 1096 0346 0C       		.uleb128 0xc
 1097 0347 6C7200   		.ascii	"lr\000"
 1098 034a 07       		.byte	0x7
 1099 034b 2701     		.2byte	0x127
 1100 034d BF020000 		.4byte	0x2bf
 1101 0351 20       		.byte	0x20
 1102 0352 00       		.byte	0
 1103 0353 0B       		.uleb128 0xb
 1104 0354 0F060000 		.4byte	.LASF57
 1105 0358 04       		.byte	0x4
 1106 0359 07       		.byte	0x7
 1107 035a 3101     		.2byte	0x131
 1108 035c 6E030000 		.4byte	0x36e
 1109 0360 0C       		.uleb128 0xc
 1110 0361 72313300 		.ascii	"r13\000"
 1111 0365 07       		.byte	0x7
 1112 0366 3201     		.2byte	0x132
 1113 0368 6E030000 		.4byte	0x36e
 1114 036c 00       		.byte	0
 1115 036d 00       		.byte	0
 1116 036e 09       		.uleb128 0x9
 1117 036f 04       		.byte	0x4
ARM GAS  /tmp/cceMFToX.s 			page 21


 1118 0370 D7020000 		.4byte	0x2d7
 1119 0374 0D       		.uleb128 0xd
 1120 0375 C3000000 		.4byte	0xc3
 1121 0379 03       		.uleb128 0x3
 1122 037a 04       		.byte	0x4
 1123 037b 07       		.byte	0x7
 1124 037c CD030000 		.4byte	.LASF58
 1125 0380 0D       		.uleb128 0xd
 1126 0381 43010000 		.4byte	0x143
 1127 0385 05       		.uleb128 0x5
 1128 0386 2C060000 		.4byte	.LASF59
 1129 038a 0C       		.byte	0xc
 1130 038b 08       		.byte	0x8
 1131 038c 2C       		.byte	0x2c
 1132 038d AA030000 		.4byte	0x3aa
 1133 0391 06       		.uleb128 0x6
 1134 0392 98010000 		.4byte	.LASF60
 1135 0396 08       		.byte	0x8
 1136 0397 2D       		.byte	0x2d
 1137 0398 94020000 		.4byte	0x294
 1138 039c 00       		.byte	0
 1139 039d 06       		.uleb128 0x6
 1140 039e 67020000 		.4byte	.LASF61
 1141 03a2 08       		.byte	0x8
 1142 03a3 2F       		.byte	0x2f
 1143 03a4 4E010000 		.4byte	0x14e
 1144 03a8 08       		.byte	0x8
 1145 03a9 00       		.byte	0
 1146 03aa 04       		.uleb128 0x4
 1147 03ab 2C060000 		.4byte	.LASF59
 1148 03af 08       		.byte	0x8
 1149 03b0 30       		.byte	0x30
 1150 03b1 85030000 		.4byte	0x385
 1151 03b5 05       		.uleb128 0x5
 1152 03b6 97030000 		.4byte	.LASF62
 1153 03ba 10       		.byte	0x10
 1154 03bb 09       		.byte	0x9
 1155 03bc 2C       		.byte	0x2c
 1156 03bd E6030000 		.4byte	0x3e6
 1157 03c1 06       		.uleb128 0x6
 1158 03c2 F7000000 		.4byte	.LASF63
 1159 03c6 09       		.byte	0x9
 1160 03c7 2D       		.byte	0x2d
 1161 03c8 94020000 		.4byte	0x294
 1162 03cc 00       		.byte	0
 1163 03cd 06       		.uleb128 0x6
 1164 03ce 39070000 		.4byte	.LASF64
 1165 03d2 09       		.byte	0x9
 1166 03d3 2F       		.byte	0x2f
 1167 03d4 8E020000 		.4byte	0x28e
 1168 03d8 08       		.byte	0x8
 1169 03d9 06       		.uleb128 0x6
 1170 03da DC050000 		.4byte	.LASF65
 1171 03de 09       		.byte	0x9
 1172 03df 31       		.byte	0x31
 1173 03e0 E6030000 		.4byte	0x3e6
 1174 03e4 0C       		.byte	0xc
ARM GAS  /tmp/cceMFToX.s 			page 22


 1175 03e5 00       		.byte	0
 1176 03e6 09       		.uleb128 0x9
 1177 03e7 04       		.byte	0x4
 1178 03e8 B5030000 		.4byte	0x3b5
 1179 03ec 04       		.uleb128 0x4
 1180 03ed 97030000 		.4byte	.LASF62
 1181 03f1 09       		.byte	0x9
 1182 03f2 33       		.byte	0x33
 1183 03f3 B5030000 		.4byte	0x3b5
 1184 03f7 04       		.uleb128 0x4
 1185 03f8 AD060000 		.4byte	.LASF66
 1186 03fc 0A       		.byte	0xa
 1187 03fd 2C       		.byte	0x2c
 1188 03fe 02040000 		.4byte	0x402
 1189 0402 05       		.uleb128 0x5
 1190 0403 AD060000 		.4byte	.LASF66
 1191 0407 10       		.byte	0x10
 1192 0408 0A       		.byte	0xa
 1193 0409 31       		.byte	0x31
 1194 040a 3F040000 		.4byte	0x43f
 1195 040e 06       		.uleb128 0x6
 1196 040f A1020000 		.4byte	.LASF67
 1197 0413 0A       		.byte	0xa
 1198 0414 32       		.byte	0x32
 1199 0415 3F040000 		.4byte	0x43f
 1200 0419 00       		.byte	0
 1201 041a 06       		.uleb128 0x6
 1202 041b F8040000 		.4byte	.LASF68
 1203 041f 0A       		.byte	0xa
 1204 0420 35       		.byte	0x35
 1205 0421 8E020000 		.4byte	0x28e
 1206 0425 04       		.byte	0x4
 1207 0426 06       		.uleb128 0x6
 1208 0427 F7030000 		.4byte	.LASF69
 1209 042b 0A       		.byte	0xa
 1210 042c 37       		.byte	0x37
 1211 042d 2D010000 		.4byte	0x12d
 1212 0431 08       		.byte	0x8
 1213 0432 06       		.uleb128 0x6
 1214 0433 11050000 		.4byte	.LASF70
 1215 0437 0A       		.byte	0xa
 1216 0438 3A       		.byte	0x3a
 1217 0439 38010000 		.4byte	0x138
 1218 043d 0C       		.byte	0xc
 1219 043e 00       		.byte	0
 1220 043f 09       		.uleb128 0x9
 1221 0440 04       		.byte	0x4
 1222 0441 F7030000 		.4byte	0x3f7
 1223 0445 05       		.uleb128 0x5
 1224 0446 02020000 		.4byte	.LASF71
 1225 044a 04       		.byte	0x4
 1226 044b 0A       		.byte	0xa
 1227 044c 41       		.byte	0x41
 1228 044d 5E040000 		.4byte	0x45e
 1229 0451 06       		.uleb128 0x6
 1230 0452 55060000 		.4byte	.LASF72
 1231 0456 0A       		.byte	0xa
ARM GAS  /tmp/cceMFToX.s 			page 23


 1232 0457 42       		.byte	0x42
 1233 0458 3F040000 		.4byte	0x43f
 1234 045c 00       		.byte	0
 1235 045d 00       		.byte	0
 1236 045e 04       		.uleb128 0x4
 1237 045f 02020000 		.4byte	.LASF71
 1238 0463 0A       		.byte	0xa
 1239 0464 45       		.byte	0x45
 1240 0465 45040000 		.4byte	0x445
 1241 0469 0E       		.uleb128 0xe
 1242 046a 04       		.byte	0x4
 1243 046b 06       		.byte	0x6
 1244 046c 96       		.byte	0x96
 1245 046d 9E040000 		.4byte	0x49e
 1246 0471 0F       		.uleb128 0xf
 1247 0472 47000000 		.4byte	.LASF73
 1248 0476 06       		.byte	0x6
 1249 0477 9D       		.byte	0x9d
 1250 0478 22010000 		.4byte	0x122
 1251 047c 0F       		.uleb128 0xf
 1252 047d 96000000 		.4byte	.LASF74
 1253 0481 06       		.byte	0x6
 1254 0482 A4       		.byte	0xa4
 1255 0483 22010000 		.4byte	0x122
 1256 0487 0F       		.uleb128 0xf
 1257 0488 BB060000 		.4byte	.LASF75
 1258 048c 06       		.byte	0x6
 1259 048d AB       		.byte	0xab
 1260 048e CA020000 		.4byte	0x2ca
 1261 0492 0F       		.uleb128 0xf
 1262 0493 40050000 		.4byte	.LASF76
 1263 0497 06       		.byte	0x6
 1264 0498 B2       		.byte	0xb2
 1265 0499 2D010000 		.4byte	0x12d
 1266 049d 00       		.byte	0
 1267 049e 09       		.uleb128 0x9
 1268 049f 04       		.byte	0x4
 1269 04a0 A4040000 		.4byte	0x4a4
 1270 04a4 10       		.uleb128 0x10
 1271 04a5 A9040000 		.4byte	0x4a9
 1272 04a9 03       		.uleb128 0x3
 1273 04aa 01       		.byte	0x1
 1274 04ab 08       		.byte	0x8
 1275 04ac AE050000 		.4byte	.LASF77
 1276 04b0 09       		.uleb128 0x9
 1277 04b1 04       		.byte	0x4
 1278 04b2 CC020000 		.4byte	0x2cc
 1279 04b6 09       		.uleb128 0x9
 1280 04b7 04       		.byte	0x4
 1281 04b8 EC030000 		.4byte	0x3ec
 1282 04bc 11       		.uleb128 0x11
 1283 04bd C3000000 		.4byte	0xc3
 1284 04c1 CC040000 		.4byte	0x4cc
 1285 04c5 12       		.uleb128 0x12
 1286 04c6 79030000 		.4byte	0x379
 1287 04ca 07       		.byte	0x7
 1288 04cb 00       		.byte	0
ARM GAS  /tmp/cceMFToX.s 			page 24


 1289 04cc 11       		.uleb128 0x11
 1290 04cd C3000000 		.4byte	0xc3
 1291 04d1 DC040000 		.4byte	0x4dc
 1292 04d5 12       		.uleb128 0x12
 1293 04d6 79030000 		.4byte	0x379
 1294 04da 01       		.byte	0x1
 1295 04db 00       		.byte	0
 1296 04dc 0D       		.uleb128 0xd
 1297 04dd B8000000 		.4byte	0xb8
 1298 04e1 13       		.uleb128 0x13
 1299 04e2 10       		.byte	0x10
 1300 04e3 0B       		.byte	0xb
 1301 04e4 2F02     		.2byte	0x22f
 1302 04e6 1F050000 		.4byte	0x51f
 1303 04ea 0C       		.uleb128 0xc
 1304 04eb 54495200 		.ascii	"TIR\000"
 1305 04ef 0B       		.byte	0xb
 1306 04f0 3102     		.2byte	0x231
 1307 04f2 74030000 		.4byte	0x374
 1308 04f6 00       		.byte	0
 1309 04f7 14       		.uleb128 0x14
 1310 04f8 FD010000 		.4byte	.LASF78
 1311 04fc 0B       		.byte	0xb
 1312 04fd 3202     		.2byte	0x232
 1313 04ff 74030000 		.4byte	0x374
 1314 0503 04       		.byte	0x4
 1315 0504 14       		.uleb128 0x14
 1316 0505 23010000 		.4byte	.LASF79
 1317 0509 0B       		.byte	0xb
 1318 050a 3302     		.2byte	0x233
 1319 050c 74030000 		.4byte	0x374
 1320 0510 08       		.byte	0x8
 1321 0511 14       		.uleb128 0x14
 1322 0512 14040000 		.4byte	.LASF80
 1323 0516 0B       		.byte	0xb
 1324 0517 3402     		.2byte	0x234
 1325 0519 74030000 		.4byte	0x374
 1326 051d 0C       		.byte	0xc
 1327 051e 00       		.byte	0
 1328 051f 15       		.uleb128 0x15
 1329 0520 3A010000 		.4byte	.LASF81
 1330 0524 0B       		.byte	0xb
 1331 0525 3502     		.2byte	0x235
 1332 0527 E1040000 		.4byte	0x4e1
 1333 052b 13       		.uleb128 0x13
 1334 052c 10       		.byte	0x10
 1335 052d 0B       		.byte	0xb
 1336 052e 3B02     		.2byte	0x23b
 1337 0530 69050000 		.4byte	0x569
 1338 0534 0C       		.uleb128 0xc
 1339 0535 52495200 		.ascii	"RIR\000"
 1340 0539 0B       		.byte	0xb
 1341 053a 3D02     		.2byte	0x23d
 1342 053c 74030000 		.4byte	0x374
 1343 0540 00       		.byte	0
 1344 0541 14       		.uleb128 0x14
 1345 0542 57020000 		.4byte	.LASF82
ARM GAS  /tmp/cceMFToX.s 			page 25


 1346 0546 0B       		.byte	0xb
 1347 0547 3E02     		.2byte	0x23e
 1348 0549 74030000 		.4byte	0x374
 1349 054d 04       		.byte	0x4
 1350 054e 14       		.uleb128 0x14
 1351 054f 34070000 		.4byte	.LASF83
 1352 0553 0B       		.byte	0xb
 1353 0554 3F02     		.2byte	0x23f
 1354 0556 74030000 		.4byte	0x374
 1355 055a 08       		.byte	0x8
 1356 055b 14       		.uleb128 0x14
 1357 055c D7050000 		.4byte	.LASF84
 1358 0560 0B       		.byte	0xb
 1359 0561 4002     		.2byte	0x240
 1360 0563 74030000 		.4byte	0x374
 1361 0567 0C       		.byte	0xc
 1362 0568 00       		.byte	0
 1363 0569 15       		.uleb128 0x15
 1364 056a 5D060000 		.4byte	.LASF85
 1365 056e 0B       		.byte	0xb
 1366 056f 4102     		.2byte	0x241
 1367 0571 2B050000 		.4byte	0x52b
 1368 0575 13       		.uleb128 0x13
 1369 0576 08       		.byte	0x8
 1370 0577 0B       		.byte	0xb
 1371 0578 4702     		.2byte	0x247
 1372 057a 99050000 		.4byte	0x599
 1373 057e 0C       		.uleb128 0xc
 1374 057f 46523100 		.ascii	"FR1\000"
 1375 0583 0B       		.byte	0xb
 1376 0584 4902     		.2byte	0x249
 1377 0586 74030000 		.4byte	0x374
 1378 058a 00       		.byte	0
 1379 058b 0C       		.uleb128 0xc
 1380 058c 46523200 		.ascii	"FR2\000"
 1381 0590 0B       		.byte	0xb
 1382 0591 4A02     		.2byte	0x24a
 1383 0593 74030000 		.4byte	0x374
 1384 0597 04       		.byte	0x4
 1385 0598 00       		.byte	0
 1386 0599 15       		.uleb128 0x15
 1387 059a 80020000 		.4byte	.LASF86
 1388 059e 0B       		.byte	0xb
 1389 059f 4B02     		.2byte	0x24b
 1390 05a1 75050000 		.4byte	0x575
 1391 05a5 16       		.uleb128 0x16
 1392 05a6 2003     		.2byte	0x320
 1393 05a8 0B       		.byte	0xb
 1394 05a9 5102     		.2byte	0x251
 1395 05ab DB060000 		.4byte	0x6db
 1396 05af 0C       		.uleb128 0xc
 1397 05b0 4D435200 		.ascii	"MCR\000"
 1398 05b4 0B       		.byte	0xb
 1399 05b5 5302     		.2byte	0x253
 1400 05b7 74030000 		.4byte	0x374
 1401 05bb 00       		.byte	0
 1402 05bc 0C       		.uleb128 0xc
ARM GAS  /tmp/cceMFToX.s 			page 26


 1403 05bd 4D535200 		.ascii	"MSR\000"
 1404 05c1 0B       		.byte	0xb
 1405 05c2 5402     		.2byte	0x254
 1406 05c4 74030000 		.4byte	0x374
 1407 05c8 04       		.byte	0x4
 1408 05c9 0C       		.uleb128 0xc
 1409 05ca 54535200 		.ascii	"TSR\000"
 1410 05ce 0B       		.byte	0xb
 1411 05cf 5502     		.2byte	0x255
 1412 05d1 74030000 		.4byte	0x374
 1413 05d5 08       		.byte	0x8
 1414 05d6 14       		.uleb128 0x14
 1415 05d7 C2060000 		.4byte	.LASF87
 1416 05db 0B       		.byte	0xb
 1417 05dc 5602     		.2byte	0x256
 1418 05de 74030000 		.4byte	0x374
 1419 05e2 0C       		.byte	0xc
 1420 05e3 14       		.uleb128 0x14
 1421 05e4 7B020000 		.4byte	.LASF88
 1422 05e8 0B       		.byte	0xb
 1423 05e9 5702     		.2byte	0x257
 1424 05eb 74030000 		.4byte	0x374
 1425 05ef 10       		.byte	0x10
 1426 05f0 0C       		.uleb128 0xc
 1427 05f1 49455200 		.ascii	"IER\000"
 1428 05f5 0B       		.byte	0xb
 1429 05f6 5802     		.2byte	0x258
 1430 05f8 74030000 		.4byte	0x374
 1431 05fc 14       		.byte	0x14
 1432 05fd 0C       		.uleb128 0xc
 1433 05fe 45535200 		.ascii	"ESR\000"
 1434 0602 0B       		.byte	0xb
 1435 0603 5902     		.2byte	0x259
 1436 0605 74030000 		.4byte	0x374
 1437 0609 18       		.byte	0x18
 1438 060a 0C       		.uleb128 0xc
 1439 060b 42545200 		.ascii	"BTR\000"
 1440 060f 0B       		.byte	0xb
 1441 0610 5A02     		.2byte	0x25a
 1442 0612 74030000 		.4byte	0x374
 1443 0616 1C       		.byte	0x1c
 1444 0617 14       		.uleb128 0x14
 1445 0618 7B040000 		.4byte	.LASF89
 1446 061c 0B       		.byte	0xb
 1447 061d 5B02     		.2byte	0x25b
 1448 061f DB060000 		.4byte	0x6db
 1449 0623 20       		.byte	0x20
 1450 0624 17       		.uleb128 0x17
 1451 0625 39020000 		.4byte	.LASF90
 1452 0629 0B       		.byte	0xb
 1453 062a 5C02     		.2byte	0x25c
 1454 062c EB060000 		.4byte	0x6eb
 1455 0630 8001     		.2byte	0x180
 1456 0632 17       		.uleb128 0x17
 1457 0633 02060000 		.4byte	.LASF91
 1458 0637 0B       		.byte	0xb
 1459 0638 5D02     		.2byte	0x25d
ARM GAS  /tmp/cceMFToX.s 			page 27


 1460 063a FB060000 		.4byte	0x6fb
 1461 063e B001     		.2byte	0x1b0
 1462 0640 17       		.uleb128 0x17
 1463 0641 85040000 		.4byte	.LASF92
 1464 0645 0B       		.byte	0xb
 1465 0646 5E02     		.2byte	0x25e
 1466 0648 0B070000 		.4byte	0x70b
 1467 064c D001     		.2byte	0x1d0
 1468 064e 18       		.uleb128 0x18
 1469 064f 464D5200 		.ascii	"FMR\000"
 1470 0653 0B       		.byte	0xb
 1471 0654 5F02     		.2byte	0x25f
 1472 0656 74030000 		.4byte	0x374
 1473 065a 0002     		.2byte	0x200
 1474 065c 17       		.uleb128 0x17
 1475 065d 5F050000 		.4byte	.LASF93
 1476 0661 0B       		.byte	0xb
 1477 0662 6002     		.2byte	0x260
 1478 0664 74030000 		.4byte	0x374
 1479 0668 0402     		.2byte	0x204
 1480 066a 17       		.uleb128 0x17
 1481 066b 8F040000 		.4byte	.LASF94
 1482 066f 0B       		.byte	0xb
 1483 0670 6102     		.2byte	0x261
 1484 0672 C3000000 		.4byte	0xc3
 1485 0676 0802     		.2byte	0x208
 1486 0678 17       		.uleb128 0x17
 1487 0679 49060000 		.4byte	.LASF95
 1488 067d 0B       		.byte	0xb
 1489 067e 6202     		.2byte	0x262
 1490 0680 74030000 		.4byte	0x374
 1491 0684 0C02     		.2byte	0x20c
 1492 0686 17       		.uleb128 0x17
 1493 0687 99040000 		.4byte	.LASF96
 1494 068b 0B       		.byte	0xb
 1495 068c 6302     		.2byte	0x263
 1496 068e C3000000 		.4byte	0xc3
 1497 0692 1002     		.2byte	0x210
 1498 0694 17       		.uleb128 0x17
 1499 0695 59040000 		.4byte	.LASF97
 1500 0699 0B       		.byte	0xb
 1501 069a 6402     		.2byte	0x264
 1502 069c 74030000 		.4byte	0x374
 1503 06a0 1402     		.2byte	0x214
 1504 06a2 17       		.uleb128 0x17
 1505 06a3 A3040000 		.4byte	.LASF98
 1506 06a7 0B       		.byte	0xb
 1507 06a8 6502     		.2byte	0x265
 1508 06aa C3000000 		.4byte	0xc3
 1509 06ae 1802     		.2byte	0x218
 1510 06b0 17       		.uleb128 0x17
 1511 06b1 BC030000 		.4byte	.LASF99
 1512 06b5 0B       		.byte	0xb
 1513 06b6 6602     		.2byte	0x266
 1514 06b8 74030000 		.4byte	0x374
 1515 06bc 1C02     		.2byte	0x21c
 1516 06be 17       		.uleb128 0x17
ARM GAS  /tmp/cceMFToX.s 			page 28


 1517 06bf 76050000 		.4byte	.LASF100
 1518 06c3 0B       		.byte	0xb
 1519 06c4 6702     		.2byte	0x267
 1520 06c6 BC040000 		.4byte	0x4bc
 1521 06ca 2002     		.2byte	0x220
 1522 06cc 17       		.uleb128 0x17
 1523 06cd BD020000 		.4byte	.LASF101
 1524 06d1 0B       		.byte	0xb
 1525 06d2 6802     		.2byte	0x268
 1526 06d4 1B070000 		.4byte	0x71b
 1527 06d8 4002     		.2byte	0x240
 1528 06da 00       		.byte	0
 1529 06db 11       		.uleb128 0x11
 1530 06dc C3000000 		.4byte	0xc3
 1531 06e0 EB060000 		.4byte	0x6eb
 1532 06e4 12       		.uleb128 0x12
 1533 06e5 79030000 		.4byte	0x379
 1534 06e9 57       		.byte	0x57
 1535 06ea 00       		.byte	0
 1536 06eb 11       		.uleb128 0x11
 1537 06ec 1F050000 		.4byte	0x51f
 1538 06f0 FB060000 		.4byte	0x6fb
 1539 06f4 12       		.uleb128 0x12
 1540 06f5 79030000 		.4byte	0x379
 1541 06f9 02       		.byte	0x2
 1542 06fa 00       		.byte	0
 1543 06fb 11       		.uleb128 0x11
 1544 06fc 69050000 		.4byte	0x569
 1545 0700 0B070000 		.4byte	0x70b
 1546 0704 12       		.uleb128 0x12
 1547 0705 79030000 		.4byte	0x379
 1548 0709 01       		.byte	0x1
 1549 070a 00       		.byte	0
 1550 070b 11       		.uleb128 0x11
 1551 070c C3000000 		.4byte	0xc3
 1552 0710 1B070000 		.4byte	0x71b
 1553 0714 12       		.uleb128 0x12
 1554 0715 79030000 		.4byte	0x379
 1555 0719 0B       		.byte	0xb
 1556 071a 00       		.byte	0
 1557 071b 11       		.uleb128 0x11
 1558 071c 99050000 		.4byte	0x599
 1559 0720 2B070000 		.4byte	0x72b
 1560 0724 12       		.uleb128 0x12
 1561 0725 79030000 		.4byte	0x379
 1562 0729 1B       		.byte	0x1b
 1563 072a 00       		.byte	0
 1564 072b 15       		.uleb128 0x15
 1565 072c 73000000 		.4byte	.LASF102
 1566 0730 0B       		.byte	0xb
 1567 0731 6902     		.2byte	0x269
 1568 0733 A5050000 		.4byte	0x5a5
 1569 0737 19       		.uleb128 0x19
 1570 0738 01       		.byte	0x1
 1571 0739 0C       		.byte	0xc
 1572 073a 6E       		.byte	0x6e
 1573 073b 5E070000 		.4byte	0x75e
ARM GAS  /tmp/cceMFToX.s 			page 29


 1574 073f 1A       		.uleb128 0x1a
 1575 0740 C4040000 		.4byte	.LASF103
 1576 0744 00       		.sleb128 0
 1577 0745 1A       		.uleb128 0x1a
 1578 0746 50040000 		.4byte	.LASF104
 1579 074a 01       		.sleb128 1
 1580 074b 1A       		.uleb128 0x1a
 1581 074c D3000000 		.4byte	.LASF105
 1582 0750 02       		.sleb128 2
 1583 0751 1A       		.uleb128 0x1a
 1584 0752 A0010000 		.4byte	.LASF106
 1585 0756 03       		.sleb128 3
 1586 0757 1A       		.uleb128 0x1a
 1587 0758 D6030000 		.4byte	.LASF107
 1588 075c 04       		.sleb128 4
 1589 075d 00       		.byte	0
 1590 075e 04       		.uleb128 0x4
 1591 075f 45040000 		.4byte	.LASF108
 1592 0763 0C       		.byte	0xc
 1593 0764 74       		.byte	0x74
 1594 0765 37070000 		.4byte	0x737
 1595 0769 04       		.uleb128 0x4
 1596 076a C7060000 		.4byte	.LASF109
 1597 076e 0D       		.byte	0xd
 1598 076f 92       		.byte	0x92
 1599 0770 C3000000 		.4byte	0xc3
 1600 0774 08       		.uleb128 0x8
 1601 0775 01       		.byte	0x1
 1602 0776 0D       		.byte	0xd
 1603 0777 9A       		.byte	0x9a
 1604 0778 AA070000 		.4byte	0x7aa
 1605 077c 1B       		.uleb128 0x1b
 1606 077d 444C4300 		.ascii	"DLC\000"
 1607 0781 0D       		.byte	0xd
 1608 0782 9B       		.byte	0x9b
 1609 0783 A2000000 		.4byte	0xa2
 1610 0787 01       		.byte	0x1
 1611 0788 04       		.byte	0x4
 1612 0789 04       		.byte	0x4
 1613 078a 00       		.byte	0
 1614 078b 1B       		.uleb128 0x1b
 1615 078c 52545200 		.ascii	"RTR\000"
 1616 0790 0D       		.byte	0xd
 1617 0791 9C       		.byte	0x9c
 1618 0792 A2000000 		.4byte	0xa2
 1619 0796 01       		.byte	0x1
 1620 0797 01       		.byte	0x1
 1621 0798 03       		.byte	0x3
 1622 0799 00       		.byte	0
 1623 079a 1B       		.uleb128 0x1b
 1624 079b 49444500 		.ascii	"IDE\000"
 1625 079f 0D       		.byte	0xd
 1626 07a0 9D       		.byte	0x9d
 1627 07a1 A2000000 		.4byte	0xa2
 1628 07a5 01       		.byte	0x1
 1629 07a6 01       		.byte	0x1
 1630 07a7 02       		.byte	0x2
ARM GAS  /tmp/cceMFToX.s 			page 30


 1631 07a8 00       		.byte	0
 1632 07a9 00       		.byte	0
 1633 07aa 08       		.uleb128 0x8
 1634 07ab 04       		.byte	0x4
 1635 07ac 0D       		.byte	0xd
 1636 07ad A0       		.byte	0xa0
 1637 07ae C2070000 		.4byte	0x7c2
 1638 07b2 1B       		.uleb128 0x1b
 1639 07b3 53494400 		.ascii	"SID\000"
 1640 07b7 0D       		.byte	0xd
 1641 07b8 A1       		.byte	0xa1
 1642 07b9 C3000000 		.4byte	0xc3
 1643 07bd 04       		.byte	0x4
 1644 07be 0B       		.byte	0xb
 1645 07bf 15       		.byte	0x15
 1646 07c0 00       		.byte	0
 1647 07c1 00       		.byte	0
 1648 07c2 08       		.uleb128 0x8
 1649 07c3 04       		.byte	0x4
 1650 07c4 0D       		.byte	0xd
 1651 07c5 A3       		.byte	0xa3
 1652 07c6 DA070000 		.4byte	0x7da
 1653 07ca 1B       		.uleb128 0x1b
 1654 07cb 45494400 		.ascii	"EID\000"
 1655 07cf 0D       		.byte	0xd
 1656 07d0 A4       		.byte	0xa4
 1657 07d1 C3000000 		.4byte	0xc3
 1658 07d5 04       		.byte	0x4
 1659 07d6 1D       		.byte	0x1d
 1660 07d7 03       		.byte	0x3
 1661 07d8 00       		.byte	0
 1662 07d9 00       		.byte	0
 1663 07da 0E       		.uleb128 0xe
 1664 07db 04       		.byte	0x4
 1665 07dc 0D       		.byte	0xd
 1666 07dd 9F       		.byte	0x9f
 1667 07de ED070000 		.4byte	0x7ed
 1668 07e2 1C       		.uleb128 0x1c
 1669 07e3 AA070000 		.4byte	0x7aa
 1670 07e7 1C       		.uleb128 0x1c
 1671 07e8 C2070000 		.4byte	0x7c2
 1672 07ec 00       		.byte	0
 1673 07ed 0E       		.uleb128 0xe
 1674 07ee 08       		.byte	0x8
 1675 07ef 0D       		.byte	0xd
 1676 07f0 A7       		.byte	0xa7
 1677 07f1 17080000 		.4byte	0x817
 1678 07f5 0F       		.uleb128 0xf
 1679 07f6 E0030000 		.4byte	.LASF110
 1680 07fa 0D       		.byte	0xd
 1681 07fb A8       		.byte	0xa8
 1682 07fc 17080000 		.4byte	0x817
 1683 0800 0F       		.uleb128 0xf
 1684 0801 42060000 		.4byte	.LASF111
 1685 0805 0D       		.byte	0xd
 1686 0806 A9       		.byte	0xa9
 1687 0807 27080000 		.4byte	0x827
ARM GAS  /tmp/cceMFToX.s 			page 31


 1688 080b 0F       		.uleb128 0xf
 1689 080c 9F000000 		.4byte	.LASF112
 1690 0810 0D       		.byte	0xd
 1691 0811 AA       		.byte	0xaa
 1692 0812 CC040000 		.4byte	0x4cc
 1693 0816 00       		.byte	0
 1694 0817 11       		.uleb128 0x11
 1695 0818 A2000000 		.4byte	0xa2
 1696 081c 27080000 		.4byte	0x827
 1697 0820 12       		.uleb128 0x12
 1698 0821 79030000 		.4byte	0x379
 1699 0825 07       		.byte	0x7
 1700 0826 00       		.byte	0
 1701 0827 11       		.uleb128 0x11
 1702 0828 AD000000 		.4byte	0xad
 1703 082c 37080000 		.4byte	0x837
 1704 0830 12       		.uleb128 0x12
 1705 0831 79030000 		.4byte	0x379
 1706 0835 03       		.byte	0x3
 1707 0836 00       		.byte	0
 1708 0837 08       		.uleb128 0x8
 1709 0838 10       		.byte	0x10
 1710 0839 0D       		.byte	0xd
 1711 083a 99       		.byte	0x99
 1712 083b 52080000 		.4byte	0x852
 1713 083f 1D       		.uleb128 0x1d
 1714 0840 74070000 		.4byte	0x774
 1715 0844 00       		.byte	0
 1716 0845 1D       		.uleb128 0x1d
 1717 0846 DA070000 		.4byte	0x7da
 1718 084a 04       		.byte	0x4
 1719 084b 1D       		.uleb128 0x1d
 1720 084c ED070000 		.4byte	0x7ed
 1721 0850 08       		.byte	0x8
 1722 0851 00       		.byte	0
 1723 0852 04       		.uleb128 0x4
 1724 0853 5C020000 		.4byte	.LASF113
 1725 0857 0D       		.byte	0xd
 1726 0858 AC       		.byte	0xac
 1727 0859 37080000 		.4byte	0x837
 1728 085d 08       		.uleb128 0x8
 1729 085e 04       		.byte	0x4
 1730 085f 0D       		.byte	0xd
 1731 0860 B4       		.byte	0xb4
 1732 0861 7E080000 		.4byte	0x87e
 1733 0865 07       		.uleb128 0x7
 1734 0866 464D4900 		.ascii	"FMI\000"
 1735 086a 0D       		.byte	0xd
 1736 086b B5       		.byte	0xb5
 1737 086c A2000000 		.4byte	0xa2
 1738 0870 00       		.byte	0
 1739 0871 06       		.uleb128 0x6
 1740 0872 F8010000 		.4byte	.LASF114
 1741 0876 0D       		.byte	0xd
 1742 0877 B6       		.byte	0xb6
 1743 0878 AD000000 		.4byte	0xad
 1744 087c 02       		.byte	0x2
ARM GAS  /tmp/cceMFToX.s 			page 32


 1745 087d 00       		.byte	0
 1746 087e 08       		.uleb128 0x8
 1747 087f 01       		.byte	0x1
 1748 0880 0D       		.byte	0xd
 1749 0881 B8       		.byte	0xb8
 1750 0882 B4080000 		.4byte	0x8b4
 1751 0886 1B       		.uleb128 0x1b
 1752 0887 444C4300 		.ascii	"DLC\000"
 1753 088b 0D       		.byte	0xd
 1754 088c B9       		.byte	0xb9
 1755 088d A2000000 		.4byte	0xa2
 1756 0891 01       		.byte	0x1
 1757 0892 04       		.byte	0x4
 1758 0893 04       		.byte	0x4
 1759 0894 00       		.byte	0
 1760 0895 1B       		.uleb128 0x1b
 1761 0896 52545200 		.ascii	"RTR\000"
 1762 089a 0D       		.byte	0xd
 1763 089b BA       		.byte	0xba
 1764 089c A2000000 		.4byte	0xa2
 1765 08a0 01       		.byte	0x1
 1766 08a1 01       		.byte	0x1
 1767 08a2 03       		.byte	0x3
 1768 08a3 00       		.byte	0
 1769 08a4 1B       		.uleb128 0x1b
 1770 08a5 49444500 		.ascii	"IDE\000"
 1771 08a9 0D       		.byte	0xd
 1772 08aa BB       		.byte	0xbb
 1773 08ab A2000000 		.4byte	0xa2
 1774 08af 01       		.byte	0x1
 1775 08b0 01       		.byte	0x1
 1776 08b1 02       		.byte	0x2
 1777 08b2 00       		.byte	0
 1778 08b3 00       		.byte	0
 1779 08b4 08       		.uleb128 0x8
 1780 08b5 04       		.byte	0x4
 1781 08b6 0D       		.byte	0xd
 1782 08b7 BE       		.byte	0xbe
 1783 08b8 CC080000 		.4byte	0x8cc
 1784 08bc 1B       		.uleb128 0x1b
 1785 08bd 53494400 		.ascii	"SID\000"
 1786 08c1 0D       		.byte	0xd
 1787 08c2 BF       		.byte	0xbf
 1788 08c3 C3000000 		.4byte	0xc3
 1789 08c7 04       		.byte	0x4
 1790 08c8 0B       		.byte	0xb
 1791 08c9 15       		.byte	0x15
 1792 08ca 00       		.byte	0
 1793 08cb 00       		.byte	0
 1794 08cc 08       		.uleb128 0x8
 1795 08cd 04       		.byte	0x4
 1796 08ce 0D       		.byte	0xd
 1797 08cf C1       		.byte	0xc1
 1798 08d0 E4080000 		.4byte	0x8e4
 1799 08d4 1B       		.uleb128 0x1b
 1800 08d5 45494400 		.ascii	"EID\000"
 1801 08d9 0D       		.byte	0xd
ARM GAS  /tmp/cceMFToX.s 			page 33


 1802 08da C2       		.byte	0xc2
 1803 08db C3000000 		.4byte	0xc3
 1804 08df 04       		.byte	0x4
 1805 08e0 1D       		.byte	0x1d
 1806 08e1 03       		.byte	0x3
 1807 08e2 00       		.byte	0
 1808 08e3 00       		.byte	0
 1809 08e4 0E       		.uleb128 0xe
 1810 08e5 04       		.byte	0x4
 1811 08e6 0D       		.byte	0xd
 1812 08e7 BD       		.byte	0xbd
 1813 08e8 F7080000 		.4byte	0x8f7
 1814 08ec 1C       		.uleb128 0x1c
 1815 08ed B4080000 		.4byte	0x8b4
 1816 08f1 1C       		.uleb128 0x1c
 1817 08f2 CC080000 		.4byte	0x8cc
 1818 08f6 00       		.byte	0
 1819 08f7 0E       		.uleb128 0xe
 1820 08f8 08       		.byte	0x8
 1821 08f9 0D       		.byte	0xd
 1822 08fa C5       		.byte	0xc5
 1823 08fb 21090000 		.4byte	0x921
 1824 08ff 0F       		.uleb128 0xf
 1825 0900 E0030000 		.4byte	.LASF110
 1826 0904 0D       		.byte	0xd
 1827 0905 C6       		.byte	0xc6
 1828 0906 17080000 		.4byte	0x817
 1829 090a 0F       		.uleb128 0xf
 1830 090b 42060000 		.4byte	.LASF111
 1831 090f 0D       		.byte	0xd
 1832 0910 C7       		.byte	0xc7
 1833 0911 27080000 		.4byte	0x827
 1834 0915 0F       		.uleb128 0xf
 1835 0916 9F000000 		.4byte	.LASF112
 1836 091a 0D       		.byte	0xd
 1837 091b C8       		.byte	0xc8
 1838 091c CC040000 		.4byte	0x4cc
 1839 0920 00       		.byte	0
 1840 0921 08       		.uleb128 0x8
 1841 0922 14       		.byte	0x14
 1842 0923 0D       		.byte	0xd
 1843 0924 B3       		.byte	0xb3
 1844 0925 42090000 		.4byte	0x942
 1845 0929 1D       		.uleb128 0x1d
 1846 092a 5D080000 		.4byte	0x85d
 1847 092e 00       		.byte	0
 1848 092f 1D       		.uleb128 0x1d
 1849 0930 7E080000 		.4byte	0x87e
 1850 0934 04       		.byte	0x4
 1851 0935 1D       		.uleb128 0x1d
 1852 0936 E4080000 		.4byte	0x8e4
 1853 093a 08       		.byte	0x8
 1854 093b 1D       		.uleb128 0x1d
 1855 093c F7080000 		.4byte	0x8f7
 1856 0940 0C       		.byte	0xc
 1857 0941 00       		.byte	0
 1858 0942 04       		.uleb128 0x4
ARM GAS  /tmp/cceMFToX.s 			page 34


 1859 0943 3C000000 		.4byte	.LASF115
 1860 0947 0D       		.byte	0xd
 1861 0948 CA       		.byte	0xca
 1862 0949 21090000 		.4byte	0x921
 1863 094d 08       		.uleb128 0x8
 1864 094e 08       		.byte	0x8
 1865 094f 0D       		.byte	0xd
 1866 0950 F4       		.byte	0xf4
 1867 0951 6F090000 		.4byte	0x96f
 1868 0955 07       		.uleb128 0x7
 1869 0956 6D637200 		.ascii	"mcr\000"
 1870 095a 0D       		.byte	0xd
 1871 095b FA       		.byte	0xfa
 1872 095c C3000000 		.4byte	0xc3
 1873 0960 00       		.byte	0
 1874 0961 0C       		.uleb128 0xc
 1875 0962 62747200 		.ascii	"btr\000"
 1876 0966 0D       		.byte	0xd
 1877 0967 0001     		.2byte	0x100
 1878 0969 C3000000 		.4byte	0xc3
 1879 096d 04       		.byte	0x4
 1880 096e 00       		.byte	0
 1881 096f 15       		.uleb128 0x15
 1882 0970 69000000 		.4byte	.LASF116
 1883 0974 0D       		.byte	0xd
 1884 0975 0101     		.2byte	0x101
 1885 0977 4D090000 		.4byte	0x94d
 1886 097b 13       		.uleb128 0x13
 1887 097c 38       		.byte	0x38
 1888 097d 0D       		.byte	0xd
 1889 097e 0601     		.2byte	0x106
 1890 0980 070A0000 		.4byte	0xa07
 1891 0984 14       		.uleb128 0x14
 1892 0985 1D010000 		.4byte	.LASF117
 1893 0989 0D       		.byte	0xd
 1894 098a 0A01     		.2byte	0x10a
 1895 098c 5E070000 		.4byte	0x75e
 1896 0990 00       		.byte	0
 1897 0991 14       		.uleb128 0x14
 1898 0992 B3050000 		.4byte	.LASF118
 1899 0996 0D       		.byte	0xd
 1900 0997 0E01     		.2byte	0x10e
 1901 0999 070A0000 		.4byte	0xa07
 1902 099d 04       		.byte	0x4
 1903 099e 14       		.uleb128 0x14
 1904 099f FF000000 		.4byte	.LASF119
 1905 09a3 0D       		.byte	0xd
 1906 09a4 1201     		.2byte	0x112
 1907 09a6 AA030000 		.4byte	0x3aa
 1908 09aa 08       		.byte	0x8
 1909 09ab 14       		.uleb128 0x14
 1910 09ac 89060000 		.4byte	.LASF120
 1911 09b0 0D       		.byte	0xd
 1912 09b1 1601     		.2byte	0x116
 1913 09b3 AA030000 		.4byte	0x3aa
 1914 09b7 14       		.byte	0x14
 1915 09b8 14       		.uleb128 0x14
ARM GAS  /tmp/cceMFToX.s 			page 35


 1916 09b9 D7010000 		.4byte	.LASF121
 1917 09bd 0D       		.byte	0xd
 1918 09be 2301     		.2byte	0x123
 1919 09c0 5E040000 		.4byte	0x45e
 1920 09c4 20       		.byte	0x20
 1921 09c5 14       		.uleb128 0x14
 1922 09c6 8E050000 		.4byte	.LASF122
 1923 09ca 0D       		.byte	0xd
 1924 09cb 2A01     		.2byte	0x12a
 1925 09cd 5E040000 		.4byte	0x45e
 1926 09d1 24       		.byte	0x24
 1927 09d2 14       		.uleb128 0x14
 1928 09d3 6A040000 		.4byte	.LASF123
 1929 09d7 0D       		.byte	0xd
 1930 09d8 3001     		.2byte	0x130
 1931 09da 5E040000 		.4byte	0x45e
 1932 09de 28       		.byte	0x28
 1933 09df 14       		.uleb128 0x14
 1934 09e0 39040000 		.4byte	.LASF124
 1935 09e4 0D       		.byte	0xd
 1936 09e5 3501     		.2byte	0x135
 1937 09e7 5E040000 		.4byte	0x45e
 1938 09eb 2C       		.byte	0x2c
 1939 09ec 14       		.uleb128 0x14
 1940 09ed EB040000 		.4byte	.LASF125
 1941 09f1 0D       		.byte	0xd
 1942 09f2 3901     		.2byte	0x139
 1943 09f4 5E040000 		.4byte	0x45e
 1944 09f8 30       		.byte	0x30
 1945 09f9 0C       		.uleb128 0xc
 1946 09fa 63616E00 		.ascii	"can\000"
 1947 09fe 0D       		.byte	0xd
 1948 09ff 3F01     		.2byte	0x13f
 1949 0a01 120A0000 		.4byte	0xa12
 1950 0a05 34       		.byte	0x34
 1951 0a06 00       		.byte	0
 1952 0a07 09       		.uleb128 0x9
 1953 0a08 04       		.byte	0x4
 1954 0a09 0D0A0000 		.4byte	0xa0d
 1955 0a0d 10       		.uleb128 0x10
 1956 0a0e 6F090000 		.4byte	0x96f
 1957 0a12 09       		.uleb128 0x9
 1958 0a13 04       		.byte	0x4
 1959 0a14 2B070000 		.4byte	0x72b
 1960 0a18 15       		.uleb128 0x15
 1961 0a19 ED030000 		.4byte	.LASF126
 1962 0a1d 0D       		.byte	0xd
 1963 0a1e 4001     		.2byte	0x140
 1964 0a20 7B090000 		.4byte	0x97b
 1965 0a24 1E       		.uleb128 0x1e
 1966 0a25 4E000000 		.4byte	.LASF127
 1967 0a29 01       		.byte	0x1
 1968 0a2a 44       		.byte	0x44
 1969 0a2b 00000000 		.4byte	.LFB118
 1970 0a2f 08000000 		.4byte	.LFE118-.LFB118
 1971 0a33 01       		.uleb128 0x1
 1972 0a34 9C       		.byte	0x9c
ARM GAS  /tmp/cceMFToX.s 			page 36


 1973 0a35 430A0000 		.4byte	0xa43
 1974 0a39 1F       		.uleb128 0x1f
 1975 0a3a 06000000 		.4byte	.LVL0
 1976 0a3e 5A100000 		.4byte	0x105a
 1977 0a42 00       		.byte	0
 1978 0a43 1E       		.uleb128 0x1e
 1979 0a44 05010000 		.4byte	.LASF128
 1980 0a48 01       		.byte	0x1
 1981 0a49 50       		.byte	0x50
 1982 0a4a 00000000 		.4byte	.LFB119
 1983 0a4e 3E000000 		.4byte	.LFE119-.LFB119
 1984 0a52 01       		.uleb128 0x1
 1985 0a53 9C       		.byte	0x9c
 1986 0a54 980A0000 		.4byte	0xa98
 1987 0a58 20       		.uleb128 0x20
 1988 0a59 80050000 		.4byte	.LASF130
 1989 0a5d 01       		.byte	0x1
 1990 0a5e 50       		.byte	0x50
 1991 0a5f 980A0000 		.4byte	0xa98
 1992 0a63 00000000 		.4byte	.LLST0
 1993 0a67 21       		.uleb128 0x21
 1994 0a68 14000000 		.4byte	.LVL3
 1995 0a6c 62100000 		.4byte	0x1062
 1996 0a70 810A0000 		.4byte	0xa81
 1997 0a74 22       		.uleb128 0x22
 1998 0a75 01       		.uleb128 0x1
 1999 0a76 51       		.byte	0x51
 2000 0a77 02       		.uleb128 0x2
 2001 0a78 75       		.byte	0x75
 2002 0a79 00       		.sleb128 0
 2003 0a7a 22       		.uleb128 0x22
 2004 0a7b 01       		.uleb128 0x1
 2005 0a7c 50       		.byte	0x50
 2006 0a7d 02       		.uleb128 0x2
 2007 0a7e 74       		.byte	0x74
 2008 0a7f 08       		.sleb128 8
 2009 0a80 00       		.byte	0
 2010 0a81 23       		.uleb128 0x23
 2011 0a82 1E000000 		.4byte	.LVL4
 2012 0a86 62100000 		.4byte	0x1062
 2013 0a8a 22       		.uleb128 0x22
 2014 0a8b 01       		.uleb128 0x1
 2015 0a8c 51       		.byte	0x51
 2016 0a8d 02       		.uleb128 0x2
 2017 0a8e 75       		.byte	0x75
 2018 0a8f 00       		.sleb128 0
 2019 0a90 22       		.uleb128 0x22
 2020 0a91 01       		.uleb128 0x1
 2021 0a92 50       		.byte	0x50
 2022 0a93 02       		.uleb128 0x2
 2023 0a94 74       		.byte	0x74
 2024 0a95 14       		.sleb128 20
 2025 0a96 00       		.byte	0
 2026 0a97 00       		.byte	0
 2027 0a98 09       		.uleb128 0x9
 2028 0a99 04       		.byte	0x4
 2029 0a9a 180A0000 		.4byte	0xa18
ARM GAS  /tmp/cceMFToX.s 			page 37


 2030 0a9e 1E       		.uleb128 0x1e
 2031 0a9f BD010000 		.4byte	.LASF129
 2032 0aa3 01       		.byte	0x1
 2033 0aa4 6B       		.byte	0x6b
 2034 0aa5 00000000 		.4byte	.LFB120
 2035 0aa9 50000000 		.4byte	.LFE120-.LFB120
 2036 0aad 01       		.uleb128 0x1
 2037 0aae 9C       		.byte	0x9c
 2038 0aaf 5D0B0000 		.4byte	0xb5d
 2039 0ab3 20       		.uleb128 0x20
 2040 0ab4 80050000 		.4byte	.LASF130
 2041 0ab8 01       		.byte	0x1
 2042 0ab9 6B       		.byte	0x6b
 2043 0aba 980A0000 		.4byte	0xa98
 2044 0abe 1E000000 		.4byte	.LLST1
 2045 0ac2 20       		.uleb128 0x20
 2046 0ac3 B3050000 		.4byte	.LASF118
 2047 0ac7 01       		.byte	0x1
 2048 0ac8 6B       		.byte	0x6b
 2049 0ac9 070A0000 		.4byte	0xa07
 2050 0acd 4A000000 		.4byte	.LLST2
 2051 0ad1 24       		.uleb128 0x24
 2052 0ad2 06000000 		.4byte	.LBB2
 2053 0ad6 06000000 		.4byte	.LBE2-.LBB2
 2054 0ada EC0A0000 		.4byte	0xaec
 2055 0ade 25       		.uleb128 0x25
 2056 0adf 746D7000 		.ascii	"tmp\000"
 2057 0ae3 01       		.byte	0x1
 2058 0ae4 6F       		.byte	0x6f
 2059 0ae5 C3000000 		.4byte	0xc3
 2060 0ae9 01       		.uleb128 0x1
 2061 0aea 53       		.byte	0x53
 2062 0aeb 00       		.byte	0
 2063 0aec 24       		.uleb128 0x24
 2064 0aed 44000000 		.4byte	.LBB3
 2065 0af1 0C000000 		.4byte	.LBE3-.LBB3
 2066 0af5 070B0000 		.4byte	0xb07
 2067 0af9 25       		.uleb128 0x25
 2068 0afa 746D7000 		.ascii	"tmp\000"
 2069 0afe 01       		.byte	0x1
 2070 0aff 7B       		.byte	0x7b
 2071 0b00 C3000000 		.4byte	0xc3
 2072 0b04 01       		.uleb128 0x1
 2073 0b05 53       		.byte	0x53
 2074 0b06 00       		.byte	0
 2075 0b07 1F       		.uleb128 0x1f
 2076 0b08 10000000 		.4byte	.LVL6
 2077 0b0c 7E100000 		.4byte	0x107e
 2078 0b10 21       		.uleb128 0x21
 2079 0b11 20000000 		.4byte	.LVL7
 2080 0b15 85100000 		.4byte	0x1085
 2081 0b19 270B0000 		.4byte	0xb27
 2082 0b1d 22       		.uleb128 0x22
 2083 0b1e 01       		.uleb128 0x1
 2084 0b1f 50       		.byte	0x50
 2085 0b20 05       		.uleb128 0x5
 2086 0b21 03       		.byte	0x3
ARM GAS  /tmp/cceMFToX.s 			page 38


 2087 0b22 00000000 		.4byte	.LC0
 2088 0b26 00       		.byte	0
 2089 0b27 21       		.uleb128 0x21
 2090 0b28 2A000000 		.4byte	.LVL8
 2091 0b2c 96100000 		.4byte	0x1096
 2092 0b30 3F0B0000 		.4byte	0xb3f
 2093 0b34 22       		.uleb128 0x22
 2094 0b35 01       		.uleb128 0x1
 2095 0b36 51       		.byte	0x51
 2096 0b37 01       		.uleb128 0x1
 2097 0b38 31       		.byte	0x31
 2098 0b39 22       		.uleb128 0x22
 2099 0b3a 01       		.uleb128 0x1
 2100 0b3b 50       		.byte	0x50
 2101 0b3c 01       		.uleb128 0x1
 2102 0b3d 36       		.byte	0x36
 2103 0b3e 00       		.byte	0
 2104 0b3f 21       		.uleb128 0x21
 2105 0b40 3C000000 		.4byte	.LVL9
 2106 0b44 B0100000 		.4byte	0x10b0
 2107 0b48 530B0000 		.4byte	0xb53
 2108 0b4c 22       		.uleb128 0x22
 2109 0b4d 01       		.uleb128 0x1
 2110 0b4e 50       		.byte	0x50
 2111 0b4f 02       		.uleb128 0x2
 2112 0b50 74       		.byte	0x74
 2113 0b51 00       		.sleb128 0
 2114 0b52 00       		.byte	0
 2115 0b53 1F       		.uleb128 0x1f
 2116 0b54 44000000 		.4byte	.LVL10
 2117 0b58 C2100000 		.4byte	0x10c2
 2118 0b5c 00       		.byte	0
 2119 0b5d 1E       		.uleb128 0x1e
 2120 0b5e BC040000 		.4byte	.LASF131
 2121 0b62 01       		.byte	0x1
 2122 0b63 85       		.byte	0x85
 2123 0b64 00000000 		.4byte	.LFB121
 2124 0b68 50000000 		.4byte	.LFE121-.LFB121
 2125 0b6c 01       		.uleb128 0x1
 2126 0b6d 9C       		.byte	0x9c
 2127 0b6e 300C0000 		.4byte	0xc30
 2128 0b72 20       		.uleb128 0x20
 2129 0b73 80050000 		.4byte	.LASF130
 2130 0b77 01       		.byte	0x1
 2131 0b78 85       		.byte	0x85
 2132 0b79 980A0000 		.4byte	0xa98
 2133 0b7d 76000000 		.4byte	.LLST3
 2134 0b81 24       		.uleb128 0x24
 2135 0b82 04000000 		.4byte	.LBB4
 2136 0b86 06000000 		.4byte	.LBE4-.LBB4
 2137 0b8a 9C0B0000 		.4byte	0xb9c
 2138 0b8e 25       		.uleb128 0x25
 2139 0b8f 746D7000 		.ascii	"tmp\000"
 2140 0b93 01       		.byte	0x1
 2141 0b94 89       		.byte	0x89
 2142 0b95 C3000000 		.4byte	0xc3
 2143 0b99 01       		.uleb128 0x1
ARM GAS  /tmp/cceMFToX.s 			page 39


 2144 0b9a 53       		.byte	0x53
 2145 0b9b 00       		.byte	0
 2146 0b9c 24       		.uleb128 0x24
 2147 0b9d 44000000 		.4byte	.LBB5
 2148 0ba1 0C000000 		.4byte	.LBE5-.LBB5
 2149 0ba5 B70B0000 		.4byte	0xbb7
 2150 0ba9 25       		.uleb128 0x25
 2151 0baa 746D7000 		.ascii	"tmp\000"
 2152 0bae 01       		.byte	0x1
 2153 0baf 91       		.byte	0x91
 2154 0bb0 C3000000 		.4byte	0xc3
 2155 0bb4 01       		.uleb128 0x1
 2156 0bb5 53       		.byte	0x53
 2157 0bb6 00       		.byte	0
 2158 0bb7 1F       		.uleb128 0x1f
 2159 0bb8 0E000000 		.4byte	.LVL13
 2160 0bbc 7E100000 		.4byte	0x107e
 2161 0bc0 21       		.uleb128 0x21
 2162 0bc1 1E000000 		.4byte	.LVL14
 2163 0bc5 85100000 		.4byte	0x1085
 2164 0bc9 D70B0000 		.4byte	0xbd7
 2165 0bcd 22       		.uleb128 0x22
 2166 0bce 01       		.uleb128 0x1
 2167 0bcf 50       		.byte	0x50
 2168 0bd0 05       		.uleb128 0x5
 2169 0bd1 03       		.byte	0x3
 2170 0bd2 10000000 		.4byte	.LC1
 2171 0bd6 00       		.byte	0
 2172 0bd7 21       		.uleb128 0x21
 2173 0bd8 24000000 		.4byte	.LVL15
 2174 0bdc C9100000 		.4byte	0x10c9
 2175 0be0 EB0B0000 		.4byte	0xbeb
 2176 0be4 22       		.uleb128 0x22
 2177 0be5 01       		.uleb128 0x1
 2178 0be6 50       		.byte	0x50
 2179 0be7 02       		.uleb128 0x2
 2180 0be8 74       		.byte	0x74
 2181 0be9 00       		.sleb128 0
 2182 0bea 00       		.byte	0
 2183 0beb 21       		.uleb128 0x21
 2184 0bec 32000000 		.4byte	.LVL16
 2185 0bf0 DB100000 		.4byte	0x10db
 2186 0bf4 040C0000 		.4byte	0xc04
 2187 0bf8 22       		.uleb128 0x22
 2188 0bf9 01       		.uleb128 0x1
 2189 0bfa 51       		.byte	0x51
 2190 0bfb 01       		.uleb128 0x1
 2191 0bfc 30       		.byte	0x30
 2192 0bfd 22       		.uleb128 0x22
 2193 0bfe 01       		.uleb128 0x1
 2194 0bff 50       		.byte	0x50
 2195 0c00 02       		.uleb128 0x2
 2196 0c01 74       		.byte	0x74
 2197 0c02 14       		.sleb128 20
 2198 0c03 00       		.byte	0
 2199 0c04 21       		.uleb128 0x21
 2200 0c05 3C000000 		.4byte	.LVL17
ARM GAS  /tmp/cceMFToX.s 			page 40


 2201 0c09 DB100000 		.4byte	0x10db
 2202 0c0d 1D0C0000 		.4byte	0xc1d
 2203 0c11 22       		.uleb128 0x22
 2204 0c12 01       		.uleb128 0x1
 2205 0c13 51       		.byte	0x51
 2206 0c14 01       		.uleb128 0x1
 2207 0c15 30       		.byte	0x30
 2208 0c16 22       		.uleb128 0x22
 2209 0c17 01       		.uleb128 0x1
 2210 0c18 50       		.byte	0x50
 2211 0c19 02       		.uleb128 0x2
 2212 0c1a 74       		.byte	0x74
 2213 0c1b 08       		.sleb128 8
 2214 0c1c 00       		.byte	0
 2215 0c1d 1F       		.uleb128 0x1f
 2216 0c1e 40000000 		.4byte	.LVL18
 2217 0c22 F1100000 		.4byte	0x10f1
 2218 0c26 1F       		.uleb128 0x1f
 2219 0c27 44000000 		.4byte	.LVL19
 2220 0c2b C2100000 		.4byte	0x10c2
 2221 0c2f 00       		.byte	0
 2222 0c30 26       		.uleb128 0x26
 2223 0c31 C1030000 		.4byte	.LASF135
 2224 0c35 01       		.byte	0x1
 2225 0c36 A9       		.byte	0xa9
 2226 0c37 22010000 		.4byte	0x122
 2227 0c3b 00000000 		.4byte	.LFB122
 2228 0c3f 78000000 		.4byte	.LFE122-.LFB122
 2229 0c43 01       		.uleb128 0x1
 2230 0c44 9C       		.byte	0x9c
 2231 0c45 7A0D0000 		.4byte	0xd7a
 2232 0c49 20       		.uleb128 0x20
 2233 0c4a 80050000 		.4byte	.LASF130
 2234 0c4e 01       		.byte	0x1
 2235 0c4f A9       		.byte	0xa9
 2236 0c50 980A0000 		.4byte	0xa98
 2237 0c54 A2000000 		.4byte	.LLST4
 2238 0c58 20       		.uleb128 0x20
 2239 0c59 E0000000 		.4byte	.LASF132
 2240 0c5d 01       		.byte	0x1
 2241 0c5e AA       		.byte	0xaa
 2242 0c5f 69070000 		.4byte	0x769
 2243 0c63 CE000000 		.4byte	.LLST5
 2244 0c67 20       		.uleb128 0x20
 2245 0c68 8B010000 		.4byte	.LASF133
 2246 0c6c 01       		.byte	0x1
 2247 0c6d AB       		.byte	0xab
 2248 0c6e 7A0D0000 		.4byte	0xd7a
 2249 0c72 FA000000 		.4byte	.LLST6
 2250 0c76 20       		.uleb128 0x20
 2251 0c77 4F020000 		.4byte	.LASF134
 2252 0c7b 01       		.byte	0x1
 2253 0c7c AC       		.byte	0xac
 2254 0c7d 43010000 		.4byte	0x143
 2255 0c81 26010000 		.4byte	.LLST7
 2256 0c85 24       		.uleb128 0x24
 2257 0c86 0C000000 		.4byte	.LBB6
ARM GAS  /tmp/cceMFToX.s 			page 41


 2258 0c8a 06000000 		.4byte	.LBE6-.LBB6
 2259 0c8e A00C0000 		.4byte	0xca0
 2260 0c92 25       		.uleb128 0x25
 2261 0c93 746D7000 		.ascii	"tmp\000"
 2262 0c97 01       		.byte	0x1
 2263 0c98 B1       		.byte	0xb1
 2264 0c99 C3000000 		.4byte	0xc3
 2265 0c9d 01       		.uleb128 0x1
 2266 0c9e 53       		.byte	0x53
 2267 0c9f 00       		.byte	0
 2268 0ca0 24       		.uleb128 0x24
 2269 0ca1 28000000 		.4byte	.LBB7
 2270 0ca5 1E000000 		.4byte	.LBE7-.LBB7
 2271 0ca9 FB0C0000 		.4byte	0xcfb
 2272 0cad 27       		.uleb128 0x27
 2273 0cae 6D736700 		.ascii	"msg\000"
 2274 0cb2 01       		.byte	0x1
 2275 0cb3 B5       		.byte	0xb5
 2276 0cb4 22010000 		.4byte	0x122
 2277 0cb8 52010000 		.4byte	.LLST8
 2278 0cbc 24       		.uleb128 0x24
 2279 0cbd 3A000000 		.4byte	.LBB8
 2280 0cc1 06000000 		.4byte	.LBE8-.LBB8
 2281 0cc5 D70C0000 		.4byte	0xcd7
 2282 0cc9 25       		.uleb128 0x25
 2283 0cca 746D7000 		.ascii	"tmp\000"
 2284 0cce 01       		.byte	0x1
 2285 0ccf B7       		.byte	0xb7
 2286 0cd0 C3000000 		.4byte	0xc3
 2287 0cd4 01       		.uleb128 0x1
 2288 0cd5 53       		.byte	0x53
 2289 0cd6 00       		.byte	0
 2290 0cd7 21       		.uleb128 0x21
 2291 0cd8 32000000 		.4byte	.LVL25
 2292 0cdc F8100000 		.4byte	0x10f8
 2293 0ce0 F10C0000 		.4byte	0xcf1
 2294 0ce4 22       		.uleb128 0x22
 2295 0ce5 01       		.uleb128 0x1
 2296 0ce6 51       		.byte	0x51
 2297 0ce7 02       		.uleb128 0x2
 2298 0ce8 76       		.byte	0x76
 2299 0ce9 00       		.sleb128 0
 2300 0cea 22       		.uleb128 0x22
 2301 0ceb 01       		.uleb128 0x1
 2302 0cec 50       		.byte	0x50
 2303 0ced 02       		.uleb128 0x2
 2304 0cee 74       		.byte	0x74
 2305 0cef 08       		.sleb128 8
 2306 0cf0 00       		.byte	0
 2307 0cf1 1F       		.uleb128 0x1f
 2308 0cf2 3A000000 		.4byte	.LVL26
 2309 0cf6 C2100000 		.4byte	0x10c2
 2310 0cfa 00       		.byte	0
 2311 0cfb 24       		.uleb128 0x24
 2312 0cfc 66000000 		.4byte	.LBB9
 2313 0d00 06000000 		.4byte	.LBE9-.LBB9
 2314 0d04 160D0000 		.4byte	0xd16
ARM GAS  /tmp/cceMFToX.s 			page 42


 2315 0d08 25       		.uleb128 0x25
 2316 0d09 746D7000 		.ascii	"tmp\000"
 2317 0d0d 01       		.byte	0x1
 2318 0d0e BC       		.byte	0xbc
 2319 0d0f C3000000 		.4byte	0xc3
 2320 0d13 01       		.uleb128 0x1
 2321 0d14 53       		.byte	0x53
 2322 0d15 00       		.byte	0
 2323 0d16 1F       		.uleb128 0x1f
 2324 0d17 16000000 		.4byte	.LVL23
 2325 0d1b 7E100000 		.4byte	0x107e
 2326 0d1f 21       		.uleb128 0x21
 2327 0d20 26000000 		.4byte	.LVL24
 2328 0d24 85100000 		.4byte	0x1085
 2329 0d28 360D0000 		.4byte	0xd36
 2330 0d2c 22       		.uleb128 0x22
 2331 0d2d 01       		.uleb128 0x1
 2332 0d2e 50       		.byte	0x50
 2333 0d2f 05       		.uleb128 0x5
 2334 0d30 03       		.byte	0x3
 2335 0d31 20000000 		.4byte	.LC2
 2336 0d35 00       		.byte	0
 2337 0d36 21       		.uleb128 0x21
 2338 0d37 54000000 		.4byte	.LVL28
 2339 0d3b 12110000 		.4byte	0x1112
 2340 0d3f 500D0000 		.4byte	0xd50
 2341 0d43 22       		.uleb128 0x22
 2342 0d44 01       		.uleb128 0x1
 2343 0d45 51       		.byte	0x51
 2344 0d46 02       		.uleb128 0x2
 2345 0d47 77       		.byte	0x77
 2346 0d48 00       		.sleb128 0
 2347 0d49 22       		.uleb128 0x22
 2348 0d4a 01       		.uleb128 0x1
 2349 0d4b 50       		.byte	0x50
 2350 0d4c 02       		.uleb128 0x2
 2351 0d4d 74       		.byte	0x74
 2352 0d4e 00       		.sleb128 0
 2353 0d4f 00       		.byte	0
 2354 0d50 21       		.uleb128 0x21
 2355 0d51 62000000 		.4byte	.LVL29
 2356 0d55 2D110000 		.4byte	0x112d
 2357 0d59 700D0000 		.4byte	0xd70
 2358 0d5d 22       		.uleb128 0x22
 2359 0d5e 01       		.uleb128 0x1
 2360 0d5f 52       		.byte	0x52
 2361 0d60 02       		.uleb128 0x2
 2362 0d61 78       		.byte	0x78
 2363 0d62 00       		.sleb128 0
 2364 0d63 22       		.uleb128 0x22
 2365 0d64 01       		.uleb128 0x1
 2366 0d65 51       		.byte	0x51
 2367 0d66 02       		.uleb128 0x2
 2368 0d67 77       		.byte	0x77
 2369 0d68 00       		.sleb128 0
 2370 0d69 22       		.uleb128 0x22
 2371 0d6a 01       		.uleb128 0x1
ARM GAS  /tmp/cceMFToX.s 			page 43


 2372 0d6b 50       		.byte	0x50
 2373 0d6c 02       		.uleb128 0x2
 2374 0d6d 74       		.byte	0x74
 2375 0d6e 00       		.sleb128 0
 2376 0d6f 00       		.byte	0
 2377 0d70 1F       		.uleb128 0x1f
 2378 0d71 66000000 		.4byte	.LVL30
 2379 0d75 C2100000 		.4byte	0x10c2
 2380 0d79 00       		.byte	0
 2381 0d7a 09       		.uleb128 0x9
 2382 0d7b 04       		.byte	0x4
 2383 0d7c 800D0000 		.4byte	0xd80
 2384 0d80 10       		.uleb128 0x10
 2385 0d81 52080000 		.4byte	0x852
 2386 0d85 26       		.uleb128 0x26
 2387 0d86 A6000000 		.4byte	.LASF136
 2388 0d8a 01       		.byte	0x1
 2389 0d8b D6       		.byte	0xd6
 2390 0d8c 22010000 		.4byte	0x122
 2391 0d90 00000000 		.4byte	.LFB123
 2392 0d94 78000000 		.4byte	.LFE123-.LFB123
 2393 0d98 01       		.uleb128 0x1
 2394 0d99 9C       		.byte	0x9c
 2395 0d9a CF0E0000 		.4byte	0xecf
 2396 0d9e 20       		.uleb128 0x20
 2397 0d9f 80050000 		.4byte	.LASF130
 2398 0da3 01       		.byte	0x1
 2399 0da4 D6       		.byte	0xd6
 2400 0da5 980A0000 		.4byte	0xa98
 2401 0da9 70010000 		.4byte	.LLST9
 2402 0dad 20       		.uleb128 0x20
 2403 0dae E0000000 		.4byte	.LASF132
 2404 0db2 01       		.byte	0x1
 2405 0db3 D7       		.byte	0xd7
 2406 0db4 69070000 		.4byte	0x769
 2407 0db8 9C010000 		.4byte	.LLST10
 2408 0dbc 20       		.uleb128 0x20
 2409 0dbd 76040000 		.4byte	.LASF137
 2410 0dc1 01       		.byte	0x1
 2411 0dc2 D8       		.byte	0xd8
 2412 0dc3 CF0E0000 		.4byte	0xecf
 2413 0dc7 C8010000 		.4byte	.LLST11
 2414 0dcb 20       		.uleb128 0x20
 2415 0dcc 4F020000 		.4byte	.LASF134
 2416 0dd0 01       		.byte	0x1
 2417 0dd1 D9       		.byte	0xd9
 2418 0dd2 43010000 		.4byte	0x143
 2419 0dd6 F4010000 		.4byte	.LLST12
 2420 0dda 24       		.uleb128 0x24
 2421 0ddb 0C000000 		.4byte	.LBB10
 2422 0ddf 06000000 		.4byte	.LBE10-.LBB10
 2423 0de3 F50D0000 		.4byte	0xdf5
 2424 0de7 25       		.uleb128 0x25
 2425 0de8 746D7000 		.ascii	"tmp\000"
 2426 0dec 01       		.byte	0x1
 2427 0ded DE       		.byte	0xde
 2428 0dee C3000000 		.4byte	0xc3
ARM GAS  /tmp/cceMFToX.s 			page 44


 2429 0df2 01       		.uleb128 0x1
 2430 0df3 53       		.byte	0x53
 2431 0df4 00       		.byte	0
 2432 0df5 24       		.uleb128 0x24
 2433 0df6 28000000 		.4byte	.LBB11
 2434 0dfa 1E000000 		.4byte	.LBE11-.LBB11
 2435 0dfe 500E0000 		.4byte	0xe50
 2436 0e02 27       		.uleb128 0x27
 2437 0e03 6D736700 		.ascii	"msg\000"
 2438 0e07 01       		.byte	0x1
 2439 0e08 E2       		.byte	0xe2
 2440 0e09 22010000 		.4byte	0x122
 2441 0e0d 20020000 		.4byte	.LLST13
 2442 0e11 24       		.uleb128 0x24
 2443 0e12 3A000000 		.4byte	.LBB12
 2444 0e16 06000000 		.4byte	.LBE12-.LBB12
 2445 0e1a 2C0E0000 		.4byte	0xe2c
 2446 0e1e 25       		.uleb128 0x25
 2447 0e1f 746D7000 		.ascii	"tmp\000"
 2448 0e23 01       		.byte	0x1
 2449 0e24 E4       		.byte	0xe4
 2450 0e25 C3000000 		.4byte	0xc3
 2451 0e29 01       		.uleb128 0x1
 2452 0e2a 53       		.byte	0x53
 2453 0e2b 00       		.byte	0
 2454 0e2c 21       		.uleb128 0x21
 2455 0e2d 32000000 		.4byte	.LVL36
 2456 0e31 F8100000 		.4byte	0x10f8
 2457 0e35 460E0000 		.4byte	0xe46
 2458 0e39 22       		.uleb128 0x22
 2459 0e3a 01       		.uleb128 0x1
 2460 0e3b 51       		.byte	0x51
 2461 0e3c 02       		.uleb128 0x2
 2462 0e3d 76       		.byte	0x76
 2463 0e3e 00       		.sleb128 0
 2464 0e3f 22       		.uleb128 0x22
 2465 0e40 01       		.uleb128 0x1
 2466 0e41 50       		.byte	0x50
 2467 0e42 02       		.uleb128 0x2
 2468 0e43 74       		.byte	0x74
 2469 0e44 14       		.sleb128 20
 2470 0e45 00       		.byte	0
 2471 0e46 1F       		.uleb128 0x1f
 2472 0e47 3A000000 		.4byte	.LVL37
 2473 0e4b C2100000 		.4byte	0x10c2
 2474 0e4f 00       		.byte	0
 2475 0e50 24       		.uleb128 0x24
 2476 0e51 66000000 		.4byte	.LBB13
 2477 0e55 06000000 		.4byte	.LBE13-.LBB13
 2478 0e59 6B0E0000 		.4byte	0xe6b
 2479 0e5d 25       		.uleb128 0x25
 2480 0e5e 746D7000 		.ascii	"tmp\000"
 2481 0e62 01       		.byte	0x1
 2482 0e63 E9       		.byte	0xe9
 2483 0e64 C3000000 		.4byte	0xc3
 2484 0e68 01       		.uleb128 0x1
 2485 0e69 53       		.byte	0x53
ARM GAS  /tmp/cceMFToX.s 			page 45


 2486 0e6a 00       		.byte	0
 2487 0e6b 1F       		.uleb128 0x1f
 2488 0e6c 16000000 		.4byte	.LVL34
 2489 0e70 7E100000 		.4byte	0x107e
 2490 0e74 21       		.uleb128 0x21
 2491 0e75 26000000 		.4byte	.LVL35
 2492 0e79 85100000 		.4byte	0x1085
 2493 0e7d 8B0E0000 		.4byte	0xe8b
 2494 0e81 22       		.uleb128 0x22
 2495 0e82 01       		.uleb128 0x1
 2496 0e83 50       		.byte	0x50
 2497 0e84 05       		.uleb128 0x5
 2498 0e85 03       		.byte	0x3
 2499 0e86 34000000 		.4byte	.LC3
 2500 0e8a 00       		.byte	0
 2501 0e8b 21       		.uleb128 0x21
 2502 0e8c 54000000 		.4byte	.LVL39
 2503 0e90 49110000 		.4byte	0x1149
 2504 0e94 A50E0000 		.4byte	0xea5
 2505 0e98 22       		.uleb128 0x22
 2506 0e99 01       		.uleb128 0x1
 2507 0e9a 51       		.byte	0x51
 2508 0e9b 02       		.uleb128 0x2
 2509 0e9c 77       		.byte	0x77
 2510 0e9d 00       		.sleb128 0
 2511 0e9e 22       		.uleb128 0x22
 2512 0e9f 01       		.uleb128 0x1
 2513 0ea0 50       		.byte	0x50
 2514 0ea1 02       		.uleb128 0x2
 2515 0ea2 74       		.byte	0x74
 2516 0ea3 00       		.sleb128 0
 2517 0ea4 00       		.byte	0
 2518 0ea5 21       		.uleb128 0x21
 2519 0ea6 62000000 		.4byte	.LVL40
 2520 0eaa 64110000 		.4byte	0x1164
 2521 0eae C50E0000 		.4byte	0xec5
 2522 0eb2 22       		.uleb128 0x22
 2523 0eb3 01       		.uleb128 0x1
 2524 0eb4 52       		.byte	0x52
 2525 0eb5 02       		.uleb128 0x2
 2526 0eb6 78       		.byte	0x78
 2527 0eb7 00       		.sleb128 0
 2528 0eb8 22       		.uleb128 0x22
 2529 0eb9 01       		.uleb128 0x1
 2530 0eba 51       		.byte	0x51
 2531 0ebb 02       		.uleb128 0x2
 2532 0ebc 77       		.byte	0x77
 2533 0ebd 00       		.sleb128 0
 2534 0ebe 22       		.uleb128 0x22
 2535 0ebf 01       		.uleb128 0x1
 2536 0ec0 50       		.byte	0x50
 2537 0ec1 02       		.uleb128 0x2
 2538 0ec2 74       		.byte	0x74
 2539 0ec3 00       		.sleb128 0
 2540 0ec4 00       		.byte	0
 2541 0ec5 1F       		.uleb128 0x1f
 2542 0ec6 66000000 		.4byte	.LVL41
ARM GAS  /tmp/cceMFToX.s 			page 46


 2543 0eca C2100000 		.4byte	0x10c2
 2544 0ece 00       		.byte	0
 2545 0ecf 09       		.uleb128 0x9
 2546 0ed0 04       		.byte	0x4
 2547 0ed1 42090000 		.4byte	0x942
 2548 0ed5 1E       		.uleb128 0x1e
 2549 0ed6 56050000 		.4byte	.LASF138
 2550 0eda 01       		.byte	0x1
 2551 0edb FA       		.byte	0xfa
 2552 0edc 00000000 		.4byte	.LFB124
 2553 0ee0 4C000000 		.4byte	.LFE124-.LFB124
 2554 0ee4 01       		.uleb128 0x1
 2555 0ee5 9C       		.byte	0x9c
 2556 0ee6 900F0000 		.4byte	0xf90
 2557 0eea 20       		.uleb128 0x20
 2558 0eeb 80050000 		.4byte	.LASF130
 2559 0eef 01       		.byte	0x1
 2560 0ef0 FA       		.byte	0xfa
 2561 0ef1 980A0000 		.4byte	0xa98
 2562 0ef5 3E020000 		.4byte	.LLST14
 2563 0ef9 24       		.uleb128 0x24
 2564 0efa 04000000 		.4byte	.LBB14
 2565 0efe 06000000 		.4byte	.LBE14-.LBB14
 2566 0f02 140F0000 		.4byte	0xf14
 2567 0f06 25       		.uleb128 0x25
 2568 0f07 746D7000 		.ascii	"tmp\000"
 2569 0f0b 01       		.byte	0x1
 2570 0f0c FE       		.byte	0xfe
 2571 0f0d C3000000 		.4byte	0xc3
 2572 0f11 01       		.uleb128 0x1
 2573 0f12 53       		.byte	0x53
 2574 0f13 00       		.byte	0
 2575 0f14 24       		.uleb128 0x24
 2576 0f15 40000000 		.4byte	.LBB15
 2577 0f19 0C000000 		.4byte	.LBE15-.LBB15
 2578 0f1d 300F0000 		.4byte	0xf30
 2579 0f21 28       		.uleb128 0x28
 2580 0f22 746D7000 		.ascii	"tmp\000"
 2581 0f26 01       		.byte	0x1
 2582 0f27 0701     		.2byte	0x107
 2583 0f29 C3000000 		.4byte	0xc3
 2584 0f2d 01       		.uleb128 0x1
 2585 0f2e 53       		.byte	0x53
 2586 0f2f 00       		.byte	0
 2587 0f30 1F       		.uleb128 0x1f
 2588 0f31 0E000000 		.4byte	.LVL44
 2589 0f35 7E100000 		.4byte	0x107e
 2590 0f39 21       		.uleb128 0x21
 2591 0f3a 1E000000 		.4byte	.LVL45
 2592 0f3e 85100000 		.4byte	0x1085
 2593 0f42 500F0000 		.4byte	0xf50
 2594 0f46 22       		.uleb128 0x22
 2595 0f47 01       		.uleb128 0x1
 2596 0f48 50       		.byte	0x50
 2597 0f49 05       		.uleb128 0x5
 2598 0f4a 03       		.byte	0x3
 2599 0f4b 48000000 		.4byte	.LC4
ARM GAS  /tmp/cceMFToX.s 			page 47


 2600 0f4f 00       		.byte	0
 2601 0f50 21       		.uleb128 0x21
 2602 0f51 2A000000 		.4byte	.LVL46
 2603 0f55 80110000 		.4byte	0x1180
 2604 0f59 640F0000 		.4byte	0xf64
 2605 0f5d 22       		.uleb128 0x22
 2606 0f5e 01       		.uleb128 0x1
 2607 0f5f 50       		.byte	0x50
 2608 0f60 02       		.uleb128 0x2
 2609 0f61 74       		.byte	0x74
 2610 0f62 00       		.sleb128 0
 2611 0f63 00       		.byte	0
 2612 0f64 21       		.uleb128 0x21
 2613 0f65 38000000 		.4byte	.LVL47
 2614 0f69 92110000 		.4byte	0x1192
 2615 0f6d 7D0F0000 		.4byte	0xf7d
 2616 0f71 22       		.uleb128 0x22
 2617 0f72 01       		.uleb128 0x1
 2618 0f73 51       		.byte	0x51
 2619 0f74 01       		.uleb128 0x1
 2620 0f75 30       		.byte	0x30
 2621 0f76 22       		.uleb128 0x22
 2622 0f77 01       		.uleb128 0x1
 2623 0f78 50       		.byte	0x50
 2624 0f79 02       		.uleb128 0x2
 2625 0f7a 74       		.byte	0x74
 2626 0f7b 2C       		.sleb128 44
 2627 0f7c 00       		.byte	0
 2628 0f7d 1F       		.uleb128 0x1f
 2629 0f7e 3C000000 		.4byte	.LVL48
 2630 0f82 F1100000 		.4byte	0x10f1
 2631 0f86 1F       		.uleb128 0x1f
 2632 0f87 40000000 		.4byte	.LVL49
 2633 0f8b C2100000 		.4byte	0x10c2
 2634 0f8f 00       		.byte	0
 2635 0f90 29       		.uleb128 0x29
 2636 0f91 00000000 		.4byte	.LASF139
 2637 0f95 01       		.byte	0x1
 2638 0f96 1101     		.2byte	0x111
 2639 0f98 00000000 		.4byte	.LFB125
 2640 0f9c 4C000000 		.4byte	.LFE125-.LFB125
 2641 0fa0 01       		.uleb128 0x1
 2642 0fa1 9C       		.byte	0x9c
 2643 0fa2 4E100000 		.4byte	0x104e
 2644 0fa6 2A       		.uleb128 0x2a
 2645 0fa7 80050000 		.4byte	.LASF130
 2646 0fab 01       		.byte	0x1
 2647 0fac 1101     		.2byte	0x111
 2648 0fae 980A0000 		.4byte	0xa98
 2649 0fb2 6A020000 		.4byte	.LLST15
 2650 0fb6 24       		.uleb128 0x24
 2651 0fb7 04000000 		.4byte	.LBB16
 2652 0fbb 06000000 		.4byte	.LBE16-.LBB16
 2653 0fbf D20F0000 		.4byte	0xfd2
 2654 0fc3 28       		.uleb128 0x28
 2655 0fc4 746D7000 		.ascii	"tmp\000"
 2656 0fc8 01       		.byte	0x1
ARM GAS  /tmp/cceMFToX.s 			page 48


 2657 0fc9 1501     		.2byte	0x115
 2658 0fcb C3000000 		.4byte	0xc3
 2659 0fcf 01       		.uleb128 0x1
 2660 0fd0 53       		.byte	0x53
 2661 0fd1 00       		.byte	0
 2662 0fd2 24       		.uleb128 0x24
 2663 0fd3 40000000 		.4byte	.LBB17
 2664 0fd7 0C000000 		.4byte	.LBE17-.LBB17
 2665 0fdb EE0F0000 		.4byte	0xfee
 2666 0fdf 28       		.uleb128 0x28
 2667 0fe0 746D7000 		.ascii	"tmp\000"
 2668 0fe4 01       		.byte	0x1
 2669 0fe5 1E01     		.2byte	0x11e
 2670 0fe7 C3000000 		.4byte	0xc3
 2671 0feb 01       		.uleb128 0x1
 2672 0fec 53       		.byte	0x53
 2673 0fed 00       		.byte	0
 2674 0fee 1F       		.uleb128 0x1f
 2675 0fef 0E000000 		.4byte	.LVL52
 2676 0ff3 7E100000 		.4byte	0x107e
 2677 0ff7 21       		.uleb128 0x21
 2678 0ff8 1E000000 		.4byte	.LVL53
 2679 0ffc 85100000 		.4byte	0x1085
 2680 1000 0E100000 		.4byte	0x100e
 2681 1004 22       		.uleb128 0x22
 2682 1005 01       		.uleb128 0x1
 2683 1006 50       		.byte	0x50
 2684 1007 05       		.uleb128 0x5
 2685 1008 03       		.byte	0x3
 2686 1009 58000000 		.4byte	.LC5
 2687 100d 00       		.byte	0
 2688 100e 21       		.uleb128 0x21
 2689 100f 2A000000 		.4byte	.LVL54
 2690 1013 AE110000 		.4byte	0x11ae
 2691 1017 22100000 		.4byte	0x1022
 2692 101b 22       		.uleb128 0x22
 2693 101c 01       		.uleb128 0x1
 2694 101d 50       		.byte	0x50
 2695 101e 02       		.uleb128 0x2
 2696 101f 74       		.byte	0x74
 2697 1020 00       		.sleb128 0
 2698 1021 00       		.byte	0
 2699 1022 21       		.uleb128 0x21
 2700 1023 38000000 		.4byte	.LVL55
 2701 1027 92110000 		.4byte	0x1192
 2702 102b 3B100000 		.4byte	0x103b
 2703 102f 22       		.uleb128 0x22
 2704 1030 01       		.uleb128 0x1
 2705 1031 51       		.byte	0x51
 2706 1032 01       		.uleb128 0x1
 2707 1033 30       		.byte	0x30
 2708 1034 22       		.uleb128 0x22
 2709 1035 01       		.uleb128 0x1
 2710 1036 50       		.byte	0x50
 2711 1037 02       		.uleb128 0x2
 2712 1038 74       		.byte	0x74
 2713 1039 30       		.sleb128 48
ARM GAS  /tmp/cceMFToX.s 			page 49


 2714 103a 00       		.byte	0
 2715 103b 1F       		.uleb128 0x1f
 2716 103c 3C000000 		.4byte	.LVL56
 2717 1040 F1100000 		.4byte	0x10f1
 2718 1044 1F       		.uleb128 0x1f
 2719 1045 40000000 		.4byte	.LVL57
 2720 1049 C2100000 		.4byte	0x10c2
 2721 104d 00       		.byte	0
 2722 104e 2B       		.uleb128 0x2b
 2723 104f 04050000 		.4byte	.LASF160
 2724 1053 10       		.byte	0x10
 2725 1054 9806     		.2byte	0x698
 2726 1056 DC040000 		.4byte	0x4dc
 2727 105a 2C       		.uleb128 0x2c
 2728 105b 0E020000 		.4byte	.LASF140
 2729 105f 0D       		.byte	0xd
 2730 1060 5501     		.2byte	0x155
 2731 1062 2D       		.uleb128 0x2d
 2732 1063 51070000 		.4byte	.LASF142
 2733 1067 08       		.byte	0x8
 2734 1068 35       		.byte	0x35
 2735 1069 78100000 		.4byte	0x1078
 2736 106d 2E       		.uleb128 0x2e
 2737 106e 78100000 		.4byte	0x1078
 2738 1072 2E       		.uleb128 0x2e
 2739 1073 4E010000 		.4byte	0x14e
 2740 1077 00       		.byte	0
 2741 1078 09       		.uleb128 0x9
 2742 1079 04       		.byte	0x4
 2743 107a AA030000 		.4byte	0x3aa
 2744 107e 2F       		.uleb128 0x2f
 2745 107f 19040000 		.4byte	.LASF141
 2746 1083 0E       		.byte	0xe
 2747 1084 E7       		.byte	0xe7
 2748 1085 2D       		.uleb128 0x2d
 2749 1086 31000000 		.4byte	.LASF143
 2750 108a 0E       		.byte	0xe
 2751 108b F6       		.byte	0xf6
 2752 108c 96100000 		.4byte	0x1096
 2753 1090 2E       		.uleb128 0x2e
 2754 1091 9E040000 		.4byte	0x49e
 2755 1095 00       		.byte	0
 2756 1096 30       		.uleb128 0x30
 2757 1097 09070000 		.4byte	.LASF149
 2758 109b 0F       		.byte	0xf
 2759 109c 96       		.byte	0x96
 2760 109d 22010000 		.4byte	0x122
 2761 10a1 B0100000 		.4byte	0x10b0
 2762 10a5 2E       		.uleb128 0x2e
 2763 10a6 F6000000 		.4byte	0xf6
 2764 10aa 2E       		.uleb128 0x2e
 2765 10ab 43010000 		.4byte	0x143
 2766 10af 00       		.byte	0
 2767 10b0 31       		.uleb128 0x31
 2768 10b1 6D020000 		.4byte	.LASF144
 2769 10b5 0D       		.byte	0xd
 2770 10b6 5601     		.2byte	0x156
ARM GAS  /tmp/cceMFToX.s 			page 50


 2771 10b8 C2100000 		.4byte	0x10c2
 2772 10bc 2E       		.uleb128 0x2e
 2773 10bd 980A0000 		.4byte	0xa98
 2774 10c1 00       		.byte	0
 2775 10c2 2F       		.uleb128 0x2f
 2776 10c3 28040000 		.4byte	.LASF145
 2777 10c7 0E       		.byte	0xe
 2778 10c8 E8       		.byte	0xe8
 2779 10c9 31       		.uleb128 0x31
 2780 10ca 8F060000 		.4byte	.LASF146
 2781 10ce 0D       		.byte	0xd
 2782 10cf 5701     		.2byte	0x157
 2783 10d1 DB100000 		.4byte	0x10db
 2784 10d5 2E       		.uleb128 0x2e
 2785 10d6 980A0000 		.4byte	0xa98
 2786 10da 00       		.byte	0
 2787 10db 2D       		.uleb128 0x2d
 2788 10dc 75060000 		.4byte	.LASF147
 2789 10e0 08       		.byte	0x8
 2790 10e1 37       		.byte	0x37
 2791 10e2 F1100000 		.4byte	0x10f1
 2792 10e6 2E       		.uleb128 0x2e
 2793 10e7 78100000 		.4byte	0x1078
 2794 10eb 2E       		.uleb128 0x2e
 2795 10ec 4E010000 		.4byte	0x14e
 2796 10f0 00       		.byte	0
 2797 10f1 2F       		.uleb128 0x2f
 2798 10f2 C6010000 		.4byte	.LASF148
 2799 10f6 0F       		.byte	0xf
 2800 10f7 9C       		.byte	0x9c
 2801 10f8 30       		.uleb128 0x30
 2802 10f9 BA050000 		.4byte	.LASF150
 2803 10fd 08       		.byte	0x8
 2804 10fe 3B       		.byte	0x3b
 2805 10ff 22010000 		.4byte	0x122
 2806 1103 12110000 		.4byte	0x1112
 2807 1107 2E       		.uleb128 0x2e
 2808 1108 78100000 		.4byte	0x1078
 2809 110c 2E       		.uleb128 0x2e
 2810 110d 43010000 		.4byte	0x143
 2811 1111 00       		.byte	0
 2812 1112 32       		.uleb128 0x32
 2813 1113 A8030000 		.4byte	.LASF151
 2814 1117 0D       		.byte	0xd
 2815 1118 5801     		.2byte	0x158
 2816 111a D9000000 		.4byte	0xd9
 2817 111e 2D110000 		.4byte	0x112d
 2818 1122 2E       		.uleb128 0x2e
 2819 1123 980A0000 		.4byte	0xa98
 2820 1127 2E       		.uleb128 0x2e
 2821 1128 69070000 		.4byte	0x769
 2822 112c 00       		.byte	0
 2823 112d 31       		.uleb128 0x31
 2824 112e 9C060000 		.4byte	.LASF152
 2825 1132 0D       		.byte	0xd
 2826 1133 5A01     		.2byte	0x15a
 2827 1135 49110000 		.4byte	0x1149
ARM GAS  /tmp/cceMFToX.s 			page 51


 2828 1139 2E       		.uleb128 0x2e
 2829 113a 980A0000 		.4byte	0xa98
 2830 113e 2E       		.uleb128 0x2e
 2831 113f 69070000 		.4byte	0x769
 2832 1143 2E       		.uleb128 0x2e
 2833 1144 7A0D0000 		.4byte	0xd7a
 2834 1148 00       		.byte	0
 2835 1149 32       		.uleb128 0x32
 2836 114a D0060000 		.4byte	.LASF153
 2837 114e 0D       		.byte	0xd
 2838 114f 5D01     		.2byte	0x15d
 2839 1151 D9000000 		.4byte	0xd9
 2840 1155 64110000 		.4byte	0x1164
 2841 1159 2E       		.uleb128 0x2e
 2842 115a 980A0000 		.4byte	0xa98
 2843 115e 2E       		.uleb128 0x2e
 2844 115f 69070000 		.4byte	0x769
 2845 1163 00       		.byte	0
 2846 1164 31       		.uleb128 0x31
 2847 1165 1E070000 		.4byte	.LASF154
 2848 1169 0D       		.byte	0xd
 2849 116a 5F01     		.2byte	0x15f
 2850 116c 80110000 		.4byte	0x1180
 2851 1170 2E       		.uleb128 0x2e
 2852 1171 980A0000 		.4byte	0xa98
 2853 1175 2E       		.uleb128 0x2e
 2854 1176 69070000 		.4byte	0x769
 2855 117a 2E       		.uleb128 0x2e
 2856 117b CF0E0000 		.4byte	0xecf
 2857 117f 00       		.byte	0
 2858 1180 31       		.uleb128 0x31
 2859 1181 17060000 		.4byte	.LASF155
 2860 1185 0D       		.byte	0xd
 2861 1186 6301     		.2byte	0x163
 2862 1188 92110000 		.4byte	0x1192
 2863 118c 2E       		.uleb128 0x2e
 2864 118d 980A0000 		.4byte	0xa98
 2865 1191 00       		.byte	0
 2866 1192 2D       		.uleb128 0x2d
 2867 1193 76010000 		.4byte	.LASF156
 2868 1197 0A       		.byte	0xa
 2869 1198 BA       		.byte	0xba
 2870 1199 A8110000 		.4byte	0x11a8
 2871 119d 2E       		.uleb128 0x2e
 2872 119e A8110000 		.4byte	0x11a8
 2873 11a2 2E       		.uleb128 0x2e
 2874 11a3 38010000 		.4byte	0x138
 2875 11a7 00       		.byte	0
 2876 11a8 09       		.uleb128 0x9
 2877 11a9 04       		.byte	0x4
 2878 11aa 5E040000 		.4byte	0x45e
 2879 11ae 33       		.uleb128 0x33
 2880 11af 57010000 		.4byte	.LASF161
 2881 11b3 0D       		.byte	0xd
 2882 11b4 6401     		.2byte	0x164
 2883 11b6 2E       		.uleb128 0x2e
 2884 11b7 980A0000 		.4byte	0xa98
ARM GAS  /tmp/cceMFToX.s 			page 52


 2885 11bb 00       		.byte	0
 2886 11bc 00       		.byte	0
 2887              		.section	.debug_abbrev,"",%progbits
 2888              	.Ldebug_abbrev0:
 2889 0000 01       		.uleb128 0x1
 2890 0001 11       		.uleb128 0x11
 2891 0002 01       		.byte	0x1
 2892 0003 25       		.uleb128 0x25
 2893 0004 0E       		.uleb128 0xe
 2894 0005 13       		.uleb128 0x13
 2895 0006 0B       		.uleb128 0xb
 2896 0007 03       		.uleb128 0x3
 2897 0008 0E       		.uleb128 0xe
 2898 0009 1B       		.uleb128 0x1b
 2899 000a 0E       		.uleb128 0xe
 2900 000b 55       		.uleb128 0x55
 2901 000c 17       		.uleb128 0x17
 2902 000d 11       		.uleb128 0x11
 2903 000e 01       		.uleb128 0x1
 2904 000f 10       		.uleb128 0x10
 2905 0010 17       		.uleb128 0x17
 2906 0011 00       		.byte	0
 2907 0012 00       		.byte	0
 2908 0013 02       		.uleb128 0x2
 2909 0014 24       		.uleb128 0x24
 2910 0015 00       		.byte	0
 2911 0016 0B       		.uleb128 0xb
 2912 0017 0B       		.uleb128 0xb
 2913 0018 3E       		.uleb128 0x3e
 2914 0019 0B       		.uleb128 0xb
 2915 001a 03       		.uleb128 0x3
 2916 001b 08       		.uleb128 0x8
 2917 001c 00       		.byte	0
 2918 001d 00       		.byte	0
 2919 001e 03       		.uleb128 0x3
 2920 001f 24       		.uleb128 0x24
 2921 0020 00       		.byte	0
 2922 0021 0B       		.uleb128 0xb
 2923 0022 0B       		.uleb128 0xb
 2924 0023 3E       		.uleb128 0x3e
 2925 0024 0B       		.uleb128 0xb
 2926 0025 03       		.uleb128 0x3
 2927 0026 0E       		.uleb128 0xe
 2928 0027 00       		.byte	0
 2929 0028 00       		.byte	0
 2930 0029 04       		.uleb128 0x4
 2931 002a 16       		.uleb128 0x16
 2932 002b 00       		.byte	0
 2933 002c 03       		.uleb128 0x3
 2934 002d 0E       		.uleb128 0xe
 2935 002e 3A       		.uleb128 0x3a
 2936 002f 0B       		.uleb128 0xb
 2937 0030 3B       		.uleb128 0x3b
 2938 0031 0B       		.uleb128 0xb
 2939 0032 49       		.uleb128 0x49
 2940 0033 13       		.uleb128 0x13
 2941 0034 00       		.byte	0
ARM GAS  /tmp/cceMFToX.s 			page 53


 2942 0035 00       		.byte	0
 2943 0036 05       		.uleb128 0x5
 2944 0037 13       		.uleb128 0x13
 2945 0038 01       		.byte	0x1
 2946 0039 03       		.uleb128 0x3
 2947 003a 0E       		.uleb128 0xe
 2948 003b 0B       		.uleb128 0xb
 2949 003c 0B       		.uleb128 0xb
 2950 003d 3A       		.uleb128 0x3a
 2951 003e 0B       		.uleb128 0xb
 2952 003f 3B       		.uleb128 0x3b
 2953 0040 0B       		.uleb128 0xb
 2954 0041 01       		.uleb128 0x1
 2955 0042 13       		.uleb128 0x13
 2956 0043 00       		.byte	0
 2957 0044 00       		.byte	0
 2958 0045 06       		.uleb128 0x6
 2959 0046 0D       		.uleb128 0xd
 2960 0047 00       		.byte	0
 2961 0048 03       		.uleb128 0x3
 2962 0049 0E       		.uleb128 0xe
 2963 004a 3A       		.uleb128 0x3a
 2964 004b 0B       		.uleb128 0xb
 2965 004c 3B       		.uleb128 0x3b
 2966 004d 0B       		.uleb128 0xb
 2967 004e 49       		.uleb128 0x49
 2968 004f 13       		.uleb128 0x13
 2969 0050 38       		.uleb128 0x38
 2970 0051 0B       		.uleb128 0xb
 2971 0052 00       		.byte	0
 2972 0053 00       		.byte	0
 2973 0054 07       		.uleb128 0x7
 2974 0055 0D       		.uleb128 0xd
 2975 0056 00       		.byte	0
 2976 0057 03       		.uleb128 0x3
 2977 0058 08       		.uleb128 0x8
 2978 0059 3A       		.uleb128 0x3a
 2979 005a 0B       		.uleb128 0xb
 2980 005b 3B       		.uleb128 0x3b
 2981 005c 0B       		.uleb128 0xb
 2982 005d 49       		.uleb128 0x49
 2983 005e 13       		.uleb128 0x13
 2984 005f 38       		.uleb128 0x38
 2985 0060 0B       		.uleb128 0xb
 2986 0061 00       		.byte	0
 2987 0062 00       		.byte	0
 2988 0063 08       		.uleb128 0x8
 2989 0064 13       		.uleb128 0x13
 2990 0065 01       		.byte	0x1
 2991 0066 0B       		.uleb128 0xb
 2992 0067 0B       		.uleb128 0xb
 2993 0068 3A       		.uleb128 0x3a
 2994 0069 0B       		.uleb128 0xb
 2995 006a 3B       		.uleb128 0x3b
 2996 006b 0B       		.uleb128 0xb
 2997 006c 01       		.uleb128 0x1
 2998 006d 13       		.uleb128 0x13
ARM GAS  /tmp/cceMFToX.s 			page 54


 2999 006e 00       		.byte	0
 3000 006f 00       		.byte	0
 3001 0070 09       		.uleb128 0x9
 3002 0071 0F       		.uleb128 0xf
 3003 0072 00       		.byte	0
 3004 0073 0B       		.uleb128 0xb
 3005 0074 0B       		.uleb128 0xb
 3006 0075 49       		.uleb128 0x49
 3007 0076 13       		.uleb128 0x13
 3008 0077 00       		.byte	0
 3009 0078 00       		.byte	0
 3010 0079 0A       		.uleb128 0xa
 3011 007a 0F       		.uleb128 0xf
 3012 007b 00       		.byte	0
 3013 007c 0B       		.uleb128 0xb
 3014 007d 0B       		.uleb128 0xb
 3015 007e 00       		.byte	0
 3016 007f 00       		.byte	0
 3017 0080 0B       		.uleb128 0xb
 3018 0081 13       		.uleb128 0x13
 3019 0082 01       		.byte	0x1
 3020 0083 03       		.uleb128 0x3
 3021 0084 0E       		.uleb128 0xe
 3022 0085 0B       		.uleb128 0xb
 3023 0086 0B       		.uleb128 0xb
 3024 0087 3A       		.uleb128 0x3a
 3025 0088 0B       		.uleb128 0xb
 3026 0089 3B       		.uleb128 0x3b
 3027 008a 05       		.uleb128 0x5
 3028 008b 01       		.uleb128 0x1
 3029 008c 13       		.uleb128 0x13
 3030 008d 00       		.byte	0
 3031 008e 00       		.byte	0
 3032 008f 0C       		.uleb128 0xc
 3033 0090 0D       		.uleb128 0xd
 3034 0091 00       		.byte	0
 3035 0092 03       		.uleb128 0x3
 3036 0093 08       		.uleb128 0x8
 3037 0094 3A       		.uleb128 0x3a
 3038 0095 0B       		.uleb128 0xb
 3039 0096 3B       		.uleb128 0x3b
 3040 0097 05       		.uleb128 0x5
 3041 0098 49       		.uleb128 0x49
 3042 0099 13       		.uleb128 0x13
 3043 009a 38       		.uleb128 0x38
 3044 009b 0B       		.uleb128 0xb
 3045 009c 00       		.byte	0
 3046 009d 00       		.byte	0
 3047 009e 0D       		.uleb128 0xd
 3048 009f 35       		.uleb128 0x35
 3049 00a0 00       		.byte	0
 3050 00a1 49       		.uleb128 0x49
 3051 00a2 13       		.uleb128 0x13
 3052 00a3 00       		.byte	0
 3053 00a4 00       		.byte	0
 3054 00a5 0E       		.uleb128 0xe
 3055 00a6 17       		.uleb128 0x17
ARM GAS  /tmp/cceMFToX.s 			page 55


 3056 00a7 01       		.byte	0x1
 3057 00a8 0B       		.uleb128 0xb
 3058 00a9 0B       		.uleb128 0xb
 3059 00aa 3A       		.uleb128 0x3a
 3060 00ab 0B       		.uleb128 0xb
 3061 00ac 3B       		.uleb128 0x3b
 3062 00ad 0B       		.uleb128 0xb
 3063 00ae 01       		.uleb128 0x1
 3064 00af 13       		.uleb128 0x13
 3065 00b0 00       		.byte	0
 3066 00b1 00       		.byte	0
 3067 00b2 0F       		.uleb128 0xf
 3068 00b3 0D       		.uleb128 0xd
 3069 00b4 00       		.byte	0
 3070 00b5 03       		.uleb128 0x3
 3071 00b6 0E       		.uleb128 0xe
 3072 00b7 3A       		.uleb128 0x3a
 3073 00b8 0B       		.uleb128 0xb
 3074 00b9 3B       		.uleb128 0x3b
 3075 00ba 0B       		.uleb128 0xb
 3076 00bb 49       		.uleb128 0x49
 3077 00bc 13       		.uleb128 0x13
 3078 00bd 00       		.byte	0
 3079 00be 00       		.byte	0
 3080 00bf 10       		.uleb128 0x10
 3081 00c0 26       		.uleb128 0x26
 3082 00c1 00       		.byte	0
 3083 00c2 49       		.uleb128 0x49
 3084 00c3 13       		.uleb128 0x13
 3085 00c4 00       		.byte	0
 3086 00c5 00       		.byte	0
 3087 00c6 11       		.uleb128 0x11
 3088 00c7 01       		.uleb128 0x1
 3089 00c8 01       		.byte	0x1
 3090 00c9 49       		.uleb128 0x49
 3091 00ca 13       		.uleb128 0x13
 3092 00cb 01       		.uleb128 0x1
 3093 00cc 13       		.uleb128 0x13
 3094 00cd 00       		.byte	0
 3095 00ce 00       		.byte	0
 3096 00cf 12       		.uleb128 0x12
 3097 00d0 21       		.uleb128 0x21
 3098 00d1 00       		.byte	0
 3099 00d2 49       		.uleb128 0x49
 3100 00d3 13       		.uleb128 0x13
 3101 00d4 2F       		.uleb128 0x2f
 3102 00d5 0B       		.uleb128 0xb
 3103 00d6 00       		.byte	0
 3104 00d7 00       		.byte	0
 3105 00d8 13       		.uleb128 0x13
 3106 00d9 13       		.uleb128 0x13
 3107 00da 01       		.byte	0x1
 3108 00db 0B       		.uleb128 0xb
 3109 00dc 0B       		.uleb128 0xb
 3110 00dd 3A       		.uleb128 0x3a
 3111 00de 0B       		.uleb128 0xb
 3112 00df 3B       		.uleb128 0x3b
ARM GAS  /tmp/cceMFToX.s 			page 56


 3113 00e0 05       		.uleb128 0x5
 3114 00e1 01       		.uleb128 0x1
 3115 00e2 13       		.uleb128 0x13
 3116 00e3 00       		.byte	0
 3117 00e4 00       		.byte	0
 3118 00e5 14       		.uleb128 0x14
 3119 00e6 0D       		.uleb128 0xd
 3120 00e7 00       		.byte	0
 3121 00e8 03       		.uleb128 0x3
 3122 00e9 0E       		.uleb128 0xe
 3123 00ea 3A       		.uleb128 0x3a
 3124 00eb 0B       		.uleb128 0xb
 3125 00ec 3B       		.uleb128 0x3b
 3126 00ed 05       		.uleb128 0x5
 3127 00ee 49       		.uleb128 0x49
 3128 00ef 13       		.uleb128 0x13
 3129 00f0 38       		.uleb128 0x38
 3130 00f1 0B       		.uleb128 0xb
 3131 00f2 00       		.byte	0
 3132 00f3 00       		.byte	0
 3133 00f4 15       		.uleb128 0x15
 3134 00f5 16       		.uleb128 0x16
 3135 00f6 00       		.byte	0
 3136 00f7 03       		.uleb128 0x3
 3137 00f8 0E       		.uleb128 0xe
 3138 00f9 3A       		.uleb128 0x3a
 3139 00fa 0B       		.uleb128 0xb
 3140 00fb 3B       		.uleb128 0x3b
 3141 00fc 05       		.uleb128 0x5
 3142 00fd 49       		.uleb128 0x49
 3143 00fe 13       		.uleb128 0x13
 3144 00ff 00       		.byte	0
 3145 0100 00       		.byte	0
 3146 0101 16       		.uleb128 0x16
 3147 0102 13       		.uleb128 0x13
 3148 0103 01       		.byte	0x1
 3149 0104 0B       		.uleb128 0xb
 3150 0105 05       		.uleb128 0x5
 3151 0106 3A       		.uleb128 0x3a
 3152 0107 0B       		.uleb128 0xb
 3153 0108 3B       		.uleb128 0x3b
 3154 0109 05       		.uleb128 0x5
 3155 010a 01       		.uleb128 0x1
 3156 010b 13       		.uleb128 0x13
 3157 010c 00       		.byte	0
 3158 010d 00       		.byte	0
 3159 010e 17       		.uleb128 0x17
 3160 010f 0D       		.uleb128 0xd
 3161 0110 00       		.byte	0
 3162 0111 03       		.uleb128 0x3
 3163 0112 0E       		.uleb128 0xe
 3164 0113 3A       		.uleb128 0x3a
 3165 0114 0B       		.uleb128 0xb
 3166 0115 3B       		.uleb128 0x3b
 3167 0116 05       		.uleb128 0x5
 3168 0117 49       		.uleb128 0x49
 3169 0118 13       		.uleb128 0x13
ARM GAS  /tmp/cceMFToX.s 			page 57


 3170 0119 38       		.uleb128 0x38
 3171 011a 05       		.uleb128 0x5
 3172 011b 00       		.byte	0
 3173 011c 00       		.byte	0
 3174 011d 18       		.uleb128 0x18
 3175 011e 0D       		.uleb128 0xd
 3176 011f 00       		.byte	0
 3177 0120 03       		.uleb128 0x3
 3178 0121 08       		.uleb128 0x8
 3179 0122 3A       		.uleb128 0x3a
 3180 0123 0B       		.uleb128 0xb
 3181 0124 3B       		.uleb128 0x3b
 3182 0125 05       		.uleb128 0x5
 3183 0126 49       		.uleb128 0x49
 3184 0127 13       		.uleb128 0x13
 3185 0128 38       		.uleb128 0x38
 3186 0129 05       		.uleb128 0x5
 3187 012a 00       		.byte	0
 3188 012b 00       		.byte	0
 3189 012c 19       		.uleb128 0x19
 3190 012d 04       		.uleb128 0x4
 3191 012e 01       		.byte	0x1
 3192 012f 0B       		.uleb128 0xb
 3193 0130 0B       		.uleb128 0xb
 3194 0131 3A       		.uleb128 0x3a
 3195 0132 0B       		.uleb128 0xb
 3196 0133 3B       		.uleb128 0x3b
 3197 0134 0B       		.uleb128 0xb
 3198 0135 01       		.uleb128 0x1
 3199 0136 13       		.uleb128 0x13
 3200 0137 00       		.byte	0
 3201 0138 00       		.byte	0
 3202 0139 1A       		.uleb128 0x1a
 3203 013a 28       		.uleb128 0x28
 3204 013b 00       		.byte	0
 3205 013c 03       		.uleb128 0x3
 3206 013d 0E       		.uleb128 0xe
 3207 013e 1C       		.uleb128 0x1c
 3208 013f 0D       		.uleb128 0xd
 3209 0140 00       		.byte	0
 3210 0141 00       		.byte	0
 3211 0142 1B       		.uleb128 0x1b
 3212 0143 0D       		.uleb128 0xd
 3213 0144 00       		.byte	0
 3214 0145 03       		.uleb128 0x3
 3215 0146 08       		.uleb128 0x8
 3216 0147 3A       		.uleb128 0x3a
 3217 0148 0B       		.uleb128 0xb
 3218 0149 3B       		.uleb128 0x3b
 3219 014a 0B       		.uleb128 0xb
 3220 014b 49       		.uleb128 0x49
 3221 014c 13       		.uleb128 0x13
 3222 014d 0B       		.uleb128 0xb
 3223 014e 0B       		.uleb128 0xb
 3224 014f 0D       		.uleb128 0xd
 3225 0150 0B       		.uleb128 0xb
 3226 0151 0C       		.uleb128 0xc
ARM GAS  /tmp/cceMFToX.s 			page 58


 3227 0152 0B       		.uleb128 0xb
 3228 0153 38       		.uleb128 0x38
 3229 0154 0B       		.uleb128 0xb
 3230 0155 00       		.byte	0
 3231 0156 00       		.byte	0
 3232 0157 1C       		.uleb128 0x1c
 3233 0158 0D       		.uleb128 0xd
 3234 0159 00       		.byte	0
 3235 015a 49       		.uleb128 0x49
 3236 015b 13       		.uleb128 0x13
 3237 015c 00       		.byte	0
 3238 015d 00       		.byte	0
 3239 015e 1D       		.uleb128 0x1d
 3240 015f 0D       		.uleb128 0xd
 3241 0160 00       		.byte	0
 3242 0161 49       		.uleb128 0x49
 3243 0162 13       		.uleb128 0x13
 3244 0163 38       		.uleb128 0x38
 3245 0164 0B       		.uleb128 0xb
 3246 0165 00       		.byte	0
 3247 0166 00       		.byte	0
 3248 0167 1E       		.uleb128 0x1e
 3249 0168 2E       		.uleb128 0x2e
 3250 0169 01       		.byte	0x1
 3251 016a 3F       		.uleb128 0x3f
 3252 016b 19       		.uleb128 0x19
 3253 016c 03       		.uleb128 0x3
 3254 016d 0E       		.uleb128 0xe
 3255 016e 3A       		.uleb128 0x3a
 3256 016f 0B       		.uleb128 0xb
 3257 0170 3B       		.uleb128 0x3b
 3258 0171 0B       		.uleb128 0xb
 3259 0172 27       		.uleb128 0x27
 3260 0173 19       		.uleb128 0x19
 3261 0174 11       		.uleb128 0x11
 3262 0175 01       		.uleb128 0x1
 3263 0176 12       		.uleb128 0x12
 3264 0177 06       		.uleb128 0x6
 3265 0178 40       		.uleb128 0x40
 3266 0179 18       		.uleb128 0x18
 3267 017a 9742     		.uleb128 0x2117
 3268 017c 19       		.uleb128 0x19
 3269 017d 01       		.uleb128 0x1
 3270 017e 13       		.uleb128 0x13
 3271 017f 00       		.byte	0
 3272 0180 00       		.byte	0
 3273 0181 1F       		.uleb128 0x1f
 3274 0182 898201   		.uleb128 0x4109
 3275 0185 00       		.byte	0
 3276 0186 11       		.uleb128 0x11
 3277 0187 01       		.uleb128 0x1
 3278 0188 31       		.uleb128 0x31
 3279 0189 13       		.uleb128 0x13
 3280 018a 00       		.byte	0
 3281 018b 00       		.byte	0
 3282 018c 20       		.uleb128 0x20
 3283 018d 05       		.uleb128 0x5
ARM GAS  /tmp/cceMFToX.s 			page 59


 3284 018e 00       		.byte	0
 3285 018f 03       		.uleb128 0x3
 3286 0190 0E       		.uleb128 0xe
 3287 0191 3A       		.uleb128 0x3a
 3288 0192 0B       		.uleb128 0xb
 3289 0193 3B       		.uleb128 0x3b
 3290 0194 0B       		.uleb128 0xb
 3291 0195 49       		.uleb128 0x49
 3292 0196 13       		.uleb128 0x13
 3293 0197 02       		.uleb128 0x2
 3294 0198 17       		.uleb128 0x17
 3295 0199 00       		.byte	0
 3296 019a 00       		.byte	0
 3297 019b 21       		.uleb128 0x21
 3298 019c 898201   		.uleb128 0x4109
 3299 019f 01       		.byte	0x1
 3300 01a0 11       		.uleb128 0x11
 3301 01a1 01       		.uleb128 0x1
 3302 01a2 31       		.uleb128 0x31
 3303 01a3 13       		.uleb128 0x13
 3304 01a4 01       		.uleb128 0x1
 3305 01a5 13       		.uleb128 0x13
 3306 01a6 00       		.byte	0
 3307 01a7 00       		.byte	0
 3308 01a8 22       		.uleb128 0x22
 3309 01a9 8A8201   		.uleb128 0x410a
 3310 01ac 00       		.byte	0
 3311 01ad 02       		.uleb128 0x2
 3312 01ae 18       		.uleb128 0x18
 3313 01af 9142     		.uleb128 0x2111
 3314 01b1 18       		.uleb128 0x18
 3315 01b2 00       		.byte	0
 3316 01b3 00       		.byte	0
 3317 01b4 23       		.uleb128 0x23
 3318 01b5 898201   		.uleb128 0x4109
 3319 01b8 01       		.byte	0x1
 3320 01b9 11       		.uleb128 0x11
 3321 01ba 01       		.uleb128 0x1
 3322 01bb 31       		.uleb128 0x31
 3323 01bc 13       		.uleb128 0x13
 3324 01bd 00       		.byte	0
 3325 01be 00       		.byte	0
 3326 01bf 24       		.uleb128 0x24
 3327 01c0 0B       		.uleb128 0xb
 3328 01c1 01       		.byte	0x1
 3329 01c2 11       		.uleb128 0x11
 3330 01c3 01       		.uleb128 0x1
 3331 01c4 12       		.uleb128 0x12
 3332 01c5 06       		.uleb128 0x6
 3333 01c6 01       		.uleb128 0x1
 3334 01c7 13       		.uleb128 0x13
 3335 01c8 00       		.byte	0
 3336 01c9 00       		.byte	0
 3337 01ca 25       		.uleb128 0x25
 3338 01cb 34       		.uleb128 0x34
 3339 01cc 00       		.byte	0
 3340 01cd 03       		.uleb128 0x3
ARM GAS  /tmp/cceMFToX.s 			page 60


 3341 01ce 08       		.uleb128 0x8
 3342 01cf 3A       		.uleb128 0x3a
 3343 01d0 0B       		.uleb128 0xb
 3344 01d1 3B       		.uleb128 0x3b
 3345 01d2 0B       		.uleb128 0xb
 3346 01d3 49       		.uleb128 0x49
 3347 01d4 13       		.uleb128 0x13
 3348 01d5 02       		.uleb128 0x2
 3349 01d6 18       		.uleb128 0x18
 3350 01d7 00       		.byte	0
 3351 01d8 00       		.byte	0
 3352 01d9 26       		.uleb128 0x26
 3353 01da 2E       		.uleb128 0x2e
 3354 01db 01       		.byte	0x1
 3355 01dc 3F       		.uleb128 0x3f
 3356 01dd 19       		.uleb128 0x19
 3357 01de 03       		.uleb128 0x3
 3358 01df 0E       		.uleb128 0xe
 3359 01e0 3A       		.uleb128 0x3a
 3360 01e1 0B       		.uleb128 0xb
 3361 01e2 3B       		.uleb128 0x3b
 3362 01e3 0B       		.uleb128 0xb
 3363 01e4 27       		.uleb128 0x27
 3364 01e5 19       		.uleb128 0x19
 3365 01e6 49       		.uleb128 0x49
 3366 01e7 13       		.uleb128 0x13
 3367 01e8 11       		.uleb128 0x11
 3368 01e9 01       		.uleb128 0x1
 3369 01ea 12       		.uleb128 0x12
 3370 01eb 06       		.uleb128 0x6
 3371 01ec 40       		.uleb128 0x40
 3372 01ed 18       		.uleb128 0x18
 3373 01ee 9742     		.uleb128 0x2117
 3374 01f0 19       		.uleb128 0x19
 3375 01f1 01       		.uleb128 0x1
 3376 01f2 13       		.uleb128 0x13
 3377 01f3 00       		.byte	0
 3378 01f4 00       		.byte	0
 3379 01f5 27       		.uleb128 0x27
 3380 01f6 34       		.uleb128 0x34
 3381 01f7 00       		.byte	0
 3382 01f8 03       		.uleb128 0x3
 3383 01f9 08       		.uleb128 0x8
 3384 01fa 3A       		.uleb128 0x3a
 3385 01fb 0B       		.uleb128 0xb
 3386 01fc 3B       		.uleb128 0x3b
 3387 01fd 0B       		.uleb128 0xb
 3388 01fe 49       		.uleb128 0x49
 3389 01ff 13       		.uleb128 0x13
 3390 0200 02       		.uleb128 0x2
 3391 0201 17       		.uleb128 0x17
 3392 0202 00       		.byte	0
 3393 0203 00       		.byte	0
 3394 0204 28       		.uleb128 0x28
 3395 0205 34       		.uleb128 0x34
 3396 0206 00       		.byte	0
 3397 0207 03       		.uleb128 0x3
ARM GAS  /tmp/cceMFToX.s 			page 61


 3398 0208 08       		.uleb128 0x8
 3399 0209 3A       		.uleb128 0x3a
 3400 020a 0B       		.uleb128 0xb
 3401 020b 3B       		.uleb128 0x3b
 3402 020c 05       		.uleb128 0x5
 3403 020d 49       		.uleb128 0x49
 3404 020e 13       		.uleb128 0x13
 3405 020f 02       		.uleb128 0x2
 3406 0210 18       		.uleb128 0x18
 3407 0211 00       		.byte	0
 3408 0212 00       		.byte	0
 3409 0213 29       		.uleb128 0x29
 3410 0214 2E       		.uleb128 0x2e
 3411 0215 01       		.byte	0x1
 3412 0216 3F       		.uleb128 0x3f
 3413 0217 19       		.uleb128 0x19
 3414 0218 03       		.uleb128 0x3
 3415 0219 0E       		.uleb128 0xe
 3416 021a 3A       		.uleb128 0x3a
 3417 021b 0B       		.uleb128 0xb
 3418 021c 3B       		.uleb128 0x3b
 3419 021d 05       		.uleb128 0x5
 3420 021e 27       		.uleb128 0x27
 3421 021f 19       		.uleb128 0x19
 3422 0220 11       		.uleb128 0x11
 3423 0221 01       		.uleb128 0x1
 3424 0222 12       		.uleb128 0x12
 3425 0223 06       		.uleb128 0x6
 3426 0224 40       		.uleb128 0x40
 3427 0225 18       		.uleb128 0x18
 3428 0226 9742     		.uleb128 0x2117
 3429 0228 19       		.uleb128 0x19
 3430 0229 01       		.uleb128 0x1
 3431 022a 13       		.uleb128 0x13
 3432 022b 00       		.byte	0
 3433 022c 00       		.byte	0
 3434 022d 2A       		.uleb128 0x2a
 3435 022e 05       		.uleb128 0x5
 3436 022f 00       		.byte	0
 3437 0230 03       		.uleb128 0x3
 3438 0231 0E       		.uleb128 0xe
 3439 0232 3A       		.uleb128 0x3a
 3440 0233 0B       		.uleb128 0xb
 3441 0234 3B       		.uleb128 0x3b
 3442 0235 05       		.uleb128 0x5
 3443 0236 49       		.uleb128 0x49
 3444 0237 13       		.uleb128 0x13
 3445 0238 02       		.uleb128 0x2
 3446 0239 17       		.uleb128 0x17
 3447 023a 00       		.byte	0
 3448 023b 00       		.byte	0
 3449 023c 2B       		.uleb128 0x2b
 3450 023d 34       		.uleb128 0x34
 3451 023e 00       		.byte	0
 3452 023f 03       		.uleb128 0x3
 3453 0240 0E       		.uleb128 0xe
 3454 0241 3A       		.uleb128 0x3a
ARM GAS  /tmp/cceMFToX.s 			page 62


 3455 0242 0B       		.uleb128 0xb
 3456 0243 3B       		.uleb128 0x3b
 3457 0244 05       		.uleb128 0x5
 3458 0245 49       		.uleb128 0x49
 3459 0246 13       		.uleb128 0x13
 3460 0247 3F       		.uleb128 0x3f
 3461 0248 19       		.uleb128 0x19
 3462 0249 3C       		.uleb128 0x3c
 3463 024a 19       		.uleb128 0x19
 3464 024b 00       		.byte	0
 3465 024c 00       		.byte	0
 3466 024d 2C       		.uleb128 0x2c
 3467 024e 2E       		.uleb128 0x2e
 3468 024f 00       		.byte	0
 3469 0250 3F       		.uleb128 0x3f
 3470 0251 19       		.uleb128 0x19
 3471 0252 03       		.uleb128 0x3
 3472 0253 0E       		.uleb128 0xe
 3473 0254 3A       		.uleb128 0x3a
 3474 0255 0B       		.uleb128 0xb
 3475 0256 3B       		.uleb128 0x3b
 3476 0257 05       		.uleb128 0x5
 3477 0258 27       		.uleb128 0x27
 3478 0259 19       		.uleb128 0x19
 3479 025a 3C       		.uleb128 0x3c
 3480 025b 19       		.uleb128 0x19
 3481 025c 00       		.byte	0
 3482 025d 00       		.byte	0
 3483 025e 2D       		.uleb128 0x2d
 3484 025f 2E       		.uleb128 0x2e
 3485 0260 01       		.byte	0x1
 3486 0261 3F       		.uleb128 0x3f
 3487 0262 19       		.uleb128 0x19
 3488 0263 03       		.uleb128 0x3
 3489 0264 0E       		.uleb128 0xe
 3490 0265 3A       		.uleb128 0x3a
 3491 0266 0B       		.uleb128 0xb
 3492 0267 3B       		.uleb128 0x3b
 3493 0268 0B       		.uleb128 0xb
 3494 0269 27       		.uleb128 0x27
 3495 026a 19       		.uleb128 0x19
 3496 026b 3C       		.uleb128 0x3c
 3497 026c 19       		.uleb128 0x19
 3498 026d 01       		.uleb128 0x1
 3499 026e 13       		.uleb128 0x13
 3500 026f 00       		.byte	0
 3501 0270 00       		.byte	0
 3502 0271 2E       		.uleb128 0x2e
 3503 0272 05       		.uleb128 0x5
 3504 0273 00       		.byte	0
 3505 0274 49       		.uleb128 0x49
 3506 0275 13       		.uleb128 0x13
 3507 0276 00       		.byte	0
 3508 0277 00       		.byte	0
 3509 0278 2F       		.uleb128 0x2f
 3510 0279 2E       		.uleb128 0x2e
 3511 027a 00       		.byte	0
ARM GAS  /tmp/cceMFToX.s 			page 63


 3512 027b 3F       		.uleb128 0x3f
 3513 027c 19       		.uleb128 0x19
 3514 027d 03       		.uleb128 0x3
 3515 027e 0E       		.uleb128 0xe
 3516 027f 3A       		.uleb128 0x3a
 3517 0280 0B       		.uleb128 0xb
 3518 0281 3B       		.uleb128 0x3b
 3519 0282 0B       		.uleb128 0xb
 3520 0283 27       		.uleb128 0x27
 3521 0284 19       		.uleb128 0x19
 3522 0285 3C       		.uleb128 0x3c
 3523 0286 19       		.uleb128 0x19
 3524 0287 00       		.byte	0
 3525 0288 00       		.byte	0
 3526 0289 30       		.uleb128 0x30
 3527 028a 2E       		.uleb128 0x2e
 3528 028b 01       		.byte	0x1
 3529 028c 3F       		.uleb128 0x3f
 3530 028d 19       		.uleb128 0x19
 3531 028e 03       		.uleb128 0x3
 3532 028f 0E       		.uleb128 0xe
 3533 0290 3A       		.uleb128 0x3a
 3534 0291 0B       		.uleb128 0xb
 3535 0292 3B       		.uleb128 0x3b
 3536 0293 0B       		.uleb128 0xb
 3537 0294 27       		.uleb128 0x27
 3538 0295 19       		.uleb128 0x19
 3539 0296 49       		.uleb128 0x49
 3540 0297 13       		.uleb128 0x13
 3541 0298 3C       		.uleb128 0x3c
 3542 0299 19       		.uleb128 0x19
 3543 029a 01       		.uleb128 0x1
 3544 029b 13       		.uleb128 0x13
 3545 029c 00       		.byte	0
 3546 029d 00       		.byte	0
 3547 029e 31       		.uleb128 0x31
 3548 029f 2E       		.uleb128 0x2e
 3549 02a0 01       		.byte	0x1
 3550 02a1 3F       		.uleb128 0x3f
 3551 02a2 19       		.uleb128 0x19
 3552 02a3 03       		.uleb128 0x3
 3553 02a4 0E       		.uleb128 0xe
 3554 02a5 3A       		.uleb128 0x3a
 3555 02a6 0B       		.uleb128 0xb
 3556 02a7 3B       		.uleb128 0x3b
 3557 02a8 05       		.uleb128 0x5
 3558 02a9 27       		.uleb128 0x27
 3559 02aa 19       		.uleb128 0x19
 3560 02ab 3C       		.uleb128 0x3c
 3561 02ac 19       		.uleb128 0x19
 3562 02ad 01       		.uleb128 0x1
 3563 02ae 13       		.uleb128 0x13
 3564 02af 00       		.byte	0
 3565 02b0 00       		.byte	0
 3566 02b1 32       		.uleb128 0x32
 3567 02b2 2E       		.uleb128 0x2e
 3568 02b3 01       		.byte	0x1
ARM GAS  /tmp/cceMFToX.s 			page 64


 3569 02b4 3F       		.uleb128 0x3f
 3570 02b5 19       		.uleb128 0x19
 3571 02b6 03       		.uleb128 0x3
 3572 02b7 0E       		.uleb128 0xe
 3573 02b8 3A       		.uleb128 0x3a
 3574 02b9 0B       		.uleb128 0xb
 3575 02ba 3B       		.uleb128 0x3b
 3576 02bb 05       		.uleb128 0x5
 3577 02bc 27       		.uleb128 0x27
 3578 02bd 19       		.uleb128 0x19
 3579 02be 49       		.uleb128 0x49
 3580 02bf 13       		.uleb128 0x13
 3581 02c0 3C       		.uleb128 0x3c
 3582 02c1 19       		.uleb128 0x19
 3583 02c2 01       		.uleb128 0x1
 3584 02c3 13       		.uleb128 0x13
 3585 02c4 00       		.byte	0
 3586 02c5 00       		.byte	0
 3587 02c6 33       		.uleb128 0x33
 3588 02c7 2E       		.uleb128 0x2e
 3589 02c8 01       		.byte	0x1
 3590 02c9 3F       		.uleb128 0x3f
 3591 02ca 19       		.uleb128 0x19
 3592 02cb 03       		.uleb128 0x3
 3593 02cc 0E       		.uleb128 0xe
 3594 02cd 3A       		.uleb128 0x3a
 3595 02ce 0B       		.uleb128 0xb
 3596 02cf 3B       		.uleb128 0x3b
 3597 02d0 05       		.uleb128 0x5
 3598 02d1 27       		.uleb128 0x27
 3599 02d2 19       		.uleb128 0x19
 3600 02d3 3C       		.uleb128 0x3c
 3601 02d4 19       		.uleb128 0x19
 3602 02d5 00       		.byte	0
 3603 02d6 00       		.byte	0
 3604 02d7 00       		.byte	0
 3605              		.section	.debug_loc,"",%progbits
 3606              	.Ldebug_loc0:
 3607              	.LLST0:
 3608 0000 00000000 		.4byte	.LVL1
 3609 0004 0E000000 		.4byte	.LVL2
 3610 0008 0100     		.2byte	0x1
 3611 000a 50       		.byte	0x50
 3612 000b 0E000000 		.4byte	.LVL2
 3613 000f 3E000000 		.4byte	.LFE119
 3614 0013 0100     		.2byte	0x1
 3615 0015 54       		.byte	0x54
 3616 0016 00000000 		.4byte	0
 3617 001a 00000000 		.4byte	0
 3618              	.LLST1:
 3619 001e 00000000 		.4byte	.LVL5
 3620 0022 0F000000 		.4byte	.LVL6-1
 3621 0026 0100     		.2byte	0x1
 3622 0028 50       		.byte	0x50
 3623 0029 0F000000 		.4byte	.LVL6-1
 3624 002d 4C000000 		.4byte	.LVL11
 3625 0031 0100     		.2byte	0x1
ARM GAS  /tmp/cceMFToX.s 			page 65


 3626 0033 54       		.byte	0x54
 3627 0034 4C000000 		.4byte	.LVL11
 3628 0038 50000000 		.4byte	.LFE120
 3629 003c 0400     		.2byte	0x4
 3630 003e F3       		.byte	0xf3
 3631 003f 01       		.uleb128 0x1
 3632 0040 50       		.byte	0x50
 3633 0041 9F       		.byte	0x9f
 3634 0042 00000000 		.4byte	0
 3635 0046 00000000 		.4byte	0
 3636              	.LLST2:
 3637 004a 00000000 		.4byte	.LVL5
 3638 004e 0F000000 		.4byte	.LVL6-1
 3639 0052 0100     		.2byte	0x1
 3640 0054 51       		.byte	0x51
 3641 0055 0F000000 		.4byte	.LVL6-1
 3642 0059 4C000000 		.4byte	.LVL11
 3643 005d 0100     		.2byte	0x1
 3644 005f 55       		.byte	0x55
 3645 0060 4C000000 		.4byte	.LVL11
 3646 0064 50000000 		.4byte	.LFE120
 3647 0068 0400     		.2byte	0x4
 3648 006a F3       		.byte	0xf3
 3649 006b 01       		.uleb128 0x1
 3650 006c 51       		.byte	0x51
 3651 006d 9F       		.byte	0x9f
 3652 006e 00000000 		.4byte	0
 3653 0072 00000000 		.4byte	0
 3654              	.LLST3:
 3655 0076 00000000 		.4byte	.LVL12
 3656 007a 0D000000 		.4byte	.LVL13-1
 3657 007e 0100     		.2byte	0x1
 3658 0080 50       		.byte	0x50
 3659 0081 0D000000 		.4byte	.LVL13-1
 3660 0085 4C000000 		.4byte	.LVL20
 3661 0089 0100     		.2byte	0x1
 3662 008b 54       		.byte	0x54
 3663 008c 4C000000 		.4byte	.LVL20
 3664 0090 50000000 		.4byte	.LFE121
 3665 0094 0400     		.2byte	0x4
 3666 0096 F3       		.byte	0xf3
 3667 0097 01       		.uleb128 0x1
 3668 0098 50       		.byte	0x50
 3669 0099 9F       		.byte	0x9f
 3670 009a 00000000 		.4byte	0
 3671 009e 00000000 		.4byte	0
 3672              	.LLST4:
 3673 00a2 00000000 		.4byte	.LVL21
 3674 00a6 15000000 		.4byte	.LVL23-1
 3675 00aa 0100     		.2byte	0x1
 3676 00ac 50       		.byte	0x50
 3677 00ad 15000000 		.4byte	.LVL23-1
 3678 00b1 72000000 		.4byte	.LVL31
 3679 00b5 0100     		.2byte	0x1
 3680 00b7 54       		.byte	0x54
 3681 00b8 72000000 		.4byte	.LVL31
 3682 00bc 78000000 		.4byte	.LFE122
ARM GAS  /tmp/cceMFToX.s 			page 66


 3683 00c0 0400     		.2byte	0x4
 3684 00c2 F3       		.byte	0xf3
 3685 00c3 01       		.uleb128 0x1
 3686 00c4 50       		.byte	0x50
 3687 00c5 9F       		.byte	0x9f
 3688 00c6 00000000 		.4byte	0
 3689 00ca 00000000 		.4byte	0
 3690              	.LLST5:
 3691 00ce 00000000 		.4byte	.LVL21
 3692 00d2 15000000 		.4byte	.LVL23-1
 3693 00d6 0100     		.2byte	0x1
 3694 00d8 51       		.byte	0x51
 3695 00d9 15000000 		.4byte	.LVL23-1
 3696 00dd 72000000 		.4byte	.LVL31
 3697 00e1 0100     		.2byte	0x1
 3698 00e3 57       		.byte	0x57
 3699 00e4 72000000 		.4byte	.LVL31
 3700 00e8 78000000 		.4byte	.LFE122
 3701 00ec 0400     		.2byte	0x4
 3702 00ee F3       		.byte	0xf3
 3703 00ef 01       		.uleb128 0x1
 3704 00f0 51       		.byte	0x51
 3705 00f1 9F       		.byte	0x9f
 3706 00f2 00000000 		.4byte	0
 3707 00f6 00000000 		.4byte	0
 3708              	.LLST6:
 3709 00fa 00000000 		.4byte	.LVL21
 3710 00fe 15000000 		.4byte	.LVL23-1
 3711 0102 0100     		.2byte	0x1
 3712 0104 52       		.byte	0x52
 3713 0105 15000000 		.4byte	.LVL23-1
 3714 0109 72000000 		.4byte	.LVL31
 3715 010d 0100     		.2byte	0x1
 3716 010f 58       		.byte	0x58
 3717 0110 72000000 		.4byte	.LVL31
 3718 0114 78000000 		.4byte	.LFE122
 3719 0118 0400     		.2byte	0x4
 3720 011a F3       		.byte	0xf3
 3721 011b 01       		.uleb128 0x1
 3722 011c 52       		.byte	0x52
 3723 011d 9F       		.byte	0x9f
 3724 011e 00000000 		.4byte	0
 3725 0122 00000000 		.4byte	0
 3726              	.LLST7:
 3727 0126 00000000 		.4byte	.LVL21
 3728 012a 0E000000 		.4byte	.LVL22
 3729 012e 0100     		.2byte	0x1
 3730 0130 53       		.byte	0x53
 3731 0131 0E000000 		.4byte	.LVL22
 3732 0135 72000000 		.4byte	.LVL31
 3733 0139 0100     		.2byte	0x1
 3734 013b 56       		.byte	0x56
 3735 013c 72000000 		.4byte	.LVL31
 3736 0140 78000000 		.4byte	.LFE122
 3737 0144 0400     		.2byte	0x4
 3738 0146 F3       		.byte	0xf3
 3739 0147 01       		.uleb128 0x1
ARM GAS  /tmp/cceMFToX.s 			page 67


 3740 0148 53       		.byte	0x53
 3741 0149 9F       		.byte	0x9f
 3742 014a 00000000 		.4byte	0
 3743 014e 00000000 		.4byte	0
 3744              	.LLST8:
 3745 0152 32000000 		.4byte	.LVL25
 3746 0156 39000000 		.4byte	.LVL26-1
 3747 015a 0100     		.2byte	0x1
 3748 015c 50       		.byte	0x50
 3749 015d 39000000 		.4byte	.LVL26-1
 3750 0161 46000000 		.4byte	.LVL27
 3751 0165 0100     		.2byte	0x1
 3752 0167 55       		.byte	0x55
 3753 0168 00000000 		.4byte	0
 3754 016c 00000000 		.4byte	0
 3755              	.LLST9:
 3756 0170 00000000 		.4byte	.LVL32
 3757 0174 15000000 		.4byte	.LVL34-1
 3758 0178 0100     		.2byte	0x1
 3759 017a 50       		.byte	0x50
 3760 017b 15000000 		.4byte	.LVL34-1
 3761 017f 72000000 		.4byte	.LVL42
 3762 0183 0100     		.2byte	0x1
 3763 0185 54       		.byte	0x54
 3764 0186 72000000 		.4byte	.LVL42
 3765 018a 78000000 		.4byte	.LFE123
 3766 018e 0400     		.2byte	0x4
 3767 0190 F3       		.byte	0xf3
 3768 0191 01       		.uleb128 0x1
 3769 0192 50       		.byte	0x50
 3770 0193 9F       		.byte	0x9f
 3771 0194 00000000 		.4byte	0
 3772 0198 00000000 		.4byte	0
 3773              	.LLST10:
 3774 019c 00000000 		.4byte	.LVL32
 3775 01a0 15000000 		.4byte	.LVL34-1
 3776 01a4 0100     		.2byte	0x1
 3777 01a6 51       		.byte	0x51
 3778 01a7 15000000 		.4byte	.LVL34-1
 3779 01ab 72000000 		.4byte	.LVL42
 3780 01af 0100     		.2byte	0x1
 3781 01b1 57       		.byte	0x57
 3782 01b2 72000000 		.4byte	.LVL42
 3783 01b6 78000000 		.4byte	.LFE123
 3784 01ba 0400     		.2byte	0x4
 3785 01bc F3       		.byte	0xf3
 3786 01bd 01       		.uleb128 0x1
 3787 01be 51       		.byte	0x51
 3788 01bf 9F       		.byte	0x9f
 3789 01c0 00000000 		.4byte	0
 3790 01c4 00000000 		.4byte	0
 3791              	.LLST11:
 3792 01c8 00000000 		.4byte	.LVL32
 3793 01cc 15000000 		.4byte	.LVL34-1
 3794 01d0 0100     		.2byte	0x1
 3795 01d2 52       		.byte	0x52
 3796 01d3 15000000 		.4byte	.LVL34-1
ARM GAS  /tmp/cceMFToX.s 			page 68


 3797 01d7 72000000 		.4byte	.LVL42
 3798 01db 0100     		.2byte	0x1
 3799 01dd 58       		.byte	0x58
 3800 01de 72000000 		.4byte	.LVL42
 3801 01e2 78000000 		.4byte	.LFE123
 3802 01e6 0400     		.2byte	0x4
 3803 01e8 F3       		.byte	0xf3
 3804 01e9 01       		.uleb128 0x1
 3805 01ea 52       		.byte	0x52
 3806 01eb 9F       		.byte	0x9f
 3807 01ec 00000000 		.4byte	0
 3808 01f0 00000000 		.4byte	0
 3809              	.LLST12:
 3810 01f4 00000000 		.4byte	.LVL32
 3811 01f8 0E000000 		.4byte	.LVL33
 3812 01fc 0100     		.2byte	0x1
 3813 01fe 53       		.byte	0x53
 3814 01ff 0E000000 		.4byte	.LVL33
 3815 0203 72000000 		.4byte	.LVL42
 3816 0207 0100     		.2byte	0x1
 3817 0209 56       		.byte	0x56
 3818 020a 72000000 		.4byte	.LVL42
 3819 020e 78000000 		.4byte	.LFE123
 3820 0212 0400     		.2byte	0x4
 3821 0214 F3       		.byte	0xf3
 3822 0215 01       		.uleb128 0x1
 3823 0216 53       		.byte	0x53
 3824 0217 9F       		.byte	0x9f
 3825 0218 00000000 		.4byte	0
 3826 021c 00000000 		.4byte	0
 3827              	.LLST13:
 3828 0220 32000000 		.4byte	.LVL36
 3829 0224 39000000 		.4byte	.LVL37-1
 3830 0228 0100     		.2byte	0x1
 3831 022a 50       		.byte	0x50
 3832 022b 39000000 		.4byte	.LVL37-1
 3833 022f 46000000 		.4byte	.LVL38
 3834 0233 0100     		.2byte	0x1
 3835 0235 55       		.byte	0x55
 3836 0236 00000000 		.4byte	0
 3837 023a 00000000 		.4byte	0
 3838              	.LLST14:
 3839 023e 00000000 		.4byte	.LVL43
 3840 0242 0D000000 		.4byte	.LVL44-1
 3841 0246 0100     		.2byte	0x1
 3842 0248 50       		.byte	0x50
 3843 0249 0D000000 		.4byte	.LVL44-1
 3844 024d 48000000 		.4byte	.LVL50
 3845 0251 0100     		.2byte	0x1
 3846 0253 54       		.byte	0x54
 3847 0254 48000000 		.4byte	.LVL50
 3848 0258 4C000000 		.4byte	.LFE124
 3849 025c 0400     		.2byte	0x4
 3850 025e F3       		.byte	0xf3
 3851 025f 01       		.uleb128 0x1
 3852 0260 50       		.byte	0x50
 3853 0261 9F       		.byte	0x9f
ARM GAS  /tmp/cceMFToX.s 			page 69


 3854 0262 00000000 		.4byte	0
 3855 0266 00000000 		.4byte	0
 3856              	.LLST15:
 3857 026a 00000000 		.4byte	.LVL51
 3858 026e 0D000000 		.4byte	.LVL52-1
 3859 0272 0100     		.2byte	0x1
 3860 0274 50       		.byte	0x50
 3861 0275 0D000000 		.4byte	.LVL52-1
 3862 0279 48000000 		.4byte	.LVL58
 3863 027d 0100     		.2byte	0x1
 3864 027f 54       		.byte	0x54
 3865 0280 48000000 		.4byte	.LVL58
 3866 0284 4C000000 		.4byte	.LFE125
 3867 0288 0400     		.2byte	0x4
 3868 028a F3       		.byte	0xf3
 3869 028b 01       		.uleb128 0x1
 3870 028c 50       		.byte	0x50
 3871 028d 9F       		.byte	0x9f
 3872 028e 00000000 		.4byte	0
 3873 0292 00000000 		.4byte	0
 3874              		.section	.debug_aranges,"",%progbits
 3875 0000 54000000 		.4byte	0x54
 3876 0004 0200     		.2byte	0x2
 3877 0006 00000000 		.4byte	.Ldebug_info0
 3878 000a 04       		.byte	0x4
 3879 000b 00       		.byte	0
 3880 000c 0000     		.2byte	0
 3881 000e 0000     		.2byte	0
 3882 0010 00000000 		.4byte	.LFB118
 3883 0014 08000000 		.4byte	.LFE118-.LFB118
 3884 0018 00000000 		.4byte	.LFB119
 3885 001c 3E000000 		.4byte	.LFE119-.LFB119
 3886 0020 00000000 		.4byte	.LFB120
 3887 0024 50000000 		.4byte	.LFE120-.LFB120
 3888 0028 00000000 		.4byte	.LFB121
 3889 002c 50000000 		.4byte	.LFE121-.LFB121
 3890 0030 00000000 		.4byte	.LFB122
 3891 0034 78000000 		.4byte	.LFE122-.LFB122
 3892 0038 00000000 		.4byte	.LFB123
 3893 003c 78000000 		.4byte	.LFE123-.LFB123
 3894 0040 00000000 		.4byte	.LFB124
 3895 0044 4C000000 		.4byte	.LFE124-.LFB124
 3896 0048 00000000 		.4byte	.LFB125
 3897 004c 4C000000 		.4byte	.LFE125-.LFB125
 3898 0050 00000000 		.4byte	0
 3899 0054 00000000 		.4byte	0
 3900              		.section	.debug_ranges,"",%progbits
 3901              	.Ldebug_ranges0:
 3902 0000 00000000 		.4byte	.LFB118
 3903 0004 08000000 		.4byte	.LFE118
 3904 0008 00000000 		.4byte	.LFB119
 3905 000c 3E000000 		.4byte	.LFE119
 3906 0010 00000000 		.4byte	.LFB120
 3907 0014 50000000 		.4byte	.LFE120
 3908 0018 00000000 		.4byte	.LFB121
 3909 001c 50000000 		.4byte	.LFE121
 3910 0020 00000000 		.4byte	.LFB122
ARM GAS  /tmp/cceMFToX.s 			page 70


 3911 0024 78000000 		.4byte	.LFE122
 3912 0028 00000000 		.4byte	.LFB123
 3913 002c 78000000 		.4byte	.LFE123
 3914 0030 00000000 		.4byte	.LFB124
 3915 0034 4C000000 		.4byte	.LFE124
 3916 0038 00000000 		.4byte	.LFB125
 3917 003c 4C000000 		.4byte	.LFE125
 3918 0040 00000000 		.4byte	0
 3919 0044 00000000 		.4byte	0
 3920              		.section	.debug_line,"",%progbits
 3921              	.Ldebug_line0:
 3922 0000 35030000 		.section	.debug_str,"MS",%progbits,1
 3922      02003102 
 3922      00000201 
 3922      FB0E0D00 
 3922      01010101 
 3923              	.LASF139:
 3924 0000 63616E57 		.ascii	"canWakeup\000"
 3924      616B6575 
 3924      7000
 3925              	.LASF159:
 3926 000a 2F686F6D 		.ascii	"/home/seth/marionette-firmware/src/CAN\000"
 3926      652F7365 
 3926      74682F6D 
 3926      6172696F 
 3926      6E657474 
 3927              	.LASF143:
 3928 0031 63684462 		.ascii	"chDbgPanic\000"
 3928      6750616E 
 3928      696300
 3929              	.LASF115:
 3930 003c 43414E52 		.ascii	"CANRxFrame\000"
 3930      78467261 
 3930      6D6500
 3931              	.LASF73:
 3932 0047 7264796D 		.ascii	"rdymsg\000"
 3932      736700
 3933              	.LASF127:
 3934 004e 63616E49 		.ascii	"canInit\000"
 3934      6E697400 
 3935              	.LASF18:
 3936 0056 75696E74 		.ascii	"uint64_t\000"
 3936      36345F74 
 3936      00
 3937              	.LASF4:
 3938 005f 5F5F7569 		.ascii	"__uint8_t\000"
 3938      6E74385F 
 3938      7400
 3939              	.LASF116:
 3940 0069 43414E43 		.ascii	"CANConfig\000"
 3940      6F6E6669 
 3940      6700
 3941              	.LASF102:
 3942 0073 43414E5F 		.ascii	"CAN_TypeDef\000"
 3942      54797065 
 3942      44656600 
 3943              	.LASF13:
ARM GAS  /tmp/cceMFToX.s 			page 71


 3944 007f 6C6F6E67 		.ascii	"long long unsigned int\000"
 3944      206C6F6E 
 3944      6720756E 
 3944      7369676E 
 3944      65642069 
 3945              	.LASF74:
 3946 0096 65786974 		.ascii	"exitcode\000"
 3946      636F6465 
 3946      00
 3947              	.LASF112:
 3948 009f 64617461 		.ascii	"data32\000"
 3948      333200
 3949              	.LASF136:
 3950 00a6 63616E52 		.ascii	"canReceive\000"
 3950      65636569 
 3950      766500
 3951              	.LASF23:
 3952 00b1 74726566 		.ascii	"trefs_t\000"
 3952      735F7400 
 3953              	.LASF11:
 3954 00b9 6C6F6E67 		.ascii	"long long int\000"
 3954      206C6F6E 
 3954      6720696E 
 3954      7400
 3955              	.LASF1:
 3956 00c7 7369676E 		.ascii	"signed char\000"
 3956      65642063 
 3956      68617200 
 3957              	.LASF105:
 3958 00d3 43414E5F 		.ascii	"CAN_STARTING\000"
 3958      53544152 
 3958      54494E47 
 3958      00
 3959              	.LASF132:
 3960 00e0 6D61696C 		.ascii	"mailbox\000"
 3960      626F7800 
 3961              	.LASF51:
 3962 00e8 705F6D70 		.ascii	"p_mpool\000"
 3962      6F6F6C00 
 3963              	.LASF19:
 3964 00f0 626F6F6C 		.ascii	"bool_t\000"
 3964      5F7400
 3965              	.LASF63:
 3966 00f7 6D5F7175 		.ascii	"m_queue\000"
 3966      65756500 
 3967              	.LASF119:
 3968 00ff 74787365 		.ascii	"txsem\000"
 3968      6D00
 3969              	.LASF128:
 3970 0105 63616E4F 		.ascii	"canObjectInit\000"
 3970      626A6563 
 3970      74496E69 
 3970      7400
 3971              	.LASF24:
 3972 0113 74736C69 		.ascii	"tslices_t\000"
 3972      6365735F 
 3972      7400
ARM GAS  /tmp/cceMFToX.s 			page 72


 3973              	.LASF117:
 3974 011d 73746174 		.ascii	"state\000"
 3974      6500
 3975              	.LASF79:
 3976 0123 54444C52 		.ascii	"TDLR\000"
 3976      00
 3977              	.LASF8:
 3978 0128 6C6F6E67 		.ascii	"long int\000"
 3978      20696E74 
 3978      00
 3979              	.LASF22:
 3980 0131 74737461 		.ascii	"tstate_t\000"
 3980      74655F74 
 3980      00
 3981              	.LASF81:
 3982 013a 43414E5F 		.ascii	"CAN_TxMailBox_TypeDef\000"
 3982      54784D61 
 3982      696C426F 
 3982      785F5479 
 3982      70654465 
 3983              	.LASF42:
 3984 0150 705F7265 		.ascii	"p_refs\000"
 3984      667300
 3985              	.LASF161:
 3986 0157 63616E5F 		.ascii	"can_lld_wakeup\000"
 3986      6C6C645F 
 3986      77616B65 
 3986      757000
 3987              	.LASF15:
 3988 0166 75696E74 		.ascii	"uint16_t\000"
 3988      31365F74 
 3988      00
 3989              	.LASF44:
 3990 016f 705F7469 		.ascii	"p_time\000"
 3990      6D6500
 3991              	.LASF156:
 3992 0176 63684576 		.ascii	"chEvtBroadcastFlagsI\000"
 3992      7442726F 
 3992      61646361 
 3992      7374466C 
 3992      61677349 
 3993              	.LASF133:
 3994 018b 63746670 		.ascii	"ctfp\000"
 3994      00
 3995              	.LASF36:
 3996 0190 705F6E65 		.ascii	"p_newer\000"
 3996      77657200 
 3997              	.LASF60:
 3998 0198 735F7175 		.ascii	"s_queue\000"
 3998      65756500 
 3999              	.LASF106:
 4000 01a0 43414E5F 		.ascii	"CAN_READY\000"
 4000      52454144 
 4000      5900
 4001              	.LASF6:
 4002 01aa 73686F72 		.ascii	"short unsigned int\000"
 4002      7420756E 
ARM GAS  /tmp/cceMFToX.s 			page 73


 4002      7369676E 
 4002      65642069 
 4002      6E7400
 4003              	.LASF129:
 4004 01bd 63616E53 		.ascii	"canStart\000"
 4004      74617274 
 4004      00
 4005              	.LASF148:
 4006 01c6 63685363 		.ascii	"chSchRescheduleS\000"
 4006      68526573 
 4006      63686564 
 4006      756C6553 
 4006      00
 4007              	.LASF121:
 4008 01d7 72786675 		.ascii	"rxfull_event\000"
 4008      6C6C5F65 
 4008      76656E74 
 4008      00
 4009              	.LASF9:
 4010 01e4 5F5F7569 		.ascii	"__uint32_t\000"
 4010      6E743332 
 4010      5F7400
 4011              	.LASF54:
 4012 01ef 72656761 		.ascii	"regarm_t\000"
 4012      726D5F74 
 4012      00
 4013              	.LASF114:
 4014 01f8 54494D45 		.ascii	"TIME\000"
 4014      00
 4015              	.LASF78:
 4016 01fd 54445452 		.ascii	"TDTR\000"
 4016      00
 4017              	.LASF71:
 4018 0202 4576656E 		.ascii	"EventSource\000"
 4018      74536F75 
 4018      72636500 
 4019              	.LASF140:
 4020 020e 63616E5F 		.ascii	"can_lld_init\000"
 4020      6C6C645F 
 4020      696E6974 
 4020      00
 4021              	.LASF30:
 4022 021b 636E745F 		.ascii	"cnt_t\000"
 4022      7400
 4023              	.LASF39:
 4024 0221 705F7374 		.ascii	"p_stklimit\000"
 4024      6B6C696D 
 4024      697400
 4025              	.LASF0:
 4026 022c 756E7369 		.ascii	"unsigned int\000"
 4026      676E6564 
 4026      20696E74 
 4026      00
 4027              	.LASF90:
 4028 0239 7354784D 		.ascii	"sTxMailBox\000"
 4028      61696C42 
 4028      6F7800
ARM GAS  /tmp/cceMFToX.s 			page 74


 4029              	.LASF46:
 4030 0244 705F6D73 		.ascii	"p_msgqueue\000"
 4030      67717565 
 4030      756500
 4031              	.LASF134:
 4032 024f 74696D65 		.ascii	"timeout\000"
 4032      6F757400 
 4033              	.LASF82:
 4034 0257 52445452 		.ascii	"RDTR\000"
 4034      00
 4035              	.LASF113:
 4036 025c 43414E54 		.ascii	"CANTxFrame\000"
 4036      78467261 
 4036      6D6500
 4037              	.LASF61:
 4038 0267 735F636E 		.ascii	"s_cnt\000"
 4038      7400
 4039              	.LASF144:
 4040 026d 63616E5F 		.ascii	"can_lld_start\000"
 4040      6C6C645F 
 4040      73746172 
 4040      7400
 4041              	.LASF88:
 4042 027b 52463152 		.ascii	"RF1R\000"
 4042      00
 4043              	.LASF86:
 4044 0280 43414E5F 		.ascii	"CAN_FilterRegister_TypeDef\000"
 4044      46696C74 
 4044      65725265 
 4044      67697374 
 4044      65725F54 
 4045              	.LASF26:
 4046 029b 6D73675F 		.ascii	"msg_t\000"
 4046      7400
 4047              	.LASF67:
 4048 02a1 656C5F6E 		.ascii	"el_next\000"
 4048      65787400 
 4049              	.LASF21:
 4050 02a9 746D6F64 		.ascii	"tmode_t\000"
 4050      655F7400 
 4051              	.LASF53:
 4052 02b1 54687265 		.ascii	"ThreadsList\000"
 4052      6164734C 
 4052      69737400 
 4053              	.LASF101:
 4054 02bd 7346696C 		.ascii	"sFilterRegister\000"
 4054      74657252 
 4054      65676973 
 4054      74657200 
 4055              	.LASF27:
 4056 02cd 6576656E 		.ascii	"eventmask_t\000"
 4056      746D6173 
 4056      6B5F7400 
 4057              	.LASF157:
 4058 02d9 474E5520 		.ascii	"GNU C 4.9.2 20150128 (prerelease) -mcpu=cortex-m4 -"
 4058      4320342E 
 4058      392E3220 
ARM GAS  /tmp/cceMFToX.s 			page 75


 4058      32303135 
 4058      30313238 
 4059 030c 6D6E6F2D 		.ascii	"mno-thumb-interwork -mthumb -ggdb -Og -std=gnu99 -f"
 4059      7468756D 
 4059      622D696E 
 4059      74657277 
 4059      6F726B20 
 4060 033f 6F6D6974 		.ascii	"omit-frame-pointer -falign-functions=16 -ffunction-"
 4060      2D667261 
 4060      6D652D70 
 4060      6F696E74 
 4060      6572202D 
 4061 0372 73656374 		.ascii	"sections -fdata-sections -fno-common\000"
 4061      696F6E73 
 4061      202D6664 
 4061      6174612D 
 4061      73656374 
 4062              	.LASF62:
 4063 0397 4D757465 		.ascii	"Mutex\000"
 4063      7800
 4064              	.LASF55:
 4065 039d 73746B61 		.ascii	"stkalign_t\000"
 4065      6C69676E 
 4065      5F7400
 4066              	.LASF151:
 4067 03a8 63616E5F 		.ascii	"can_lld_is_tx_empty\000"
 4067      6C6C645F 
 4067      69735F74 
 4067      785F656D 
 4067      70747900 
 4068              	.LASF99:
 4069 03bc 46413152 		.ascii	"FA1R\000"
 4069      00
 4070              	.LASF135:
 4071 03c1 63616E54 		.ascii	"canTransmit\000"
 4071      72616E73 
 4071      6D697400 
 4072              	.LASF58:
 4073 03cd 73697A65 		.ascii	"sizetype\000"
 4073      74797065 
 4073      00
 4074              	.LASF107:
 4075 03d6 43414E5F 		.ascii	"CAN_SLEEP\000"
 4075      534C4545 
 4075      5000
 4076              	.LASF110:
 4077 03e0 64617461 		.ascii	"data8\000"
 4077      3800
 4078              	.LASF34:
 4079 03e6 705F7072 		.ascii	"p_prio\000"
 4079      696F00
 4080              	.LASF126:
 4081 03ed 43414E44 		.ascii	"CANDriver\000"
 4081      72697665 
 4081      7200
 4082              	.LASF69:
 4083 03f7 656C5F6D 		.ascii	"el_mask\000"
ARM GAS  /tmp/cceMFToX.s 			page 76


 4083      61736B00 
 4084              	.LASF37:
 4085 03ff 705F6F6C 		.ascii	"p_older\000"
 4085      64657200 
 4086              	.LASF52:
 4087 0407 54687265 		.ascii	"ThreadsQueue\000"
 4087      61647351 
 4087      75657565 
 4087      00
 4088              	.LASF80:
 4089 0414 54444852 		.ascii	"TDHR\000"
 4089      00
 4090              	.LASF141:
 4091 0419 6462675F 		.ascii	"dbg_check_lock\000"
 4091      63686563 
 4091      6B5F6C6F 
 4091      636B00
 4092              	.LASF145:
 4093 0428 6462675F 		.ascii	"dbg_check_unlock\000"
 4093      63686563 
 4093      6B5F756E 
 4093      6C6F636B 
 4093      00
 4094              	.LASF124:
 4095 0439 736C6565 		.ascii	"sleep_event\000"
 4095      705F6576 
 4095      656E7400 
 4096              	.LASF108:
 4097 0445 63616E73 		.ascii	"canstate_t\000"
 4097      74617465 
 4097      5F7400
 4098              	.LASF104:
 4099 0450 43414E5F 		.ascii	"CAN_STOP\000"
 4099      53544F50 
 4099      00
 4100              	.LASF97:
 4101 0459 46464131 		.ascii	"FFA1R\000"
 4101      5200
 4102              	.LASF12:
 4103 045f 5F5F7569 		.ascii	"__uint64_t\000"
 4103      6E743634 
 4103      5F7400
 4104              	.LASF123:
 4105 046a 6572726F 		.ascii	"error_event\000"
 4105      725F6576 
 4105      656E7400 
 4106              	.LASF137:
 4107 0476 63726670 		.ascii	"crfp\000"
 4107      00
 4108              	.LASF89:
 4109 047b 52455345 		.ascii	"RESERVED0\000"
 4109      52564544 
 4109      3000
 4110              	.LASF92:
 4111 0485 52455345 		.ascii	"RESERVED1\000"
 4111      52564544 
 4111      3100
ARM GAS  /tmp/cceMFToX.s 			page 77


 4112              	.LASF94:
 4113 048f 52455345 		.ascii	"RESERVED2\000"
 4113      52564544 
 4113      3200
 4114              	.LASF96:
 4115 0499 52455345 		.ascii	"RESERVED3\000"
 4115      52564544 
 4115      3300
 4116              	.LASF98:
 4117 04a3 52455345 		.ascii	"RESERVED4\000"
 4117      52564544 
 4117      3400
 4118              	.LASF33:
 4119 04ad 705F7072 		.ascii	"p_prev\000"
 4119      657600
 4120              	.LASF25:
 4121 04b4 74707269 		.ascii	"tprio_t\000"
 4121      6F5F7400 
 4122              	.LASF131:
 4123 04bc 63616E53 		.ascii	"canStop\000"
 4123      746F7000 
 4124              	.LASF103:
 4125 04c4 43414E5F 		.ascii	"CAN_UNINIT\000"
 4125      554E494E 
 4125      495400
 4126              	.LASF20:
 4127 04cf 5F426F6F 		.ascii	"_Bool\000"
 4127      6C00
 4128              	.LASF16:
 4129 04d5 696E7433 		.ascii	"int32_t\000"
 4129      325F7400 
 4130              	.LASF2:
 4131 04dd 756E7369 		.ascii	"unsigned char\000"
 4131      676E6564 
 4131      20636861 
 4131      7200
 4132              	.LASF125:
 4133 04eb 77616B65 		.ascii	"wakeup_event\000"
 4133      75705F65 
 4133      76656E74 
 4133      00
 4134              	.LASF68:
 4135 04f8 656C5F6C 		.ascii	"el_listener\000"
 4135      69737465 
 4135      6E657200 
 4136              	.LASF160:
 4137 0504 49544D5F 		.ascii	"ITM_RxBuffer\000"
 4137      52784275 
 4137      66666572 
 4137      00
 4138              	.LASF70:
 4139 0511 656C5F66 		.ascii	"el_flags\000"
 4139      6C616773 
 4139      00
 4140              	.LASF49:
 4141 051a 705F6D74 		.ascii	"p_mtxlist\000"
 4141      786C6973 
ARM GAS  /tmp/cceMFToX.s 			page 78


 4141      7400
 4142              	.LASF3:
 4143 0524 73686F72 		.ascii	"short int\000"
 4143      7420696E 
 4143      7400
 4144              	.LASF40:
 4145 052e 705F7374 		.ascii	"p_state\000"
 4145      61746500 
 4146              	.LASF43:
 4147 0536 705F7072 		.ascii	"p_preempt\000"
 4147      65656D70 
 4147      7400
 4148              	.LASF76:
 4149 0540 65776D61 		.ascii	"ewmask\000"
 4149      736B00
 4150              	.LASF32:
 4151 0547 705F6E65 		.ascii	"p_next\000"
 4151      787400
 4152              	.LASF41:
 4153 054e 705F666C 		.ascii	"p_flags\000"
 4153      61677300 
 4154              	.LASF138:
 4155 0556 63616E53 		.ascii	"canSleep\000"
 4155      6C656570 
 4155      00
 4156              	.LASF93:
 4157 055f 464D3152 		.ascii	"FM1R\000"
 4157      00
 4158              	.LASF31:
 4159 0564 54687265 		.ascii	"Thread\000"
 4159      616400
 4160              	.LASF48:
 4161 056b 705F6570 		.ascii	"p_epending\000"
 4161      656E6469 
 4161      6E6700
 4162              	.LASF100:
 4163 0576 52455345 		.ascii	"RESERVED5\000"
 4163      52564544 
 4163      3500
 4164              	.LASF130:
 4165 0580 63616E70 		.ascii	"canp\000"
 4165      00
 4166              	.LASF17:
 4167 0585 75696E74 		.ascii	"uint32_t\000"
 4167      33325F74 
 4167      00
 4168              	.LASF122:
 4169 058e 7478656D 		.ascii	"txempty_event\000"
 4169      7074795F 
 4169      6576656E 
 4169      7400
 4170              	.LASF10:
 4171 059c 6C6F6E67 		.ascii	"long unsigned int\000"
 4171      20756E73 
 4171      69676E65 
 4171      6420696E 
 4171      7400
ARM GAS  /tmp/cceMFToX.s 			page 79


 4172              	.LASF77:
 4173 05ae 63686172 		.ascii	"char\000"
 4173      00
 4174              	.LASF118:
 4175 05b3 636F6E66 		.ascii	"config\000"
 4175      696700
 4176              	.LASF150:
 4177 05ba 63685365 		.ascii	"chSemWaitTimeoutS\000"
 4177      6D576169 
 4177      7454696D 
 4177      656F7574 
 4177      5300
 4178              	.LASF5:
 4179 05cc 5F5F7569 		.ascii	"__uint16_t\000"
 4179      6E743136 
 4179      5F7400
 4180              	.LASF84:
 4181 05d7 52444852 		.ascii	"RDHR\000"
 4181      00
 4182              	.LASF65:
 4183 05dc 6D5F6E65 		.ascii	"m_next\000"
 4183      787400
 4184              	.LASF29:
 4185 05e3 73797374 		.ascii	"systime_t\000"
 4185      696D655F 
 4185      7400
 4186              	.LASF50:
 4187 05ed 705F7265 		.ascii	"p_realprio\000"
 4187      616C7072 
 4187      696F00
 4188              	.LASF7:
 4189 05f8 5F5F696E 		.ascii	"__int32_t\000"
 4189      7433325F 
 4189      7400
 4190              	.LASF91:
 4191 0602 73464946 		.ascii	"sFIFOMailBox\000"
 4191      4F4D6169 
 4191      6C426F78 
 4191      00
 4192              	.LASF57:
 4193 060f 636F6E74 		.ascii	"context\000"
 4193      65787400 
 4194              	.LASF155:
 4195 0617 63616E5F 		.ascii	"can_lld_sleep\000"
 4195      6C6C645F 
 4195      736C6565 
 4195      7000
 4196              	.LASF56:
 4197 0625 696E7463 		.ascii	"intctx\000"
 4197      747800
 4198              	.LASF59:
 4199 062c 53656D61 		.ascii	"Semaphore\000"
 4199      70686F72 
 4199      6500
 4200              	.LASF28:
 4201 0636 666C6167 		.ascii	"flagsmask_t\000"
 4201      736D6173 
ARM GAS  /tmp/cceMFToX.s 			page 80


 4201      6B5F7400 
 4202              	.LASF111:
 4203 0642 64617461 		.ascii	"data16\000"
 4203      313600
 4204              	.LASF95:
 4205 0649 46533152 		.ascii	"FS1R\000"
 4205      00
 4206              	.LASF38:
 4207 064e 705F6E61 		.ascii	"p_name\000"
 4207      6D6500
 4208              	.LASF72:
 4209 0655 65735F6E 		.ascii	"es_next\000"
 4209      65787400 
 4210              	.LASF85:
 4211 065d 43414E5F 		.ascii	"CAN_FIFOMailBox_TypeDef\000"
 4211      4649464F 
 4211      4D61696C 
 4211      426F785F 
 4211      54797065 
 4212              	.LASF147:
 4213 0675 63685365 		.ascii	"chSemResetI\000"
 4213      6D526573 
 4213      65744900 
 4214              	.LASF14:
 4215 0681 75696E74 		.ascii	"uint8_t\000"
 4215      385F7400 
 4216              	.LASF120:
 4217 0689 72787365 		.ascii	"rxsem\000"
 4217      6D00
 4218              	.LASF146:
 4219 068f 63616E5F 		.ascii	"can_lld_stop\000"
 4219      6C6C645F 
 4219      73746F70 
 4219      00
 4220              	.LASF152:
 4221 069c 63616E5F 		.ascii	"can_lld_transmit\000"
 4221      6C6C645F 
 4221      7472616E 
 4221      736D6974 
 4221      00
 4222              	.LASF66:
 4223 06ad 4576656E 		.ascii	"EventListener\000"
 4223      744C6973 
 4223      74656E65 
 4223      7200
 4224              	.LASF75:
 4225 06bb 77746F62 		.ascii	"wtobjp\000"
 4225      6A7000
 4226              	.LASF87:
 4227 06c2 52463052 		.ascii	"RF0R\000"
 4227      00
 4228              	.LASF109:
 4229 06c7 63616E6D 		.ascii	"canmbx_t\000"
 4229      62785F74 
 4229      00
 4230              	.LASF153:
 4231 06d0 63616E5F 		.ascii	"can_lld_is_rx_nonempty\000"
ARM GAS  /tmp/cceMFToX.s 			page 81


 4231      6C6C645F 
 4231      69735F72 
 4231      785F6E6F 
 4231      6E656D70 
 4232              	.LASF158:
 4233 06e7 2E2E2F2E 		.ascii	"../../ChibiOS-RT/os/hal/src/can.c\000"
 4233      2E2F4368 
 4233      6962694F 
 4233      532D5254 
 4233      2F6F732F 
 4234              	.LASF149:
 4235 0709 63685363 		.ascii	"chSchGoSleepTimeoutS\000"
 4235      68476F53 
 4235      6C656570 
 4235      54696D65 
 4235      6F757453 
 4236              	.LASF154:
 4237 071e 63616E5F 		.ascii	"can_lld_receive\000"
 4237      6C6C645F 
 4237      72656365 
 4237      69766500 
 4238              	.LASF47:
 4239 072e 705F6D73 		.ascii	"p_msg\000"
 4239      6700
 4240              	.LASF83:
 4241 0734 52444C52 		.ascii	"RDLR\000"
 4241      00
 4242              	.LASF64:
 4243 0739 6D5F6F77 		.ascii	"m_owner\000"
 4243      6E657200 
 4244              	.LASF35:
 4245 0741 705F6374 		.ascii	"p_ctx\000"
 4245      7800
 4246              	.LASF45:
 4247 0747 705F7761 		.ascii	"p_waiting\000"
 4247      6974696E 
 4247      6700
 4248              	.LASF142:
 4249 0751 63685365 		.ascii	"chSemInit\000"
 4249      6D496E69 
 4249      7400
 4250              		.ident	"GCC: (Arch Repository) 4.9.2 20150128 (prerelease)"
ARM GAS  /tmp/cceMFToX.s 			page 82


DEFINED SYMBOLS
                            *ABS*:0000000000000000 can.c
     /tmp/cceMFToX.s:19     .text.canInit:0000000000000000 $t
     /tmp/cceMFToX.s:25     .text.canInit:0000000000000000 canInit
     /tmp/cceMFToX.s:44     .text.canObjectInit:0000000000000000 $t
     /tmp/cceMFToX.s:50     .text.canObjectInit:0000000000000000 canObjectInit
     /tmp/cceMFToX.s:101    .text.canStart:0000000000000000 $t
     /tmp/cceMFToX.s:107    .text.canStart:0000000000000000 canStart
     /tmp/cceMFToX.s:181    .text.canStart:000000000000004c $d
     /tmp/cceMFToX.s:187    .text.canStop:0000000000000000 $t
     /tmp/cceMFToX.s:193    .text.canStop:0000000000000000 canStop
     /tmp/cceMFToX.s:261    .text.canStop:000000000000004c $d
     /tmp/cceMFToX.s:267    .text.canTransmit:0000000000000000 $t
     /tmp/cceMFToX.s:273    .text.canTransmit:0000000000000000 canTransmit
     /tmp/cceMFToX.s:375    .text.canTransmit:0000000000000074 $d
     /tmp/cceMFToX.s:380    .text.canReceive:0000000000000000 $t
     /tmp/cceMFToX.s:386    .text.canReceive:0000000000000000 canReceive
     /tmp/cceMFToX.s:488    .text.canReceive:0000000000000074 $d
     /tmp/cceMFToX.s:493    .text.canSleep:0000000000000000 $t
     /tmp/cceMFToX.s:499    .text.canSleep:0000000000000000 canSleep
     /tmp/cceMFToX.s:566    .text.canSleep:0000000000000048 $d
     /tmp/cceMFToX.s:572    .text.canWakeup:0000000000000000 $t
     /tmp/cceMFToX.s:578    .text.canWakeup:0000000000000000 canWakeup
     /tmp/cceMFToX.s:645    .text.canWakeup:0000000000000048 $d
     /tmp/cceMFToX.s:651    .rodata.str1.4:0000000000000000 $d
                     .debug_frame:0000000000000010 $d
     /tmp/cceMFToX.s:379    .text.canTransmit:0000000000000078 $t
     /tmp/cceMFToX.s:492    .text.canReceive:0000000000000078 $t
     /tmp/cceMFToX.s:571    .text.canSleep:000000000000004c $t
     /tmp/cceMFToX.s:650    .text.canWakeup:000000000000004c $t

UNDEFINED SYMBOLS
can_lld_init
chSemInit
dbg_check_lock
chDbgPanic
chSchGoSleepTimeoutS
can_lld_start
dbg_check_unlock
can_lld_stop
chSemResetI
chSchRescheduleS
chSemWaitTimeoutS
can_lld_is_tx_empty
can_lld_transmit
can_lld_is_rx_nonempty
can_lld_receive
can_lld_sleep
chEvtBroadcastFlagsI
can_lld_wakeup
