ARM GAS  /tmp/ccKhjEn7.s 			page 1


   1              		.syntax unified
   2              		.cpu cortex-m4
   3              		.fpu softvfp
   4              		.eabi_attribute 20, 1
   5              		.eabi_attribute 21, 1
   6              		.eabi_attribute 23, 3
   7              		.eabi_attribute 24, 1
   8              		.eabi_attribute 25, 1
   9              		.eabi_attribute 26, 1
  10              		.eabi_attribute 30, 1
  11              		.eabi_attribute 34, 1
  12              		.eabi_attribute 18, 4
  13              		.thumb
  14              		.file	"can_lld.c"
  15              		.text
  16              	.Ltext0:
  17              		.cfi_sections	.debug_frame
  18              		.section	.text.can_lld_set_filters,"ax",%progbits
  19              		.align	2
  20              		.p2align 4,,15
  21              		.thumb
  22              		.thumb_func
  23              		.type	can_lld_set_filters, %function
  24              	can_lld_set_filters:
  25              	.LFB118:
  26              		.file 1 "../../ChibiOS-RT/os/hal/platforms/STM32/can_lld.c"
  27              		.loc 1 69 0
  28              		.cfi_startproc
  29              		@ args = 0, pretend = 0, frame = 0
  30              		@ frame_needed = 0, uses_anonymous_args = 0
  31              		@ link register save eliminated.
  32              	.LVL0:
  33 0000 70B4     		push	{r4, r5, r6}
  34              		.cfi_def_cfa_offset 12
  35              		.cfi_offset 4, -12
  36              		.cfi_offset 5, -8
  37              		.cfi_offset 6, -4
  38              		.loc 1 72 0
  39 0002 454C     		ldr	r4, .L12
  40 0004 236C     		ldr	r3, [r4, #64]
  41 0006 43F00073 		orr	r3, r3, #33554432
  42 000a 2364     		str	r3, [r4, #64]
  43              		.loc 1 75 0
  44 000c A4F5EA34 		sub	r4, r4, #119808
  45 0010 D4F80032 		ldr	r3, [r4, #512]
  46 0014 1B0C     		lsrs	r3, r3, #16
  47 0016 1B04     		lsls	r3, r3, #16
  48 0018 43EA0023 		orr	r3, r3, r0, lsl #8
  49 001c 43F00103 		orr	r3, r3, #1
  50 0020 C4F80032 		str	r3, [r4, #512]
  51              		.loc 1 76 0
  52 0024 0029     		cmp	r1, #0
  53 0026 4FD0     		beq	.L2
  54 0028 0E46     		mov	r6, r1
  55              	.LBB2:
  56              		.loc 1 80 0
  57 002a 0020     		movs	r0, #0
ARM GAS  /tmp/ccKhjEn7.s 			page 2


  58              	.LVL1:
  59 002c C4F81C02 		str	r0, [r4, #540]
  60              		.loc 1 81 0
  61 0030 C4F80402 		str	r0, [r4, #516]
  62              		.loc 1 82 0
  63 0034 C4F80C02 		str	r0, [r4, #524]
  64              		.loc 1 83 0
  65 0038 C4F81402 		str	r0, [r4, #532]
  66              	.LVL2:
  67              		.loc 1 84 0
  68 003c 09E0     		b	.L3
  69              	.LVL3:
  70              	.L4:
  71              		.loc 1 85 0 discriminator 3
  72 003e 374B     		ldr	r3, .L12+4
  73 0040 00F14805 		add	r5, r0, #72
  74 0044 0024     		movs	r4, #0
  75 0046 43F83540 		str	r4, [r3, r5, lsl #3]
  76              		.loc 1 86 0 discriminator 3
  77 004a 03EBC503 		add	r3, r3, r5, lsl #3
  78 004e 5C60     		str	r4, [r3, #4]
  79              		.loc 1 84 0 discriminator 3
  80 0050 0130     		adds	r0, r0, #1
  81              	.LVL4:
  82              	.L3:
  83              		.loc 1 84 0 is_stmt 0 discriminator 1
  84 0052 1B28     		cmp	r0, #27
  85 0054 F3D9     		bls	.L4
  86 0056 0025     		movs	r5, #0
  87 0058 33E0     		b	.L5
  88              	.LVL5:
  89              	.L9:
  90              		.loc 1 91 0 is_stmt 1
  91 005a 1168     		ldr	r1, [r2]
  92 005c 0123     		movs	r3, #1
  93 005e 8B40     		lsls	r3, r3, r1
  94              	.LVL6:
  95              		.loc 1 92 0
  96 0060 1179     		ldrb	r1, [r2, #4]	@ zero_extendqisi2
  97 0062 11F0010F 		tst	r1, #1
  98 0066 05D0     		beq	.L6
  99              		.loc 1 93 0
 100 0068 2C48     		ldr	r0, .L12+4
 101 006a D0F80412 		ldr	r1, [r0, #516]
 102 006e 1943     		orrs	r1, r1, r3
 103 0070 C0F80412 		str	r1, [r0, #516]
 104              	.L6:
 105              		.loc 1 94 0
 106 0074 1179     		ldrb	r1, [r2, #4]	@ zero_extendqisi2
 107 0076 11F0020F 		tst	r1, #2
 108 007a 05D0     		beq	.L7
 109              		.loc 1 95 0
 110 007c 2748     		ldr	r0, .L12+4
 111 007e D0F80C12 		ldr	r1, [r0, #524]
 112 0082 1943     		orrs	r1, r1, r3
 113 0084 C0F80C12 		str	r1, [r0, #524]
 114              	.L7:
ARM GAS  /tmp/ccKhjEn7.s 			page 3


 115              		.loc 1 96 0
 116 0088 1179     		ldrb	r1, [r2, #4]	@ zero_extendqisi2
 117 008a 11F0040F 		tst	r1, #4
 118 008e 05D0     		beq	.L8
 119              		.loc 1 97 0
 120 0090 2248     		ldr	r0, .L12+4
 121 0092 D0F81412 		ldr	r1, [r0, #532]
 122 0096 1943     		orrs	r1, r1, r3
 123 0098 C0F81412 		str	r1, [r0, #532]
 124              	.L8:
 125              		.loc 1 98 0 discriminator 2
 126 009c 1068     		ldr	r0, [r2]
 127 009e 9468     		ldr	r4, [r2, #8]
 128 00a0 1E49     		ldr	r1, .L12+4
 129 00a2 4830     		adds	r0, r0, #72
 130 00a4 41F83040 		str	r4, [r1, r0, lsl #3]
 131              		.loc 1 99 0 discriminator 2
 132 00a8 1068     		ldr	r0, [r2]
 133 00aa D468     		ldr	r4, [r2, #12]
 134 00ac 4830     		adds	r0, r0, #72
 135 00ae 01EBC000 		add	r0, r1, r0, lsl #3
 136 00b2 4460     		str	r4, [r0, #4]
 137              		.loc 1 100 0 discriminator 2
 138 00b4 D1F81C02 		ldr	r0, [r1, #540]
 139 00b8 0343     		orrs	r3, r3, r0
 140              	.LVL7:
 141 00ba C1F81C32 		str	r3, [r1, #540]
 142              		.loc 1 101 0 discriminator 2
 143 00be 1032     		adds	r2, r2, #16
 144              	.LVL8:
 145              		.loc 1 90 0 discriminator 2
 146 00c0 0135     		adds	r5, r5, #1
 147              	.LVL9:
 148              	.L5:
 149              		.loc 1 90 0 is_stmt 0 discriminator 1
 150 00c2 B542     		cmp	r5, r6
 151 00c4 C9D3     		bcc	.L9
 152 00c6 18E0     		b	.L10
 153              	.LVL10:
 154              	.L2:
 155              	.LBE2:
 156              		.loc 1 107 0 is_stmt 1
 157 00c8 144B     		ldr	r3, .L12+4
 158 00ca 0022     		movs	r2, #0
 159              	.LVL11:
 160 00cc C3F84022 		str	r2, [r3, #576]
 161              		.loc 1 108 0
 162 00d0 C3F84422 		str	r2, [r3, #580]
 163              		.loc 1 110 0
 164 00d4 00F14801 		add	r1, r0, #72
 165              	.LVL12:
 166 00d8 43F83120 		str	r2, [r3, r1, lsl #3]
 167              		.loc 1 111 0
 168 00dc 03EBC101 		add	r1, r3, r1, lsl #3
 169 00e0 4A60     		str	r2, [r1, #4]
 170              		.loc 1 113 0
 171 00e2 C3F80422 		str	r2, [r3, #516]
ARM GAS  /tmp/ccKhjEn7.s 			page 4


 172              		.loc 1 114 0
 173 00e6 C3F81422 		str	r2, [r3, #532]
 174              		.loc 1 116 0
 175 00ea 0122     		movs	r2, #1
 176 00ec 8240     		lsls	r2, r2, r0
 177 00ee 42F00102 		orr	r2, r2, #1
 178 00f2 C3F80C22 		str	r2, [r3, #524]
 179              		.loc 1 117 0
 180 00f6 C3F81C22 		str	r2, [r3, #540]
 181              	.LVL13:
 182              	.L10:
 183              		.loc 1 123 0
 184 00fa 084A     		ldr	r2, .L12+4
 185 00fc D2F80032 		ldr	r3, [r2, #512]
 186 0100 23F00103 		bic	r3, r3, #1
 187 0104 C2F80032 		str	r3, [r2, #512]
 188              		.loc 1 126 0
 189 0108 02F5EA32 		add	r2, r2, #119808
 190 010c 136C     		ldr	r3, [r2, #64]
 191 010e 23F00073 		bic	r3, r3, #33554432
 192 0112 1364     		str	r3, [r2, #64]
 193              		.loc 1 127 0
 194 0114 70BC     		pop	{r4, r5, r6}
 195              		.cfi_restore 6
 196              		.cfi_restore 5
 197              		.cfi_restore 4
 198              		.cfi_def_cfa_offset 0
 199 0116 7047     		bx	lr
 200              	.L13:
 201              		.align	2
 202              	.L12:
 203 0118 00380240 		.word	1073887232
 204 011c 00640040 		.word	1073767424
 205              		.cfi_endproc
 206              	.LFE118:
 207              		.size	can_lld_set_filters, .-can_lld_set_filters
 208              		.section	.text.can_lld_tx_handler,"ax",%progbits
 209              		.align	2
 210              		.p2align 4,,15
 211              		.thumb
 212              		.thumb_func
 213              		.type	can_lld_tx_handler, %function
 214              	can_lld_tx_handler:
 215              	.LFB119:
 216              		.loc 1 136 0
 217              		.cfi_startproc
 218              		@ args = 0, pretend = 0, frame = 0
 219              		@ frame_needed = 0, uses_anonymous_args = 0
 220              	.LVL14:
 221 0000 10B5     		push	{r4, lr}
 222              		.cfi_def_cfa_offset 8
 223              		.cfi_offset 4, -8
 224              		.cfi_offset 14, -4
 225 0002 0446     		mov	r4, r0
 226              		.loc 1 139 0
 227 0004 436B     		ldr	r3, [r0, #52]
 228 0006 0D4A     		ldr	r2, .L18
ARM GAS  /tmp/ccKhjEn7.s 			page 5


 229 0008 9A60     		str	r2, [r3, #8]
 230              	.LBB3:
 231              		.loc 1 140 0
 232 000a 2023     		movs	r3, #32
 233              	@ 140 "../../ChibiOS-RT/os/hal/platforms/STM32/can_lld.c" 1
 234 000c 83F31188 		msr     BASEPRI, r3
 235              	@ 0 "" 2
 236              		.thumb
 237              	.LBE3:
 238 0010 FFF7FEFF 		bl	dbg_check_lock_from_isr
 239              	.LVL15:
 240              		.loc 1 141 0
 241 0014 03E0     		b	.L15
 242              	.L16:
 243              		.loc 1 142 0
 244 0016 04F10800 		add	r0, r4, #8
 245 001a FFF7FEFF 		bl	chSemSignalI
 246              	.LVL16:
 247              	.L15:
 248              		.loc 1 141 0
 249 001e 2369     		ldr	r3, [r4, #16]
 250 0020 002B     		cmp	r3, #0
 251 0022 F8DB     		blt	.L16
 252              		.loc 1 143 0
 253 0024 04F12400 		add	r0, r4, #36
 254 0028 0121     		movs	r1, #1
 255 002a FFF7FEFF 		bl	chEvtBroadcastFlagsI
 256              	.LVL17:
 257              		.loc 1 144 0
 258 002e FFF7FEFF 		bl	dbg_check_unlock_from_isr
 259              	.LVL18:
 260              	.LBB4:
 261 0032 0023     		movs	r3, #0
 262              	@ 144 "../../ChibiOS-RT/os/hal/platforms/STM32/can_lld.c" 1
 263 0034 83F31188 		msr     BASEPRI, r3
 264              	@ 0 "" 2
 265              		.thumb
 266 0038 10BD     		pop	{r4, pc}
 267              	.LVL19:
 268              	.L19:
 269 003a 00BF     		.align	2
 270              	.L18:
 271 003c 01010100 		.word	65793
 272              	.LBE4:
 273              		.cfi_endproc
 274              	.LFE119:
 275              		.size	can_lld_tx_handler, .-can_lld_tx_handler
 276              		.section	.text.can_lld_rx0_handler,"ax",%progbits
 277              		.align	2
 278              		.p2align 4,,15
 279              		.thumb
 280              		.thumb_func
 281              		.type	can_lld_rx0_handler, %function
 282              	can_lld_rx0_handler:
 283              	.LFB120:
 284              		.loc 1 154 0
 285              		.cfi_startproc
ARM GAS  /tmp/ccKhjEn7.s 			page 6


 286              		@ args = 0, pretend = 0, frame = 0
 287              		@ frame_needed = 0, uses_anonymous_args = 0
 288              	.LVL20:
 289 0000 38B5     		push	{r3, r4, r5, lr}
 290              		.cfi_def_cfa_offset 16
 291              		.cfi_offset 3, -16
 292              		.cfi_offset 4, -12
 293              		.cfi_offset 5, -8
 294              		.cfi_offset 14, -4
 295 0002 0446     		mov	r4, r0
 296              		.loc 1 157 0
 297 0004 436B     		ldr	r3, [r0, #52]
 298 0006 DD68     		ldr	r5, [r3, #12]
 299              	.LVL21:
 300              		.loc 1 158 0
 301 0008 15F0030F 		tst	r5, #3
 302 000c 1AD0     		beq	.L21
 303              		.loc 1 160 0
 304 000e 5A69     		ldr	r2, [r3, #20]
 305 0010 22F00202 		bic	r2, r2, #2
 306 0014 5A61     		str	r2, [r3, #20]
 307              	.LBB5:
 308              		.loc 1 161 0
 309 0016 2023     		movs	r3, #32
 310              	@ 161 "../../ChibiOS-RT/os/hal/platforms/STM32/can_lld.c" 1
 311 0018 83F31188 		msr     BASEPRI, r3
 312              	@ 0 "" 2
 313              		.thumb
 314              	.LBE5:
 315 001c FFF7FEFF 		bl	dbg_check_lock_from_isr
 316              	.LVL22:
 317              		.loc 1 162 0
 318 0020 03E0     		b	.L22
 319              	.L23:
 320              		.loc 1 163 0
 321 0022 04F11400 		add	r0, r4, #20
 322 0026 FFF7FEFF 		bl	chSemSignalI
 323              	.LVL23:
 324              	.L22:
 325              		.loc 1 162 0
 326 002a E369     		ldr	r3, [r4, #28]
 327 002c 002B     		cmp	r3, #0
 328 002e F8DB     		blt	.L23
 329              		.loc 1 164 0
 330 0030 04F12000 		add	r0, r4, #32
 331 0034 0121     		movs	r1, #1
 332 0036 FFF7FEFF 		bl	chEvtBroadcastFlagsI
 333              	.LVL24:
 334              		.loc 1 165 0
 335 003a FFF7FEFF 		bl	dbg_check_unlock_from_isr
 336              	.LVL25:
 337              	.LBB6:
 338 003e 0023     		movs	r3, #0
 339              	@ 165 "../../ChibiOS-RT/os/hal/platforms/STM32/can_lld.c" 1
 340 0040 83F31188 		msr     BASEPRI, r3
 341              	@ 0 "" 2
 342              		.thumb
ARM GAS  /tmp/ccKhjEn7.s 			page 7


 343              	.L21:
 344              	.LBE6:
 345              		.loc 1 167 0
 346 0044 15F0100F 		tst	r5, #16
 347 0048 11D0     		beq	.L20
 348              		.loc 1 169 0
 349 004a 636B     		ldr	r3, [r4, #52]
 350 004c 1025     		movs	r5, #16
 351              	.LVL26:
 352 004e DD60     		str	r5, [r3, #12]
 353              	.LBB7:
 354              		.loc 1 170 0
 355 0050 2023     		movs	r3, #32
 356              	@ 170 "../../ChibiOS-RT/os/hal/platforms/STM32/can_lld.c" 1
 357 0052 83F31188 		msr     BASEPRI, r3
 358              	@ 0 "" 2
 359              		.thumb
 360              	.LBE7:
 361 0056 FFF7FEFF 		bl	dbg_check_lock_from_isr
 362              	.LVL27:
 363              		.loc 1 171 0
 364 005a 04F12800 		add	r0, r4, #40
 365 005e 2946     		mov	r1, r5
 366 0060 FFF7FEFF 		bl	chEvtBroadcastFlagsI
 367              	.LVL28:
 368              		.loc 1 172 0
 369 0064 FFF7FEFF 		bl	dbg_check_unlock_from_isr
 370              	.LVL29:
 371              	.LBB8:
 372 0068 0023     		movs	r3, #0
 373              	@ 172 "../../ChibiOS-RT/os/hal/platforms/STM32/can_lld.c" 1
 374 006a 83F31188 		msr     BASEPRI, r3
 375              	@ 0 "" 2
 376              		.thumb
 377              	.L20:
 378 006e 38BD     		pop	{r3, r4, r5, pc}
 379              	.LBE8:
 380              		.cfi_endproc
 381              	.LFE120:
 382              		.size	can_lld_rx0_handler, .-can_lld_rx0_handler
 383              		.section	.text.can_lld_rx1_handler,"ax",%progbits
 384              		.align	2
 385              		.p2align 4,,15
 386              		.thumb
 387              		.thumb_func
 388              		.type	can_lld_rx1_handler, %function
 389              	can_lld_rx1_handler:
 390              	.LFB121:
 391              		.loc 1 183 0
 392              		.cfi_startproc
 393              		@ args = 0, pretend = 0, frame = 0
 394              		@ frame_needed = 0, uses_anonymous_args = 0
 395              	.LVL30:
 396 0000 38B5     		push	{r3, r4, r5, lr}
 397              		.cfi_def_cfa_offset 16
 398              		.cfi_offset 3, -16
 399              		.cfi_offset 4, -12
ARM GAS  /tmp/ccKhjEn7.s 			page 8


 400              		.cfi_offset 5, -8
 401              		.cfi_offset 14, -4
 402 0002 0446     		mov	r4, r0
 403              		.loc 1 186 0
 404 0004 436B     		ldr	r3, [r0, #52]
 405 0006 1D69     		ldr	r5, [r3, #16]
 406              	.LVL31:
 407              		.loc 1 187 0
 408 0008 15F0030F 		tst	r5, #3
 409 000c 1AD0     		beq	.L27
 410              		.loc 1 189 0
 411 000e 5A69     		ldr	r2, [r3, #20]
 412 0010 22F01002 		bic	r2, r2, #16
 413 0014 5A61     		str	r2, [r3, #20]
 414              	.LBB9:
 415              		.loc 1 190 0
 416 0016 2023     		movs	r3, #32
 417              	@ 190 "../../ChibiOS-RT/os/hal/platforms/STM32/can_lld.c" 1
 418 0018 83F31188 		msr     BASEPRI, r3
 419              	@ 0 "" 2
 420              		.thumb
 421              	.LBE9:
 422 001c FFF7FEFF 		bl	dbg_check_lock_from_isr
 423              	.LVL32:
 424              		.loc 1 191 0
 425 0020 03E0     		b	.L28
 426              	.L29:
 427              		.loc 1 192 0
 428 0022 04F11400 		add	r0, r4, #20
 429 0026 FFF7FEFF 		bl	chSemSignalI
 430              	.LVL33:
 431              	.L28:
 432              		.loc 1 191 0
 433 002a E369     		ldr	r3, [r4, #28]
 434 002c 002B     		cmp	r3, #0
 435 002e F8DB     		blt	.L29
 436              		.loc 1 193 0
 437 0030 04F12000 		add	r0, r4, #32
 438 0034 0221     		movs	r1, #2
 439 0036 FFF7FEFF 		bl	chEvtBroadcastFlagsI
 440              	.LVL34:
 441              		.loc 1 194 0
 442 003a FFF7FEFF 		bl	dbg_check_unlock_from_isr
 443              	.LVL35:
 444              	.LBB10:
 445 003e 0023     		movs	r3, #0
 446              	@ 194 "../../ChibiOS-RT/os/hal/platforms/STM32/can_lld.c" 1
 447 0040 83F31188 		msr     BASEPRI, r3
 448              	@ 0 "" 2
 449              		.thumb
 450              	.L27:
 451              	.LBE10:
 452              		.loc 1 196 0
 453 0044 15F0100F 		tst	r5, #16
 454 0048 11D0     		beq	.L26
 455              		.loc 1 198 0
 456 004a 636B     		ldr	r3, [r4, #52]
ARM GAS  /tmp/ccKhjEn7.s 			page 9


 457 004c 1025     		movs	r5, #16
 458              	.LVL36:
 459 004e 1D61     		str	r5, [r3, #16]
 460              	.LBB11:
 461              		.loc 1 199 0
 462 0050 2023     		movs	r3, #32
 463              	@ 199 "../../ChibiOS-RT/os/hal/platforms/STM32/can_lld.c" 1
 464 0052 83F31188 		msr     BASEPRI, r3
 465              	@ 0 "" 2
 466              		.thumb
 467              	.LBE11:
 468 0056 FFF7FEFF 		bl	dbg_check_lock_from_isr
 469              	.LVL37:
 470              		.loc 1 200 0
 471 005a 04F12800 		add	r0, r4, #40
 472 005e 2946     		mov	r1, r5
 473 0060 FFF7FEFF 		bl	chEvtBroadcastFlagsI
 474              	.LVL38:
 475              		.loc 1 201 0
 476 0064 FFF7FEFF 		bl	dbg_check_unlock_from_isr
 477              	.LVL39:
 478              	.LBB12:
 479 0068 0023     		movs	r3, #0
 480              	@ 201 "../../ChibiOS-RT/os/hal/platforms/STM32/can_lld.c" 1
 481 006a 83F31188 		msr     BASEPRI, r3
 482              	@ 0 "" 2
 483              		.thumb
 484              	.L26:
 485 006e 38BD     		pop	{r3, r4, r5, pc}
 486              	.LBE12:
 487              		.cfi_endproc
 488              	.LFE121:
 489              		.size	can_lld_rx1_handler, .-can_lld_rx1_handler
 490              		.section	.text.can_lld_sce_handler,"ax",%progbits
 491              		.align	2
 492              		.p2align 4,,15
 493              		.thumb
 494              		.thumb_func
 495              		.type	can_lld_sce_handler, %function
 496              	can_lld_sce_handler:
 497              	.LFB122:
 498              		.loc 1 212 0
 499              		.cfi_startproc
 500              		@ args = 0, pretend = 0, frame = 0
 501              		@ frame_needed = 0, uses_anonymous_args = 0
 502              	.LVL40:
 503 0000 70B5     		push	{r4, r5, r6, lr}
 504              		.cfi_def_cfa_offset 16
 505              		.cfi_offset 4, -16
 506              		.cfi_offset 5, -12
 507              		.cfi_offset 6, -8
 508              		.cfi_offset 14, -4
 509 0002 0446     		mov	r4, r0
 510              		.loc 1 215 0
 511 0004 436B     		ldr	r3, [r0, #52]
 512 0006 5D68     		ldr	r5, [r3, #4]
 513              	.LVL41:
ARM GAS  /tmp/ccKhjEn7.s 			page 10


 514              		.loc 1 216 0
 515 0008 1C22     		movs	r2, #28
 516 000a 5A60     		str	r2, [r3, #4]
 517              		.loc 1 219 0
 518 000c 15F0080F 		tst	r5, #8
 519 0010 15D0     		beq	.L33
 520              		.loc 1 220 0
 521 0012 0323     		movs	r3, #3
 522 0014 0370     		strb	r3, [r0]
 523              		.loc 1 221 0
 524 0016 426B     		ldr	r2, [r0, #52]
 525 0018 1368     		ldr	r3, [r2]
 526 001a 23F00203 		bic	r3, r3, #2
 527 001e 1360     		str	r3, [r2]
 528              	.LBB13:
 529              		.loc 1 222 0
 530 0020 2023     		movs	r3, #32
 531              	@ 222 "../../ChibiOS-RT/os/hal/platforms/STM32/can_lld.c" 1
 532 0022 83F31188 		msr     BASEPRI, r3
 533              	@ 0 "" 2
 534              		.thumb
 535              	.LBE13:
 536 0026 FFF7FEFF 		bl	dbg_check_lock_from_isr
 537              	.LVL42:
 538              		.loc 1 223 0
 539 002a 04F13000 		add	r0, r4, #48
 540 002e 0021     		movs	r1, #0
 541 0030 FFF7FEFF 		bl	chEvtBroadcastFlagsI
 542              	.LVL43:
 543              		.loc 1 224 0
 544 0034 FFF7FEFF 		bl	dbg_check_unlock_from_isr
 545              	.LVL44:
 546              	.LBB14:
 547 0038 0023     		movs	r3, #0
 548              	@ 224 "../../ChibiOS-RT/os/hal/platforms/STM32/can_lld.c" 1
 549 003a 83F31188 		msr     BASEPRI, r3
 550              	@ 0 "" 2
 551              		.thumb
 552              	.L33:
 553              	.LBE14:
 554              		.loc 1 228 0
 555 003e 15F0040F 		tst	r5, #4
 556 0042 1CD0     		beq	.L32
 557              	.LBB15:
 558              		.loc 1 230 0
 559 0044 636B     		ldr	r3, [r4, #52]
 560 0046 9D69     		ldr	r5, [r3, #24]
 561              	.LVL45:
 562              		.loc 1 232 0
 563 0048 9A69     		ldr	r2, [r3, #24]
 564 004a 22F07002 		bic	r2, r2, #112
 565 004e 9A61     		str	r2, [r3, #24]
 566              		.loc 1 233 0
 567 0050 05F00706 		and	r6, r5, #7
 568              	.LVL46:
 569              		.loc 1 234 0
 570 0054 15F0700F 		tst	r5, #112
ARM GAS  /tmp/ccKhjEn7.s 			page 11


 571 0058 01D0     		beq	.L35
 572              		.loc 1 235 0
 573 005a 46F00806 		orr	r6, r6, #8
 574              	.LVL47:
 575              	.L35:
 576              	.LBB16:
 577              		.loc 1 237 0
 578 005e 2023     		movs	r3, #32
 579              	@ 237 "../../ChibiOS-RT/os/hal/platforms/STM32/can_lld.c" 1
 580 0060 83F31188 		msr     BASEPRI, r3
 581              	@ 0 "" 2
 582              		.thumb
 583              	.LBE16:
 584 0064 FFF7FEFF 		bl	dbg_check_lock_from_isr
 585              	.LVL48:
 586              		.loc 1 240 0
 587 0068 04F12800 		add	r0, r4, #40
 588 006c 46EA0541 		orr	r1, r6, r5, lsl #16
 589 0070 FFF7FEFF 		bl	chEvtBroadcastFlagsI
 590              	.LVL49:
 591              		.loc 1 241 0
 592 0074 FFF7FEFF 		bl	dbg_check_unlock_from_isr
 593              	.LVL50:
 594              	.LBB17:
 595 0078 0023     		movs	r3, #0
 596              	@ 241 "../../ChibiOS-RT/os/hal/platforms/STM32/can_lld.c" 1
 597 007a 83F31188 		msr     BASEPRI, r3
 598              	@ 0 "" 2
 599              	.LVL51:
 600              		.thumb
 601              	.L32:
 602 007e 70BD     		pop	{r4, r5, r6, pc}
 603              	.LBE17:
 604              	.LBE15:
 605              		.cfi_endproc
 606              	.LFE122:
 607              		.size	can_lld_sce_handler, .-can_lld_sce_handler
 608              		.section	.text.Vector8C,"ax",%progbits
 609              		.align	2
 610              		.p2align 4,,15
 611              		.global	Vector8C
 612              		.thumb
 613              		.thumb_func
 614              		.type	Vector8C, %function
 615              	Vector8C:
 616              	.LFB123:
 617              		.loc 1 255 0
 618              		.cfi_startproc
 619              		@ args = 0, pretend = 0, frame = 0
 620              		@ frame_needed = 0, uses_anonymous_args = 0
 621 0000 08B5     		push	{r3, lr}
 622              		.cfi_def_cfa_offset 8
 623              		.cfi_offset 3, -8
 624              		.cfi_offset 14, -4
 625              		.loc 1 257 0
 626 0002 FFF7FEFF 		bl	dbg_check_enter_isr
 627              	.LVL52:
ARM GAS  /tmp/ccKhjEn7.s 			page 12


 628              		.loc 1 259 0
 629 0006 0448     		ldr	r0, .L39
 630 0008 FFF7FEFF 		bl	can_lld_tx_handler
 631              	.LVL53:
 632              		.loc 1 261 0
 633 000c FFF7FEFF 		bl	dbg_check_leave_isr
 634              	.LVL54:
 635 0010 FFF7FEFF 		bl	_port_irq_epilogue
 636              	.LVL55:
 637 0014 08BD     		pop	{r3, pc}
 638              	.L40:
 639 0016 00BF     		.align	2
 640              	.L39:
 641 0018 00000000 		.word	.LANCHOR0
 642              		.cfi_endproc
 643              	.LFE123:
 644              		.size	Vector8C, .-Vector8C
 645 001c AFF30080 		.section	.text.Vector90,"ax",%progbits
 646              		.align	2
 647              		.p2align 4,,15
 648              		.global	Vector90
 649              		.thumb
 650              		.thumb_func
 651              		.type	Vector90, %function
 652              	Vector90:
 653              	.LFB124:
 654              		.loc 1 269 0
 655              		.cfi_startproc
 656              		@ args = 0, pretend = 0, frame = 0
 657              		@ frame_needed = 0, uses_anonymous_args = 0
 658 0000 08B5     		push	{r3, lr}
 659              		.cfi_def_cfa_offset 8
 660              		.cfi_offset 3, -8
 661              		.cfi_offset 14, -4
 662              		.loc 1 271 0
 663 0002 FFF7FEFF 		bl	dbg_check_enter_isr
 664              	.LVL56:
 665              		.loc 1 273 0
 666 0006 0448     		ldr	r0, .L43
 667 0008 FFF7FEFF 		bl	can_lld_rx0_handler
 668              	.LVL57:
 669              		.loc 1 275 0
 670 000c FFF7FEFF 		bl	dbg_check_leave_isr
 671              	.LVL58:
 672 0010 FFF7FEFF 		bl	_port_irq_epilogue
 673              	.LVL59:
 674 0014 08BD     		pop	{r3, pc}
 675              	.L44:
 676 0016 00BF     		.align	2
 677              	.L43:
 678 0018 00000000 		.word	.LANCHOR0
 679              		.cfi_endproc
 680              	.LFE124:
 681              		.size	Vector90, .-Vector90
 682 001c AFF30080 		.section	.text.Vector94,"ax",%progbits
 683              		.align	2
 684              		.p2align 4,,15
ARM GAS  /tmp/ccKhjEn7.s 			page 13


 685              		.global	Vector94
 686              		.thumb
 687              		.thumb_func
 688              		.type	Vector94, %function
 689              	Vector94:
 690              	.LFB125:
 691              		.loc 1 283 0
 692              		.cfi_startproc
 693              		@ args = 0, pretend = 0, frame = 0
 694              		@ frame_needed = 0, uses_anonymous_args = 0
 695 0000 08B5     		push	{r3, lr}
 696              		.cfi_def_cfa_offset 8
 697              		.cfi_offset 3, -8
 698              		.cfi_offset 14, -4
 699              		.loc 1 285 0
 700 0002 FFF7FEFF 		bl	dbg_check_enter_isr
 701              	.LVL60:
 702              		.loc 1 287 0
 703 0006 0448     		ldr	r0, .L47
 704 0008 FFF7FEFF 		bl	can_lld_rx1_handler
 705              	.LVL61:
 706              		.loc 1 289 0
 707 000c FFF7FEFF 		bl	dbg_check_leave_isr
 708              	.LVL62:
 709 0010 FFF7FEFF 		bl	_port_irq_epilogue
 710              	.LVL63:
 711 0014 08BD     		pop	{r3, pc}
 712              	.L48:
 713 0016 00BF     		.align	2
 714              	.L47:
 715 0018 00000000 		.word	.LANCHOR0
 716              		.cfi_endproc
 717              	.LFE125:
 718              		.size	Vector94, .-Vector94
 719 001c AFF30080 		.section	.text.Vector98,"ax",%progbits
 720              		.align	2
 721              		.p2align 4,,15
 722              		.global	Vector98
 723              		.thumb
 724              		.thumb_func
 725              		.type	Vector98, %function
 726              	Vector98:
 727              	.LFB126:
 728              		.loc 1 297 0
 729              		.cfi_startproc
 730              		@ args = 0, pretend = 0, frame = 0
 731              		@ frame_needed = 0, uses_anonymous_args = 0
 732 0000 08B5     		push	{r3, lr}
 733              		.cfi_def_cfa_offset 8
 734              		.cfi_offset 3, -8
 735              		.cfi_offset 14, -4
 736              		.loc 1 299 0
 737 0002 FFF7FEFF 		bl	dbg_check_enter_isr
 738              	.LVL64:
 739              		.loc 1 301 0
 740 0006 0448     		ldr	r0, .L51
 741 0008 FFF7FEFF 		bl	can_lld_sce_handler
ARM GAS  /tmp/ccKhjEn7.s 			page 14


 742              	.LVL65:
 743              		.loc 1 303 0
 744 000c FFF7FEFF 		bl	dbg_check_leave_isr
 745              	.LVL66:
 746 0010 FFF7FEFF 		bl	_port_irq_epilogue
 747              	.LVL67:
 748 0014 08BD     		pop	{r3, pc}
 749              	.L52:
 750 0016 00BF     		.align	2
 751              	.L51:
 752 0018 00000000 		.word	.LANCHOR0
 753              		.cfi_endproc
 754              	.LFE126:
 755              		.size	Vector98, .-Vector98
 756 001c AFF30080 		.section	.text.Vector13C,"ax",%progbits
 757              		.align	2
 758              		.p2align 4,,15
 759              		.global	Vector13C
 760              		.thumb
 761              		.thumb_func
 762              		.type	Vector13C, %function
 763              	Vector13C:
 764              	.LFB127:
 765              		.loc 1 313 0
 766              		.cfi_startproc
 767              		@ args = 0, pretend = 0, frame = 0
 768              		@ frame_needed = 0, uses_anonymous_args = 0
 769 0000 08B5     		push	{r3, lr}
 770              		.cfi_def_cfa_offset 8
 771              		.cfi_offset 3, -8
 772              		.cfi_offset 14, -4
 773              		.loc 1 315 0
 774 0002 FFF7FEFF 		bl	dbg_check_enter_isr
 775              	.LVL68:
 776              		.loc 1 317 0
 777 0006 0448     		ldr	r0, .L55
 778 0008 FFF7FEFF 		bl	can_lld_tx_handler
 779              	.LVL69:
 780              		.loc 1 319 0
 781 000c FFF7FEFF 		bl	dbg_check_leave_isr
 782              	.LVL70:
 783 0010 FFF7FEFF 		bl	_port_irq_epilogue
 784              	.LVL71:
 785 0014 08BD     		pop	{r3, pc}
 786              	.L56:
 787 0016 00BF     		.align	2
 788              	.L55:
 789 0018 00000000 		.word	.LANCHOR1
 790              		.cfi_endproc
 791              	.LFE127:
 792              		.size	Vector13C, .-Vector13C
 793 001c AFF30080 		.section	.text.Vector140,"ax",%progbits
 794              		.align	2
 795              		.p2align 4,,15
 796              		.global	Vector140
 797              		.thumb
 798              		.thumb_func
ARM GAS  /tmp/ccKhjEn7.s 			page 15


 799              		.type	Vector140, %function
 800              	Vector140:
 801              	.LFB128:
 802              		.loc 1 327 0
 803              		.cfi_startproc
 804              		@ args = 0, pretend = 0, frame = 0
 805              		@ frame_needed = 0, uses_anonymous_args = 0
 806 0000 08B5     		push	{r3, lr}
 807              		.cfi_def_cfa_offset 8
 808              		.cfi_offset 3, -8
 809              		.cfi_offset 14, -4
 810              		.loc 1 329 0
 811 0002 FFF7FEFF 		bl	dbg_check_enter_isr
 812              	.LVL72:
 813              		.loc 1 331 0
 814 0006 0448     		ldr	r0, .L59
 815 0008 FFF7FEFF 		bl	can_lld_rx0_handler
 816              	.LVL73:
 817              		.loc 1 333 0
 818 000c FFF7FEFF 		bl	dbg_check_leave_isr
 819              	.LVL74:
 820 0010 FFF7FEFF 		bl	_port_irq_epilogue
 821              	.LVL75:
 822 0014 08BD     		pop	{r3, pc}
 823              	.L60:
 824 0016 00BF     		.align	2
 825              	.L59:
 826 0018 00000000 		.word	.LANCHOR1
 827              		.cfi_endproc
 828              	.LFE128:
 829              		.size	Vector140, .-Vector140
 830 001c AFF30080 		.section	.text.Vector144,"ax",%progbits
 831              		.align	2
 832              		.p2align 4,,15
 833              		.global	Vector144
 834              		.thumb
 835              		.thumb_func
 836              		.type	Vector144, %function
 837              	Vector144:
 838              	.LFB129:
 839              		.loc 1 341 0
 840              		.cfi_startproc
 841              		@ args = 0, pretend = 0, frame = 0
 842              		@ frame_needed = 0, uses_anonymous_args = 0
 843 0000 08B5     		push	{r3, lr}
 844              		.cfi_def_cfa_offset 8
 845              		.cfi_offset 3, -8
 846              		.cfi_offset 14, -4
 847              		.loc 1 343 0
 848 0002 FFF7FEFF 		bl	dbg_check_enter_isr
 849              	.LVL76:
 850              		.loc 1 345 0
 851 0006 0448     		ldr	r0, .L63
 852 0008 FFF7FEFF 		bl	can_lld_rx1_handler
 853              	.LVL77:
 854              		.loc 1 347 0
 855 000c FFF7FEFF 		bl	dbg_check_leave_isr
ARM GAS  /tmp/ccKhjEn7.s 			page 16


 856              	.LVL78:
 857 0010 FFF7FEFF 		bl	_port_irq_epilogue
 858              	.LVL79:
 859 0014 08BD     		pop	{r3, pc}
 860              	.L64:
 861 0016 00BF     		.align	2
 862              	.L63:
 863 0018 00000000 		.word	.LANCHOR1
 864              		.cfi_endproc
 865              	.LFE129:
 866              		.size	Vector144, .-Vector144
 867 001c AFF30080 		.section	.text.Vector148,"ax",%progbits
 868              		.align	2
 869              		.p2align 4,,15
 870              		.global	Vector148
 871              		.thumb
 872              		.thumb_func
 873              		.type	Vector148, %function
 874              	Vector148:
 875              	.LFB130:
 876              		.loc 1 355 0
 877              		.cfi_startproc
 878              		@ args = 0, pretend = 0, frame = 0
 879              		@ frame_needed = 0, uses_anonymous_args = 0
 880 0000 08B5     		push	{r3, lr}
 881              		.cfi_def_cfa_offset 8
 882              		.cfi_offset 3, -8
 883              		.cfi_offset 14, -4
 884              		.loc 1 357 0
 885 0002 FFF7FEFF 		bl	dbg_check_enter_isr
 886              	.LVL80:
 887              		.loc 1 359 0
 888 0006 0448     		ldr	r0, .L67
 889 0008 FFF7FEFF 		bl	can_lld_sce_handler
 890              	.LVL81:
 891              		.loc 1 361 0
 892 000c FFF7FEFF 		bl	dbg_check_leave_isr
 893              	.LVL82:
 894 0010 FFF7FEFF 		bl	_port_irq_epilogue
 895              	.LVL83:
 896 0014 08BD     		pop	{r3, pc}
 897              	.L68:
 898 0016 00BF     		.align	2
 899              	.L67:
 900 0018 00000000 		.word	.LANCHOR1
 901              		.cfi_endproc
 902              	.LFE130:
 903              		.size	Vector148, .-Vector148
 904 001c AFF30080 		.section	.text.can_lld_init,"ax",%progbits
 905              		.align	2
 906              		.p2align 4,,15
 907              		.global	can_lld_init
 908              		.thumb
 909              		.thumb_func
 910              		.type	can_lld_init, %function
 911              	can_lld_init:
 912              	.LFB131:
ARM GAS  /tmp/ccKhjEn7.s 			page 17


 913              		.loc 1 374 0
 914              		.cfi_startproc
 915              		@ args = 0, pretend = 0, frame = 0
 916              		@ frame_needed = 0, uses_anonymous_args = 0
 917 0000 10B5     		push	{r4, lr}
 918              		.cfi_def_cfa_offset 8
 919              		.cfi_offset 4, -8
 920              		.cfi_offset 14, -4
 921              		.loc 1 378 0
 922 0002 094C     		ldr	r4, .L71
 923 0004 2046     		mov	r0, r4
 924 0006 FFF7FEFF 		bl	canObjectInit
 925              	.LVL84:
 926              		.loc 1 379 0
 927 000a 084B     		ldr	r3, .L71+4
 928 000c 6363     		str	r3, [r4, #52]
 929              		.loc 1 383 0
 930 000e 084C     		ldr	r4, .L71+8
 931 0010 2046     		mov	r0, r4
 932 0012 FFF7FEFF 		bl	canObjectInit
 933              	.LVL85:
 934              		.loc 1 384 0
 935 0016 074B     		ldr	r3, .L71+12
 936 0018 6363     		str	r3, [r4, #52]
 937              		.loc 1 389 0
 938 001a 0E20     		movs	r0, #14
 939 001c 0021     		movs	r1, #0
 940 001e 0A46     		mov	r2, r1
 941 0020 FFF7FEFF 		bl	can_lld_set_filters
 942              	.LVL86:
 943 0024 10BD     		pop	{r4, pc}
 944              	.L72:
 945 0026 00BF     		.align	2
 946              	.L71:
 947 0028 00000000 		.word	.LANCHOR0
 948 002c 00640040 		.word	1073767424
 949 0030 00000000 		.word	.LANCHOR1
 950 0034 00680040 		.word	1073768448
 951              		.cfi_endproc
 952              	.LFE131:
 953              		.size	can_lld_init, .-can_lld_init
 954 0038 AFF30080 		.section	.text.can_lld_start,"ax",%progbits
 954      AFF30080 
 955              		.align	2
 956              		.p2align 4,,15
 957              		.global	can_lld_start
 958              		.thumb
 959              		.thumb_func
 960              		.type	can_lld_start, %function
 961              	can_lld_start:
 962              	.LFB132:
 963              		.loc 1 402 0
 964              		.cfi_startproc
 965              		@ args = 0, pretend = 0, frame = 0
 966              		@ frame_needed = 0, uses_anonymous_args = 0
 967              	.LVL87:
 968 0000 10B5     		push	{r4, lr}
ARM GAS  /tmp/ccKhjEn7.s 			page 18


 969              		.cfi_def_cfa_offset 8
 970              		.cfi_offset 4, -8
 971              		.cfi_offset 14, -4
 972 0002 0446     		mov	r4, r0
 973              		.loc 1 406 0
 974 0004 284B     		ldr	r3, .L80
 975 0006 9842     		cmp	r0, r3
 976 0008 14D1     		bne	.L74
 977              		.loc 1 407 0
 978 000a 1320     		movs	r0, #19
 979              	.LVL88:
 980 000c B021     		movs	r1, #176
 981 000e FFF7FEFF 		bl	nvicEnableVector
 982              	.LVL89:
 983              		.loc 1 409 0
 984 0012 1420     		movs	r0, #20
 985 0014 B021     		movs	r1, #176
 986 0016 FFF7FEFF 		bl	nvicEnableVector
 987              	.LVL90:
 988              		.loc 1 411 0
 989 001a 1520     		movs	r0, #21
 990 001c B021     		movs	r1, #176
 991 001e FFF7FEFF 		bl	nvicEnableVector
 992              	.LVL91:
 993              		.loc 1 413 0
 994 0022 1620     		movs	r0, #22
 995 0024 B021     		movs	r1, #176
 996 0026 FFF7FEFF 		bl	nvicEnableVector
 997              	.LVL92:
 998              		.loc 1 415 0
 999 002a 204A     		ldr	r2, .L80+4
 1000 002c 136C     		ldr	r3, [r2, #64]
 1001 002e 43F00073 		orr	r3, r3, #33554432
 1002 0032 1364     		str	r3, [r2, #64]
 1003              	.L74:
 1004              		.loc 1 419 0
 1005 0034 1E4B     		ldr	r3, .L80+8
 1006 0036 9C42     		cmp	r4, r3
 1007 0038 1BD1     		bne	.L75
 1008              		.loc 1 421 0
 1009 003a 1B4B     		ldr	r3, .L80
 1010 003c 1B78     		ldrb	r3, [r3]	@ zero_extendqisi2
 1011 003e 012B     		cmp	r3, #1
 1012 0040 02D1     		bne	.L76
 1013              		.loc 1 421 0 is_stmt 0 discriminator 1
 1014 0042 1C48     		ldr	r0, .L80+12
 1015 0044 FFF7FEFF 		bl	chDbgPanic
 1016              	.LVL93:
 1017              	.L76:
 1018              		.loc 1 424 0 is_stmt 1
 1019 0048 3F20     		movs	r0, #63
 1020 004a B021     		movs	r1, #176
 1021 004c FFF7FEFF 		bl	nvicEnableVector
 1022              	.LVL94:
 1023              		.loc 1 426 0
 1024 0050 4020     		movs	r0, #64
 1025 0052 B021     		movs	r1, #176
ARM GAS  /tmp/ccKhjEn7.s 			page 19


 1026 0054 FFF7FEFF 		bl	nvicEnableVector
 1027              	.LVL95:
 1028              		.loc 1 428 0
 1029 0058 4120     		movs	r0, #65
 1030 005a B021     		movs	r1, #176
 1031 005c FFF7FEFF 		bl	nvicEnableVector
 1032              	.LVL96:
 1033              		.loc 1 430 0
 1034 0060 4220     		movs	r0, #66
 1035 0062 B021     		movs	r1, #176
 1036 0064 FFF7FEFF 		bl	nvicEnableVector
 1037              	.LVL97:
 1038              		.loc 1 432 0
 1039 0068 104A     		ldr	r2, .L80+4
 1040 006a 136C     		ldr	r3, [r2, #64]
 1041 006c 43F08063 		orr	r3, r3, #67108864
 1042 0070 1364     		str	r3, [r2, #64]
 1043              	.L75:
 1044              		.loc 1 437 0
 1045 0072 0223     		movs	r3, #2
 1046 0074 2370     		strb	r3, [r4]
 1047              		.loc 1 438 0
 1048 0076 636B     		ldr	r3, [r4, #52]
 1049 0078 0122     		movs	r2, #1
 1050 007a 1A60     		str	r2, [r3]
 1051              		.loc 1 439 0
 1052 007c 03E0     		b	.L77
 1053              	.L78:
 1054              		.loc 1 440 0
 1055 007e 0620     		movs	r0, #6
 1056 0080 0121     		movs	r1, #1
 1057 0082 FFF7FEFF 		bl	chSchGoSleepTimeoutS
 1058              	.LVL98:
 1059              	.L77:
 1060              		.loc 1 439 0
 1061 0086 636B     		ldr	r3, [r4, #52]
 1062 0088 5A68     		ldr	r2, [r3, #4]
 1063 008a 12F0010F 		tst	r2, #1
 1064 008e F6D0     		beq	.L78
 1065              		.loc 1 442 0
 1066 0090 6268     		ldr	r2, [r4, #4]
 1067 0092 5268     		ldr	r2, [r2, #4]
 1068 0094 DA61     		str	r2, [r3, #28]
 1069              		.loc 1 444 0
 1070 0096 636B     		ldr	r3, [r4, #52]
 1071 0098 6268     		ldr	r2, [r4, #4]
 1072 009a 1268     		ldr	r2, [r2]
 1073 009c 1A60     		str	r2, [r3]
 1074              		.loc 1 447 0
 1075 009e 636B     		ldr	r3, [r4, #52]
 1076 00a0 054A     		ldr	r2, .L80+16
 1077 00a2 5A61     		str	r2, [r3, #20]
 1078 00a4 10BD     		pop	{r4, pc}
 1079              	.LVL99:
 1080              	.L81:
 1081 00a6 00BF     		.align	2
 1082              	.L80:
ARM GAS  /tmp/ccKhjEn7.s 			page 20


 1083 00a8 00000000 		.word	.LANCHOR0
 1084 00ac 00380240 		.word	1073887232
 1085 00b0 00000000 		.word	.LANCHOR1
 1086 00b4 00000000 		.word	.LC0
 1087 00b8 5B8F0100 		.word	102235
 1088              		.cfi_endproc
 1089              	.LFE132:
 1090              		.size	can_lld_start, .-can_lld_start
 1091 00bc AFF30080 		.section	.text.can_lld_stop,"ax",%progbits
 1092              		.align	2
 1093              		.p2align 4,,15
 1094              		.global	can_lld_stop
 1095              		.thumb
 1096              		.thumb_func
 1097              		.type	can_lld_stop, %function
 1098              	can_lld_stop:
 1099              	.LFB133:
 1100              		.loc 1 460 0
 1101              		.cfi_startproc
 1102              		@ args = 0, pretend = 0, frame = 0
 1103              		@ frame_needed = 0, uses_anonymous_args = 0
 1104              	.LVL100:
 1105              		.loc 1 463 0
 1106 0000 0378     		ldrb	r3, [r0]	@ zero_extendqisi2
 1107 0002 032B     		cmp	r3, #3
 1108 0004 3BD1     		bne	.L87
 1109              		.loc 1 460 0
 1110 0006 10B5     		push	{r4, lr}
 1111              		.cfi_def_cfa_offset 8
 1112              		.cfi_offset 4, -8
 1113              		.cfi_offset 14, -4
 1114 0008 0446     		mov	r4, r0
 1115              		.loc 1 465 0
 1116 000a 1D4B     		ldr	r3, .L88
 1117 000c 9842     		cmp	r0, r3
 1118 000e 1CD1     		bne	.L84
 1119              		.loc 1 468 0
 1120 0010 1C4B     		ldr	r3, .L88+4
 1121 0012 1B78     		ldrb	r3, [r3]	@ zero_extendqisi2
 1122 0014 012B     		cmp	r3, #1
 1123 0016 02D0     		beq	.L85
 1124              		.loc 1 468 0 is_stmt 0 discriminator 1
 1125 0018 1B48     		ldr	r0, .L88+8
 1126              	.LVL101:
 1127 001a FFF7FEFF 		bl	chDbgPanic
 1128              	.LVL102:
 1129              	.L85:
 1130              		.loc 1 472 0 is_stmt 1
 1131 001e 1B4B     		ldr	r3, .L88+12
 1132 0020 1B4A     		ldr	r2, .L88+16
 1133 0022 1A60     		str	r2, [r3]
 1134              		.loc 1 473 0
 1135 0024 0022     		movs	r2, #0
 1136 0026 5A61     		str	r2, [r3, #20]
 1137              		.loc 1 474 0
 1138 0028 1320     		movs	r0, #19
 1139 002a FFF7FEFF 		bl	nvicDisableVector
ARM GAS  /tmp/ccKhjEn7.s 			page 21


 1140              	.LVL103:
 1141              		.loc 1 475 0
 1142 002e 1420     		movs	r0, #20
 1143 0030 FFF7FEFF 		bl	nvicDisableVector
 1144              	.LVL104:
 1145              		.loc 1 476 0
 1146 0034 1520     		movs	r0, #21
 1147 0036 FFF7FEFF 		bl	nvicDisableVector
 1148              	.LVL105:
 1149              		.loc 1 477 0
 1150 003a 1620     		movs	r0, #22
 1151 003c FFF7FEFF 		bl	nvicDisableVector
 1152              	.LVL106:
 1153              		.loc 1 478 0
 1154 0040 144A     		ldr	r2, .L88+20
 1155 0042 136C     		ldr	r3, [r2, #64]
 1156 0044 23F00073 		bic	r3, r3, #33554432
 1157 0048 1364     		str	r3, [r2, #64]
 1158              	.L84:
 1159              		.loc 1 482 0
 1160 004a 0E4B     		ldr	r3, .L88+4
 1161 004c 9C42     		cmp	r4, r3
 1162 004e 15D1     		bne	.L82
 1163              		.loc 1 483 0
 1164 0050 114B     		ldr	r3, .L88+24
 1165 0052 0F4A     		ldr	r2, .L88+16
 1166 0054 1A60     		str	r2, [r3]
 1167              		.loc 1 484 0
 1168 0056 0022     		movs	r2, #0
 1169 0058 5A61     		str	r2, [r3, #20]
 1170              		.loc 1 485 0
 1171 005a 3F20     		movs	r0, #63
 1172 005c FFF7FEFF 		bl	nvicDisableVector
 1173              	.LVL107:
 1174              		.loc 1 486 0
 1175 0060 4020     		movs	r0, #64
 1176 0062 FFF7FEFF 		bl	nvicDisableVector
 1177              	.LVL108:
 1178              		.loc 1 487 0
 1179 0066 4120     		movs	r0, #65
 1180 0068 FFF7FEFF 		bl	nvicDisableVector
 1181              	.LVL109:
 1182              		.loc 1 488 0
 1183 006c 4220     		movs	r0, #66
 1184 006e FFF7FEFF 		bl	nvicDisableVector
 1185              	.LVL110:
 1186              		.loc 1 489 0
 1187 0072 084A     		ldr	r2, .L88+20
 1188 0074 136C     		ldr	r3, [r2, #64]
 1189 0076 23F08063 		bic	r3, r3, #67108864
 1190 007a 1364     		str	r3, [r2, #64]
 1191              	.L82:
 1192 007c 10BD     		pop	{r4, pc}
 1193              	.LVL111:
 1194              	.L87:
 1195              		.cfi_def_cfa_offset 0
 1196              		.cfi_restore 4
ARM GAS  /tmp/ccKhjEn7.s 			page 22


 1197              		.cfi_restore 14
 1198 007e 7047     		bx	lr
 1199              	.L89:
 1200              		.align	2
 1201              	.L88:
 1202 0080 00000000 		.word	.LANCHOR0
 1203 0084 00000000 		.word	.LANCHOR1
 1204 0088 14000000 		.word	.LC1
 1205 008c 00640040 		.word	1073767424
 1206 0090 02000100 		.word	65538
 1207 0094 00380240 		.word	1073887232
 1208 0098 00680040 		.word	1073768448
 1209              		.cfi_endproc
 1210              	.LFE133:
 1211              		.size	can_lld_stop, .-can_lld_stop
 1212 009c AFF30080 		.section	.text.can_lld_is_tx_empty,"ax",%progbits
 1213              		.align	2
 1214              		.p2align 4,,15
 1215              		.global	can_lld_is_tx_empty
 1216              		.thumb
 1217              		.thumb_func
 1218              		.type	can_lld_is_tx_empty, %function
 1219              	can_lld_is_tx_empty:
 1220              	.LFB134:
 1221              		.loc 1 507 0
 1222              		.cfi_startproc
 1223              		@ args = 0, pretend = 0, frame = 0
 1224              		@ frame_needed = 0, uses_anonymous_args = 0
 1225              		@ link register save eliminated.
 1226              	.LVL112:
 1227              		.loc 1 509 0
 1228 0000 0329     		cmp	r1, #3
 1229 0002 1AD8     		bhi	.L97
 1230 0004 DFE801F0 		tbb	[pc, r1]
 1231              	.L93:
 1232 0008 02       		.byte	(.L92-.L93)/2
 1233 0009 0A       		.byte	(.L94-.L93)/2
 1234 000a 0F       		.byte	(.L95-.L93)/2
 1235 000b 14       		.byte	(.L96-.L93)/2
 1236              		.p2align 1
 1237              	.L92:
 1238              		.loc 1 511 0
 1239 000c 436B     		ldr	r3, [r0, #52]
 1240 000e 9B68     		ldr	r3, [r3, #8]
 1241 0010 13F0E05F 		tst	r3, #469762048
 1242 0014 14BF     		ite	ne
 1243 0016 0120     		movne	r0, #1
 1244              	.LVL113:
 1245 0018 0020     		moveq	r0, #0
 1246 001a 7047     		bx	lr
 1247              	.LVL114:
 1248              	.L94:
 1249              		.loc 1 513 0
 1250 001c 436B     		ldr	r3, [r0, #52]
 1251 001e 9868     		ldr	r0, [r3, #8]
 1252              	.LVL115:
 1253 0020 C0F38060 		ubfx	r0, r0, #26, #1
ARM GAS  /tmp/ccKhjEn7.s 			page 23


 1254 0024 7047     		bx	lr
 1255              	.LVL116:
 1256              	.L95:
 1257              		.loc 1 515 0
 1258 0026 436B     		ldr	r3, [r0, #52]
 1259 0028 9868     		ldr	r0, [r3, #8]
 1260              	.LVL117:
 1261 002a C0F3C060 		ubfx	r0, r0, #27, #1
 1262 002e 7047     		bx	lr
 1263              	.LVL118:
 1264              	.L96:
 1265              		.loc 1 517 0
 1266 0030 436B     		ldr	r3, [r0, #52]
 1267 0032 9868     		ldr	r0, [r3, #8]
 1268              	.LVL119:
 1269 0034 C0F30070 		ubfx	r0, r0, #28, #1
 1270 0038 7047     		bx	lr
 1271              	.LVL120:
 1272              	.L97:
 1273              		.loc 1 519 0
 1274 003a 0020     		movs	r0, #0
 1275              	.LVL121:
 1276              		.loc 1 521 0
 1277 003c 7047     		bx	lr
 1278              		.cfi_endproc
 1279              	.LFE134:
 1280              		.size	can_lld_is_tx_empty, .-can_lld_is_tx_empty
 1281 003e 00BF     		.section	.text.can_lld_transmit,"ax",%progbits
 1282              		.align	2
 1283              		.p2align 4,,15
 1284              		.global	can_lld_transmit
 1285              		.thumb
 1286              		.thumb_func
 1287              		.type	can_lld_transmit, %function
 1288              	can_lld_transmit:
 1289              	.LFB135:
 1290              		.loc 1 534 0
 1291              		.cfi_startproc
 1292              		@ args = 0, pretend = 0, frame = 0
 1293              		@ frame_needed = 0, uses_anonymous_args = 0
 1294              		@ link register save eliminated.
 1295              	.LVL122:
 1296              		.loc 1 539 0
 1297 0000 0329     		cmp	r1, #3
 1298 0002 35D8     		bhi	.L98
 1299 0004 DFE801F0 		tbb	[pc, r1]
 1300              	.L101:
 1301 0008 02       		.byte	(.L100-.L101)/2
 1302 0009 0A       		.byte	(.L102-.L101)/2
 1303 000a 0E       		.byte	(.L103-.L101)/2
 1304 000b 12       		.byte	(.L104-.L101)/2
 1305              		.p2align 1
 1306              	.L100:
 1307              		.loc 1 541 0
 1308 000c 416B     		ldr	r1, [r0, #52]
 1309              	.LVL123:
 1310 000e 8B68     		ldr	r3, [r1, #8]
ARM GAS  /tmp/ccKhjEn7.s 			page 24


 1311 0010 C3F30163 		ubfx	r3, r3, #24, #2
 1312 0014 1833     		adds	r3, r3, #24
 1313 0016 01EB0311 		add	r1, r1, r3, lsl #4
 1314              	.LVL124:
 1315              		.loc 1 542 0
 1316 001a 0AE0     		b	.L105
 1317              	.LVL125:
 1318              	.L102:
 1319              		.loc 1 544 0
 1320 001c 416B     		ldr	r1, [r0, #52]
 1321              	.LVL126:
 1322 001e 01F5C071 		add	r1, r1, #384
 1323              	.LVL127:
 1324              		.loc 1 545 0
 1325 0022 06E0     		b	.L105
 1326              	.LVL128:
 1327              	.L103:
 1328              		.loc 1 547 0
 1329 0024 416B     		ldr	r1, [r0, #52]
 1330              	.LVL129:
 1331 0026 01F5C871 		add	r1, r1, #400
 1332              	.LVL130:
 1333              		.loc 1 548 0
 1334 002a 02E0     		b	.L105
 1335              	.LVL131:
 1336              	.L104:
 1337              		.loc 1 550 0
 1338 002c 416B     		ldr	r1, [r0, #52]
 1339              	.LVL132:
 1340 002e 01F5D071 		add	r1, r1, #416
 1341              	.LVL133:
 1342              	.L105:
 1343              		.loc 1 557 0
 1344 0032 1378     		ldrb	r3, [r2]	@ zero_extendqisi2
 1345 0034 13F0200F 		tst	r3, #32
 1346 0038 08D0     		beq	.L106
 1347              		.loc 1 558 0
 1348 003a 5068     		ldr	r0, [r2, #4]
 1349              	.LVL134:
 1350 003c C3F30013 		ubfx	r3, r3, #4, #1
 1351 0040 5B00     		lsls	r3, r3, #1
 1352 0042 43EAC003 		orr	r3, r3, r0, lsl #3
 1353 0046 43F00403 		orr	r3, r3, #4
 1354              	.LVL135:
 1355 004a 06E0     		b	.L107
 1356              	.LVL136:
 1357              	.L106:
 1358              		.loc 1 561 0
 1359 004c 9088     		ldrh	r0, [r2, #4]
 1360              	.LVL137:
 1361 004e 1378     		ldrb	r3, [r2]	@ zero_extendqisi2
 1362 0050 C3F30013 		ubfx	r3, r3, #4, #1
 1363 0054 5B00     		lsls	r3, r3, #1
 1364 0056 43EA4053 		orr	r3, r3, r0, lsl #21
 1365              	.LVL138:
 1366              	.L107:
 1367              		.loc 1 562 0
ARM GAS  /tmp/ccKhjEn7.s 			page 25


 1368 005a 1078     		ldrb	r0, [r2]	@ zero_extendqisi2
 1369 005c 00F00F00 		and	r0, r0, #15
 1370 0060 4860     		str	r0, [r1, #4]
 1371              		.loc 1 563 0
 1372 0062 9068     		ldr	r0, [r2, #8]
 1373 0064 8860     		str	r0, [r1, #8]
 1374              		.loc 1 564 0
 1375 0066 D268     		ldr	r2, [r2, #12]
 1376              	.LVL139:
 1377 0068 CA60     		str	r2, [r1, #12]
 1378              		.loc 1 565 0
 1379 006a 43F00103 		orr	r3, r3, #1
 1380              	.LVL140:
 1381 006e 0B60     		str	r3, [r1]
 1382              	.LVL141:
 1383              	.L98:
 1384 0070 7047     		bx	lr
 1385              		.cfi_endproc
 1386              	.LFE135:
 1387              		.size	can_lld_transmit, .-can_lld_transmit
 1388 0072 00BFAFF3 		.section	.text.can_lld_is_rx_nonempty,"ax",%progbits
 1388      0080AFF3 
 1388      0080AFF3 
 1388      0080
 1389              		.align	2
 1390              		.p2align 4,,15
 1391              		.global	can_lld_is_rx_nonempty
 1392              		.thumb
 1393              		.thumb_func
 1394              		.type	can_lld_is_rx_nonempty, %function
 1395              	can_lld_is_rx_nonempty:
 1396              	.LFB136:
 1397              		.loc 1 580 0
 1398              		.cfi_startproc
 1399              		@ args = 0, pretend = 0, frame = 0
 1400              		@ frame_needed = 0, uses_anonymous_args = 0
 1401              		@ link register save eliminated.
 1402              	.LVL142:
 1403              		.loc 1 582 0
 1404 0000 0129     		cmp	r1, #1
 1405 0002 12D0     		beq	.L110
 1406 0004 11B1     		cbz	r1, .L111
 1407 0006 0229     		cmp	r1, #2
 1408 0008 16D0     		beq	.L112
 1409 000a 1CE0     		b	.L117
 1410              	.L111:
 1411              		.loc 1 584 0
 1412 000c 436B     		ldr	r3, [r0, #52]
 1413 000e DA68     		ldr	r2, [r3, #12]
 1414 0010 12F0030F 		tst	r2, #3
 1415 0014 05D1     		bne	.L115
 1416              		.loc 1 585 0 discriminator 2
 1417 0016 1B69     		ldr	r3, [r3, #16]
 1418              		.loc 1 584 0 discriminator 2
 1419 0018 13F0030F 		tst	r3, #3
 1420 001c 03D0     		beq	.L116
 1421              		.loc 1 584 0 is_stmt 0
ARM GAS  /tmp/ccKhjEn7.s 			page 26


 1422 001e 0120     		movs	r0, #1
 1423              	.LVL143:
 1424 0020 7047     		bx	lr
 1425              	.LVL144:
 1426              	.L115:
 1427 0022 0120     		movs	r0, #1
 1428              	.LVL145:
 1429 0024 7047     		bx	lr
 1430              	.LVL146:
 1431              	.L116:
 1432 0026 0020     		movs	r0, #0
 1433              	.LVL147:
 1434 0028 7047     		bx	lr
 1435              	.LVL148:
 1436              	.L110:
 1437              		.loc 1 587 0 is_stmt 1
 1438 002a 436B     		ldr	r3, [r0, #52]
 1439 002c D868     		ldr	r0, [r3, #12]
 1440              	.LVL149:
 1441 002e 10F00300 		ands	r0, r0, #3
 1442 0032 18BF     		it	ne
 1443 0034 0120     		movne	r0, #1
 1444 0036 7047     		bx	lr
 1445              	.LVL150:
 1446              	.L112:
 1447              		.loc 1 589 0
 1448 0038 436B     		ldr	r3, [r0, #52]
 1449 003a 1869     		ldr	r0, [r3, #16]
 1450              	.LVL151:
 1451 003c 10F00300 		ands	r0, r0, #3
 1452 0040 18BF     		it	ne
 1453 0042 0120     		movne	r0, #1
 1454 0044 7047     		bx	lr
 1455              	.LVL152:
 1456              	.L117:
 1457              		.loc 1 591 0
 1458 0046 0020     		movs	r0, #0
 1459              	.LVL153:
 1460              		.loc 1 593 0
 1461 0048 7047     		bx	lr
 1462              		.cfi_endproc
 1463              	.LFE136:
 1464              		.size	can_lld_is_rx_nonempty, .-can_lld_is_rx_nonempty
 1465 004a 00BFAFF3 		.section	.text.can_lld_receive,"ax",%progbits
 1465      0080
 1466              		.align	2
 1467              		.p2align 4,,15
 1468              		.global	can_lld_receive
 1469              		.thumb
 1470              		.thumb_func
 1471              		.type	can_lld_receive, %function
 1472              	can_lld_receive:
 1473              	.LFB137:
 1474              		.loc 1 606 0
 1475              		.cfi_startproc
 1476              		@ args = 0, pretend = 0, frame = 0
 1477              		@ frame_needed = 0, uses_anonymous_args = 0
ARM GAS  /tmp/ccKhjEn7.s 			page 27


 1478              		@ link register save eliminated.
 1479              	.LVL154:
 1480 0000 30B4     		push	{r4, r5}
 1481              		.cfi_def_cfa_offset 8
 1482              		.cfi_offset 4, -8
 1483              		.cfi_offset 5, -4
 1484              		.loc 1 609 0
 1485 0002 0B46     		mov	r3, r1
 1486 0004 59B9     		cbnz	r1, .L119
 1487              		.loc 1 610 0
 1488 0006 436B     		ldr	r3, [r0, #52]
 1489 0008 D968     		ldr	r1, [r3, #12]
 1490              	.LVL155:
 1491 000a 11F0030F 		tst	r1, #3
 1492 000e 05D1     		bne	.L126
 1493              		.loc 1 612 0
 1494 0010 1B69     		ldr	r3, [r3, #16]
 1495 0012 13F0030F 		tst	r3, #3
 1496 0016 59D0     		beq	.L118
 1497              		.loc 1 613 0
 1498 0018 0223     		movs	r3, #2
 1499 001a 00E0     		b	.L119
 1500              	.L126:
 1501              		.loc 1 611 0
 1502 001c 0123     		movs	r3, #1
 1503              	.L119:
 1504              	.LVL156:
 1505              		.loc 1 619 0
 1506 001e 012B     		cmp	r3, #1
 1507 0020 02D0     		beq	.L121
 1508 0022 022B     		cmp	r3, #2
 1509 0024 19D0     		beq	.L122
 1510 0026 51E0     		b	.L118
 1511              	.L121:
 1512              		.loc 1 622 0
 1513 0028 436B     		ldr	r3, [r0, #52]
 1514              	.LVL157:
 1515 002a D3F8B041 		ldr	r4, [r3, #432]
 1516              	.LVL158:
 1517              		.loc 1 623 0
 1518 002e D3F8B411 		ldr	r1, [r3, #436]
 1519              	.LVL159:
 1520              		.loc 1 624 0
 1521 0032 D3F8B831 		ldr	r3, [r3, #440]
 1522 0036 D360     		str	r3, [r2, #12]
 1523              		.loc 1 625 0
 1524 0038 436B     		ldr	r3, [r0, #52]
 1525 003a D3F8BC31 		ldr	r3, [r3, #444]
 1526 003e 1361     		str	r3, [r2, #16]
 1527              		.loc 1 628 0
 1528 0040 436B     		ldr	r3, [r0, #52]
 1529 0042 2025     		movs	r5, #32
 1530 0044 DD60     		str	r5, [r3, #12]
 1531              		.loc 1 632 0
 1532 0046 436B     		ldr	r3, [r0, #52]
 1533 0048 D868     		ldr	r0, [r3, #12]
 1534              	.LVL160:
ARM GAS  /tmp/ccKhjEn7.s 			page 28


 1535 004a 10F0030F 		tst	r0, #3
 1536 004e 1CD1     		bne	.L123
 1537              		.loc 1 633 0
 1538 0050 5869     		ldr	r0, [r3, #20]
 1539 0052 40F00200 		orr	r0, r0, #2
 1540 0056 5861     		str	r0, [r3, #20]
 1541 0058 17E0     		b	.L123
 1542              	.LVL161:
 1543              	.L122:
 1544              		.loc 1 637 0
 1545 005a 436B     		ldr	r3, [r0, #52]
 1546              	.LVL162:
 1547 005c D3F8C041 		ldr	r4, [r3, #448]
 1548              	.LVL163:
 1549              		.loc 1 638 0
 1550 0060 D3F8C411 		ldr	r1, [r3, #452]
 1551              	.LVL164:
 1552              		.loc 1 639 0
 1553 0064 D3F8C831 		ldr	r3, [r3, #456]
 1554 0068 D360     		str	r3, [r2, #12]
 1555              		.loc 1 640 0
 1556 006a 436B     		ldr	r3, [r0, #52]
 1557 006c D3F8CC31 		ldr	r3, [r3, #460]
 1558 0070 1361     		str	r3, [r2, #16]
 1559              		.loc 1 643 0
 1560 0072 436B     		ldr	r3, [r0, #52]
 1561 0074 2025     		movs	r5, #32
 1562 0076 1D61     		str	r5, [r3, #16]
 1563              		.loc 1 647 0
 1564 0078 436B     		ldr	r3, [r0, #52]
 1565 007a 1869     		ldr	r0, [r3, #16]
 1566              	.LVL165:
 1567 007c 10F0030F 		tst	r0, #3
 1568 0080 03D1     		bne	.L123
 1569              		.loc 1 648 0
 1570 0082 5869     		ldr	r0, [r3, #20]
 1571 0084 40F01000 		orr	r0, r0, #16
 1572 0088 5861     		str	r0, [r3, #20]
 1573              	.L123:
 1574              		.loc 1 656 0
 1575 008a C4F34000 		ubfx	r0, r4, #1, #1
 1576 008e 1379     		ldrb	r3, [r2, #4]	@ zero_extendqisi2
 1577 0090 60F30413 		bfi	r3, r0, #4, #1
 1578              		.loc 1 657 0
 1579 0094 C4F38000 		ubfx	r0, r4, #2, #1
 1580 0098 60F34513 		bfi	r3, r0, #5, #1
 1581 009c 1371     		strb	r3, [r2, #4]
 1582              		.loc 1 658 0
 1583 009e 13F0200F 		tst	r3, #32
 1584 00a2 05D0     		beq	.L124
 1585              		.loc 1 659 0
 1586 00a4 E408     		lsrs	r4, r4, #3
 1587              	.LVL166:
 1588 00a6 9368     		ldr	r3, [r2, #8]
 1589 00a8 64F31C03 		bfi	r3, r4, #0, #29
 1590 00ac 9360     		str	r3, [r2, #8]
 1591 00ae 04E0     		b	.L125
ARM GAS  /tmp/ccKhjEn7.s 			page 29


 1592              	.LVL167:
 1593              	.L124:
 1594              		.loc 1 661 0
 1595 00b0 640D     		lsrs	r4, r4, #21
 1596              	.LVL168:
 1597 00b2 1389     		ldrh	r3, [r2, #8]
 1598 00b4 64F30A03 		bfi	r3, r4, #0, #11
 1599 00b8 1381     		strh	r3, [r2, #8]	@ movhi
 1600              	.L125:
 1601              		.loc 1 662 0
 1602 00ba 1379     		ldrb	r3, [r2, #4]	@ zero_extendqisi2
 1603 00bc 61F30303 		bfi	r3, r1, #0, #4
 1604 00c0 1371     		strb	r3, [r2, #4]
 1605              		.loc 1 663 0
 1606 00c2 C1F30723 		ubfx	r3, r1, #8, #8
 1607 00c6 1370     		strb	r3, [r2]
 1608              		.loc 1 664 0
 1609 00c8 090C     		lsrs	r1, r1, #16
 1610              	.LVL169:
 1611 00ca 5180     		strh	r1, [r2, #2]	@ movhi
 1612              	.L118:
 1613              		.loc 1 665 0
 1614 00cc 30BC     		pop	{r4, r5}
 1615              		.cfi_restore 5
 1616              		.cfi_restore 4
 1617              		.cfi_def_cfa_offset 0
 1618 00ce 7047     		bx	lr
 1619              		.cfi_endproc
 1620              	.LFE137:
 1621              		.size	can_lld_receive, .-can_lld_receive
 1622              		.section	.text.can_lld_sleep,"ax",%progbits
 1623              		.align	2
 1624              		.p2align 4,,15
 1625              		.global	can_lld_sleep
 1626              		.thumb
 1627              		.thumb_func
 1628              		.type	can_lld_sleep, %function
 1629              	can_lld_sleep:
 1630              	.LFB138:
 1631              		.loc 1 675 0
 1632              		.cfi_startproc
 1633              		@ args = 0, pretend = 0, frame = 0
 1634              		@ frame_needed = 0, uses_anonymous_args = 0
 1635              		@ link register save eliminated.
 1636              	.LVL170:
 1637              		.loc 1 677 0
 1638 0000 426B     		ldr	r2, [r0, #52]
 1639 0002 1368     		ldr	r3, [r2]
 1640 0004 43F00203 		orr	r3, r3, #2
 1641 0008 1360     		str	r3, [r2]
 1642 000a 7047     		bx	lr
 1643              		.cfi_endproc
 1644              	.LFE138:
 1645              		.size	can_lld_sleep, .-can_lld_sleep
 1646 000c AFF30080 		.section	.text.can_lld_wakeup,"ax",%progbits
 1647              		.align	2
 1648              		.p2align 4,,15
ARM GAS  /tmp/ccKhjEn7.s 			page 30


 1649              		.global	can_lld_wakeup
 1650              		.thumb
 1651              		.thumb_func
 1652              		.type	can_lld_wakeup, %function
 1653              	can_lld_wakeup:
 1654              	.LFB139:
 1655              		.loc 1 687 0
 1656              		.cfi_startproc
 1657              		@ args = 0, pretend = 0, frame = 0
 1658              		@ frame_needed = 0, uses_anonymous_args = 0
 1659              		@ link register save eliminated.
 1660              	.LVL171:
 1661              		.loc 1 689 0
 1662 0000 426B     		ldr	r2, [r0, #52]
 1663 0002 1368     		ldr	r3, [r2]
 1664 0004 23F00203 		bic	r3, r3, #2
 1665 0008 1360     		str	r3, [r2]
 1666 000a 7047     		bx	lr
 1667              		.cfi_endproc
 1668              	.LFE139:
 1669              		.size	can_lld_wakeup, .-can_lld_wakeup
 1670 000c AFF30080 		.section	.text.canSTM32SetFilters,"ax",%progbits
 1671              		.align	2
 1672              		.p2align 4,,15
 1673              		.global	canSTM32SetFilters
 1674              		.thumb
 1675              		.thumb_func
 1676              		.type	canSTM32SetFilters, %function
 1677              	canSTM32SetFilters:
 1678              	.LFB140:
 1679              		.loc 1 705 0
 1680              		.cfi_startproc
 1681              		@ args = 0, pretend = 0, frame = 0
 1682              		@ frame_needed = 0, uses_anonymous_args = 0
 1683              	.LVL172:
 1684 0000 70B5     		push	{r4, r5, r6, lr}
 1685              		.cfi_def_cfa_offset 16
 1686              		.cfi_offset 4, -16
 1687              		.cfi_offset 5, -12
 1688              		.cfi_offset 6, -8
 1689              		.cfi_offset 14, -4
 1690 0002 0646     		mov	r6, r0
 1691 0004 0D46     		mov	r5, r1
 1692 0006 1446     		mov	r4, r2
 1693              		.loc 1 712 0
 1694 0008 094B     		ldr	r3, .L134
 1695 000a 1B78     		ldrb	r3, [r3]	@ zero_extendqisi2
 1696 000c 012B     		cmp	r3, #1
 1697 000e 02D0     		beq	.L131
 1698              		.loc 1 712 0 is_stmt 0 discriminator 1
 1699 0010 0848     		ldr	r0, .L134+4
 1700              	.LVL173:
 1701 0012 FFF7FEFF 		bl	chDbgPanic
 1702              	.LVL174:
 1703              	.L131:
 1704              		.loc 1 716 0 is_stmt 1
 1705 0016 084B     		ldr	r3, .L134+8
ARM GAS  /tmp/ccKhjEn7.s 			page 31


 1706 0018 1B78     		ldrb	r3, [r3]	@ zero_extendqisi2
 1707 001a 012B     		cmp	r3, #1
 1708 001c 02D0     		beq	.L132
 1709              		.loc 1 716 0 is_stmt 0 discriminator 1
 1710 001e 0748     		ldr	r0, .L134+12
 1711 0020 FFF7FEFF 		bl	chDbgPanic
 1712              	.LVL175:
 1713              	.L132:
 1714              		.loc 1 720 0 is_stmt 1
 1715 0024 3046     		mov	r0, r6
 1716 0026 2946     		mov	r1, r5
 1717 0028 2246     		mov	r2, r4
 1718 002a FFF7FEFF 		bl	can_lld_set_filters
 1719              	.LVL176:
 1720 002e 70BD     		pop	{r4, r5, r6, pc}
 1721              	.LVL177:
 1722              	.L135:
 1723              		.align	2
 1724              	.L134:
 1725 0030 00000000 		.word	.LANCHOR0
 1726 0034 28000000 		.word	.LC2
 1727 0038 00000000 		.word	.LANCHOR1
 1728 003c 44000000 		.word	.LC3
 1729              		.cfi_endproc
 1730              	.LFE140:
 1731              		.size	canSTM32SetFilters, .-canSTM32SetFilters
 1732              		.global	CAND2
 1733              		.global	CAND1
 1734              		.section	.bss.CAND1,"aw",%nobits
 1735              		.align	2
 1736              		.set	.LANCHOR0,. + 0
 1737              		.type	CAND1, %object
 1738              		.size	CAND1, 56
 1739              	CAND1:
 1740 0000 00000000 		.space	56
 1740      00000000 
 1740      00000000 
 1740      00000000 
 1740      00000000 
 1741              		.section	.bss.CAND2,"aw",%nobits
 1742              		.align	2
 1743              		.set	.LANCHOR1,. + 0
 1744              		.type	CAND2, %object
 1745              		.size	CAND2, 56
 1746              	CAND2:
 1747 0000 00000000 		.space	56
 1747      00000000 
 1747      00000000 
 1747      00000000 
 1747      00000000 
 1748              		.section	.rodata.str1.4,"aMS",%progbits,1
 1749              		.align	2
 1750              	.LC0:
 1751 0000 63616E5F 		.ascii	"can_lld_start(), #1\000"
 1751      6C6C645F 
 1751      73746172 
 1751      7428292C 
ARM GAS  /tmp/ccKhjEn7.s 			page 32


 1751      20233100 
 1752              	.LC1:
 1753 0014 63616E5F 		.ascii	"can_lld_stop(), #1\000"
 1753      6C6C645F 
 1753      73746F70 
 1753      28292C20 
 1753      233100
 1754 0027 00       		.space	1
 1755              	.LC2:
 1756 0028 63616E53 		.ascii	"canSTM32SetFilters(), #1\000"
 1756      544D3332 
 1756      53657446 
 1756      696C7465 
 1756      72732829 
 1757 0041 000000   		.space	3
 1758              	.LC3:
 1759 0044 63616E53 		.ascii	"canSTM32SetFilters(), #2\000"
 1759      544D3332 
 1759      53657446 
 1759      696C7465 
 1759      72732829 
 1760 005d 000000   		.text
 1761              	.Letext0:
 1762              		.file 2 "/usr/arm-none-eabi/include/machine/_default_types.h"
 1763              		.file 3 "/usr/arm-none-eabi/include/stdint.h"
 1764              		.file 4 "../../ChibiOS-RT/os/ports/GCC/ARMCMx/chtypes.h"
 1765              		.file 5 "../../ChibiOS-RT/os/kernel/include/chlists.h"
 1766              		.file 6 "../../ChibiOS-RT/os/kernel/include/chthreads.h"
 1767              		.file 7 "../../ChibiOS-RT/os/ports/GCC/ARMCMx/chcore_v7m.h"
 1768              		.file 8 "../../ChibiOS-RT/os/kernel/include/chsem.h"
 1769              		.file 9 "../../ChibiOS-RT/os/kernel/include/chmtx.h"
 1770              		.file 10 "../../ChibiOS-RT/os/kernel/include/chevents.h"
 1771              		.file 11 "../../ChibiOS-RT/os/hal/platforms/STM32F4xx/stm32f4xx.h"
 1772              		.file 12 "../../ChibiOS-RT/os/hal/include/can.h"
 1773              		.file 13 "../../ChibiOS-RT/os/hal/platforms/STM32/can_lld.h"
 1774              		.file 14 "../../ChibiOS-RT/os/ports/common/ARMCMx/CMSIS/include/core_cm4.h"
 1775              		.file 15 "../../ChibiOS-RT/os/kernel/include/chdebug.h"
 1776              		.file 16 "../../ChibiOS-RT/os/ports/common/ARMCMx/nvic.h"
 1777              		.file 17 "../../ChibiOS-RT/os/kernel/include/chschd.h"