ARM GAS  /tmp/ccOGPLEf.s 			page 1


   1              		.syntax unified
   2              		.cpu cortex-m4
   3              		.fpu softvfp
   4              		.eabi_attribute 20, 1
   5              		.eabi_attribute 21, 1
   6              		.eabi_attribute 23, 3
   7              		.eabi_attribute 24, 1
   8              		.eabi_attribute 25, 1
   9              		.eabi_attribute 26, 1
  10              		.eabi_attribute 30, 1
  11              		.eabi_attribute 34, 1
  12              		.eabi_attribute 18, 4
  13              		.thumb
  14              		.file	"chcore_v7m.c"
  15              		.text
  16              	.Ltext0:
  17              		.cfi_sections	.debug_frame
  18              		.section	.text._port_switch_from_isr,"ax",%progbits
  19              		.align	2
  20              		.p2align 4,,15
  21              		.global	_port_switch_from_isr
  22              		.thumb
  23              		.thumb_func
  24              		.type	_port_switch_from_isr, %function
  25              	_port_switch_from_isr:
  26              	.LFB11:
  27              		.file 1 "../../ChibiOS-RT/os/ports/GCC/ARMCMx/chcore_v7m.c"
  28              		.loc 1 200 0
  29              		.cfi_startproc
  30              		@ Naked Function: prologue and epilogue provided by programmer.
  31              		@ args = 0, pretend = 0, frame = 0
  32              		@ frame_needed = 0, uses_anonymous_args = 0
  33              		.loc 1 202 0
  34 0000 FFF7FEFF 		bl	dbg_check_lock
  35              	.LVL0:
  36              		.loc 1 203 0
  37 0004 FFF7FEFF 		bl	chSchDoReschedule
  38              	.LVL1:
  39              		.loc 1 204 0
  40 0008 FFF7FEFF 		bl	dbg_check_unlock
  41              	.LVL2:
  42              		.loc 1 205 0
  43              	@ 205 "../../ChibiOS-RT/os/ports/GCC/ARMCMx/chcore_v7m.c" 1
  44              		_port_exit_from_isr:
  45              	@ 0 "" 2
  46              		.loc 1 207 0
  47              	@ 207 "../../ChibiOS-RT/os/ports/GCC/ARMCMx/chcore_v7m.c" 1
  48 000c 00DF     		svc     #0
  49              	@ 0 "" 2
  50              		.loc 1 214 0
  51              		.thumb
  52              		.cfi_endproc
  53              	.LFE11:
  54              		.size	_port_switch_from_isr, .-_port_switch_from_isr
  55 000e 00BF     		.section	.text.SVCallVector,"ax",%progbits
  56              		.align	2
  57              		.p2align 4,,15
ARM GAS  /tmp/ccOGPLEf.s 			page 2


  58              		.global	SVCallVector
  59              		.thumb
  60              		.thumb_func
  61              		.type	SVCallVector, %function
  62              	SVCallVector:
  63              	.LFB8:
  64              		.loc 1 65 0
  65              		.cfi_startproc
  66              		@ args = 0, pretend = 0, frame = 0
  67              		@ frame_needed = 0, uses_anonymous_args = 0
  68              		@ link register save eliminated.
  69              		.loc 1 74 0
  70              	@ 74 "../../ChibiOS-RT/os/ports/GCC/ARMCMx/chcore_v7m.c" 1
  71 0000 EFF30983 		mrs     r3, PSP
  72              	@ 0 "" 2
  73              	.LVL3:
  74              		.loc 1 78 0
  75              		.thumb
  76 0004 2033     		adds	r3, r3, #32
  77              	.LVL4:
  78              		.loc 1 81 0
  79              	@ 81 "../../ChibiOS-RT/os/ports/GCC/ARMCMx/chcore_v7m.c" 1
  80 0006 83F30988 		msr     PSP, r3
  81              	@ 0 "" 2
  82              		.thumb
  83              	.LBB2:
  84              		.loc 1 82 0
  85 000a 0023     		movs	r3, #0
  86              	.LVL5:
  87              	@ 82 "../../ChibiOS-RT/os/ports/GCC/ARMCMx/chcore_v7m.c" 1
  88 000c 83F31188 		msr     BASEPRI, r3
  89              	@ 0 "" 2
  90              		.thumb
  91 0010 7047     		bx	lr
  92              	.LBE2:
  93              		.cfi_endproc
  94              	.LFE8:
  95              		.size	SVCallVector, .-SVCallVector
  96 0012 00BFAFF3 		.section	.text._port_init,"ax",%progbits
  96      0080AFF3 
  96      0080AFF3 
  96      0080
  97              		.align	2
  98              		.p2align 4,,15
  99              		.global	_port_init
 100              		.thumb
 101              		.thumb_func
 102              		.type	_port_init, %function
 103              	_port_init:
 104              	.LFB9:
 105              		.loc 1 120 0
 106              		.cfi_startproc
 107              		@ args = 0, pretend = 0, frame = 0
 108              		@ frame_needed = 0, uses_anonymous_args = 0
 109 0000 08B5     		push	{r3, lr}
 110              		.cfi_def_cfa_offset 8
 111              		.cfi_offset 3, -8
ARM GAS  /tmp/ccOGPLEf.s 			page 3


 112              		.cfi_offset 14, -4
 113              		.loc 1 123 0
 114 0002 094B     		ldr	r3, .L5
 115 0004 0022     		movs	r2, #0
 116 0006 9A60     		str	r2, [r3, #8]
 117              		.loc 1 124 0
 118 0008 084A     		ldr	r2, .L5+4
 119 000a DA60     		str	r2, [r3, #12]
 120              		.loc 1 127 0
 121 000c 0720     		movs	r0, #7
 122 000e 1021     		movs	r1, #16
 123 0010 FFF7FEFF 		bl	nvicSetSystemHandlerPriority
 124              	.LVL6:
 125              		.loc 1 129 0
 126 0014 0A20     		movs	r0, #10
 127 0016 2021     		movs	r1, #32
 128 0018 FFF7FEFF 		bl	nvicSetSystemHandlerPriority
 129              	.LVL7:
 130              		.loc 1 131 0
 131 001c 0B20     		movs	r0, #11
 132 001e 8021     		movs	r1, #128
 133 0020 FFF7FEFF 		bl	nvicSetSystemHandlerPriority
 134              	.LVL8:
 135 0024 08BD     		pop	{r3, pc}
 136              	.L6:
 137 0026 00BF     		.align	2
 138              	.L5:
 139 0028 00ED00E0 		.word	-536810240
 140 002c 0003FA05 		.word	100270848
 141              		.cfi_endproc
 142              	.LFE9:
 143              		.size	_port_init, .-_port_init
 144              		.section	.text._port_irq_epilogue,"ax",%progbits
 145              		.align	2
 146              		.p2align 4,,15
 147              		.global	_port_irq_epilogue
 148              		.thumb
 149              		.thumb_func
 150              		.type	_port_irq_epilogue, %function
 151              	_port_irq_epilogue:
 152              	.LFB10:
 153              		.loc 1 150 0
 154              		.cfi_startproc
 155              		@ args = 0, pretend = 0, frame = 0
 156              		@ frame_needed = 0, uses_anonymous_args = 0
 157              		@ link register save eliminated.
 158              	.LBB3:
 159              		.loc 1 152 0
 160 0000 2023     		movs	r3, #32
 161              	@ 152 "../../ChibiOS-RT/os/ports/GCC/ARMCMx/chcore_v7m.c" 1
 162 0002 83F31188 		msr     BASEPRI, r3
 163              	@ 0 "" 2
 164              		.thumb
 165              	.LBE3:
 166              		.loc 1 153 0
 167 0006 194B     		ldr	r3, .L13
 168 0008 5B68     		ldr	r3, [r3, #4]
ARM GAS  /tmp/ccOGPLEf.s 			page 4


 169 000a 13F4006F 		tst	r3, #2048
 170 000e 28D0     		beq	.L8
 171              	.LBB4:
 172              		.loc 1 163 0
 173              	@ 163 "../../ChibiOS-RT/os/ports/GCC/ARMCMx/chcore_v7m.c" 1
 174 0010 EFF30983 		mrs     r3, PSP
 175              	@ 0 "" 2
 176              	.LVL9:
 177              		.loc 1 167 0
 178              		.thumb
 179 0014 A3F12002 		sub	r2, r3, #32
 180              	.LVL10:
 181              		.loc 1 168 0
 182 0018 4FF08071 		mov	r1, #16777216
 183 001c 43F8041C 		str	r1, [r3, #-4]
 184              		.loc 1 172 0
 185              	@ 172 "../../ChibiOS-RT/os/ports/GCC/ARMCMx/chcore_v7m.c" 1
 186 0020 82F30988 		msr     PSP, r2
 187              	@ 0 "" 2
 188              		.loc 1 176 0
 189              		.thumb
 190 0024 124A     		ldr	r2, .L13+4
 191              	.LVL11:
 192 0026 9169     		ldr	r1, [r2, #24]
 193 0028 91F82320 		ldrb	r2, [r1, #35]	@ zero_extendqisi2
 194 002c 42B1     		cbz	r2, .L9
 195              		.loc 1 176 0 is_stmt 0 discriminator 1
 196 002e 104A     		ldr	r2, .L13+4
 197 0030 1268     		ldr	r2, [r2]
 198 0032 9268     		ldr	r2, [r2, #8]
 199 0034 8968     		ldr	r1, [r1, #8]
 200 0036 8A42     		cmp	r2, r1
 201 0038 94BF     		ite	ls
 202 003a 0022     		movls	r2, #0
 203 003c 0122     		movhi	r2, #1
 204 003e 07E0     		b	.L10
 205              	.L9:
 206              		.loc 1 176 0 discriminator 2
 207 0040 0B4A     		ldr	r2, .L13+4
 208 0042 1268     		ldr	r2, [r2]
 209 0044 9268     		ldr	r2, [r2, #8]
 210 0046 8968     		ldr	r1, [r1, #8]
 211 0048 8A42     		cmp	r2, r1
 212 004a 34BF     		ite	cc
 213 004c 0022     		movcc	r2, #0
 214 004e 0122     		movcs	r2, #1
 215              	.L10:
 216              		.loc 1 176 0 discriminator 4
 217 0050 1AB1     		cbz	r2, .L11
 218              		.loc 1 178 0 is_stmt 1
 219 0052 084A     		ldr	r2, .L13+8
 220 0054 43F8082C 		str	r2, [r3, #-8]
 221 0058 7047     		bx	lr
 222              	.L11:
 223              		.loc 1 183 0
 224 005a 074A     		ldr	r2, .L13+12
 225 005c 43F8082C 		str	r2, [r3, #-8]
ARM GAS  /tmp/ccOGPLEf.s 			page 5


 226 0060 7047     		bx	lr
 227              	.LVL12:
 228              	.L8:
 229              	.LBE4:
 230              	.LBB5:
 231              		.loc 1 190 0
 232 0062 0023     		movs	r3, #0
 233              	@ 190 "../../ChibiOS-RT/os/ports/GCC/ARMCMx/chcore_v7m.c" 1
 234 0064 83F31188 		msr     BASEPRI, r3
 235              	@ 0 "" 2
 236              		.thumb
 237 0068 7047     		bx	lr
 238              	.L14:
 239 006a 00BF     		.align	2
 240              	.L13:
 241 006c 00ED00E0 		.word	-536810240
 242 0070 00000000 		.word	rlist
 243 0074 00000000 		.word	_port_switch_from_isr
 244 0078 0C000000 		.word	_port_exit_from_isr
 245              	.LBE5:
 246              		.cfi_endproc
 247              	.LFE10:
 248              		.size	_port_irq_epilogue, .-_port_irq_epilogue
 249 007c AFF30080 		.section	.text.SysTickVector,"ax",%progbits
 250              		.align	2
 251              		.p2align 4,,15
 252              		.global	SysTickVector
 253              		.thumb
 254              		.thumb_func
 255              		.type	SysTickVector, %function
 256              	SysTickVector:
 257              	.LFB7:
 258              		.loc 1 47 0
 259              		.cfi_startproc
 260              		@ args = 0, pretend = 0, frame = 0
 261              		@ frame_needed = 0, uses_anonymous_args = 0
 262 0000 08B5     		push	{r3, lr}
 263              		.cfi_def_cfa_offset 8
 264              		.cfi_offset 3, -8
 265              		.cfi_offset 14, -4
 266              		.loc 1 49 0
 267 0002 FFF7FEFF 		bl	dbg_check_enter_isr
 268              	.LVL13:
 269              	.LBB6:
 270              		.loc 1 51 0
 271 0006 2023     		movs	r3, #32
 272              	@ 51 "../../ChibiOS-RT/os/ports/GCC/ARMCMx/chcore_v7m.c" 1
 273 0008 83F31188 		msr     BASEPRI, r3
 274              	@ 0 "" 2
 275              		.thumb
 276              	.LBE6:
 277 000c FFF7FEFF 		bl	dbg_check_lock_from_isr
 278              	.LVL14:
 279              		.loc 1 52 0
 280 0010 FFF7FEFF 		bl	chSysTimerHandlerI
 281              	.LVL15:
 282              		.loc 1 53 0
ARM GAS  /tmp/ccOGPLEf.s 			page 6


 283 0014 FFF7FEFF 		bl	dbg_check_unlock_from_isr
 284              	.LVL16:
 285              	.LBB7:
 286 0018 0023     		movs	r3, #0
 287              	@ 53 "../../ChibiOS-RT/os/ports/GCC/ARMCMx/chcore_v7m.c" 1
 288 001a 83F31188 		msr     BASEPRI, r3
 289              	@ 0 "" 2
 290              		.thumb
 291              	.LBE7:
 292              		.loc 1 55 0
 293 001e FFF7FEFF 		bl	dbg_check_leave_isr
 294              	.LVL17:
 295 0022 FFF7FEFF 		bl	_port_irq_epilogue
 296              	.LVL18:
 297 0026 08BD     		pop	{r3, pc}
 298              		.cfi_endproc
 299              	.LFE7:
 300              		.size	SysTickVector, .-SysTickVector
 301 0028 AFF30080 		.section	.text._port_switch,"ax",%progbits
 301      AFF30080 
 302              		.align	2
 303              		.p2align 4,,15
 304              		.global	_port_switch
 305              		.thumb
 306              		.thumb_func
 307              		.type	_port_switch, %function
 308              	_port_switch:
 309              	.LFB12:
 310              		.loc 1 229 0
 311              		.cfi_startproc
 312              		@ Naked Function: prologue and epilogue provided by programmer.
 313              		@ args = 0, pretend = 0, frame = 0
 314              		@ frame_needed = 0, uses_anonymous_args = 0
 315              	.LVL19:
 316              		.loc 1 231 0
 317              	@ 231 "../../ChibiOS-RT/os/ports/GCC/ARMCMx/chcore_v7m.c" 1
 318 0000 2DE9F04F 		push    {r4, r5, r6, r7, r8, r9, r10, r11, lr}
 319              	@ 0 "" 2
 320              		.loc 1 237 0
 321              	@ 237 "../../ChibiOS-RT/os/ports/GCC/ARMCMx/chcore_v7m.c" 1
 322 0004 C1F80CD0 		str     sp, [r1, #12]                          
 323 0008 D0F80CD0 		ldr     sp, [r0, #12]
 324              	@ 0 "" 2
 325              		.loc 1 243 0
 326              	@ 243 "../../ChibiOS-RT/os/ports/GCC/ARMCMx/chcore_v7m.c" 1
 327 000c BDE8F08F 		pop     {r4, r5, r6, r7, r8, r9, r10, r11, pc}
 328              	@ 0 "" 2
 329              		.loc 1 245 0
 330              		.thumb
 331              		.cfi_endproc
 332              	.LFE12:
 333              		.size	_port_switch, .-_port_switch
 334              		.section	.text._port_thread_start,"ax",%progbits
 335              		.align	2
 336              		.p2align 4,,15
 337              		.global	_port_thread_start
 338              		.thumb
ARM GAS  /tmp/ccOGPLEf.s 			page 7


 339              		.thumb_func
 340              		.type	_port_thread_start, %function
 341              	_port_thread_start:
 342              	.LFB13:
 343              		.loc 1 252 0
 344              		.cfi_startproc
 345              		@ args = 0, pretend = 0, frame = 0
 346              		@ frame_needed = 0, uses_anonymous_args = 0
 347 0000 08B5     		push	{r3, lr}
 348              		.cfi_def_cfa_offset 8
 349              		.cfi_offset 3, -8
 350              		.cfi_offset 14, -4
 351              		.loc 1 254 0
 352 0002 FFF7FEFF 		bl	dbg_check_unlock
 353              	.LVL20:
 354              	.LBB8:
 355 0006 0023     		movs	r3, #0
 356              	@ 254 "../../ChibiOS-RT/os/ports/GCC/ARMCMx/chcore_v7m.c" 1
 357 0008 83F31188 		msr     BASEPRI, r3
 358              	@ 0 "" 2
 359              		.thumb
 360              	.LBE8:
 361              		.loc 1 255 0
 362              	@ 255 "../../ChibiOS-RT/os/ports/GCC/ARMCMx/chcore_v7m.c" 1
 363 000c 2846     		mov     r0, r5                                 
 364 000e A047     		blx     r4                                     
 365 0010 FFF7FEFF 		bl      chThdExit
 366              	@ 0 "" 2
 367              		.thumb
 368 0014 08BD     		pop	{r3, pc}
 369              		.cfi_endproc
 370              	.LFE13:
 371              		.size	_port_thread_start, .-_port_thread_start
 372 0016 00BFAFF3 		.text
 372      0080AFF3 
 372      0080
 373              	.Letext0:
 374              		.file 2 "/usr/arm-none-eabi/include/machine/_default_types.h"
 375              		.file 3 "/usr/arm-none-eabi/include/stdint.h"
 376              		.file 4 "../../ChibiOS-RT/os/ports/GCC/ARMCMx/chtypes.h"
 377              		.file 5 "../../ChibiOS-RT/os/kernel/include/chlists.h"
 378              		.file 6 "../../ChibiOS-RT/os/kernel/include/chthreads.h"
 379              		.file 7 "../../ChibiOS-RT/os/ports/GCC/ARMCMx/chcore_v7m.h"
 380              		.file 8 "../../ChibiOS-RT/os/ports/common/ARMCMx/nvic.h"
 381              		.file 9 "../../ChibiOS-RT/os/kernel/include/chschd.h"
 382              		.file 10 "../../ChibiOS-RT/os/kernel/include/chmtx.h"
 383              		.file 11 "../../ChibiOS-RT/os/kernel/include/chdebug.h"
 384              		.file 12 "../../ChibiOS-RT/os/kernel/include/chsys.h"