ARM GAS  /tmp/ccH2yj5t.s 			page 1


   1              		.syntax unified
   2              		.cpu cortex-m4
   3              		.fpu softvfp
   4              		.eabi_attribute 20, 1
   5              		.eabi_attribute 21, 1
   6              		.eabi_attribute 23, 3
   7              		.eabi_attribute 24, 1
   8              		.eabi_attribute 25, 1
   9              		.eabi_attribute 26, 1
  10              		.eabi_attribute 30, 1
  11              		.eabi_attribute 34, 1
  12              		.eabi_attribute 18, 4
  13              		.thumb
  14              		.file	"chcond.c"
  15              		.text
  16              	.Ltext0:
  17              		.cfi_sections	.debug_frame
  18              		.section	.text.chCondInit,"ax",%progbits
  19              		.align	2
  20              		.p2align 4,,15
  21              		.global	chCondInit
  22              		.thumb
  23              		.thumb_func
  24              		.type	chCondInit, %function
  25              	chCondInit:
  26              	.LFB7:
  27              		.file 1 "../../ChibiOS-RT/os/kernel/src/chcond.c"
  28              		.loc 1 59 0
  29              		.cfi_startproc
  30              		@ args = 0, pretend = 0, frame = 0
  31              		@ frame_needed = 0, uses_anonymous_args = 0
  32              		@ link register save eliminated.
  33              	.LVL0:
  34              		.loc 1 63 0
  35 0000 4060     		str	r0, [r0, #4]
  36 0002 0060     		str	r0, [r0]
  37 0004 7047     		bx	lr
  38              		.cfi_endproc
  39              	.LFE7:
  40              		.size	chCondInit, .-chCondInit
  41 0006 00BFAFF3 		.section	.text.chCondSignal,"ax",%progbits
  41      0080AFF3 
  41      0080
  42              		.align	2
  43              		.p2align 4,,15
  44              		.global	chCondSignal
  45              		.thumb
  46              		.thumb_func
  47              		.type	chCondSignal, %function
  48              	chCondSignal:
  49              	.LFB8:
  50              		.loc 1 73 0
  51              		.cfi_startproc
  52              		@ args = 0, pretend = 0, frame = 0
  53              		@ frame_needed = 0, uses_anonymous_args = 0
  54              	.LVL1:
  55 0000 10B5     		push	{r4, lr}
ARM GAS  /tmp/ccH2yj5t.s 			page 2


  56              		.cfi_def_cfa_offset 8
  57              		.cfi_offset 4, -8
  58              		.cfi_offset 14, -4
  59 0002 0446     		mov	r4, r0
  60              	.LBB14:
  61              		.loc 1 77 0
  62 0004 2023     		movs	r3, #32
  63              	@ 77 "../../ChibiOS-RT/os/kernel/src/chcond.c" 1
  64 0006 83F31188 		msr     BASEPRI, r3
  65              	@ 0 "" 2
  66              		.thumb
  67              	.LBE14:
  68 000a FFF7FEFF 		bl	dbg_check_lock
  69              	.LVL2:
  70              		.loc 1 78 0
  71 000e 2068     		ldr	r0, [r4]
  72 0010 A042     		cmp	r0, r4
  73 0012 05D0     		beq	.L3
  74              	.LVL3:
  75              	.LBB15:
  76              	.LBB16:
  77              		.file 2 "../../ChibiOS-RT/os/kernel/include/chinline.h"
  78              		.loc 2 62 0
  79 0014 0368     		ldr	r3, [r0]
  80 0016 2360     		str	r3, [r4]
  81 0018 5C60     		str	r4, [r3, #4]
  82              	.LBE16:
  83              	.LBE15:
  84              		.loc 1 79 0
  85 001a 0021     		movs	r1, #0
  86 001c FFF7FEFF 		bl	chSchWakeupS
  87              	.LVL4:
  88              	.L3:
  89              		.loc 1 80 0
  90 0020 FFF7FEFF 		bl	dbg_check_unlock
  91              	.LVL5:
  92              	.LBB17:
  93 0024 0023     		movs	r3, #0
  94              	@ 80 "../../ChibiOS-RT/os/kernel/src/chcond.c" 1
  95 0026 83F31188 		msr     BASEPRI, r3
  96              	@ 0 "" 2
  97              		.thumb
  98 002a 10BD     		pop	{r4, pc}
  99              	.LBE17:
 100              		.cfi_endproc
 101              	.LFE8:
 102              		.size	chCondSignal, .-chCondSignal
 103 002c AFF30080 		.section	.text.chCondSignalI,"ax",%progbits
 104              		.align	2
 105              		.p2align 4,,15
 106              		.global	chCondSignalI
 107              		.thumb
 108              		.thumb_func
 109              		.type	chCondSignalI, %function
 110              	chCondSignalI:
 111              	.LFB9:
 112              		.loc 1 94 0
ARM GAS  /tmp/ccH2yj5t.s 			page 3


 113              		.cfi_startproc
 114              		@ args = 0, pretend = 0, frame = 0
 115              		@ frame_needed = 0, uses_anonymous_args = 0
 116              	.LVL6:
 117 0000 10B5     		push	{r4, lr}
 118              		.cfi_def_cfa_offset 8
 119              		.cfi_offset 4, -8
 120              		.cfi_offset 14, -4
 121 0002 0446     		mov	r4, r0
 122              		.loc 1 96 0
 123 0004 FFF7FEFF 		bl	chDbgCheckClassI
 124              	.LVL7:
 125              		.loc 1 99 0
 126 0008 2068     		ldr	r0, [r4]
 127 000a A042     		cmp	r0, r4
 128 000c 06D0     		beq	.L5
 129              	.LVL8:
 130              	.LBB18:
 131              	.LBB19:
 132              		.loc 2 62 0
 133 000e 0368     		ldr	r3, [r0]
 134 0010 2360     		str	r3, [r4]
 135 0012 5C60     		str	r4, [r3, #4]
 136              	.LBE19:
 137              	.LBE18:
 138              		.loc 1 100 0
 139 0014 FFF7FEFF 		bl	chSchReadyI
 140              	.LVL9:
 141 0018 0023     		movs	r3, #0
 142 001a 8362     		str	r3, [r0, #40]
 143              	.LVL10:
 144              	.L5:
 145 001c 10BD     		pop	{r4, pc}
 146              		.cfi_endproc
 147              	.LFE9:
 148              		.size	chCondSignalI, .-chCondSignalI
 149 001e 00BF     		.section	.text.chCondBroadcastI,"ax",%progbits
 150              		.align	2
 151              		.p2align 4,,15
 152              		.global	chCondBroadcastI
 153              		.thumb
 154              		.thumb_func
 155              		.type	chCondBroadcastI, %function
 156              	chCondBroadcastI:
 157              	.LFB11:
 158              		.loc 1 129 0
 159              		.cfi_startproc
 160              		@ args = 0, pretend = 0, frame = 0
 161              		@ frame_needed = 0, uses_anonymous_args = 0
 162              	.LVL11:
 163 0000 10B5     		push	{r4, lr}
 164              		.cfi_def_cfa_offset 8
 165              		.cfi_offset 4, -8
 166              		.cfi_offset 14, -4
 167 0002 0446     		mov	r4, r0
 168              		.loc 1 131 0
 169 0004 FFF7FEFF 		bl	chDbgCheckClassI
ARM GAS  /tmp/ccH2yj5t.s 			page 4


 170              	.LVL12:
 171              		.loc 1 137 0
 172 0008 07E0     		b	.L9
 173              	.L10:
 174              	.LVL13:
 175              	.LBB20:
 176              	.LBB21:
 177              		.loc 2 62 0
 178 000a 0368     		ldr	r3, [r0]
 179 000c 2360     		str	r3, [r4]
 180 000e 5C60     		str	r4, [r3, #4]
 181              	.LBE21:
 182              	.LBE20:
 183              		.loc 1 138 0
 184 0010 FFF7FEFF 		bl	chSchReadyI
 185              	.LVL14:
 186 0014 6FF00103 		mvn	r3, #1
 187 0018 8362     		str	r3, [r0, #40]
 188              	.LVL15:
 189              	.L9:
 190              		.loc 1 137 0
 191 001a 2068     		ldr	r0, [r4]
 192 001c A042     		cmp	r0, r4
 193 001e F4D1     		bne	.L10
 194              		.loc 1 139 0
 195 0020 10BD     		pop	{r4, pc}
 196              		.cfi_endproc
 197              	.LFE11:
 198              		.size	chCondBroadcastI, .-chCondBroadcastI
 199 0022 00BFAFF3 		.section	.text.chCondBroadcast,"ax",%progbits
 199      0080AFF3 
 199      0080AFF3 
 199      0080
 200              		.align	2
 201              		.p2align 4,,15
 202              		.global	chCondBroadcast
 203              		.thumb
 204              		.thumb_func
 205              		.type	chCondBroadcast, %function
 206              	chCondBroadcast:
 207              	.LFB10:
 208              		.loc 1 110 0
 209              		.cfi_startproc
 210              		@ args = 0, pretend = 0, frame = 0
 211              		@ frame_needed = 0, uses_anonymous_args = 0
 212              	.LVL16:
 213 0000 10B5     		push	{r4, lr}
 214              		.cfi_def_cfa_offset 8
 215              		.cfi_offset 4, -8
 216              		.cfi_offset 14, -4
 217 0002 0446     		mov	r4, r0
 218              	.LBB22:
 219              		.loc 1 112 0
 220 0004 2023     		movs	r3, #32
 221              	@ 112 "../../ChibiOS-RT/os/kernel/src/chcond.c" 1
 222 0006 83F31188 		msr     BASEPRI, r3
 223              	@ 0 "" 2
ARM GAS  /tmp/ccH2yj5t.s 			page 5


 224              		.thumb
 225              	.LBE22:
 226 000a FFF7FEFF 		bl	dbg_check_lock
 227              	.LVL17:
 228              		.loc 1 113 0
 229 000e 2046     		mov	r0, r4
 230 0010 FFF7FEFF 		bl	chCondBroadcastI
 231              	.LVL18:
 232              		.loc 1 114 0
 233 0014 FFF7FEFF 		bl	chSchRescheduleS
 234              	.LVL19:
 235              		.loc 1 115 0
 236 0018 FFF7FEFF 		bl	dbg_check_unlock
 237              	.LVL20:
 238              	.LBB23:
 239 001c 0023     		movs	r3, #0
 240              	@ 115 "../../ChibiOS-RT/os/kernel/src/chcond.c" 1
 241 001e 83F31188 		msr     BASEPRI, r3
 242              	@ 0 "" 2
 243              		.thumb
 244 0022 10BD     		pop	{r4, pc}
 245              	.LBE23:
 246              		.cfi_endproc
 247              	.LFE10:
 248              		.size	chCondBroadcast, .-chCondBroadcast
 249 0024 AFF30080 		.section	.text.chCondWaitS,"ax",%progbits
 249      AFF30080 
 249      AFF30080 
 250              		.align	2
 251              		.p2align 4,,15
 252              		.global	chCondWaitS
 253              		.thumb
 254              		.thumb_func
 255              		.type	chCondWaitS, %function
 256              	chCondWaitS:
 257              	.LFB13:
 258              		.loc 1 184 0
 259              		.cfi_startproc
 260              		@ args = 0, pretend = 0, frame = 0
 261              		@ frame_needed = 0, uses_anonymous_args = 0
 262              	.LVL21:
 263 0000 F8B5     		push	{r3, r4, r5, r6, r7, lr}
 264              		.cfi_def_cfa_offset 24
 265              		.cfi_offset 3, -24
 266              		.cfi_offset 4, -20
 267              		.cfi_offset 5, -16
 268              		.cfi_offset 6, -12
 269              		.cfi_offset 7, -8
 270              		.cfi_offset 14, -4
 271 0002 0446     		mov	r4, r0
 272              		.loc 1 185 0
 273 0004 114B     		ldr	r3, .L19
 274 0006 9D69     		ldr	r5, [r3, #24]
 275              	.LVL22:
 276              		.loc 1 189 0
 277 0008 FFF7FEFF 		bl	chDbgCheckClassS
 278              	.LVL23:
ARM GAS  /tmp/ccH2yj5t.s 			page 6


 279              		.loc 1 191 0
 280 000c 2B6C     		ldr	r3, [r5, #64]
 281 000e 13B9     		cbnz	r3, .L15
 282              		.loc 1 191 0 is_stmt 0 discriminator 1
 283 0010 0F48     		ldr	r0, .L19+4
 284 0012 FFF7FEFF 		bl	chDbgPanic
 285              	.LVL24:
 286              	.L15:
 287              		.loc 1 195 0 is_stmt 1
 288 0016 FFF7FEFF 		bl	chMtxUnlockS
 289              	.LVL25:
 290 001a 0746     		mov	r7, r0
 291              	.LVL26:
 292              		.loc 1 196 0
 293 001c AC62     		str	r4, [r5, #40]
 294              		.loc 1 197 0
 295 001e 2646     		mov	r6, r4
 296              	.LVL27:
 297              	.LBB24:
 298              	.LBB25:
 299              		.loc 2 43 0
 300 0020 2346     		mov	r3, r4
 301              	.LVL28:
 302              	.L17:
 303              		.loc 2 45 0
 304 0022 1B68     		ldr	r3, [r3]
 305              	.LVL29:
 306              		.loc 2 46 0
 307 0024 9E42     		cmp	r6, r3
 308 0026 03D0     		beq	.L16
 309 0028 9968     		ldr	r1, [r3, #8]
 310 002a AA68     		ldr	r2, [r5, #8]
 311 002c 9142     		cmp	r1, r2
 312 002e F8D2     		bcs	.L17
 313              	.L16:
 314              		.loc 2 47 0
 315 0030 2B60     		str	r3, [r5]
 316              		.loc 2 48 0
 317 0032 5A68     		ldr	r2, [r3, #4]
 318 0034 6A60     		str	r2, [r5, #4]
 319              		.loc 2 49 0
 320 0036 5D60     		str	r5, [r3, #4]
 321 0038 1560     		str	r5, [r2]
 322              	.LBE25:
 323              	.LBE24:
 324              		.loc 1 198 0
 325 003a 0520     		movs	r0, #5
 326              	.LVL30:
 327 003c FFF7FEFF 		bl	chSchGoSleepS
 328              	.LVL31:
 329              		.loc 1 199 0
 330 0040 AC6A     		ldr	r4, [r5, #40]
 331              	.LVL32:
 332              		.loc 1 200 0
 333 0042 3846     		mov	r0, r7
 334 0044 FFF7FEFF 		bl	chMtxLockS
 335              	.LVL33:
ARM GAS  /tmp/ccH2yj5t.s 			page 7


 336              		.loc 1 202 0
 337 0048 2046     		mov	r0, r4
 338 004a F8BD     		pop	{r3, r4, r5, r6, r7, pc}
 339              	.LVL34:
 340              	.L20:
 341              		.align	2
 342              	.L19:
 343 004c 00000000 		.word	rlist
 344 0050 00000000 		.word	.LC0
 345              		.cfi_endproc
 346              	.LFE13:
 347              		.size	chCondWaitS, .-chCondWaitS
 348 0054 AFF30080 		.section	.text.chCondWait,"ax",%progbits
 348      AFF30080 
 348      AFF30080 
 349              		.align	2
 350              		.p2align 4,,15
 351              		.global	chCondWait
 352              		.thumb
 353              		.thumb_func
 354              		.type	chCondWait, %function
 355              	chCondWait:
 356              	.LFB12:
 357              		.loc 1 158 0
 358              		.cfi_startproc
 359              		@ args = 0, pretend = 0, frame = 0
 360              		@ frame_needed = 0, uses_anonymous_args = 0
 361              	.LVL35:
 362 0000 10B5     		push	{r4, lr}
 363              		.cfi_def_cfa_offset 8
 364              		.cfi_offset 4, -8
 365              		.cfi_offset 14, -4
 366 0002 0446     		mov	r4, r0
 367              	.LBB26:
 368              		.loc 1 161 0
 369 0004 2023     		movs	r3, #32
 370              	@ 161 "../../ChibiOS-RT/os/kernel/src/chcond.c" 1
 371 0006 83F31188 		msr     BASEPRI, r3
 372              	@ 0 "" 2
 373              		.thumb
 374              	.LBE26:
 375 000a FFF7FEFF 		bl	dbg_check_lock
 376              	.LVL36:
 377              		.loc 1 162 0
 378 000e 2046     		mov	r0, r4
 379 0010 FFF7FEFF 		bl	chCondWaitS
 380              	.LVL37:
 381 0014 0446     		mov	r4, r0
 382              	.LVL38:
 383              		.loc 1 163 0
 384 0016 FFF7FEFF 		bl	dbg_check_unlock
 385              	.LVL39:
 386              	.LBB27:
 387 001a 0023     		movs	r3, #0
 388              	@ 163 "../../ChibiOS-RT/os/kernel/src/chcond.c" 1
 389 001c 83F31188 		msr     BASEPRI, r3
 390              	@ 0 "" 2
ARM GAS  /tmp/ccH2yj5t.s 			page 8


 391              		.thumb
 392              	.LBE27:
 393              		.loc 1 165 0
 394 0020 2046     		mov	r0, r4
 395 0022 10BD     		pop	{r4, pc}
 396              		.cfi_endproc
 397              	.LFE12:
 398              		.size	chCondWait, .-chCondWait
 399 0024 AFF30080 		.section	.text.chCondWaitTimeoutS,"ax",%progbits
 399      AFF30080 
 399      AFF30080 
 400              		.align	2
 401              		.p2align 4,,15
 402              		.global	chCondWaitTimeoutS
 403              		.thumb
 404              		.thumb_func
 405              		.type	chCondWaitTimeoutS, %function
 406              	chCondWaitTimeoutS:
 407              	.LFB15:
 408              		.loc 1 270 0
 409              		.cfi_startproc
 410              		@ args = 0, pretend = 0, frame = 0
 411              		@ frame_needed = 0, uses_anonymous_args = 0
 412              	.LVL40:
 413 0000 2DE9F041 		push	{r4, r5, r6, r7, r8, lr}
 414              		.cfi_def_cfa_offset 24
 415              		.cfi_offset 4, -24
 416              		.cfi_offset 5, -20
 417              		.cfi_offset 6, -16
 418              		.cfi_offset 7, -12
 419              		.cfi_offset 8, -8
 420              		.cfi_offset 14, -4
 421 0004 0446     		mov	r4, r0
 422 0006 8846     		mov	r8, r1
 423              		.loc 1 274 0
 424 0008 FFF7FEFF 		bl	chDbgCheckClassS
 425              	.LVL41:
 426              		.loc 1 276 0
 427 000c 144B     		ldr	r3, .L29
 428 000e 9B69     		ldr	r3, [r3, #24]
 429 0010 1B6C     		ldr	r3, [r3, #64]
 430 0012 13B9     		cbnz	r3, .L24
 431              		.loc 1 276 0 is_stmt 0 discriminator 1
 432 0014 1348     		ldr	r0, .L29+4
 433 0016 FFF7FEFF 		bl	chDbgPanic
 434              	.LVL42:
 435              	.L24:
 436              		.loc 1 280 0 is_stmt 1
 437 001a FFF7FEFF 		bl	chMtxUnlockS
 438              	.LVL43:
 439 001e 0746     		mov	r7, r0
 440              	.LVL44:
 441              		.loc 1 281 0
 442 0020 0F4B     		ldr	r3, .L29
 443 0022 9D69     		ldr	r5, [r3, #24]
 444 0024 AC62     		str	r4, [r5, #40]
 445              		.loc 1 282 0
ARM GAS  /tmp/ccH2yj5t.s 			page 9


 446 0026 2646     		mov	r6, r4
 447              	.LVL45:
 448              	.LBB28:
 449              	.LBB29:
 450              		.loc 2 43 0
 451 0028 2346     		mov	r3, r4
 452              	.LVL46:
 453              	.L26:
 454              		.loc 2 45 0
 455 002a 1B68     		ldr	r3, [r3]
 456              	.LVL47:
 457              		.loc 2 46 0
 458 002c 9E42     		cmp	r6, r3
 459 002e 03D0     		beq	.L25
 460 0030 9C68     		ldr	r4, [r3, #8]
 461 0032 AA68     		ldr	r2, [r5, #8]
 462 0034 9442     		cmp	r4, r2
 463 0036 F8D2     		bcs	.L26
 464              	.L25:
 465              		.loc 2 47 0
 466 0038 2B60     		str	r3, [r5]
 467              		.loc 2 48 0
 468 003a 5A68     		ldr	r2, [r3, #4]
 469 003c 6A60     		str	r2, [r5, #4]
 470              		.loc 2 49 0
 471 003e 5D60     		str	r5, [r3, #4]
 472 0040 1560     		str	r5, [r2]
 473              	.LBE29:
 474              	.LBE28:
 475              		.loc 1 283 0
 476 0042 0520     		movs	r0, #5
 477              	.LVL48:
 478 0044 4146     		mov	r1, r8
 479 0046 FFF7FEFF 		bl	chSchGoSleepTimeoutS
 480              	.LVL49:
 481 004a 0446     		mov	r4, r0
 482              	.LVL50:
 483              		.loc 1 284 0
 484 004c B0F1FF3F 		cmp	r0, #-1
 485 0050 02D0     		beq	.L27
 486              		.loc 1 285 0
 487 0052 3846     		mov	r0, r7
 488              	.LVL51:
 489 0054 FFF7FEFF 		bl	chMtxLockS
 490              	.LVL52:
 491              	.L27:
 492              		.loc 1 287 0
 493 0058 2046     		mov	r0, r4
 494 005a BDE8F081 		pop	{r4, r5, r6, r7, r8, pc}
 495              	.LVL53:
 496              	.L30:
 497 005e 00BF     		.align	2
 498              	.L29:
 499 0060 00000000 		.word	rlist
 500 0064 14000000 		.word	.LC1
 501              		.cfi_endproc
 502              	.LFE15:
ARM GAS  /tmp/ccH2yj5t.s 			page 10


 503              		.size	chCondWaitTimeoutS, .-chCondWaitTimeoutS
 504 0068 AFF30080 		.section	.text.chCondWaitTimeout,"ax",%progbits
 504      AFF30080 
 505              		.align	2
 506              		.p2align 4,,15
 507              		.global	chCondWaitTimeout
 508              		.thumb
 509              		.thumb_func
 510              		.type	chCondWaitTimeout, %function
 511              	chCondWaitTimeout:
 512              	.LFB14:
 513              		.loc 1 233 0
 514              		.cfi_startproc
 515              		@ args = 0, pretend = 0, frame = 0
 516              		@ frame_needed = 0, uses_anonymous_args = 0
 517              	.LVL54:
 518 0000 38B5     		push	{r3, r4, r5, lr}
 519              		.cfi_def_cfa_offset 16
 520              		.cfi_offset 3, -16
 521              		.cfi_offset 4, -12
 522              		.cfi_offset 5, -8
 523              		.cfi_offset 14, -4
 524 0002 0546     		mov	r5, r0
 525 0004 0C46     		mov	r4, r1
 526              	.LBB30:
 527              		.loc 1 236 0
 528 0006 2023     		movs	r3, #32
 529              	@ 236 "../../ChibiOS-RT/os/kernel/src/chcond.c" 1
 530 0008 83F31188 		msr     BASEPRI, r3
 531              	@ 0 "" 2
 532              		.thumb
 533              	.LBE30:
 534 000c FFF7FEFF 		bl	dbg_check_lock
 535              	.LVL55:
 536              		.loc 1 237 0
 537 0010 2846     		mov	r0, r5
 538 0012 2146     		mov	r1, r4
 539 0014 FFF7FEFF 		bl	chCondWaitTimeoutS
 540              	.LVL56:
 541 0018 0446     		mov	r4, r0
 542              	.LVL57:
 543              		.loc 1 238 0
 544 001a FFF7FEFF 		bl	dbg_check_unlock
 545              	.LVL58:
 546              	.LBB31:
 547 001e 0023     		movs	r3, #0
 548              	@ 238 "../../ChibiOS-RT/os/kernel/src/chcond.c" 1
 549 0020 83F31188 		msr     BASEPRI, r3
 550              	@ 0 "" 2
 551              		.thumb
 552              	.LBE31:
 553              		.loc 1 240 0
 554 0024 2046     		mov	r0, r4
 555 0026 38BD     		pop	{r3, r4, r5, pc}
 556              		.cfi_endproc
 557              	.LFE14:
 558              		.size	chCondWaitTimeout, .-chCondWaitTimeout
ARM GAS  /tmp/ccH2yj5t.s 			page 11


 559 0028 AFF30080 		.section	.rodata.str1.4,"aMS",%progbits,1
 559      AFF30080 
 560              		.align	2
 561              	.LC0:
 562 0000 6368436F 		.ascii	"chCondWaitS(), #1\000"
 562      6E645761 
 562      69745328 
 562      292C2023 
 562      3100
 563 0012 0000     		.space	2
 564              	.LC1:
 565 0014 6368436F 		.ascii	"chCondWaitTimeoutS(), #1\000"
 565      6E645761 
 565      69745469 
 565      6D656F75 
 565      74532829 
 566 002d 000000   		.text
 567              	.Letext0:
 568              		.file 3 "/usr/arm-none-eabi/include/machine/_default_types.h"
 569              		.file 4 "/usr/arm-none-eabi/include/stdint.h"
 570              		.file 5 "../../ChibiOS-RT/os/ports/GCC/ARMCMx/chtypes.h"
 571              		.file 6 "../../ChibiOS-RT/os/kernel/include/chlists.h"
 572              		.file 7 "../../ChibiOS-RT/os/kernel/include/chthreads.h"
 573              		.file 8 "../../ChibiOS-RT/os/ports/GCC/ARMCMx/chcore_v7m.h"
 574              		.file 9 "../../ChibiOS-RT/os/kernel/include/chschd.h"
 575              		.file 10 "../../ChibiOS-RT/os/kernel/include/chmtx.h"
 576              		.file 11 "../../ChibiOS-RT/os/kernel/include/chcond.h"
 577              		.file 12 "../../ChibiOS-RT/os/kernel/include/chdebug.h"