ARM GAS  /tmp/cci9JhiQ.s 			page 1


   1              		.syntax unified
   2              		.cpu cortex-m4
   3              		.fpu softvfp
   4              		.eabi_attribute 20, 1
   5              		.eabi_attribute 21, 1
   6              		.eabi_attribute 23, 3
   7              		.eabi_attribute 24, 1
   8              		.eabi_attribute 25, 1
   9              		.eabi_attribute 26, 1
  10              		.eabi_attribute 30, 1
  11              		.eabi_attribute 34, 1
  12              		.eabi_attribute 18, 4
  13              		.thumb
  14              		.file	"chdynamic.c"
  15              		.text
  16              	.Ltext0:
  17              		.cfi_sections	.debug_frame
  18              		.section	.text.chThdAddRef,"ax",%progbits
  19              		.align	2
  20              		.p2align 4,,15
  21              		.global	chThdAddRef
  22              		.thumb
  23              		.thumb_func
  24              		.type	chThdAddRef, %function
  25              	chThdAddRef:
  26              	.LFB7:
  27              		.file 1 "../../ChibiOS-RT/os/kernel/src/chdynamic.c"
  28              		.loc 1 52 0
  29              		.cfi_startproc
  30              		@ args = 0, pretend = 0, frame = 0
  31              		@ frame_needed = 0, uses_anonymous_args = 0
  32              	.LVL0:
  33 0000 10B5     		push	{r4, lr}
  34              		.cfi_def_cfa_offset 8
  35              		.cfi_offset 4, -8
  36              		.cfi_offset 14, -4
  37 0002 0446     		mov	r4, r0
  38              	.LBB2:
  39              		.loc 1 54 0
  40 0004 2023     		movs	r3, #32
  41              	@ 54 "../../ChibiOS-RT/os/kernel/src/chdynamic.c" 1
  42 0006 83F31188 		msr     BASEPRI, r3
  43              	@ 0 "" 2
  44              		.thumb
  45              	.LBE2:
  46 000a FFF7FEFF 		bl	dbg_check_lock
  47              	.LVL1:
  48              		.loc 1 55 0
  49 000e 94F82230 		ldrb	r3, [r4, #34]	@ zero_extendqisi2
  50 0012 FF2B     		cmp	r3, #255
  51 0014 02D1     		bne	.L2
  52              		.loc 1 55 0 is_stmt 0 discriminator 1
  53 0016 0748     		ldr	r0, .L4
  54 0018 FFF7FEFF 		bl	chDbgPanic
  55              	.LVL2:
  56              	.L2:
  57              		.loc 1 56 0 is_stmt 1
ARM GAS  /tmp/cci9JhiQ.s 			page 2


  58 001c 94F82230 		ldrb	r3, [r4, #34]	@ zero_extendqisi2
  59 0020 0133     		adds	r3, r3, #1
  60 0022 84F82230 		strb	r3, [r4, #34]
  61              		.loc 1 57 0
  62 0026 FFF7FEFF 		bl	dbg_check_unlock
  63              	.LVL3:
  64              	.LBB3:
  65 002a 0023     		movs	r3, #0
  66              	@ 57 "../../ChibiOS-RT/os/kernel/src/chdynamic.c" 1
  67 002c 83F31188 		msr     BASEPRI, r3
  68              	@ 0 "" 2
  69              		.thumb
  70              	.LBE3:
  71              		.loc 1 59 0
  72 0030 2046     		mov	r0, r4
  73 0032 10BD     		pop	{r4, pc}
  74              	.LVL4:
  75              	.L5:
  76              		.align	2
  77              	.L4:
  78 0034 00000000 		.word	.LC0
  79              		.cfi_endproc
  80              	.LFE7:
  81              		.size	chThdAddRef, .-chThdAddRef
  82 0038 AFF30080 		.section	.text.chThdRelease,"ax",%progbits
  82      AFF30080 
  83              		.align	2
  84              		.p2align 4,,15
  85              		.global	chThdRelease
  86              		.thumb
  87              		.thumb_func
  88              		.type	chThdRelease, %function
  89              	chThdRelease:
  90              	.LFB8:
  91              		.loc 1 74 0
  92              		.cfi_startproc
  93              		@ args = 0, pretend = 0, frame = 0
  94              		@ frame_needed = 0, uses_anonymous_args = 0
  95              	.LVL5:
  96 0000 38B5     		push	{r3, r4, r5, lr}
  97              		.cfi_def_cfa_offset 16
  98              		.cfi_offset 3, -16
  99              		.cfi_offset 4, -12
 100              		.cfi_offset 5, -8
 101              		.cfi_offset 14, -4
 102 0002 0546     		mov	r5, r0
 103              	.LBB4:
 104              		.loc 1 77 0
 105 0004 2023     		movs	r3, #32
 106              	@ 77 "../../ChibiOS-RT/os/kernel/src/chdynamic.c" 1
 107 0006 83F31188 		msr     BASEPRI, r3
 108              	@ 0 "" 2
 109              		.thumb
 110              	.LBE4:
 111 000a FFF7FEFF 		bl	dbg_check_lock
 112              	.LVL6:
 113              		.loc 1 78 0
ARM GAS  /tmp/cci9JhiQ.s 			page 3


 114 000e 95F82230 		ldrb	r3, [r5, #34]	@ zero_extendqisi2
 115 0012 13B9     		cbnz	r3, .L7
 116              		.loc 1 78 0 is_stmt 0 discriminator 1
 117 0014 1848     		ldr	r0, .L12
 118 0016 FFF7FEFF 		bl	chDbgPanic
 119              	.LVL7:
 120              	.L7:
 121              		.loc 1 79 0 is_stmt 1
 122 001a 95F82240 		ldrb	r4, [r5, #34]	@ zero_extendqisi2
 123 001e 013C     		subs	r4, r4, #1
 124 0020 E4B2     		uxtb	r4, r4
 125 0022 85F82240 		strb	r4, [r5, #34]
 126              	.LVL8:
 127              		.loc 1 80 0
 128 0026 FFF7FEFF 		bl	dbg_check_unlock
 129              	.LVL9:
 130              	.LBB5:
 131 002a 0023     		movs	r3, #0
 132              	@ 80 "../../ChibiOS-RT/os/kernel/src/chdynamic.c" 1
 133 002c 83F31188 		msr     BASEPRI, r3
 134              	@ 0 "" 2
 135              		.thumb
 136              	.LBE5:
 137              		.loc 1 85 0
 138 0030 04BB     		cbnz	r4, .L6
 139              		.loc 1 85 0 is_stmt 0 discriminator 1
 140 0032 95F82030 		ldrb	r3, [r5, #32]	@ zero_extendqisi2
 141 0036 0E2B     		cmp	r3, #14
 142 0038 1CD1     		bne	.L6
 143              		.loc 1 86 0 is_stmt 1
 144 003a 95F82130 		ldrb	r3, [r5, #33]	@ zero_extendqisi2
 145 003e 03F00303 		and	r3, r3, #3
 146 0042 012B     		cmp	r3, #1
 147 0044 02D0     		beq	.L9
 148 0046 022B     		cmp	r3, #2
 149 0048 0AD0     		beq	.L10
 150 004a 38BD     		pop	{r3, r4, r5, pc}
 151              	.LVL10:
 152              	.L9:
 153              		.loc 1 90 0
 154 004c 6B69     		ldr	r3, [r5, #20]
 155 004e 2A69     		ldr	r2, [r5, #16]
 156 0050 1A61     		str	r2, [r3, #16]
 157 0052 2B69     		ldr	r3, [r5, #16]
 158 0054 6A69     		ldr	r2, [r5, #20]
 159 0056 5A61     		str	r2, [r3, #20]
 160              		.loc 1 92 0
 161 0058 2846     		mov	r0, r5
 162 005a FFF7FEFF 		bl	chHeapFree
 163              	.LVL11:
 164              		.loc 1 93 0
 165 005e 38BD     		pop	{r3, r4, r5, pc}
 166              	.LVL12:
 167              	.L10:
 168              		.loc 1 98 0
 169 0060 6B69     		ldr	r3, [r5, #20]
 170 0062 2A69     		ldr	r2, [r5, #16]
ARM GAS  /tmp/cci9JhiQ.s 			page 4


 171 0064 1A61     		str	r2, [r3, #16]
 172 0066 2B69     		ldr	r3, [r5, #16]
 173 0068 6A69     		ldr	r2, [r5, #20]
 174 006a 5A61     		str	r2, [r3, #20]
 175              		.loc 1 100 0
 176 006c A86C     		ldr	r0, [r5, #72]
 177 006e 2946     		mov	r1, r5
 178 0070 FFF7FEFF 		bl	chPoolFree
 179              	.LVL13:
 180              	.L6:
 181 0074 38BD     		pop	{r3, r4, r5, pc}
 182              	.LVL14:
 183              	.L13:
 184 0076 00BF     		.align	2
 185              	.L12:
 186 0078 14000000 		.word	.LC1
 187              		.cfi_endproc
 188              	.LFE8:
 189              		.size	chThdRelease, .-chThdRelease
 190 007c AFF30080 		.section	.text.chThdCreateFromHeap,"ax",%progbits
 191              		.align	2
 192              		.p2align 4,,15
 193              		.global	chThdCreateFromHeap
 194              		.thumb
 195              		.thumb_func
 196              		.type	chThdCreateFromHeap, %function
 197              	chThdCreateFromHeap:
 198              	.LFB9:
 199              		.loc 1 131 0
 200              		.cfi_startproc
 201              		@ args = 4, pretend = 0, frame = 0
 202              		@ frame_needed = 0, uses_anonymous_args = 0
 203              	.LVL15:
 204 0000 F0B5     		push	{r4, r5, r6, r7, lr}
 205              		.cfi_def_cfa_offset 20
 206              		.cfi_offset 4, -20
 207              		.cfi_offset 5, -16
 208              		.cfi_offset 6, -12
 209              		.cfi_offset 7, -8
 210              		.cfi_offset 14, -4
 211 0002 83B0     		sub	sp, sp, #12
 212              		.cfi_def_cfa_offset 32
 213 0004 0E46     		mov	r6, r1
 214 0006 1546     		mov	r5, r2
 215 0008 1C46     		mov	r4, r3
 216              		.loc 1 135 0
 217 000a FFF7FEFF 		bl	chHeapAlloc
 218              	.LVL16:
 219              		.loc 1 136 0
 220 000e D8B1     		cbz	r0, .L16
 221 0010 0746     		mov	r7, r0
 222              	.LBB6:
 223              		.loc 1 148 0
 224 0012 2023     		movs	r3, #32
 225              	@ 148 "../../ChibiOS-RT/os/kernel/src/chdynamic.c" 1
 226 0014 83F31188 		msr     BASEPRI, r3
 227              	@ 0 "" 2
ARM GAS  /tmp/cci9JhiQ.s 			page 5


 228              		.thumb
 229              	.LBE6:
 230 0018 FFF7FEFF 		bl	dbg_check_lock
 231              	.LVL17:
 232              		.loc 1 149 0
 233 001c 089B     		ldr	r3, [sp, #32]
 234 001e 0093     		str	r3, [sp]
 235 0020 3846     		mov	r0, r7
 236 0022 3146     		mov	r1, r6
 237 0024 2A46     		mov	r2, r5
 238 0026 2346     		mov	r3, r4
 239 0028 FFF7FEFF 		bl	chThdCreateI
 240              	.LVL18:
 241 002c 0446     		mov	r4, r0
 242              	.LVL19:
 243              		.loc 1 150 0
 244 002e 0123     		movs	r3, #1
 245 0030 80F82130 		strb	r3, [r0, #33]
 246              		.loc 1 151 0
 247 0034 0021     		movs	r1, #0
 248 0036 FFF7FEFF 		bl	chSchWakeupS
 249              	.LVL20:
 250              		.loc 1 152 0
 251 003a FFF7FEFF 		bl	dbg_check_unlock
 252              	.LVL21:
 253              	.LBB7:
 254 003e 0023     		movs	r3, #0
 255              	@ 152 "../../ChibiOS-RT/os/kernel/src/chdynamic.c" 1
 256 0040 83F31188 		msr     BASEPRI, r3
 257              	@ 0 "" 2
 258              		.thumb
 259              	.LBE7:
 260              		.loc 1 153 0
 261 0044 2046     		mov	r0, r4
 262 0046 00E0     		b	.L15
 263              	.LVL22:
 264              	.L16:
 265              		.loc 1 137 0
 266 0048 0020     		movs	r0, #0
 267              	.LVL23:
 268              	.L15:
 269              		.loc 1 154 0
 270 004a 03B0     		add	sp, sp, #12
 271              		.cfi_def_cfa_offset 20
 272              		@ sp needed
 273 004c F0BD     		pop	{r4, r5, r6, r7, pc}
 274              		.cfi_endproc
 275              	.LFE9:
 276              		.size	chThdCreateFromHeap, .-chThdCreateFromHeap
 277 004e 00BF     		.section	.text.chThdCreateFromMemoryPool,"ax",%progbits
 278              		.align	2
 279              		.p2align 4,,15
 280              		.global	chThdCreateFromMemoryPool
 281              		.thumb
 282              		.thumb_func
 283              		.type	chThdCreateFromMemoryPool, %function
 284              	chThdCreateFromMemoryPool:
ARM GAS  /tmp/cci9JhiQ.s 			page 6


 285              	.LFB10:
 286              		.loc 1 180 0
 287              		.cfi_startproc
 288              		@ args = 0, pretend = 0, frame = 0
 289              		@ frame_needed = 0, uses_anonymous_args = 0
 290              	.LVL24:
 291 0000 2DE9F041 		push	{r4, r5, r6, r7, r8, lr}
 292              		.cfi_def_cfa_offset 24
 293              		.cfi_offset 4, -24
 294              		.cfi_offset 5, -20
 295              		.cfi_offset 6, -16
 296              		.cfi_offset 7, -12
 297              		.cfi_offset 8, -8
 298              		.cfi_offset 14, -4
 299 0004 82B0     		sub	sp, sp, #8
 300              		.cfi_def_cfa_offset 32
 301 0006 0546     		mov	r5, r0
 302 0008 0E46     		mov	r6, r1
 303 000a 1446     		mov	r4, r2
 304 000c 9846     		mov	r8, r3
 305              		.loc 1 186 0
 306 000e FFF7FEFF 		bl	chPoolAlloc
 307              	.LVL25:
 308              		.loc 1 187 0
 309 0012 E0B1     		cbz	r0, .L20
 310 0014 0746     		mov	r7, r0
 311              	.LBB8:
 312              		.loc 1 199 0
 313 0016 2023     		movs	r3, #32
 314              	@ 199 "../../ChibiOS-RT/os/kernel/src/chdynamic.c" 1
 315 0018 83F31188 		msr     BASEPRI, r3
 316              	@ 0 "" 2
 317              		.thumb
 318              	.LBE8:
 319 001c FFF7FEFF 		bl	dbg_check_lock
 320              	.LVL26:
 321              		.loc 1 200 0
 322 0020 CDF80080 		str	r8, [sp]
 323 0024 3846     		mov	r0, r7
 324 0026 6968     		ldr	r1, [r5, #4]
 325 0028 3246     		mov	r2, r6
 326 002a 2346     		mov	r3, r4
 327 002c FFF7FEFF 		bl	chThdCreateI
 328              	.LVL27:
 329 0030 0446     		mov	r4, r0
 330              	.LVL28:
 331              		.loc 1 201 0
 332 0032 0223     		movs	r3, #2
 333 0034 80F82130 		strb	r3, [r0, #33]
 334              		.loc 1 202 0
 335 0038 8564     		str	r5, [r0, #72]
 336              		.loc 1 203 0
 337 003a 0021     		movs	r1, #0
 338 003c FFF7FEFF 		bl	chSchWakeupS
 339              	.LVL29:
 340              		.loc 1 204 0
 341 0040 FFF7FEFF 		bl	dbg_check_unlock
ARM GAS  /tmp/cci9JhiQ.s 			page 7


 342              	.LVL30:
 343              	.LBB9:
 344 0044 0023     		movs	r3, #0
 345              	@ 204 "../../ChibiOS-RT/os/kernel/src/chdynamic.c" 1
 346 0046 83F31188 		msr     BASEPRI, r3
 347              	@ 0 "" 2
 348              		.thumb
 349              	.LBE9:
 350              		.loc 1 205 0
 351 004a 2046     		mov	r0, r4
 352 004c 00E0     		b	.L19
 353              	.LVL31:
 354              	.L20:
 355              		.loc 1 188 0
 356 004e 0020     		movs	r0, #0
 357              	.LVL32:
 358              	.L19:
 359              		.loc 1 206 0
 360 0050 02B0     		add	sp, sp, #8
 361              		.cfi_def_cfa_offset 24
 362              		@ sp needed
 363 0052 BDE8F081 		pop	{r4, r5, r6, r7, r8, pc}
 364              		.cfi_endproc
 365              	.LFE10:
 366              		.size	chThdCreateFromMemoryPool, .-chThdCreateFromMemoryPool
 367 0056 00BFAFF3 		.section	.rodata.str1.4,"aMS",%progbits,1
 367      0080AFF3 
 367      0080
 368              		.align	2
 369              	.LC0:
 370 0000 63685468 		.ascii	"chThdAddRef(), #1\000"
 370      64416464 
 370      52656628 
 370      292C2023 
 370      3100
 371 0012 0000     		.space	2
 372              	.LC1:
 373 0014 63685468 		.ascii	"chThdRelease(), #1\000"
 373      6452656C 
 373      65617365 
 373      28292C20 
 373      233100
 374 0027 00       		.text
 375              	.Letext0:
 376              		.file 2 "/usr/lib/gcc/arm-none-eabi/4.9.2/include/stddef.h"
 377              		.file 3 "/usr/arm-none-eabi/include/machine/_default_types.h"
 378              		.file 4 "/usr/arm-none-eabi/include/stdint.h"
 379              		.file 5 "../../ChibiOS-RT/os/ports/GCC/ARMCMx/chtypes.h"
 380              		.file 6 "../../ChibiOS-RT/os/kernel/include/chlists.h"
 381              		.file 7 "../../ChibiOS-RT/os/kernel/include/chthreads.h"
 382              		.file 8 "../../ChibiOS-RT/os/ports/GCC/ARMCMx/chcore_v7m.h"
 383              		.file 9 "../../ChibiOS-RT/os/kernel/include/chmtx.h"
 384              		.file 10 "../../ChibiOS-RT/os/kernel/include/chmemcore.h"
 385              		.file 11 "../../ChibiOS-RT/os/kernel/include/chheap.h"
 386              		.file 12 "../../ChibiOS-RT/os/kernel/include/chmempools.h"
 387              		.file 13 "../../ChibiOS-RT/os/kernel/include/chdebug.h"
 388              		.file 14 "../../ChibiOS-RT/os/kernel/include/chschd.h"
ARM GAS  /tmp/cci9JhiQ.s 			page 8

