ARM GAS  /tmp/ccHPpRbv.s 			page 1


   1              		.syntax unified
   2              		.cpu cortex-m4
   3              		.fpu softvfp
   4              		.eabi_attribute 20, 1
   5              		.eabi_attribute 21, 1
   6              		.eabi_attribute 23, 3
   7              		.eabi_attribute 24, 1
   8              		.eabi_attribute 25, 1
   9              		.eabi_attribute 26, 1
  10              		.eabi_attribute 30, 1
  11              		.eabi_attribute 34, 1
  12              		.eabi_attribute 18, 4
  13              		.thumb
  14              		.file	"chevents.c"
  15              		.text
  16              	.Ltext0:
  17              		.cfi_sections	.debug_frame
  18              		.section	.text.chEvtRegisterMask,"ax",%progbits
  19              		.align	2
  20              		.p2align 4,,15
  21              		.global	chEvtRegisterMask
  22              		.thumb
  23              		.thumb_func
  24              		.type	chEvtRegisterMask, %function
  25              	chEvtRegisterMask:
  26              	.LFB7:
  27              		.file 1 "../../ChibiOS-RT/os/kernel/src/chevents.c"
  28              		.loc 1 85 0
  29              		.cfi_startproc
  30              		@ args = 0, pretend = 0, frame = 0
  31              		@ frame_needed = 0, uses_anonymous_args = 0
  32              	.LVL0:
  33 0000 70B5     		push	{r4, r5, r6, lr}
  34              		.cfi_def_cfa_offset 16
  35              		.cfi_offset 4, -16
  36              		.cfi_offset 5, -12
  37              		.cfi_offset 6, -8
  38              		.cfi_offset 14, -4
  39 0002 0546     		mov	r5, r0
  40 0004 0C46     		mov	r4, r1
  41 0006 1646     		mov	r6, r2
  42              	.LBB2:
  43              		.loc 1 89 0
  44 0008 2023     		movs	r3, #32
  45              	@ 89 "../../ChibiOS-RT/os/kernel/src/chevents.c" 1
  46 000a 83F31188 		msr     BASEPRI, r3
  47              	@ 0 "" 2
  48              		.thumb
  49              	.LBE2:
  50 000e FFF7FEFF 		bl	dbg_check_lock
  51              	.LVL1:
  52              		.loc 1 90 0
  53 0012 2B68     		ldr	r3, [r5]
  54 0014 2360     		str	r3, [r4]
  55              		.loc 1 91 0
  56 0016 2C60     		str	r4, [r5]
  57              		.loc 1 92 0
ARM GAS  /tmp/ccHPpRbv.s 			page 2


  58 0018 054B     		ldr	r3, .L3
  59 001a 9B69     		ldr	r3, [r3, #24]
  60 001c 6360     		str	r3, [r4, #4]
  61              		.loc 1 93 0
  62 001e A660     		str	r6, [r4, #8]
  63              		.loc 1 94 0
  64 0020 0025     		movs	r5, #0
  65              	.LVL2:
  66 0022 E560     		str	r5, [r4, #12]
  67              		.loc 1 95 0
  68 0024 FFF7FEFF 		bl	dbg_check_unlock
  69              	.LVL3:
  70              	.LBB3:
  71 0028 2B46     		mov	r3, r5
  72              	@ 95 "../../ChibiOS-RT/os/kernel/src/chevents.c" 1
  73 002a 83F31188 		msr     BASEPRI, r3
  74              	@ 0 "" 2
  75              		.thumb
  76 002e 70BD     		pop	{r4, r5, r6, pc}
  77              	.LVL4:
  78              	.L4:
  79              		.align	2
  80              	.L3:
  81 0030 00000000 		.word	rlist
  82              	.LBE3:
  83              		.cfi_endproc
  84              	.LFE7:
  85              		.size	chEvtRegisterMask, .-chEvtRegisterMask
  86 0034 AFF30080 		.section	.text.chEvtUnregister,"ax",%progbits
  86      AFF30080 
  86      AFF30080 
  87              		.align	2
  88              		.p2align 4,,15
  89              		.global	chEvtUnregister
  90              		.thumb
  91              		.thumb_func
  92              		.type	chEvtUnregister, %function
  93              	chEvtUnregister:
  94              	.LFB8:
  95              		.loc 1 111 0
  96              		.cfi_startproc
  97              		@ args = 0, pretend = 0, frame = 0
  98              		@ frame_needed = 0, uses_anonymous_args = 0
  99              	.LVL5:
 100 0000 38B5     		push	{r3, r4, r5, lr}
 101              		.cfi_def_cfa_offset 16
 102              		.cfi_offset 3, -16
 103              		.cfi_offset 4, -12
 104              		.cfi_offset 5, -8
 105              		.cfi_offset 14, -4
 106 0002 0446     		mov	r4, r0
 107 0004 0D46     		mov	r5, r1
 108              	.LVL6:
 109              	.LBB4:
 110              		.loc 1 117 0
 111 0006 2023     		movs	r3, #32
 112              	@ 117 "../../ChibiOS-RT/os/kernel/src/chevents.c" 1
ARM GAS  /tmp/ccHPpRbv.s 			page 3


 113 0008 83F31188 		msr     BASEPRI, r3
 114              	@ 0 "" 2
 115              		.thumb
 116              	.LBE4:
 117 000c FFF7FEFF 		bl	dbg_check_lock
 118              	.LVL7:
 119              		.loc 1 116 0
 120 0010 2246     		mov	r2, r4
 121              		.loc 1 118 0
 122 0012 05E0     		b	.L6
 123              	.LVL8:
 124              	.L8:
 125              		.loc 1 119 0
 126 0014 9D42     		cmp	r5, r3
 127 0016 02D1     		bne	.L9
 128              		.loc 1 120 0
 129 0018 2B68     		ldr	r3, [r5]
 130 001a 1360     		str	r3, [r2]
 131              		.loc 1 121 0
 132 001c 03E0     		b	.L7
 133              	.L9:
 134              		.loc 1 123 0
 135 001e 1A46     		mov	r2, r3
 136              	.LVL9:
 137              	.L6:
 138              		.loc 1 118 0
 139 0020 1368     		ldr	r3, [r2]
 140 0022 A342     		cmp	r3, r4
 141 0024 F6D1     		bne	.L8
 142              	.L7:
 143              		.loc 1 125 0
 144 0026 FFF7FEFF 		bl	dbg_check_unlock
 145              	.LVL10:
 146              	.LBB5:
 147 002a 0023     		movs	r3, #0
 148              	@ 125 "../../ChibiOS-RT/os/kernel/src/chevents.c" 1
 149 002c 83F31188 		msr     BASEPRI, r3
 150              	@ 0 "" 2
 151              		.thumb
 152 0030 38BD     		pop	{r3, r4, r5, pc}
 153              	.LBE5:
 154              		.cfi_endproc
 155              	.LFE8:
 156              		.size	chEvtUnregister, .-chEvtUnregister
 157 0032 00BFAFF3 		.section	.text.chEvtGetAndClearEvents,"ax",%progbits
 157      0080AFF3 
 157      0080AFF3 
 157      0080
 158              		.align	2
 159              		.p2align 4,,15
 160              		.global	chEvtGetAndClearEvents
 161              		.thumb
 162              		.thumb_func
 163              		.type	chEvtGetAndClearEvents, %function
 164              	chEvtGetAndClearEvents:
 165              	.LFB9:
 166              		.loc 1 136 0
ARM GAS  /tmp/ccHPpRbv.s 			page 4


 167              		.cfi_startproc
 168              		@ args = 0, pretend = 0, frame = 0
 169              		@ frame_needed = 0, uses_anonymous_args = 0
 170              	.LVL11:
 171 0000 38B5     		push	{r3, r4, r5, lr}
 172              		.cfi_def_cfa_offset 16
 173              		.cfi_offset 3, -16
 174              		.cfi_offset 4, -12
 175              		.cfi_offset 5, -8
 176              		.cfi_offset 14, -4
 177 0002 0446     		mov	r4, r0
 178              	.LBB6:
 179              		.loc 1 139 0
 180 0004 2023     		movs	r3, #32
 181              	@ 139 "../../ChibiOS-RT/os/kernel/src/chevents.c" 1
 182 0006 83F31188 		msr     BASEPRI, r3
 183              	@ 0 "" 2
 184              		.thumb
 185              	.LBE6:
 186 000a FFF7FEFF 		bl	dbg_check_lock
 187              	.LVL12:
 188              		.loc 1 141 0
 189 000e 074B     		ldr	r3, .L13
 190 0010 9A69     		ldr	r2, [r3, #24]
 191 0012 D36B     		ldr	r3, [r2, #60]
 192 0014 03EA0405 		and	r5, r3, r4
 193              	.LVL13:
 194              		.loc 1 142 0
 195 0018 23EA0403 		bic	r3, r3, r4
 196 001c D363     		str	r3, [r2, #60]
 197              		.loc 1 144 0
 198 001e FFF7FEFF 		bl	dbg_check_unlock
 199              	.LVL14:
 200              	.LBB7:
 201 0022 0023     		movs	r3, #0
 202              	@ 144 "../../ChibiOS-RT/os/kernel/src/chevents.c" 1
 203 0024 83F31188 		msr     BASEPRI, r3
 204              	@ 0 "" 2
 205              		.thumb
 206              	.LBE7:
 207              		.loc 1 146 0
 208 0028 2846     		mov	r0, r5
 209 002a 38BD     		pop	{r3, r4, r5, pc}
 210              	.LVL15:
 211              	.L14:
 212              		.align	2
 213              	.L13:
 214 002c 00000000 		.word	rlist
 215              		.cfi_endproc
 216              	.LFE9:
 217              		.size	chEvtGetAndClearEvents, .-chEvtGetAndClearEvents
 218              		.section	.text.chEvtAddEvents,"ax",%progbits
 219              		.align	2
 220              		.p2align 4,,15
 221              		.global	chEvtAddEvents
 222              		.thumb
 223              		.thumb_func
ARM GAS  /tmp/ccHPpRbv.s 			page 5


 224              		.type	chEvtAddEvents, %function
 225              	chEvtAddEvents:
 226              	.LFB10:
 227              		.loc 1 157 0
 228              		.cfi_startproc
 229              		@ args = 0, pretend = 0, frame = 0
 230              		@ frame_needed = 0, uses_anonymous_args = 0
 231              	.LVL16:
 232 0000 10B5     		push	{r4, lr}
 233              		.cfi_def_cfa_offset 8
 234              		.cfi_offset 4, -8
 235              		.cfi_offset 14, -4
 236 0002 0446     		mov	r4, r0
 237              	.LBB8:
 238              		.loc 1 159 0
 239 0004 2023     		movs	r3, #32
 240              	@ 159 "../../ChibiOS-RT/os/kernel/src/chevents.c" 1
 241 0006 83F31188 		msr     BASEPRI, r3
 242              	@ 0 "" 2
 243              		.thumb
 244              	.LBE8:
 245 000a FFF7FEFF 		bl	dbg_check_lock
 246              	.LVL17:
 247              		.loc 1 161 0
 248 000e 064B     		ldr	r3, .L17
 249 0010 9A69     		ldr	r2, [r3, #24]
 250 0012 D36B     		ldr	r3, [r2, #60]
 251 0014 1C43     		orrs	r4, r4, r3
 252              	.LVL18:
 253 0016 D463     		str	r4, [r2, #60]
 254              	.LVL19:
 255              		.loc 1 163 0
 256 0018 FFF7FEFF 		bl	dbg_check_unlock
 257              	.LVL20:
 258              	.LBB9:
 259 001c 0023     		movs	r3, #0
 260              	@ 163 "../../ChibiOS-RT/os/kernel/src/chevents.c" 1
 261 001e 83F31188 		msr     BASEPRI, r3
 262              	@ 0 "" 2
 263              		.thumb
 264              	.LBE9:
 265              		.loc 1 165 0
 266 0022 2046     		mov	r0, r4
 267 0024 10BD     		pop	{r4, pc}
 268              	.LVL21:
 269              	.L18:
 270 0026 00BF     		.align	2
 271              	.L17:
 272 0028 00000000 		.word	rlist
 273              		.cfi_endproc
 274              	.LFE10:
 275              		.size	chEvtAddEvents, .-chEvtAddEvents
 276 002c AFF30080 		.section	.text.chEvtGetAndClearFlags,"ax",%progbits
 277              		.align	2
 278              		.p2align 4,,15
 279              		.global	chEvtGetAndClearFlags
 280              		.thumb
ARM GAS  /tmp/ccHPpRbv.s 			page 6


 281              		.thumb_func
 282              		.type	chEvtGetAndClearFlags, %function
 283              	chEvtGetAndClearFlags:
 284              	.LFB12:
 285              		.loc 1 209 0
 286              		.cfi_startproc
 287              		@ args = 0, pretend = 0, frame = 0
 288              		@ frame_needed = 0, uses_anonymous_args = 0
 289              	.LVL22:
 290 0000 70B5     		push	{r4, r5, r6, lr}
 291              		.cfi_def_cfa_offset 16
 292              		.cfi_offset 4, -16
 293              		.cfi_offset 5, -12
 294              		.cfi_offset 6, -8
 295              		.cfi_offset 14, -4
 296 0002 0546     		mov	r5, r0
 297              	.LBB10:
 298              		.loc 1 212 0
 299 0004 2023     		movs	r3, #32
 300              	@ 212 "../../ChibiOS-RT/os/kernel/src/chevents.c" 1
 301 0006 83F31188 		msr     BASEPRI, r3
 302              	@ 0 "" 2
 303              		.thumb
 304              	.LBE10:
 305 000a FFF7FEFF 		bl	dbg_check_lock
 306              	.LVL23:
 307              		.loc 1 214 0
 308 000e EE68     		ldr	r6, [r5, #12]
 309              	.LVL24:
 310              		.loc 1 215 0
 311 0010 0024     		movs	r4, #0
 312 0012 EC60     		str	r4, [r5, #12]
 313              		.loc 1 217 0
 314 0014 FFF7FEFF 		bl	dbg_check_unlock
 315              	.LVL25:
 316              	.LBB11:
 317 0018 2346     		mov	r3, r4
 318              	@ 217 "../../ChibiOS-RT/os/kernel/src/chevents.c" 1
 319 001a 83F31188 		msr     BASEPRI, r3
 320              	@ 0 "" 2
 321              		.thumb
 322              	.LBE11:
 323              		.loc 1 219 0
 324 001e 3046     		mov	r0, r6
 325 0020 70BD     		pop	{r4, r5, r6, pc}
 326              		.cfi_endproc
 327              	.LFE12:
 328              		.size	chEvtGetAndClearFlags, .-chEvtGetAndClearFlags
 329 0022 00BFAFF3 		.section	.text.chEvtSignalI,"ax",%progbits
 329      0080AFF3 
 329      0080AFF3 
 329      0080
 330              		.align	2
 331              		.p2align 4,,15
 332              		.global	chEvtSignalI
 333              		.thumb
 334              		.thumb_func
ARM GAS  /tmp/ccHPpRbv.s 			page 7


 335              		.type	chEvtSignalI, %function
 336              	chEvtSignalI:
 337              	.LFB14:
 338              		.loc 1 251 0
 339              		.cfi_startproc
 340              		@ args = 0, pretend = 0, frame = 0
 341              		@ frame_needed = 0, uses_anonymous_args = 0
 342              	.LVL26:
 343 0000 38B5     		push	{r3, r4, r5, lr}
 344              		.cfi_def_cfa_offset 16
 345              		.cfi_offset 3, -16
 346              		.cfi_offset 4, -12
 347              		.cfi_offset 5, -8
 348              		.cfi_offset 14, -4
 349 0002 0446     		mov	r4, r0
 350 0004 0D46     		mov	r5, r1
 351              		.loc 1 253 0
 352 0006 FFF7FEFF 		bl	chDbgCheckClassI
 353              	.LVL27:
 354              		.loc 1 256 0
 355 000a E36B     		ldr	r3, [r4, #60]
 356 000c 45EA0301 		orr	r1, r5, r3
 357 0010 E163     		str	r1, [r4, #60]
 358              		.loc 1 258 0
 359 0012 94F82030 		ldrb	r3, [r4, #32]	@ zero_extendqisi2
 360 0016 082B     		cmp	r3, #8
 361 0018 02D1     		bne	.L22
 362              		.loc 1 259 0 discriminator 1
 363 001a A26A     		ldr	r2, [r4, #40]
 364              		.loc 1 258 0 discriminator 1
 365 001c 1142     		tst	r1, r2
 366 001e 05D1     		bne	.L23
 367              	.L22:
 368              		.loc 1 259 0
 369 0020 092B     		cmp	r3, #9
 370 0022 08D1     		bne	.L21
 371              		.loc 1 261 0
 372 0024 A36A     		ldr	r3, [r4, #40]
 373 0026 1940     		ands	r1, r1, r3
 374              		.loc 1 260 0
 375 0028 8B42     		cmp	r3, r1
 376 002a 04D1     		bne	.L21
 377              	.L23:
 378              		.loc 1 262 0
 379 002c 2046     		mov	r0, r4
 380 002e FFF7FEFF 		bl	chSchReadyI
 381              	.LVL28:
 382 0032 0023     		movs	r3, #0
 383 0034 8362     		str	r3, [r0, #40]
 384              	.L21:
 385 0036 38BD     		pop	{r3, r4, r5, pc}
 386              		.cfi_endproc
 387              	.LFE14:
 388              		.size	chEvtSignalI, .-chEvtSignalI
 389 0038 AFF30080 		.section	.text.chEvtBroadcastFlagsI,"ax",%progbits
 389      AFF30080 
 390              		.align	2
ARM GAS  /tmp/ccHPpRbv.s 			page 8


 391              		.p2align 4,,15
 392              		.global	chEvtBroadcastFlagsI
 393              		.thumb
 394              		.thumb_func
 395              		.type	chEvtBroadcastFlagsI, %function
 396              	chEvtBroadcastFlagsI:
 397              	.LFB11:
 398              		.loc 1 184 0
 399              		.cfi_startproc
 400              		@ args = 0, pretend = 0, frame = 0
 401              		@ frame_needed = 0, uses_anonymous_args = 0
 402              	.LVL29:
 403 0000 70B5     		push	{r4, r5, r6, lr}
 404              		.cfi_def_cfa_offset 16
 405              		.cfi_offset 4, -16
 406              		.cfi_offset 5, -12
 407              		.cfi_offset 6, -8
 408              		.cfi_offset 14, -4
 409 0002 0546     		mov	r5, r0
 410 0004 0E46     		mov	r6, r1
 411              		.loc 1 187 0
 412 0006 FFF7FEFF 		bl	chDbgCheckClassI
 413              	.LVL30:
 414              		.loc 1 190 0
 415 000a 2C68     		ldr	r4, [r5]
 416              	.LVL31:
 417              		.loc 1 191 0
 418 000c 07E0     		b	.L27
 419              	.L28:
 420              		.loc 1 192 0
 421 000e E368     		ldr	r3, [r4, #12]
 422 0010 3343     		orrs	r3, r3, r6
 423 0012 E360     		str	r3, [r4, #12]
 424              		.loc 1 193 0
 425 0014 6068     		ldr	r0, [r4, #4]
 426 0016 A168     		ldr	r1, [r4, #8]
 427 0018 FFF7FEFF 		bl	chEvtSignalI
 428              	.LVL32:
 429              		.loc 1 194 0
 430 001c 2468     		ldr	r4, [r4]
 431              	.LVL33:
 432              	.L27:
 433              		.loc 1 191 0
 434 001e AC42     		cmp	r4, r5
 435 0020 F5D1     		bne	.L28
 436              		.loc 1 196 0
 437 0022 70BD     		pop	{r4, r5, r6, pc}
 438              		.cfi_endproc
 439              	.LFE11:
 440              		.size	chEvtBroadcastFlagsI, .-chEvtBroadcastFlagsI
 441 0024 AFF30080 		.section	.text.chEvtSignal,"ax",%progbits
 441      AFF30080 
 441      AFF30080 
 442              		.align	2
 443              		.p2align 4,,15
 444              		.global	chEvtSignal
 445              		.thumb
ARM GAS  /tmp/ccHPpRbv.s 			page 9


 446              		.thumb_func
 447              		.type	chEvtSignal, %function
 448              	chEvtSignal:
 449              	.LFB13:
 450              		.loc 1 229 0
 451              		.cfi_startproc
 452              		@ args = 0, pretend = 0, frame = 0
 453              		@ frame_needed = 0, uses_anonymous_args = 0
 454              	.LVL34:
 455 0000 38B5     		push	{r3, r4, r5, lr}
 456              		.cfi_def_cfa_offset 16
 457              		.cfi_offset 3, -16
 458              		.cfi_offset 4, -12
 459              		.cfi_offset 5, -8
 460              		.cfi_offset 14, -4
 461 0002 0546     		mov	r5, r0
 462 0004 0C46     		mov	r4, r1
 463              	.LBB12:
 464              		.loc 1 233 0
 465 0006 2023     		movs	r3, #32
 466              	@ 233 "../../ChibiOS-RT/os/kernel/src/chevents.c" 1
 467 0008 83F31188 		msr     BASEPRI, r3
 468              	@ 0 "" 2
 469              		.thumb
 470              	.LBE12:
 471 000c FFF7FEFF 		bl	dbg_check_lock
 472              	.LVL35:
 473              		.loc 1 234 0
 474 0010 2846     		mov	r0, r5
 475 0012 2146     		mov	r1, r4
 476 0014 FFF7FEFF 		bl	chEvtSignalI
 477              	.LVL36:
 478              		.loc 1 235 0
 479 0018 FFF7FEFF 		bl	chSchRescheduleS
 480              	.LVL37:
 481              		.loc 1 236 0
 482 001c FFF7FEFF 		bl	dbg_check_unlock
 483              	.LVL38:
 484              	.LBB13:
 485 0020 0023     		movs	r3, #0
 486              	@ 236 "../../ChibiOS-RT/os/kernel/src/chevents.c" 1
 487 0022 83F31188 		msr     BASEPRI, r3
 488              	@ 0 "" 2
 489              		.thumb
 490 0026 38BD     		pop	{r3, r4, r5, pc}
 491              	.LBE13:
 492              		.cfi_endproc
 493              	.LFE13:
 494              		.size	chEvtSignal, .-chEvtSignal
 495              		.section	.text.chEvtBroadcastFlags,"ax",%progbits
 496              		.align	2
 497              		.p2align 4,,15
 498              		.global	chEvtBroadcastFlags
 499              		.thumb
 500              		.thumb_func
 501              		.type	chEvtBroadcastFlags, %function
 502              	chEvtBroadcastFlags:
ARM GAS  /tmp/ccHPpRbv.s 			page 10


 503              	.LFB15:
 504              		.loc 1 278 0
 505              		.cfi_startproc
 506              		@ args = 0, pretend = 0, frame = 0
 507              		@ frame_needed = 0, uses_anonymous_args = 0
 508              	.LVL39:
 509 0000 38B5     		push	{r3, r4, r5, lr}
 510              		.cfi_def_cfa_offset 16
 511              		.cfi_offset 3, -16
 512              		.cfi_offset 4, -12
 513              		.cfi_offset 5, -8
 514              		.cfi_offset 14, -4
 515 0002 0546     		mov	r5, r0
 516 0004 0C46     		mov	r4, r1
 517              	.LBB14:
 518              		.loc 1 280 0
 519 0006 2023     		movs	r3, #32
 520              	@ 280 "../../ChibiOS-RT/os/kernel/src/chevents.c" 1
 521 0008 83F31188 		msr     BASEPRI, r3
 522              	@ 0 "" 2
 523              		.thumb
 524              	.LBE14:
 525 000c FFF7FEFF 		bl	dbg_check_lock
 526              	.LVL40:
 527              		.loc 1 281 0
 528 0010 2846     		mov	r0, r5
 529 0012 2146     		mov	r1, r4
 530 0014 FFF7FEFF 		bl	chEvtBroadcastFlagsI
 531              	.LVL41:
 532              		.loc 1 282 0
 533 0018 FFF7FEFF 		bl	chSchRescheduleS
 534              	.LVL42:
 535              		.loc 1 283 0
 536 001c FFF7FEFF 		bl	dbg_check_unlock
 537              	.LVL43:
 538              	.LBB15:
 539 0020 0023     		movs	r3, #0
 540              	@ 283 "../../ChibiOS-RT/os/kernel/src/chevents.c" 1
 541 0022 83F31188 		msr     BASEPRI, r3
 542              	@ 0 "" 2
 543              		.thumb
 544 0026 38BD     		pop	{r3, r4, r5, pc}
 545              	.LBE15:
 546              		.cfi_endproc
 547              	.LFE15:
 548              		.size	chEvtBroadcastFlags, .-chEvtBroadcastFlags
 549              		.section	.text.chEvtGetAndClearFlagsI,"ax",%progbits
 550              		.align	2
 551              		.p2align 4,,15
 552              		.global	chEvtGetAndClearFlagsI
 553              		.thumb
 554              		.thumb_func
 555              		.type	chEvtGetAndClearFlagsI, %function
 556              	chEvtGetAndClearFlagsI:
 557              	.LFB16:
 558              		.loc 1 297 0
 559              		.cfi_startproc
ARM GAS  /tmp/ccHPpRbv.s 			page 11


 560              		@ args = 0, pretend = 0, frame = 0
 561              		@ frame_needed = 0, uses_anonymous_args = 0
 562              		@ link register save eliminated.
 563              	.LVL44:
 564 0000 0346     		mov	r3, r0
 565              		.loc 1 300 0
 566 0002 C068     		ldr	r0, [r0, #12]
 567              	.LVL45:
 568              		.loc 1 301 0
 569 0004 0022     		movs	r2, #0
 570 0006 DA60     		str	r2, [r3, #12]
 571              		.loc 1 304 0
 572 0008 7047     		bx	lr
 573              		.cfi_endproc
 574              	.LFE16:
 575              		.size	chEvtGetAndClearFlagsI, .-chEvtGetAndClearFlagsI
 576 000a 00BFAFF3 		.section	.text.chEvtDispatch,"ax",%progbits
 576      0080
 577              		.align	2
 578              		.p2align 4,,15
 579              		.global	chEvtDispatch
 580              		.thumb
 581              		.thumb_func
 582              		.type	chEvtDispatch, %function
 583              	chEvtDispatch:
 584              	.LFB17:
 585              		.loc 1 315 0
 586              		.cfi_startproc
 587              		@ args = 0, pretend = 0, frame = 0
 588              		@ frame_needed = 0, uses_anonymous_args = 0
 589              	.LVL46:
 590 0000 2DE9F041 		push	{r4, r5, r6, r7, r8, lr}
 591              		.cfi_def_cfa_offset 24
 592              		.cfi_offset 4, -24
 593              		.cfi_offset 5, -20
 594              		.cfi_offset 6, -16
 595              		.cfi_offset 7, -12
 596              		.cfi_offset 8, -8
 597              		.cfi_offset 14, -4
 598 0004 0746     		mov	r7, r0
 599 0006 0E46     		mov	r6, r1
 600              	.LVL47:
 601              		.loc 1 320 0
 602 0008 0024     		movs	r4, #0
 603              		.loc 1 321 0
 604 000a 12E0     		b	.L36
 605              	.LVL48:
 606              	.L39:
 607              		.loc 1 322 0
 608 000c 0125     		movs	r5, #1
 609 000e A540     		lsls	r5, r5, r4
 610 0010 3542     		tst	r5, r6
 611 0012 0DD0     		beq	.L37
 612              		.loc 1 323 0
 613 0014 4FEA8408 		lsl	r8, r4, #2
 614 0018 57F82430 		ldr	r3, [r7, r4, lsl #2]
 615 001c 13B9     		cbnz	r3, .L38
ARM GAS  /tmp/ccHPpRbv.s 			page 12


 616              		.loc 1 323 0 is_stmt 0 discriminator 1
 617 001e 0748     		ldr	r0, .L41
 618 0020 FFF7FEFF 		bl	chDbgPanic
 619              	.LVL49:
 620              	.L38:
 621              		.loc 1 326 0 is_stmt 1
 622 0024 26EA0506 		bic	r6, r6, r5
 623              	.LVL50:
 624              		.loc 1 327 0
 625 0028 57F80830 		ldr	r3, [r7, r8]
 626 002c 2046     		mov	r0, r4
 627 002e 9847     		blx	r3
 628              	.LVL51:
 629              	.L37:
 630              		.loc 1 329 0
 631 0030 0134     		adds	r4, r4, #1
 632              	.LVL52:
 633              	.L36:
 634              		.loc 1 321 0
 635 0032 002E     		cmp	r6, #0
 636 0034 EAD1     		bne	.L39
 637              		.loc 1 331 0
 638 0036 BDE8F081 		pop	{r4, r5, r6, r7, r8, pc}
 639              	.LVL53:
 640              	.L42:
 641 003a 00BF     		.align	2
 642              	.L41:
 643 003c 00000000 		.word	.LC0
 644              		.cfi_endproc
 645              	.LFE17:
 646              		.size	chEvtDispatch, .-chEvtDispatch
 647              		.section	.text.chEvtWaitOne,"ax",%progbits
 648              		.align	2
 649              		.p2align 4,,15
 650              		.global	chEvtWaitOne
 651              		.thumb
 652              		.thumb_func
 653              		.type	chEvtWaitOne, %function
 654              	chEvtWaitOne:
 655              	.LFB18:
 656              		.loc 1 350 0
 657              		.cfi_startproc
 658              		@ args = 0, pretend = 0, frame = 0
 659              		@ frame_needed = 0, uses_anonymous_args = 0
 660              	.LVL54:
 661 0000 38B5     		push	{r3, r4, r5, lr}
 662              		.cfi_def_cfa_offset 16
 663              		.cfi_offset 3, -16
 664              		.cfi_offset 4, -12
 665              		.cfi_offset 5, -8
 666              		.cfi_offset 14, -4
 667 0002 0446     		mov	r4, r0
 668              		.loc 1 351 0
 669 0004 0E4B     		ldr	r3, .L46
 670 0006 9D69     		ldr	r5, [r3, #24]
 671              	.LVL55:
 672              	.LBB16:
ARM GAS  /tmp/ccHPpRbv.s 			page 13


 673              		.loc 1 354 0
 674 0008 2023     		movs	r3, #32
 675              	@ 354 "../../ChibiOS-RT/os/kernel/src/chevents.c" 1
 676 000a 83F31188 		msr     BASEPRI, r3
 677              	@ 0 "" 2
 678              		.thumb
 679              	.LBE16:
 680 000e FFF7FEFF 		bl	dbg_check_lock
 681              	.LVL56:
 682              		.loc 1 356 0
 683 0012 EB6B     		ldr	r3, [r5, #60]
 684              	.LVL57:
 685 0014 2340     		ands	r3, r3, r4
 686              	.LVL58:
 687 0016 05D1     		bne	.L44
 688              		.loc 1 357 0
 689 0018 AC62     		str	r4, [r5, #40]
 690              		.loc 1 358 0
 691 001a 0820     		movs	r0, #8
 692 001c FFF7FEFF 		bl	chSchGoSleepS
 693              	.LVL59:
 694              		.loc 1 359 0
 695 0020 EB6B     		ldr	r3, [r5, #60]
 696 0022 2340     		ands	r3, r3, r4
 697              	.LVL60:
 698              	.L44:
 699              		.loc 1 361 0
 700 0024 5C42     		negs	r4, r3
 701              	.LVL61:
 702 0026 1C40     		ands	r4, r4, r3
 703              	.LVL62:
 704              		.loc 1 362 0
 705 0028 EB6B     		ldr	r3, [r5, #60]
 706 002a 23EA0403 		bic	r3, r3, r4
 707 002e EB63     		str	r3, [r5, #60]
 708              		.loc 1 364 0
 709 0030 FFF7FEFF 		bl	dbg_check_unlock
 710              	.LVL63:
 711              	.LBB17:
 712 0034 0023     		movs	r3, #0
 713              	@ 364 "../../ChibiOS-RT/os/kernel/src/chevents.c" 1
 714 0036 83F31188 		msr     BASEPRI, r3
 715              	@ 0 "" 2
 716              		.thumb
 717              	.LBE17:
 718              		.loc 1 366 0
 719 003a 2046     		mov	r0, r4
 720 003c 38BD     		pop	{r3, r4, r5, pc}
 721              	.LVL64:
 722              	.L47:
 723 003e 00BF     		.align	2
 724              	.L46:
 725 0040 00000000 		.word	rlist
 726              		.cfi_endproc
 727              	.LFE18:
 728              		.size	chEvtWaitOne, .-chEvtWaitOne
 729 0044 AFF30080 		.section	.text.chEvtWaitAny,"ax",%progbits
ARM GAS  /tmp/ccHPpRbv.s 			page 14


 729      AFF30080 
 729      AFF30080 
 730              		.align	2
 731              		.p2align 4,,15
 732              		.global	chEvtWaitAny
 733              		.thumb
 734              		.thumb_func
 735              		.type	chEvtWaitAny, %function
 736              	chEvtWaitAny:
 737              	.LFB19:
 738              		.loc 1 379 0
 739              		.cfi_startproc
 740              		@ args = 0, pretend = 0, frame = 0
 741              		@ frame_needed = 0, uses_anonymous_args = 0
 742              	.LVL65:
 743 0000 70B5     		push	{r4, r5, r6, lr}
 744              		.cfi_def_cfa_offset 16
 745              		.cfi_offset 4, -16
 746              		.cfi_offset 5, -12
 747              		.cfi_offset 6, -8
 748              		.cfi_offset 14, -4
 749 0002 0646     		mov	r6, r0
 750              		.loc 1 380 0
 751 0004 0D4B     		ldr	r3, .L51
 752 0006 9D69     		ldr	r5, [r3, #24]
 753              	.LVL66:
 754              	.LBB18:
 755              		.loc 1 383 0
 756 0008 2023     		movs	r3, #32
 757              	@ 383 "../../ChibiOS-RT/os/kernel/src/chevents.c" 1
 758 000a 83F31188 		msr     BASEPRI, r3
 759              	@ 0 "" 2
 760              		.thumb
 761              	.LBE18:
 762 000e FFF7FEFF 		bl	dbg_check_lock
 763              	.LVL67:
 764              		.loc 1 385 0
 765 0012 EC6B     		ldr	r4, [r5, #60]
 766              	.LVL68:
 767 0014 3440     		ands	r4, r4, r6
 768              	.LVL69:
 769 0016 05D1     		bne	.L49
 770              		.loc 1 386 0
 771 0018 AE62     		str	r6, [r5, #40]
 772              		.loc 1 387 0
 773 001a 0820     		movs	r0, #8
 774 001c FFF7FEFF 		bl	chSchGoSleepS
 775              	.LVL70:
 776              		.loc 1 388 0
 777 0020 EC6B     		ldr	r4, [r5, #60]
 778              	.LVL71:
 779 0022 3440     		ands	r4, r4, r6
 780              	.LVL72:
 781              	.L49:
 782              		.loc 1 390 0
 783 0024 EB6B     		ldr	r3, [r5, #60]
 784 0026 23EA0403 		bic	r3, r3, r4
ARM GAS  /tmp/ccHPpRbv.s 			page 15


 785 002a EB63     		str	r3, [r5, #60]
 786              		.loc 1 392 0
 787 002c FFF7FEFF 		bl	dbg_check_unlock
 788              	.LVL73:
 789              	.LBB19:
 790 0030 0023     		movs	r3, #0
 791              	@ 392 "../../ChibiOS-RT/os/kernel/src/chevents.c" 1
 792 0032 83F31188 		msr     BASEPRI, r3
 793              	@ 0 "" 2
 794              		.thumb
 795              	.LBE19:
 796              		.loc 1 394 0
 797 0036 2046     		mov	r0, r4
 798 0038 70BD     		pop	{r4, r5, r6, pc}
 799              	.LVL74:
 800              	.L52:
 801 003a 00BF     		.align	2
 802              	.L51:
 803 003c 00000000 		.word	rlist
 804              		.cfi_endproc
 805              	.LFE19:
 806              		.size	chEvtWaitAny, .-chEvtWaitAny
 807              		.section	.text.chEvtWaitAll,"ax",%progbits
 808              		.align	2
 809              		.p2align 4,,15
 810              		.global	chEvtWaitAll
 811              		.thumb
 812              		.thumb_func
 813              		.type	chEvtWaitAll, %function
 814              	chEvtWaitAll:
 815              	.LFB20:
 816              		.loc 1 407 0
 817              		.cfi_startproc
 818              		@ args = 0, pretend = 0, frame = 0
 819              		@ frame_needed = 0, uses_anonymous_args = 0
 820              	.LVL75:
 821 0000 38B5     		push	{r3, r4, r5, lr}
 822              		.cfi_def_cfa_offset 16
 823              		.cfi_offset 3, -16
 824              		.cfi_offset 4, -12
 825              		.cfi_offset 5, -8
 826              		.cfi_offset 14, -4
 827 0002 0446     		mov	r4, r0
 828              		.loc 1 408 0
 829 0004 0C4B     		ldr	r3, .L56
 830 0006 9D69     		ldr	r5, [r3, #24]
 831              	.LVL76:
 832              	.LBB20:
 833              		.loc 1 410 0
 834 0008 2023     		movs	r3, #32
 835              	@ 410 "../../ChibiOS-RT/os/kernel/src/chevents.c" 1
 836 000a 83F31188 		msr     BASEPRI, r3
 837              	@ 0 "" 2
 838              		.thumb
 839              	.LBE20:
 840 000e FFF7FEFF 		bl	dbg_check_lock
 841              	.LVL77:
ARM GAS  /tmp/ccHPpRbv.s 			page 16


 842              		.loc 1 412 0
 843 0012 EB6B     		ldr	r3, [r5, #60]
 844 0014 2340     		ands	r3, r3, r4
 845 0016 A342     		cmp	r3, r4
 846 0018 03D0     		beq	.L54
 847              		.loc 1 413 0
 848 001a AC62     		str	r4, [r5, #40]
 849              		.loc 1 414 0
 850 001c 0920     		movs	r0, #9
 851 001e FFF7FEFF 		bl	chSchGoSleepS
 852              	.LVL78:
 853              	.L54:
 854              		.loc 1 416 0
 855 0022 EB6B     		ldr	r3, [r5, #60]
 856 0024 23EA0403 		bic	r3, r3, r4
 857 0028 EB63     		str	r3, [r5, #60]
 858              		.loc 1 418 0
 859 002a FFF7FEFF 		bl	dbg_check_unlock
 860              	.LVL79:
 861              	.LBB21:
 862 002e 0023     		movs	r3, #0
 863              	@ 418 "../../ChibiOS-RT/os/kernel/src/chevents.c" 1
 864 0030 83F31188 		msr     BASEPRI, r3
 865              	@ 0 "" 2
 866              		.thumb
 867              	.LBE21:
 868              		.loc 1 420 0
 869 0034 2046     		mov	r0, r4
 870 0036 38BD     		pop	{r3, r4, r5, pc}
 871              	.LVL80:
 872              	.L57:
 873              		.align	2
 874              	.L56:
 875 0038 00000000 		.word	rlist
 876              		.cfi_endproc
 877              	.LFE20:
 878              		.size	chEvtWaitAll, .-chEvtWaitAll
 879 003c AFF30080 		.section	.text.chEvtWaitOneTimeout,"ax",%progbits
 880              		.align	2
 881              		.p2align 4,,15
 882              		.global	chEvtWaitOneTimeout
 883              		.thumb
 884              		.thumb_func
 885              		.type	chEvtWaitOneTimeout, %function
 886              	chEvtWaitOneTimeout:
 887              	.LFB21:
 888              		.loc 1 446 0
 889              		.cfi_startproc
 890              		@ args = 0, pretend = 0, frame = 0
 891              		@ frame_needed = 0, uses_anonymous_args = 0
 892              	.LVL81:
 893 0000 70B5     		push	{r4, r5, r6, lr}
 894              		.cfi_def_cfa_offset 16
 895              		.cfi_offset 4, -16
 896              		.cfi_offset 5, -12
 897              		.cfi_offset 6, -8
 898              		.cfi_offset 14, -4
ARM GAS  /tmp/ccHPpRbv.s 			page 17


 899 0002 0446     		mov	r4, r0
 900 0004 0E46     		mov	r6, r1
 901              		.loc 1 447 0
 902 0006 174B     		ldr	r3, .L64
 903 0008 9D69     		ldr	r5, [r3, #24]
 904              	.LVL82:
 905              	.LBB22:
 906              		.loc 1 450 0
 907 000a 2023     		movs	r3, #32
 908              	@ 450 "../../ChibiOS-RT/os/kernel/src/chevents.c" 1
 909 000c 83F31188 		msr     BASEPRI, r3
 910              	@ 0 "" 2
 911              		.thumb
 912              	.LBE22:
 913 0010 FFF7FEFF 		bl	dbg_check_lock
 914              	.LVL83:
 915              		.loc 1 452 0
 916 0014 EB6B     		ldr	r3, [r5, #60]
 917              	.LVL84:
 918 0016 2340     		ands	r3, r3, r4
 919              	.LVL85:
 920 0018 17D1     		bne	.L59
 921              		.loc 1 453 0
 922 001a 36B9     		cbnz	r6, .L60
 923              		.loc 1 454 0
 924 001c FFF7FEFF 		bl	dbg_check_unlock
 925              	.LVL86:
 926              	.LBB23:
 927 0020 0023     		movs	r3, #0
 928              	@ 454 "../../ChibiOS-RT/os/kernel/src/chevents.c" 1
 929 0022 83F31188 		msr     BASEPRI, r3
 930              	@ 0 "" 2
 931              		.thumb
 932              	.LBE23:
 933              		.loc 1 455 0
 934 0026 1846     		mov	r0, r3
 935 0028 70BD     		pop	{r4, r5, r6, pc}
 936              	.LVL87:
 937              	.L60:
 938              		.loc 1 457 0
 939 002a AC62     		str	r4, [r5, #40]
 940              		.loc 1 458 0
 941 002c 0820     		movs	r0, #8
 942 002e 3146     		mov	r1, r6
 943 0030 FFF7FEFF 		bl	chSchGoSleepTimeoutS
 944              	.LVL88:
 945 0034 0028     		cmp	r0, #0
 946 0036 06DA     		bge	.L62
 947              		.loc 1 459 0
 948 0038 FFF7FEFF 		bl	dbg_check_unlock
 949              	.LVL89:
 950              	.LBB24:
 951 003c 0023     		movs	r3, #0
 952              	@ 459 "../../ChibiOS-RT/os/kernel/src/chevents.c" 1
 953 003e 83F31188 		msr     BASEPRI, r3
 954              	@ 0 "" 2
 955              		.thumb
ARM GAS  /tmp/ccHPpRbv.s 			page 18


 956              	.LBE24:
 957              		.loc 1 460 0
 958 0042 1846     		mov	r0, r3
 959 0044 70BD     		pop	{r4, r5, r6, pc}
 960              	.LVL90:
 961              	.L62:
 962              		.loc 1 462 0
 963 0046 EB6B     		ldr	r3, [r5, #60]
 964 0048 2340     		ands	r3, r3, r4
 965              	.LVL91:
 966              	.L59:
 967              		.loc 1 464 0
 968 004a 5C42     		negs	r4, r3
 969              	.LVL92:
 970 004c 1C40     		ands	r4, r4, r3
 971              	.LVL93:
 972              		.loc 1 465 0
 973 004e EB6B     		ldr	r3, [r5, #60]
 974 0050 23EA0403 		bic	r3, r3, r4
 975 0054 EB63     		str	r3, [r5, #60]
 976              		.loc 1 467 0
 977 0056 FFF7FEFF 		bl	dbg_check_unlock
 978              	.LVL94:
 979              	.LBB25:
 980 005a 0023     		movs	r3, #0
 981              	@ 467 "../../ChibiOS-RT/os/kernel/src/chevents.c" 1
 982 005c 83F31188 		msr     BASEPRI, r3
 983              	@ 0 "" 2
 984              		.thumb
 985              	.LBE25:
 986              		.loc 1 468 0
 987 0060 2046     		mov	r0, r4
 988              		.loc 1 469 0
 989 0062 70BD     		pop	{r4, r5, r6, pc}
 990              	.LVL95:
 991              	.L65:
 992              		.align	2
 993              	.L64:
 994 0064 00000000 		.word	rlist
 995              		.cfi_endproc
 996              	.LFE21:
 997              		.size	chEvtWaitOneTimeout, .-chEvtWaitOneTimeout
 998 0068 AFF30080 		.section	.text.chEvtWaitAnyTimeout,"ax",%progbits
 998      AFF30080 
 999              		.align	2
 1000              		.p2align 4,,15
 1001              		.global	chEvtWaitAnyTimeout
 1002              		.thumb
 1003              		.thumb_func
 1004              		.type	chEvtWaitAnyTimeout, %function
 1005              	chEvtWaitAnyTimeout:
 1006              	.LFB22:
 1007              		.loc 1 489 0
 1008              		.cfi_startproc
 1009              		@ args = 0, pretend = 0, frame = 0
 1010              		@ frame_needed = 0, uses_anonymous_args = 0
 1011              	.LVL96:
ARM GAS  /tmp/ccHPpRbv.s 			page 19


 1012 0000 F8B5     		push	{r3, r4, r5, r6, r7, lr}
 1013              		.cfi_def_cfa_offset 24
 1014              		.cfi_offset 3, -24
 1015              		.cfi_offset 4, -20
 1016              		.cfi_offset 5, -16
 1017              		.cfi_offset 6, -12
 1018              		.cfi_offset 7, -8
 1019              		.cfi_offset 14, -4
 1020 0002 0646     		mov	r6, r0
 1021 0004 0F46     		mov	r7, r1
 1022              		.loc 1 490 0
 1023 0006 174B     		ldr	r3, .L72
 1024 0008 9D69     		ldr	r5, [r3, #24]
 1025              	.LVL97:
 1026              	.LBB26:
 1027              		.loc 1 493 0
 1028 000a 2023     		movs	r3, #32
 1029              	@ 493 "../../ChibiOS-RT/os/kernel/src/chevents.c" 1
 1030 000c 83F31188 		msr     BASEPRI, r3
 1031              	@ 0 "" 2
 1032              		.thumb
 1033              	.LBE26:
 1034 0010 FFF7FEFF 		bl	dbg_check_lock
 1035              	.LVL98:
 1036              		.loc 1 495 0
 1037 0014 EB6B     		ldr	r3, [r5, #60]
 1038              	.LVL99:
 1039 0016 13EA0604 		ands	r4, r3, r6
 1040              	.LVL100:
 1041 001a 18D1     		bne	.L67
 1042              		.loc 1 496 0
 1043 001c 37B9     		cbnz	r7, .L68
 1044              		.loc 1 497 0
 1045 001e FFF7FEFF 		bl	dbg_check_unlock
 1046              	.LVL101:
 1047              	.LBB27:
 1048 0022 0023     		movs	r3, #0
 1049              	@ 497 "../../ChibiOS-RT/os/kernel/src/chevents.c" 1
 1050 0024 83F31188 		msr     BASEPRI, r3
 1051              	@ 0 "" 2
 1052              		.thumb
 1053              	.LBE27:
 1054              		.loc 1 498 0
 1055 0028 1846     		mov	r0, r3
 1056 002a F8BD     		pop	{r3, r4, r5, r6, r7, pc}
 1057              	.LVL102:
 1058              	.L68:
 1059              		.loc 1 500 0
 1060 002c AE62     		str	r6, [r5, #40]
 1061              		.loc 1 501 0
 1062 002e 0820     		movs	r0, #8
 1063 0030 3946     		mov	r1, r7
 1064 0032 FFF7FEFF 		bl	chSchGoSleepTimeoutS
 1065              	.LVL103:
 1066 0036 0028     		cmp	r0, #0
 1067 0038 06DA     		bge	.L70
 1068              		.loc 1 502 0
ARM GAS  /tmp/ccHPpRbv.s 			page 20


 1069 003a FFF7FEFF 		bl	dbg_check_unlock
 1070              	.LVL104:
 1071              	.LBB28:
 1072 003e 0023     		movs	r3, #0
 1073              	@ 502 "../../ChibiOS-RT/os/kernel/src/chevents.c" 1
 1074 0040 83F31188 		msr     BASEPRI, r3
 1075              	@ 0 "" 2
 1076              		.thumb
 1077              	.LBE28:
 1078              		.loc 1 503 0
 1079 0044 1846     		mov	r0, r3
 1080 0046 F8BD     		pop	{r3, r4, r5, r6, r7, pc}
 1081              	.LVL105:
 1082              	.L70:
 1083              		.loc 1 505 0
 1084 0048 EB6B     		ldr	r3, [r5, #60]
 1085 004a 03EA0604 		and	r4, r3, r6
 1086              	.LVL106:
 1087              	.L67:
 1088              		.loc 1 507 0
 1089 004e EB6B     		ldr	r3, [r5, #60]
 1090 0050 23EA0403 		bic	r3, r3, r4
 1091 0054 EB63     		str	r3, [r5, #60]
 1092              		.loc 1 509 0
 1093 0056 FFF7FEFF 		bl	dbg_check_unlock
 1094              	.LVL107:
 1095              	.LBB29:
 1096 005a 0023     		movs	r3, #0
 1097              	@ 509 "../../ChibiOS-RT/os/kernel/src/chevents.c" 1
 1098 005c 83F31188 		msr     BASEPRI, r3
 1099              	@ 0 "" 2
 1100              		.thumb
 1101              	.LBE29:
 1102              		.loc 1 510 0
 1103 0060 2046     		mov	r0, r4
 1104              		.loc 1 511 0
 1105 0062 F8BD     		pop	{r3, r4, r5, r6, r7, pc}
 1106              	.LVL108:
 1107              	.L73:
 1108              		.align	2
 1109              	.L72:
 1110 0064 00000000 		.word	rlist
 1111              		.cfi_endproc
 1112              	.LFE22:
 1113              		.size	chEvtWaitAnyTimeout, .-chEvtWaitAnyTimeout
 1114 0068 AFF30080 		.section	.text.chEvtWaitAllTimeout,"ax",%progbits
 1114      AFF30080 
 1115              		.align	2
 1116              		.p2align 4,,15
 1117              		.global	chEvtWaitAllTimeout
 1118              		.thumb
 1119              		.thumb_func
 1120              		.type	chEvtWaitAllTimeout, %function
 1121              	chEvtWaitAllTimeout:
 1122              	.LFB23:
 1123              		.loc 1 530 0
 1124              		.cfi_startproc
ARM GAS  /tmp/ccHPpRbv.s 			page 21


 1125              		@ args = 0, pretend = 0, frame = 0
 1126              		@ frame_needed = 0, uses_anonymous_args = 0
 1127              	.LVL109:
 1128 0000 70B5     		push	{r4, r5, r6, lr}
 1129              		.cfi_def_cfa_offset 16
 1130              		.cfi_offset 4, -16
 1131              		.cfi_offset 5, -12
 1132              		.cfi_offset 6, -8
 1133              		.cfi_offset 14, -4
 1134 0002 0446     		mov	r4, r0
 1135 0004 0E46     		mov	r6, r1
 1136              		.loc 1 531 0
 1137 0006 164B     		ldr	r3, .L79
 1138 0008 9D69     		ldr	r5, [r3, #24]
 1139              	.LVL110:
 1140              	.LBB30:
 1141              		.loc 1 533 0
 1142 000a 2023     		movs	r3, #32
 1143              	@ 533 "../../ChibiOS-RT/os/kernel/src/chevents.c" 1
 1144 000c 83F31188 		msr     BASEPRI, r3
 1145              	@ 0 "" 2
 1146              		.thumb
 1147              	.LBE30:
 1148 0010 FFF7FEFF 		bl	dbg_check_lock
 1149              	.LVL111:
 1150              		.loc 1 535 0
 1151 0014 EB6B     		ldr	r3, [r5, #60]
 1152 0016 2340     		ands	r3, r3, r4
 1153 0018 A342     		cmp	r3, r4
 1154 001a 15D0     		beq	.L75
 1155              		.loc 1 536 0
 1156 001c 36B9     		cbnz	r6, .L76
 1157              		.loc 1 537 0
 1158 001e FFF7FEFF 		bl	dbg_check_unlock
 1159              	.LVL112:
 1160              	.LBB31:
 1161 0022 0023     		movs	r3, #0
 1162              	@ 537 "../../ChibiOS-RT/os/kernel/src/chevents.c" 1
 1163 0024 83F31188 		msr     BASEPRI, r3
 1164              	@ 0 "" 2
 1165              		.thumb
 1166              	.LBE31:
 1167              		.loc 1 538 0
 1168 0028 1846     		mov	r0, r3
 1169 002a 70BD     		pop	{r4, r5, r6, pc}
 1170              	.LVL113:
 1171              	.L76:
 1172              		.loc 1 540 0
 1173 002c AC62     		str	r4, [r5, #40]
 1174              		.loc 1 541 0
 1175 002e 0920     		movs	r0, #9
 1176 0030 3146     		mov	r1, r6
 1177 0032 FFF7FEFF 		bl	chSchGoSleepTimeoutS
 1178              	.LVL114:
 1179 0036 0028     		cmp	r0, #0
 1180 0038 06DA     		bge	.L75
 1181              		.loc 1 542 0
ARM GAS  /tmp/ccHPpRbv.s 			page 22


 1182 003a FFF7FEFF 		bl	dbg_check_unlock
 1183              	.LVL115:
 1184              	.LBB32:
 1185 003e 0023     		movs	r3, #0
 1186              	@ 542 "../../ChibiOS-RT/os/kernel/src/chevents.c" 1
 1187 0040 83F31188 		msr     BASEPRI, r3
 1188              	@ 0 "" 2
 1189              		.thumb
 1190              	.LBE32:
 1191              		.loc 1 543 0
 1192 0044 1846     		mov	r0, r3
 1193 0046 70BD     		pop	{r4, r5, r6, pc}
 1194              	.LVL116:
 1195              	.L75:
 1196              		.loc 1 546 0
 1197 0048 EB6B     		ldr	r3, [r5, #60]
 1198 004a 23EA0403 		bic	r3, r3, r4
 1199 004e EB63     		str	r3, [r5, #60]
 1200              		.loc 1 548 0
 1201 0050 FFF7FEFF 		bl	dbg_check_unlock
 1202              	.LVL117:
 1203              	.LBB33:
 1204 0054 0023     		movs	r3, #0
 1205              	@ 548 "../../ChibiOS-RT/os/kernel/src/chevents.c" 1
 1206 0056 83F31188 		msr     BASEPRI, r3
 1207              	@ 0 "" 2
 1208              		.thumb
 1209              	.LBE33:
 1210              		.loc 1 549 0
 1211 005a 2046     		mov	r0, r4
 1212              		.loc 1 550 0
 1213 005c 70BD     		pop	{r4, r5, r6, pc}
 1214              	.LVL118:
 1215              	.L80:
 1216 005e 00BF     		.align	2
 1217              	.L79:
 1218 0060 00000000 		.word	rlist
 1219              		.cfi_endproc
 1220              	.LFE23:
 1221              		.size	chEvtWaitAllTimeout, .-chEvtWaitAllTimeout
 1222 0064 AFF30080 		.section	.rodata.str1.4,"aMS",%progbits,1
 1222      AFF30080 
 1222      AFF30080 
 1223              		.align	2
 1224              	.LC0:
 1225 0000 63684576 		.ascii	"chEvtDispatch(), #1\000"
 1225      74446973 
 1225      70617463 
 1225      6828292C 
 1225      20233100 
 1226              		.text
 1227              	.Letext0:
 1228              		.file 2 "/usr/arm-none-eabi/include/machine/_default_types.h"
 1229              		.file 3 "/usr/arm-none-eabi/include/stdint.h"
 1230              		.file 4 "../../ChibiOS-RT/os/ports/GCC/ARMCMx/chtypes.h"
 1231              		.file 5 "../../ChibiOS-RT/os/kernel/include/chlists.h"
 1232              		.file 6 "../../ChibiOS-RT/os/kernel/include/chthreads.h"
ARM GAS  /tmp/ccHPpRbv.s 			page 23


 1233              		.file 7 "../../ChibiOS-RT/os/ports/GCC/ARMCMx/chcore_v7m.h"
 1234              		.file 8 "../../ChibiOS-RT/os/kernel/include/chschd.h"
 1235              		.file 9 "../../ChibiOS-RT/os/kernel/include/chmtx.h"
 1236              		.file 10 "../../ChibiOS-RT/os/kernel/include/chevents.h"
 1237              		.file 11 "../../ChibiOS-RT/os/kernel/include/chdebug.h"