ARM GAS  /tmp/ccHPpRbv.s 			page 1


   1              		.syntax unified
   2              		.cpu cortex-m4
   3              		.fpu softvfp
   4              		.eabi_attribute 20, 1
   5              		.eabi_attribute 21, 1
   6              		.eabi_attribute 23, 3
   7              		.eabi_attribute 24, 1
   8              		.eabi_attribute 25, 1
   9              		.eabi_attribute 26, 1
  10              		.eabi_attribute 30, 1
  11              		.eabi_attribute 34, 1
  12              		.eabi_attribute 18, 4
  13              		.thumb
  14              		.file	"chevents.c"
  15              		.text
  16              	.Ltext0:
  17              		.cfi_sections	.debug_frame
  18              		.section	.text.chEvtRegisterMask,"ax",%progbits
  19              		.align	2
  20              		.p2align 4,,15
  21              		.global	chEvtRegisterMask
  22              		.thumb
  23              		.thumb_func
  24              		.type	chEvtRegisterMask, %function
  25              	chEvtRegisterMask:
  26              	.LFB7:
  27              		.file 1 "../../ChibiOS-RT/os/kernel/src/chevents.c"
  28              		.loc 1 85 0
  29              		.cfi_startproc
  30              		@ args = 0, pretend = 0, frame = 0
  31              		@ frame_needed = 0, uses_anonymous_args = 0
  32              	.LVL0:
  33 0000 70B5     		push	{r4, r5, r6, lr}
  34              		.cfi_def_cfa_offset 16
  35              		.cfi_offset 4, -16
  36              		.cfi_offset 5, -12
  37              		.cfi_offset 6, -8
  38              		.cfi_offset 14, -4
  39 0002 0546     		mov	r5, r0
  40 0004 0C46     		mov	r4, r1
  41 0006 1646     		mov	r6, r2
  42              	.LBB2:
  43              		.loc 1 89 0
  44 0008 2023     		movs	r3, #32
  45              	@ 89 "../../ChibiOS-RT/os/kernel/src/chevents.c" 1
  46 000a 83F31188 		msr     BASEPRI, r3
  47              	@ 0 "" 2
  48              		.thumb
  49              	.LBE2:
  50 000e FFF7FEFF 		bl	dbg_check_lock
  51              	.LVL1:
  52              		.loc 1 90 0
  53 0012 2B68     		ldr	r3, [r5]
  54 0014 2360     		str	r3, [r4]
  55              		.loc 1 91 0
  56 0016 2C60     		str	r4, [r5]
  57              		.loc 1 92 0
ARM GAS  /tmp/ccHPpRbv.s 			page 2


  58 0018 054B     		ldr	r3, .L3
  59 001a 9B69     		ldr	r3, [r3, #24]
  60 001c 6360     		str	r3, [r4, #4]
  61              		.loc 1 93 0
  62 001e A660     		str	r6, [r4, #8]
  63              		.loc 1 94 0
  64 0020 0025     		movs	r5, #0
  65              	.LVL2:
  66 0022 E560     		str	r5, [r4, #12]
  67              		.loc 1 95 0
  68 0024 FFF7FEFF 		bl	dbg_check_unlock
  69              	.LVL3:
  70              	.LBB3:
  71 0028 2B46     		mov	r3, r5
  72              	@ 95 "../../ChibiOS-RT/os/kernel/src/chevents.c" 1
  73 002a 83F31188 		msr     BASEPRI, r3
  74              	@ 0 "" 2
  75              		.thumb
  76 002e 70BD     		pop	{r4, r5, r6, pc}
  77              	.LVL4:
  78              	.L4:
  79              		.align	2
  80              	.L3:
  81 0030 00000000 		.word	rlist
  82              	.LBE3:
  83              		.cfi_endproc
  84              	.LFE7:
  85              		.size	chEvtRegisterMask, .-chEvtRegisterMask
  86 0034 AFF30080 		.section	.text.chEvtUnregister,"ax",%progbits
  86      AFF30080 
  86      AFF30080 
  87              		.align	2
  88              		.p2align 4,,15
  89              		.global	chEvtUnregister
  90              		.thumb
  91              		.thumb_func
  92              		.type	chEvtUnregister, %function
  93              	chEvtUnregister:
  94              	.LFB8:
  95              		.loc 1 111 0
  96              		.cfi_startproc
  97              		@ args = 0, pretend = 0, frame = 0
  98              		@ frame_needed = 0, uses_anonymous_args = 0
  99              	.LVL5:
 100 0000 38B5     		push	{r3, r4, r5, lr}
 101              		.cfi_def_cfa_offset 16
 102              		.cfi_offset 3, -16
 103              		.cfi_offset 4, -12
 104              		.cfi_offset 5, -8
 105              		.cfi_offset 14, -4
 106 0002 0446     		mov	r4, r0
 107 0004 0D46     		mov	r5, r1
 108              	.LVL6:
 109              	.LBB4:
 110              		.loc 1 117 0
 111 0006 2023     		movs	r3, #32
 112              	@ 117 "../../ChibiOS-RT/os/kernel/src/chevents.c" 1
ARM GAS  /tmp/ccHPpRbv.s 			page 3


 113 0008 83F31188 		msr     BASEPRI, r3
 114              	@ 0 "" 2
 115              		.thumb
 116              	.LBE4:
 117 000c FFF7FEFF 		bl	dbg_check_lock
 118              	.LVL7:
 119              		.loc 1 116 0
 120 0010 2246     		mov	r2, r4
 121              		.loc 1 118 0
 122 0012 05E0     		b	.L6
 123              	.LVL8:
 124              	.L8:
 125              		.loc 1 119 0
 126 0014 9D42     		cmp	r5, r3
 127 0016 02D1     		bne	.L9
 128              		.loc 1 120 0
 129 0018 2B68     		ldr	r3, [r5]
 130 001a 1360     		str	r3, [r2]
 131              		.loc 1 121 0
 132 001c 03E0     		b	.L7
 133              	.L9:
 134              		.loc 1 123 0
 135 001e 1A46     		mov	r2, r3
 136              	.LVL9:
 137              	.L6:
 138              		.loc 1 118 0
 139 0020 1368     		ldr	r3, [r2]
 140 0022 A342     		cmp	r3, r4
 141 0024 F6D1     		bne	.L8
 142              	.L7:
 143              		.loc 1 125 0
 144 0026 FFF7FEFF 		bl	dbg_check_unlock
 145              	.LVL10:
 146              	.LBB5:
 147 002a 0023     		movs	r3, #0
 148              	@ 125 "../../ChibiOS-RT/os/kernel/src/chevents.c" 1
 149 002c 83F31188 		msr     BASEPRI, r3
 150              	@ 0 "" 2
 151              		.thumb
 152 0030 38BD     		pop	{r3, r4, r5, pc}
 153              	.LBE5:
 154              		.cfi_endproc
 155              	.LFE8:
 156              		.size	chEvtUnregister, .-chEvtUnregister
 157 0032 00BFAFF3 		.section	.text.chEvtGetAndClearEvents,"ax",%progbits
 157      0080AFF3 
 157      0080AFF3 
 157      0080
 158              		.align	2
 159              		.p2align 4,,15
 160              		.global	chEvtGetAndClearEvents
 161              		.thumb
 162              		.thumb_func
 163              		.type	chEvtGetAndClearEvents, %function
 164              	chEvtGetAndClearEvents:
 165              	.LFB9:
 166              		.loc 1 136 0
ARM GAS  /tmp/ccHPpRbv.s 			page 4


 167              		.cfi_startproc
 168              		@ args = 0, pretend = 0, frame = 0
 169              		@ frame_needed = 0, uses_anonymous_args = 0
 170              	.LVL11:
 171 0000 38B5     		push	{r3, r4, r5, lr}
 172              		.cfi_def_cfa_offset 16
 173              		.cfi_offset 3, -16
 174              		.cfi_offset 4, -12
 175              		.cfi_offset 5, -8
 176              		.cfi_offset 14, -4
 177 0002 0446     		mov	r4, r0
 178              	.LBB6:
 179              		.loc 1 139 0
 180 0004 2023     		movs	r3, #32
 181              	@ 139 "../../ChibiOS-RT/os/kernel/src/chevents.c" 1
 182 0006 83F31188 		msr     BASEPRI, r3
 183              	@ 0 "" 2
 184              		.thumb
 185              	.LBE6:
 186 000a FFF7FEFF 		bl	dbg_check_lock
 187              	.LVL12:
 188              		.loc 1 141 0
 189 000e 074B     		ldr	r3, .L13
 190 0010 9A69     		ldr	r2, [r3, #24]
 191 0012 D36B     		ldr	r3, [r2, #60]
 192 0014 03EA0405 		and	r5, r3, r4
 193              	.LVL13:
 194              		.loc 1 142 0
 195 0018 23EA0403 		bic	r3, r3, r4
 196 001c D363     		str	r3, [r2, #60]
 197              		.loc 1 144 0
 198 001e FFF7FEFF 		bl	dbg_check_unlock
 199              	.LVL14:
 200              	.LBB7:
 201 0022 0023     		movs	r3, #0
 202              	@ 144 "../../ChibiOS-RT/os/kernel/src/chevents.c" 1
 203 0024 83F31188 		msr     BASEPRI, r3
 204              	@ 0 "" 2
 205              		.thumb
 206              	.LBE7:
 207              		.loc 1 146 0
 208 0028 2846     		mov	r0, r5
 209 002a 38BD     		pop	{r3, r4, r5, pc}
 210              	.LVL15:
 211              	.L14:
 212              		.align	2
 213              	.L13:
 214 002c 00000000 		.word	rlist
 215              		.cfi_endproc
 216              	.LFE9:
 217              		.size	chEvtGetAndClearEvents, .-chEvtGetAndClearEvents
 218              		.section	.text.chEvtAddEvents,"ax",%progbits
 219              		.align	2
 220              		.p2align 4,,15
 221              		.global	chEvtAddEvents
 222              		.thumb
 223              		.thumb_func
ARM GAS  /tmp/ccHPpRbv.s 			page 5


 224              		.type	chEvtAddEvents, %function
 225              	chEvtAddEvents:
 226              	.LFB10:
 227              		.loc 1 157 0
 228              		.cfi_startproc
 229              		@ args = 0, pretend = 0, frame = 0
 230              		@ frame_needed = 0, uses_anonymous_args = 0
 231              	.LVL16:
 232 0000 10B5     		push	{r4, lr}
 233              		.cfi_def_cfa_offset 8
 234              		.cfi_offset 4, -8
 235              		.cfi_offset 14, -4
 236 0002 0446     		mov	r4, r0
 237              	.LBB8:
 238              		.loc 1 159 0
 239 0004 2023     		movs	r3, #32
 240              	@ 159 "../../ChibiOS-RT/os/kernel/src/chevents.c" 1
 241 0006 83F31188 		msr     BASEPRI, r3
 242              	@ 0 "" 2
 243              		.thumb
 244              	.LBE8:
 245 000a FFF7FEFF 		bl	dbg_check_lock
 246              	.LVL17:
 247              		.loc 1 161 0
 248 000e 064B     		ldr	r3, .L17
 249 0010 9A69     		ldr	r2, [r3, #24]
 250 0012 D36B     		ldr	r3, [r2, #60]
 251 0014 1C43     		orrs	r4, r4, r3
 252              	.LVL18:
 253 0016 D463     		str	r4, [r2, #60]
 254              	.LVL19:
 255              		.loc 1 163 0
 256 0018 FFF7FEFF 		bl	dbg_check_unlock
 257              	.LVL20:
 258              	.LBB9:
 259 001c 0023     		movs	r3, #0
 260              	@ 163 "../../ChibiOS-RT/os/kernel/src/chevents.c" 1
 261 001e 83F31188 		msr     BASEPRI, r3
 262              	@ 0 "" 2
 263              		.thumb
 264              	.LBE9:
 265              		.loc 1 165 0
 266 0022 2046     		mov	r0, r4
 267 0024 10BD     		pop	{r4, pc}
 268              	.LVL21:
 269              	.L18:
 270 0026 00BF     		.align	2
 271              	.L17:
 272 0028 00000000 		.word	rlist
 273              		.cfi_endproc
 274              	.LFE10:
 275              		.size	chEvtAddEvents, .-chEvtAddEvents
 276 002c AFF30080 		.section	.text.chEvtGetAndClearFlags,"ax",%progbits
 277              		.align	2
 278              		.p2align 4,,15
 279              		.global	chEvtGetAndClearFlags
 280              		.thumb
ARM GAS  /tmp/ccHPpRbv.s 			page 6


 281              		.thumb_func
 282              		.type	chEvtGetAndClearFlags, %function
 283              	chEvtGetAndClearFlags:
 284              	.LFB12:
 285              		.loc 1 209 0
 286              		.cfi_startproc
 287              		@ args = 0, pretend = 0, frame = 0
 288              		@ frame_needed = 0, uses_anonymous_args = 0
 289              	.LVL22:
 290 0000 70B5     		push	{r4, r5, r6, lr}
 291              		.cfi_def_cfa_offset 16
 292              		.cfi_offset 4, -16
 293              		.cfi_offset 5, -12
 294              		.cfi_offset 6, -8
 295              		.cfi_offset 14, -4
 296 0002 0546     		mov	r5, r0
 297              	.LBB10:
 298              		.loc 1 212 0
 299 0004 2023     		movs	r3, #32
 300              	@ 212 "../../ChibiOS-RT/os/kernel/src/chevents.c" 1
 301 0006 83F31188 		msr     BASEPRI, r3
 302              	@ 0 "" 2
 303              		.thumb
 304              	.LBE10:
 305 000a FFF7FEFF 		bl	dbg_check_lock
 306              	.LVL23:
 307              		.loc 1 214 0
 308 000e EE68     		ldr	r6, [r5, #12]
 309              	.LVL24:
 310              		.loc 1 215 0
 311 0010 0024     		movs	r4, #0
 312 0012 EC60     		str	r4, [r5, #12]
 313              		.loc 1 217 0
 314 0014 FFF7FEFF 		bl	dbg_check_unlock
 315              	.LVL25:
 316              	.LBB11:
 317 0018 2346     		mov	r3, r4
 318              	@ 217 "../../ChibiOS-RT/os/kernel/src/chevents.c" 1
 319 001a 83F31188 		msr     BASEPRI, r3
 320              	@ 0 "" 2
 321              		.thumb
 322              	.LBE11:
 323              		.loc 1 219 0
 324 001e 3046     		mov	r0, r6
 325 0020 70BD     		pop	{r4, r5, r6, pc}
 326              		.cfi_endproc
 327              	.LFE12:
 328              		.size	chEvtGetAndClearFlags, .-chEvtGetAndClearFlags
 329 0022 00BFAFF3 		.section	.text.chEvtSignalI,"ax",%progbits
 329      0080AFF3 
 329      0080AFF3 
 329      0080
 330              		.align	2
 331              		.p2align 4,,15
 332              		.global	chEvtSignalI
 333              		.thumb
 334              		.thumb_func
ARM GAS  /tmp/ccHPpRbv.s 			page 7


 335              		.type	chEvtSignalI, %function
 336              	chEvtSignalI:
 337              	.LFB14:
 338              		.loc 1 251 0
 339              		.cfi_startproc
 340              		@ args = 0, pretend = 0, frame = 0
 341              		@ frame_needed = 0, uses_anonymous_args = 0
 342              	.LVL26:
 343 0000 38B5     		push	{r3, r4, r5, lr}
 344              		.cfi_def_cfa_offset 16
 345              		.cfi_offset 3, -16
 346              		.cfi_offset 4, -12
 347              		.cfi_offset 5, -8
 348              		.cfi_offset 14, -4
 349 0002 0446     		mov	r4, r0
 350 0004 0D46     		mov	r5, r1
 351              		.loc 1 253 0
 352 0006 FFF7FEFF 		bl	chDbgCheckClassI
 353              	.LVL27:
 354              		.loc 1 256 0
 355 000a E36B     		ldr	r3, [r4, #60]
 356 000c 45EA0301 		orr	r1, r5, r3
 357 0010 E163     		str	r1, [r4, #60]
 358              		.loc 1 258 0
 359 0012 94F82030 		ldrb	r3, [r4, #32]	@ zero_extendqisi2
 360 0016 082B     		cmp	r3, #8
 361 0018 02D1     		bne	.L22
 362              		.loc 1 259 0 discriminator 1
 363 001a A26A     		ldr	r2, [r4, #40]
 364              		.loc 1 258 0 discriminator 1
 365 001c 1142     		tst	r1, r2
 366 001e 05D1     		bne	.L23
 367              	.L22:
 368              		.loc 1 259 0
 369 0020 092B     		cmp	r3, #9
 370 0022 08D1     		bne	.L21
 371              		.loc 1 261 0
 372 0024 A36A     		ldr	r3, [r4, #40]
 373 0026 1940     		ands	r1, r1, r3
 374              		.loc 1 260 0
 375 0028 8B42     		cmp	r3, r1
 376 002a 04D1     		bne	.L21
 377              	.L23:
 378              		.loc 1 262 0
 379 002c 2046     		mov	r0, r4
 380 002e FFF7FEFF 		bl	chSchReadyI
 381              	.LVL28:
 382 0032 0023     		movs	r3, #0
 383 0034 8362     		str	r3, [r0, #40]
 384              	.L21:
 385 0036 38BD     		pop	{r3, r4, r5, pc}
 386              		.cfi_endproc
 387              	.LFE14:
 388              		.size	chEvtSignalI, .-chEvtSignalI
 389 0038 AFF30080 		.section	.text.chEvtBroadcastFlagsI,"ax",%progbits
 389      AFF30080 
 390              		.align	2
ARM GAS  /tmp/ccHPpRbv.s 			page 8


 391              		.p2align 4,,15
 392              		.global	chEvtBroadcastFlagsI
 393              		.thumb
 394              		.thumb_func
 395              		.type	chEvtBroadcastFlagsI, %function
 396              	chEvtBroadcastFlagsI:
 397              	.LFB11:
 398              		.loc 1 184 0
 399              		.cfi_startproc
 400              		@ args = 0, pretend = 0, frame = 0
 401              		@ frame_needed = 0, uses_anonymous_args = 0
 402              	.LVL29:
 403 0000 70B5     		push	{r4, r5, r6, lr}
 404              		.cfi_def_cfa_offset 16
 405              		.cfi_offset 4, -16
 406              		.cfi_offset 5, -12
 407              		.cfi_offset 6, -8
 408              		.cfi_offset 14, -4
 409 0002 0546     		mov	r5, r0
 410 0004 0E46     		mov	r6, r1
 411              		.loc 1 187 0
 412 0006 FFF7FEFF 		bl	chDbgCheckClassI
 413              	.LVL30:
 414              		.loc 1 190 0
 415 000a 2C68     		ldr	r4, [r5]
 416              	.LVL31:
 417              		.loc 1 191 0
 418 000c 07E0     		b	.L27
 419              	.L28:
 420              		.loc 1 192 0
 421 000e E368     		ldr	r3, [r4, #12]
 422 0010 3343     		orrs	r3, r3, r6
 423 0012 E360     		str	r3, [r4, #12]
 424              		.loc 1 193 0
 425 0014 6068     		ldr	r0, [r4, #4]
 426 0016 A168     		ldr	r1, [r4, #8]
 427 0018 FFF7FEFF 		bl	chEvtSignalI
 428              	.LVL32:
 429              		.loc 1 194 0
 430 001c 2468     		ldr	r4, [r4]
 431              	.LVL33:
 432              	.L27:
 433              		.loc 1 191 0
 434 001e AC42     		cmp	r4, r5
 435 0020 F5D1     		bne	.L28
 436              		.loc 1 196 0
 437 0022 70BD     		pop	{r4, r5, r6, pc}
 438              		.cfi_endproc
 439              	.LFE11:
 440              		.size	chEvtBroadcastFlagsI, .-chEvtBroadcastFlagsI
 441 0024 AFF30080 		.section	.text.chEvtSignal,"ax",%progbits
 441      AFF30080 
 441      AFF30080 
 442              		.align	2
 443              		.p2align 4,,15
 444              		.global	chEvtSignal
 445              		.thumb
ARM GAS  /tmp/ccHPpRbv.s 			page 9


 446              		.thumb_func
 447              		.type	chEvtSignal, %function
 448              	chEvtSignal:
 449              	.LFB13:
 450              		.loc 1 229 0
 451              		.cfi_startproc
 452              		@ args = 0, pretend = 0, frame = 0
 453              		@ frame_needed = 0, uses_anonymous_args = 0
 454              	.LVL34:
 455 0000 38B5     		push	{r3, r4, r5, lr}
 456              		.cfi_def_cfa_offset 16
 457              		.cfi_offset 3, -16
 458              		.cfi_offset 4, -12
 459              		.cfi_offset 5, -8
 460              		.cfi_offset 14, -4
 461 0002 0546     		mov	r5, r0
 462 0004 0C46     		mov	r4, r1
 463              	.LBB12:
 464              		.loc 1 233 0
 465 0006 2023     		movs	r3, #32
 466              	@ 233 "../../ChibiOS-RT/os/kernel/src/chevents.c" 1
 467 0008 83F31188 		msr     BASEPRI, r3
 468              	@ 0 "" 2
 469              		.thumb
 470              	.LBE12:
 471 000c FFF7FEFF 		bl	dbg_check_lock
 472              	.LVL35:
 473              		.loc 1 234 0
 474 0010 2846     		mov	r0, r5
 475 0012 2146     		mov	r1, r4
 476 0014 FFF7FEFF 		bl	chEvtSignalI
 477              	.LVL36:
 478              		.loc 1 235 0
 479 0018 FFF7FEFF 		bl	chSchRescheduleS
 480              	.LVL37:
 481              		.loc 1 236 0
 482 001c FFF7FEFF 		bl	dbg_check_unlock
 483              	.LVL38:
 484              	.LBB13:
 485 0020 0023     		movs	r3, #0
 486              	@ 236 "../../ChibiOS-RT/os/kernel/src/chevents.c" 1
 487 0022 83F31188 		msr     BASEPRI, r3
 488              	@ 0 "" 2
 489              		.thumb
 490 0026 38BD     		pop	{r3, r4, r5, pc}
 491              	.LBE13:
 492              		.cfi_endproc
 493              	.LFE13:
 494              		.size	chEvtSignal, .-chEvtSignal
 495              		.section	.text.chEvtBroadcastFlags,"ax",%progbits
 496              		.align	2
 497              		.p2align 4,,15
 498              		.global	chEvtBroadcastFlags
 499              		.thumb
 500              		.thumb_func
 501              		.type	chEvtBroadcastFlags, %function
 502              	chEvtBroadcastFlags:
ARM GAS  /tmp/ccHPpRbv.s 			page 10


 503              	.LFB15:
 504              		.loc 1 278 0
 505              		.cfi_startproc
 506              		@ args = 0, pretend = 0, frame = 0
 507              		@ frame_needed = 0, uses_anonymous_args = 0
 508              	.LVL39:
 509 0000 38B5     		push	{r3, r4, r5, lr}
 510              		.cfi_def_cfa_offset 16
 511              		.cfi_offset 3, -16
 512              		.cfi_offset 4, -12
 513              		.cfi_offset 5, -8
 514              		.cfi_offset 14, -4
 515 0002 0546     		mov	r5, r0
 516 0004 0C46     		mov	r4, r1
 517              	.LBB14:
 518              		.loc 1 280 0
 519 0006 2023     		movs	r3, #32
 520              	@ 280 "../../ChibiOS-RT/os/kernel/src/chevents.c" 1
 521 0008 83F31188 		msr     BASEPRI, r3
 522              	@ 0 "" 2
 523              		.thumb
 524              	.LBE14:
 525 000c FFF7FEFF 		bl	dbg_check_lock
 526              	.LVL40:
 527              		.loc 1 281 0
 528 0010 2846     		mov	r0, r5
 529 0012 2146     		mov	r1, r4
 530 0014 FFF7FEFF 		bl	chEvtBroadcastFlagsI
 531              	.LVL41:
 532              		.loc 1 282 0
 533 0018 FFF7FEFF 		bl	chSchRescheduleS
 534              	.LVL42:
 535              		.loc 1 283 0
 536 001c FFF7FEFF 		bl	dbg_check_unlock
 537              	.LVL43:
 538              	.LBB15:
 539 0020 0023     		movs	r3, #0
 540              	@ 283 "../../ChibiOS-RT/os/kernel/src/chevents.c" 1
 541 0022 83F31188 		msr     BASEPRI, r3
 542              	@ 0 "" 2
 543              		.thumb
 544 0026 38BD     		pop	{r3, r4, r5, pc}
 545              	.LBE15:
 546              		.cfi_endproc
 547              	.LFE15:
 548              		.size	chEvtBroadcastFlags, .-chEvtBroadcastFlags
 549              		.section	.text.chEvtGetAndClearFlagsI,"ax",%progbits
 550              		.align	2
 551              		.p2align 4,,15
 552              		.global	chEvtGetAndClearFlagsI
 553              		.thumb
 554              		.thumb_func
 555              		.type	chEvtGetAndClearFlagsI, %function
 556              	chEvtGetAndClearFlagsI:
 557              	.LFB16:
 558              		.loc 1 297 0
 559              		.cfi_startproc
ARM GAS  /tmp/ccHPpRbv.s 			page 11


 560              		@ args = 0, pretend = 0, frame = 0
 561              		@ frame_needed = 0, uses_anonymous_args = 0
 562              		@ link register save eliminated.
 563              	.LVL44:
 564 0000 0346     		mov	r3, r0
 565              		.loc 1 300 0
 566 0002 C068     		ldr	r0, [r0, #12]
 567              	.LVL45:
 568              		.loc 1 301 0
 569 0004 0022     		movs	r2, #0
 570 0006 DA60     		str	r2, [r3, #12]
 571              		.loc 1 304 0
 572 0008 7047     		bx	lr
 573              		.cfi_endproc
 574              	.LFE16:
 575              		.size	chEvtGetAndClearFlagsI, .-chEvtGetAndClearFlagsI
 576 000a 00BFAFF3 		.section	.text.chEvtDispatch,"ax",%progbits
 576      0080
 577              		.align	2
 578              		.p2align 4,,15
 579              		.global	chEvtDispatch
 580              		.thumb
 581              		.thumb_func
 582              		.type	chEvtDispatch, %function
 583              	chEvtDispatch:
 584              	.LFB17:
 585              		.loc 1 315 0
 586              		.cfi_startproc
 587              		@ args = 0, pretend = 0, frame = 0
 588              		@ frame_needed = 0, uses_anonymous_args = 0
 589              	.LVL46:
 590 0000 2DE9F041 		push	{r4, r5, r6, r7, r8, lr}
 591              		.cfi_def_cfa_offset 24
 592              		.cfi_offset 4, -24
 593              		.cfi_offset 5, -20
 594              		.cfi_offset 6, -16
 595              		.cfi_offset 7, -12
 596              		.cfi_offset 8, -8
 597              		.cfi_offset 14, -4
 598 0004 0746     		mov	r7, r0
 599 0006 0E46     		mov	r6, r1
 600              	.LVL47:
 601              		.loc 1 320 0
 602 0008 0024     		movs	r4, #0
 603              		.loc 1 321 0
 604 000a 12E0     		b	.L36
 605              	.LVL48:
 606              	.L39:
 607              		.loc 1 322 0
 608 000c 0125     		movs	r5, #1
 609 000e A540     		lsls	r5, r5, r4
 610 0010 3542     		tst	r5, r6
 611 0012 0DD0     		beq	.L37
 612              		.loc 1 323 0
 613 0014 4FEA8408 		lsl	r8, r4, #2
 614 0018 57F82430 		ldr	r3, [r7, r4, lsl #2]
 615 001c 13B9     		cbnz	r3, .L38
ARM GAS  /tmp/ccHPpRbv.s 			page 12


 616              		.loc 1 323 0 is_stmt 0 discriminator 1
 617 001e 0748     		ldr	r0, .L41
 618 0020 FFF7FEFF 		bl	chDbgPanic
 619              	.LVL49:
 620              	.L38:
 621              		.loc 1 326 0 is_stmt 1
 622 0024 26EA0506 		bic	r6, r6, r5
 623              	.LVL50:
 624              		.loc 1 327 0
 625 0028 57F80830 		ldr	r3, [r7, r8]
 626 002c 2046     		mov	r0, r4
 627 002e 9847     		blx	r3
 628              	.LVL51:
 629              	.L37:
 630              		.loc 1 329 0
 631 0030 0134     		adds	r4, r4, #1
 632              	.LVL52:
 633              	.L36:
 634              		.loc 1 321 0
 635 0032 002E     		cmp	r6, #0
 636 0034 EAD1     		bne	.L39
 637              		.loc 1 331 0
 638 0036 BDE8F081 		pop	{r4, r5, r6, r7, r8, pc}
 639              	.LVL53:
 640              	.L42:
 641 003a 00BF     		.align	2
 642              	.L41:
 643 003c 00000000 		.word	.LC0
 644              		.cfi_endproc
 645              	.LFE17:
 646              		.size	chEvtDispatch, .-chEvtDispatch
 647              		.section	.text.chEvtWaitOne,"ax",%progbits
 648              		.align	2
 649              		.p2align 4,,15
 650              		.global	chEvtWaitOne
 651              		.thumb
 652              		.thumb_func
 653              		.type	chEvtWaitOne, %function
 654              	chEvtWaitOne:
 655              	.LFB18:
 656              		.loc 1 350 0
 657              		.cfi_startproc
 658              		@ args = 0, pretend = 0, frame = 0
 659              		@ frame_needed = 0, uses_anonymous_args = 0
 660              	.LVL54:
 661 0000 38B5     		push	{r3, r4, r5, lr}
 662              		.cfi_def_cfa_offset 16
 663              		.cfi_offset 3, -16
 664              		.cfi_offset 4, -12
 665              		.cfi_offset 5, -8
 666              		.cfi_offset 14, -4
 667 0002 0446     		mov	r4, r0
 668              		.loc 1 351 0
 669 0004 0E4B     		ldr	r3, .L46
 670 0006 9D69     		ldr	r5, [r3, #24]
 671              	.LVL55:
 672              	.LBB16:
ARM GAS  /tmp/ccHPpRbv.s 			page 13


 673              		.loc 1 354 0
 674 0008 2023     		movs	r3, #32
 675              	@ 354 "../../ChibiOS-RT/os/kernel/src/chevents.c" 1
 676 000a 83F31188 		msr     BASEPRI, r3
 677              	@ 0 "" 2
 678              		.thumb
 679              	.LBE16:
 680 000e FFF7FEFF 		bl	dbg_check_lock
 681              	.LVL56:
 682              		.loc 1 356 0
 683 0012 EB6B     		ldr	r3, [r5, #60]
 684              	.LVL57:
 685 0014 2340     		ands	r3, r3, r4
 686              	.LVL58:
 687 0016 05D1     		bne	.L44
 688              		.loc 1 357 0
 689 0018 AC62     		str	r4, [r5, #40]
 690              		.loc 1 358 0
 691 001a 0820     		movs	r0, #8
 692 001c FFF7FEFF 		bl	chSchGoSleepS
 693              	.LVL59:
 694              		.loc 1 359 0
 695 0020 EB6B     		ldr	r3, [r5, #60]
 696 0022 2340     		ands	r3, r3, r4
 697              	.LVL60:
 698              	.L44:
 699              		.loc 1 361 0
 700 0024 5C42     		negs	r4, r3
 701              	.LVL61:
 702 0026 1C40     		ands	r4, r4, r3
 703              	.LVL62:
 704              		.loc 1 362 0
 705 0028 EB6B     		ldr	r3, [r5, #60]
 706 002a 23EA0403 		bic	r3, r3, r4
 707 002e EB63     		str	r3, [r5, #60]
 708              		.loc 1 364 0
 709 0030 FFF7FEFF 		bl	dbg_check_unlock
 710              	.LVL63:
 711              	.LBB17:
 712 0034 0023     		movs	r3, #0
 713              	@ 364 "../../ChibiOS-RT/os/kernel/src/chevents.c" 1
 714 0036 83F31188 		msr     BASEPRI, r3
 715              	@ 0 "" 2
 716              		.thumb
 717              	.LBE17:
 718              		.loc 1 366 0
 719 003a 2046     		mov	r0, r4
 720 003c 38BD     		pop	{r3, r4, r5, pc}
 721              	.LVL64:
 722              	.L47:
 723 003e 00BF     		.align	2
 724              	.L46:
 725 0040 00000000 		.word	rlist
 726              		.cfi_endproc
 727              	.LFE18:
 728              		.size	chEvtWaitOne, .-chEvtWaitOne
 729 0044 AFF30080 		.section	.text.chEvtWaitAny,"ax",%progbits
ARM GAS  /tmp/ccHPpRbv.s 			page 14


 729      AFF30080 
 729      AFF30080 
 730              		.align	2
 731              		.p2align 4,,15
 732              		.global	chEvtWaitAny
 733              		.thumb
 734              		.thumb_func
 735              		.type	chEvtWaitAny, %function
 736              	chEvtWaitAny:
 737              	.LFB19:
 738              		.loc 1 379 0
 739              		.cfi_startproc
 740              		@ args = 0, pretend = 0, frame = 0
 741              		@ frame_needed = 0, uses_anonymous_args = 0
 742              	.LVL65:
 743 0000 70B5     		push	{r4, r5, r6, lr}
 744              		.cfi_def_cfa_offset 16
 745              		.cfi_offset 4, -16
 746              		.cfi_offset 5, -12
 747              		.cfi_offset 6, -8
 748              		.cfi_offset 14, -4
 749 0002 0646     		mov	r6, r0
 750              		.loc 1 380 0
 751 0004 0D4B     		ldr	r3, .L51
 752 0006 9D69     		ldr	r5, [r3, #24]
 753              	.LVL66:
 754              	.LBB18:
 755              		.loc 1 383 0
 756 0008 2023     		movs	r3, #32
 757              	@ 383 "../../ChibiOS-RT/os/kernel/src/chevents.c" 1
 758 000a 83F31188 		msr     BASEPRI, r3
 759              	@ 0 "" 2
 760              		.thumb
 761              	.LBE18:
 762 000e FFF7FEFF 		bl	dbg_check_lock
 763              	.LVL67:
 764              		.loc 1 385 0
 765 0012 EC6B     		ldr	r4, [r5, #60]
 766              	.LVL68:
 767 0014 3440     		ands	r4, r4, r6
 768              	.LVL69:
 769 0016 05D1     		bne	.L49
 770              		.loc 1 386 0
 771 0018 AE62     		str	r6, [r5, #40]
 772              		.loc 1 387 0
 773 001a 0820     		movs	r0, #8
 774 001c FFF7FEFF 		bl	chSchGoSleepS
 775              	.LVL70:
 776              		.loc 1 388 0
 777 0020 EC6B     		ldr	r4, [r5, #60]
 778              	.LVL71:
 779 0022 3440     		ands	r4, r4, r6
 780              	.LVL72:
 781              	.L49:
 782              		.loc 1 390 0
 783 0024 EB6B     		ldr	r3, [r5, #60]
 784 0026 23EA0403 		bic	r3, r3, r4
ARM GAS  /tmp/ccHPpRbv.s 			page 15


 785 002a EB63     		str	r3, [r5, #60]
 786              		.loc 1 392 0
 787 002c FFF7FEFF 		bl	dbg_check_unlock
 788              	.LVL73:
 789              	.LBB19:
 790 0030 0023     		movs	r3, #0
 791              	@ 392 "../../ChibiOS-RT/os/kernel/src/chevents.c" 1
 792 0032 83F31188 		msr     BASEPRI, r3
 793              	@ 0 "" 2
 794              		.thumb
 795              	.LBE19:
 796              		.loc 1 394 0
 797 0036 2046     		mov	r0, r4
 798 0038 70BD     		pop	{r4, r5, r6, pc}
 799              	.LVL74:
 800              	.L52:
 801 003a 00BF     		.align	2
 802              	.L51:
 803 003c 00000000 		.word	rlist
 804              		.cfi_endproc
 805              	.LFE19:
 806              		.size	chEvtWaitAny, .-chEvtWaitAny
 807              		.section	.text.chEvtWaitAll,"ax",%progbits
 808              		.align	2
 809              		.p2align 4,,15
 810              		.global	chEvtWaitAll
 811              		.thumb
 812              		.thumb_func
 813              		.type	chEvtWaitAll, %function
 814              	chEvtWaitAll:
 815              	.LFB20:
 816              		.loc 1 407 0
 817              		.cfi_startproc
 818              		@ args = 0, pretend = 0, frame = 0
 819              		@ frame_needed = 0, uses_anonymous_args = 0
 820              	.LVL75:
 821 0000 38B5     		push	{r3, r4, r5, lr}
 822              		.cfi_def_cfa_offset 16
 823              		.cfi_offset 3, -16
 824              		.cfi_offset 4, -12
 825              		.cfi_offset 5, -8
 826              		.cfi_offset 14, -4
 827 0002 0446     		mov	r4, r0
 828              		.loc 1 408 0
 829 0004 0C4B     		ldr	r3, .L56
 830 0006 9D69     		ldr	r5, [r3, #24]
 831              	.LVL76:
 832              	.LBB20:
 833              		.loc 1 410 0
 834 0008 2023     		movs	r3, #32
 835              	@ 410 "../../ChibiOS-RT/os/kernel/src/chevents.c" 1
 836 000a 83F31188 		msr     BASEPRI, r3
 837              	@ 0 "" 2
 838              		.thumb
 839              	.LBE20:
 840 000e FFF7FEFF 		bl	dbg_check_lock
 841              	.LVL77:
ARM GAS  /tmp/ccHPpRbv.s 			page 16


 842              		.loc 1 412 0
 843 0012 EB6B     		ldr	r3, [r5, #60]
 844 0014 2340     		ands	r3, r3, r4
 845 0016 A342     		cmp	r3, r4
 846 0018 03D0     		beq	.L54
 847              		.loc 1 413 0
 848 001a AC62     		str	r4, [r5, #40]
 849              		.loc 1 414 0
 850 001c 0920     		movs	r0, #9
 851 001e FFF7FEFF 		bl	chSchGoSleepS
 852              	.LVL78:
 853              	.L54:
 854              		.loc 1 416 0
 855 0022 EB6B     		ldr	r3, [r5, #60]
 856 0024 23EA0403 		bic	r3, r3, r4
 857 0028 EB63     		str	r3, [r5, #60]
 858              		.loc 1 418 0
 859 002a FFF7FEFF 		bl	dbg_check_unlock
 860              	.LVL79:
 861              	.LBB21:
 862 002e 0023     		movs	r3, #0
 863              	@ 418 "../../ChibiOS-RT/os/kernel/src/chevents.c" 1
 864 0030 83F31188 		msr     BASEPRI, r3
 865              	@ 0 "" 2
 866              		.thumb
 867              	.LBE21:
 868              		.loc 1 420 0
 869 0034 2046     		mov	r0, r4
 870 0036 38BD     		pop	{r3, r4, r5, pc}
 871              	.LVL80:
 872              	.L57:
 873              		.align	2
 874              	.L56:
 875 0038 00000000 		.word	rlist
 876              		.cfi_endproc
 877              	.LFE20:
 878              		.size	chEvtWaitAll, .-chEvtWaitAll
 879 003c AFF30080 		.section	.text.chEvtWaitOneTimeout,"ax",%progbits
 880              		.align	2
 881              		.p2align 4,,15
 882              		.global	chEvtWaitOneTimeout
 883              		.thumb
 884              		.thumb_func
 885              		.type	chEvtWaitOneTimeout, %function
 886              	chEvtWaitOneTimeout:
 887              	.LFB21:
 888              		.loc 1 446 0
 889              		.cfi_startproc
 890              		@ args = 0, pretend = 0, frame = 0
 891              		@ frame_needed = 0, uses_anonymous_args = 0
 892              	.LVL81:
 893 0000 70B5     		push	{r4, r5, r6, lr}
 894              		.cfi_def_cfa_offset 16
 895              		.cfi_offset 4, -16
 896              		.cfi_offset 5, -12
 897              		.cfi_offset 6, -8
 898              		.cfi_offset 14, -4
ARM GAS  /tmp/ccHPpRbv.s 			page 17


 899 0002 0446     		mov	r4, r0
 900 0004 0E46     		mov	r6, r1
 901              		.loc 1 447 0
 902 0006 174B     		ldr	r3, .L64
 903 0008 9D69     		ldr	r5, [r3, #24]
 904              	.LVL82:
 905              	.LBB22:
 906              		.loc 1 450 0
 907 000a 2023     		movs	r3, #32
 908              	@ 450 "../../ChibiOS-RT/os/kernel/src/chevents.c" 1
 909 000c 83F31188 		msr     BASEPRI, r3
 910              	@ 0 "" 2
 911              		.thumb
 912              	.LBE22:
 913 0010 FFF7FEFF 		bl	dbg_check_lock
 914              	.LVL83:
 915              		.loc 1 452 0
 916 0014 EB6B     		ldr	r3, [r5, #60]
 917              	.LVL84:
 918 0016 2340     		ands	r3, r3, r4
 919              	.LVL85:
 920 0018 17D1     		bne	.L59
 921              		.loc 1 453 0
 922 001a 36B9     		cbnz	r6, .L60
 923              		.loc 1 454 0
 924 001c FFF7FEFF 		bl	dbg_check_unlock
 925              	.LVL86:
 926              	.LBB23:
 927 0020 0023     		movs	r3, #0
 928              	@ 454 "../../ChibiOS-RT/os/kernel/src/chevents.c" 1
 929 0022 83F31188 		msr     BASEPRI, r3
 930              	@ 0 "" 2
 931              		.thumb
 932              	.LBE23:
 933              		.loc 1 455 0
 934 0026 1846     		mov	r0, r3
 935 0028 70BD     		pop	{r4, r5, r6, pc}
 936              	.LVL87:
 937              	.L60:
 938              		.loc 1 457 0
 939 002a AC62     		str	r4, [r5, #40]
 940              		.loc 1 458 0
 941 002c 0820     		movs	r0, #8
 942 002e 3146     		mov	r1, r6
 943 0030 FFF7FEFF 		bl	chSchGoSleepTimeoutS
 944              	.LVL88:
 945 0034 0028     		cmp	r0, #0
 946 0036 06DA     		bge	.L62
 947              		.loc 1 459 0
 948 0038 FFF7FEFF 		bl	dbg_check_unlock
 949              	.LVL89:
 950              	.LBB24:
 951 003c 0023     		movs	r3, #0
 952              	@ 459 "../../ChibiOS-RT/os/kernel/src/chevents.c" 1
 953 003e 83F31188 		msr     BASEPRI, r3
 954              	@ 0 "" 2
 955              		.thumb
ARM GAS  /tmp/ccHPpRbv.s 			page 18


 956              	.LBE24:
 957              		.loc 1 460 0
 958 0042 1846     		mov	r0, r3
 959 0044 70BD     		pop	{r4, r5, r6, pc}
 960              	.LVL90:
 961              	.L62:
 962              		.loc 1 462 0
 963 0046 EB6B     		ldr	r3, [r5, #60]
 964 0048 2340     		ands	r3, r3, r4
 965              	.LVL91:
 966              	.L59:
 967              		.loc 1 464 0
 968 004a 5C42     		negs	r4, r3
 969              	.LVL92:
 970 004c 1C40     		ands	r4, r4, r3
 971              	.LVL93:
 972              		.loc 1 465 0
 973 004e EB6B     		ldr	r3, [r5, #60]
 974 0050 23EA0403 		bic	r3, r3, r4
 975 0054 EB63     		str	r3, [r5, #60]
 976              		.loc 1 467 0
 977 0056 FFF7FEFF 		bl	dbg_check_unlock
 978              	.LVL94:
 979              	.LBB25:
 980 005a 0023     		movs	r3, #0
 981              	@ 467 "../../ChibiOS-RT/os/kernel/src/chevents.c" 1
 982 005c 83F31188 		msr     BASEPRI, r3
 983              	@ 0 "" 2
 984              		.thumb
 985              	.LBE25:
 986              		.loc 1 468 0
 987 0060 2046     		mov	r0, r4
 988              		.loc 1 469 0
 989 0062 70BD     		pop	{r4, r5, r6, pc}
 990              	.LVL95:
 991              	.L65:
 992              		.align	2
 993              	.L64:
 994 0064 00000000 		.word	rlist
 995              		.cfi_endproc
 996              	.LFE21:
 997              		.size	chEvtWaitOneTimeout, .-chEvtWaitOneTimeout
 998 0068 AFF30080 		.section	.text.chEvtWaitAnyTimeout,"ax",%progbits
 998      AFF30080 
 999              		.align	2
 1000              		.p2align 4,,15
 1001              		.global	chEvtWaitAnyTimeout
 1002              		.thumb
 1003              		.thumb_func
 1004              		.type	chEvtWaitAnyTimeout, %function
 1005              	chEvtWaitAnyTimeout:
 1006              	.LFB22:
 1007              		.loc 1 489 0
 1008              		.cfi_startproc
 1009              		@ args = 0, pretend = 0, frame = 0
 1010              		@ frame_needed = 0, uses_anonymous_args = 0
 1011              	.LVL96:
ARM GAS  /tmp/ccHPpRbv.s 			page 19


 1012 0000 F8B5     		push	{r3, r4, r5, r6, r7, lr}
 1013              		.cfi_def_cfa_offset 24
 1014              		.cfi_offset 3, -24
 1015              		.cfi_offset 4, -20
 1016              		.cfi_offset 5, -16
 1017              		.cfi_offset 6, -12
 1018              		.cfi_offset 7, -8
 1019              		.cfi_offset 14, -4
 1020 0002 0646     		mov	r6, r0
 1021 0004 0F46     		mov	r7, r1
 1022              		.loc 1 490 0
 1023 0006 174B     		ldr	r3, .L72
 1024 0008 9D69     		ldr	r5, [r3, #24]
 1025              	.LVL97:
 1026              	.LBB26:
 1027              		.loc 1 493 0
 1028 000a 2023     		movs	r3, #32
 1029              	@ 493 "../../ChibiOS-RT/os/kernel/src/chevents.c" 1
 1030 000c 83F31188 		msr     BASEPRI, r3
 1031              	@ 0 "" 2
 1032              		.thumb
 1033              	.LBE26:
 1034 0010 FFF7FEFF 		bl	dbg_check_lock
 1035              	.LVL98:
 1036              		.loc 1 495 0
 1037 0014 EB6B     		ldr	r3, [r5, #60]
 1038              	.LVL99:
 1039 0016 13EA0604 		ands	r4, r3, r6
 1040              	.LVL100:
 1041 001a 18D1     		bne	.L67
 1042              		.loc 1 496 0
 1043 001c 37B9     		cbnz	r7, .L68
 1044              		.loc 1 497 0
 1045 001e FFF7FEFF 		bl	dbg_check_unlock
 1046              	.LVL101:
 1047              	.LBB27:
 1048 0022 0023     		movs	r3, #0
 1049              	@ 497 "../../ChibiOS-RT/os/kernel/src/chevents.c" 1
 1050 0024 83F31188 		msr     BASEPRI, r3
 1051              	@ 0 "" 2
 1052              		.thumb
 1053              	.LBE27:
 1054              		.loc 1 498 0
 1055 0028 1846     		mov	r0, r3
 1056 002a F8BD     		pop	{r3, r4, r5, r6, r7, pc}
 1057              	.LVL102:
 1058              	.L68:
 1059              		.loc 1 500 0
 1060 002c AE62     		str	r6, [r5, #40]
 1061              		.loc 1 501 0
 1062 002e 0820     		movs	r0, #8
 1063 0030 3946     		mov	r1, r7
 1064 0032 FFF7FEFF 		bl	chSchGoSleepTimeoutS
 1065              	.LVL103:
 1066 0036 0028     		cmp	r0, #0
 1067 0038 06DA     		bge	.L70
 1068              		.loc 1 502 0
ARM GAS  /tmp/ccHPpRbv.s 			page 20


 1069 003a FFF7FEFF 		bl	dbg_check_unlock
 1070              	.LVL104:
 1071              	.LBB28:
 1072 003e 0023     		movs	r3, #0
 1073              	@ 502 "../../ChibiOS-RT/os/kernel/src/chevents.c" 1
 1074 0040 83F31188 		msr     BASEPRI, r3
 1075              	@ 0 "" 2
 1076              		.thumb
 1077              	.LBE28:
 1078              		.loc 1 503 0
 1079 0044 1846     		mov	r0, r3
 1080 0046 F8BD     		pop	{r3, r4, r5, r6, r7, pc}
 1081              	.LVL105:
 1082              	.L70:
 1083              		.loc 1 505 0
 1084 0048 EB6B     		ldr	r3, [r5, #60]
 1085 004a 03EA0604 		and	r4, r3, r6
 1086              	.LVL106:
 1087              	.L67:
 1088              		.loc 1 507 0
 1089 004e EB6B     		ldr	r3, [r5, #60]
 1090 0050 23EA0403 		bic	r3, r3, r4
 1091 0054 EB63     		str	r3, [r5, #60]
 1092              		.loc 1 509 0
 1093 0056 FFF7FEFF 		bl	dbg_check_unlock
 1094              	.LVL107:
 1095              	.LBB29:
 1096 005a 0023     		movs	r3, #0
 1097              	@ 509 "../../ChibiOS-RT/os/kernel/src/chevents.c" 1
 1098 005c 83F31188 		msr     BASEPRI, r3
 1099              	@ 0 "" 2
 1100              		.thumb
 1101              	.LBE29:
 1102              		.loc 1 510 0
 1103 0060 2046     		mov	r0, r4
 1104              		.loc 1 511 0
 1105 0062 F8BD     		pop	{r3, r4, r5, r6, r7, pc}
 1106              	.LVL108:
 1107              	.L73:
 1108              		.align	2
 1109              	.L72:
 1110 0064 00000000 		.word	rlist
 1111              		.cfi_endproc
 1112              	.LFE22:
 1113              		.size	chEvtWaitAnyTimeout, .-chEvtWaitAnyTimeout
 1114 0068 AFF30080 		.section	.text.chEvtWaitAllTimeout,"ax",%progbits
 1114      AFF30080 
 1115              		.align	2
 1116              		.p2align 4,,15
 1117              		.global	chEvtWaitAllTimeout
 1118              		.thumb
 1119              		.thumb_func
 1120              		.type	chEvtWaitAllTimeout, %function
 1121              	chEvtWaitAllTimeout:
 1122              	.LFB23:
 1123              		.loc 1 530 0
 1124              		.cfi_startproc
ARM GAS  /tmp/ccHPpRbv.s 			page 21


 1125              		@ args = 0, pretend = 0, frame = 0
 1126              		@ frame_needed = 0, uses_anonymous_args = 0
 1127              	.LVL109:
 1128 0000 70B5     		push	{r4, r5, r6, lr}
 1129              		.cfi_def_cfa_offset 16
 1130              		.cfi_offset 4, -16
 1131              		.cfi_offset 5, -12
 1132              		.cfi_offset 6, -8
 1133              		.cfi_offset 14, -4
 1134 0002 0446     		mov	r4, r0
 1135 0004 0E46     		mov	r6, r1
 1136              		.loc 1 531 0
 1137 0006 164B     		ldr	r3, .L79
 1138 0008 9D69     		ldr	r5, [r3, #24]
 1139              	.LVL110:
 1140              	.LBB30:
 1141              		.loc 1 533 0
 1142 000a 2023     		movs	r3, #32
 1143              	@ 533 "../../ChibiOS-RT/os/kernel/src/chevents.c" 1
 1144 000c 83F31188 		msr     BASEPRI, r3
 1145              	@ 0 "" 2
 1146              		.thumb
 1147              	.LBE30:
 1148 0010 FFF7FEFF 		bl	dbg_check_lock
 1149              	.LVL111:
 1150              		.loc 1 535 0
 1151 0014 EB6B     		ldr	r3, [r5, #60]
 1152 0016 2340     		ands	r3, r3, r4
 1153 0018 A342     		cmp	r3, r4
 1154 001a 15D0     		beq	.L75
 1155              		.loc 1 536 0
 1156 001c 36B9     		cbnz	r6, .L76
 1157              		.loc 1 537 0
 1158 001e FFF7FEFF 		bl	dbg_check_unlock
 1159              	.LVL112:
 1160              	.LBB31:
 1161 0022 0023     		movs	r3, #0
 1162              	@ 537 "../../ChibiOS-RT/os/kernel/src/chevents.c" 1
 1163 0024 83F31188 		msr     BASEPRI, r3
 1164              	@ 0 "" 2
 1165              		.thumb
 1166              	.LBE31:
 1167              		.loc 1 538 0
 1168 0028 1846     		mov	r0, r3
 1169 002a 70BD     		pop	{r4, r5, r6, pc}
 1170              	.LVL113:
 1171              	.L76:
 1172              		.loc 1 540 0
 1173 002c AC62     		str	r4, [r5, #40]
 1174              		.loc 1 541 0
 1175 002e 0920     		movs	r0, #9
 1176 0030 3146     		mov	r1, r6
 1177 0032 FFF7FEFF 		bl	chSchGoSleepTimeoutS
 1178              	.LVL114:
 1179 0036 0028     		cmp	r0, #0
 1180 0038 06DA     		bge	.L75
 1181              		.loc 1 542 0
ARM GAS  /tmp/ccHPpRbv.s 			page 22


 1182 003a FFF7FEFF 		bl	dbg_check_unlock
 1183              	.LVL115:
 1184              	.LBB32:
 1185 003e 0023     		movs	r3, #0
 1186              	@ 542 "../../ChibiOS-RT/os/kernel/src/chevents.c" 1
 1187 0040 83F31188 		msr     BASEPRI, r3
 1188              	@ 0 "" 2
 1189              		.thumb
 1190              	.LBE32:
 1191              		.loc 1 543 0
 1192 0044 1846     		mov	r0, r3
 1193 0046 70BD     		pop	{r4, r5, r6, pc}
 1194              	.LVL116:
 1195              	.L75:
 1196              		.loc 1 546 0
 1197 0048 EB6B     		ldr	r3, [r5, #60]
 1198 004a 23EA0403 		bic	r3, r3, r4
 1199 004e EB63     		str	r3, [r5, #60]
 1200              		.loc 1 548 0
 1201 0050 FFF7FEFF 		bl	dbg_check_unlock
 1202              	.LVL117:
 1203              	.LBB33:
 1204 0054 0023     		movs	r3, #0
 1205              	@ 548 "../../ChibiOS-RT/os/kernel/src/chevents.c" 1
 1206 0056 83F31188 		msr     BASEPRI, r3
 1207              	@ 0 "" 2
 1208              		.thumb
 1209              	.LBE33:
 1210              		.loc 1 549 0
 1211 005a 2046     		mov	r0, r4
 1212              		.loc 1 550 0
 1213 005c 70BD     		pop	{r4, r5, r6, pc}
 1214              	.LVL118:
 1215              	.L80:
 1216 005e 00BF     		.align	2
 1217              	.L79:
 1218 0060 00000000 		.word	rlist
 1219              		.cfi_endproc
 1220              	.LFE23:
 1221              		.size	chEvtWaitAllTimeout, .-chEvtWaitAllTimeout
 1222 0064 AFF30080 		.section	.rodata.str1.4,"aMS",%progbits,1
 1222      AFF30080 
 1222      AFF30080 
 1223              		.align	2
 1224              	.LC0:
 1225 0000 63684576 		.ascii	"chEvtDispatch(), #1\000"
 1225      74446973 
 1225      70617463 
 1225      6828292C 
 1225      20233100 
 1226              		.text
 1227              	.Letext0:
 1228              		.file 2 "/usr/arm-none-eabi/include/machine/_default_types.h"
 1229              		.file 3 "/usr/arm-none-eabi/include/stdint.h"
 1230              		.file 4 "../../ChibiOS-RT/os/ports/GCC/ARMCMx/chtypes.h"
 1231              		.file 5 "../../ChibiOS-RT/os/kernel/include/chlists.h"
 1232              		.file 6 "../../ChibiOS-RT/os/kernel/include/chthreads.h"
ARM GAS  /tmp/ccHPpRbv.s 			page 23


 1233              		.file 7 "../../ChibiOS-RT/os/ports/GCC/ARMCMx/chcore_v7m.h"
 1234              		.file 8 "../../ChibiOS-RT/os/kernel/include/chschd.h"
 1235              		.file 9 "../../ChibiOS-RT/os/kernel/include/chmtx.h"
 1236              		.file 10 "../../ChibiOS-RT/os/kernel/include/chevents.h"
 1237              		.file 11 "../../ChibiOS-RT/os/kernel/include/chdebug.h"
 1238              		.section	.debug_info,"",%progbits
 1239              	.Ldebug_info0:
 1240 0000 4D0F0000 		.4byte	0xf4d
 1241 0004 0400     		.2byte	0x4
 1242 0006 00000000 		.4byte	.Ldebug_abbrev0
 1243 000a 04       		.byte	0x4
 1244 000b 01       		.uleb128 0x1
 1245 000c 2E020000 		.4byte	.LASF108
 1246 0010 01       		.byte	0x1
 1247 0011 D6030000 		.4byte	.LASF109
 1248 0015 84030000 		.4byte	.LASF110
 1249 0019 00000000 		.4byte	.Ldebug_ranges0+0
 1250 001d 00000000 		.4byte	0
 1251 0021 00000000 		.4byte	.Ldebug_line0
 1252 0025 02       		.uleb128 0x2
 1253 0026 04       		.byte	0x4
 1254 0027 05       		.byte	0x5
 1255 0028 696E7400 		.ascii	"int\000"
 1256 002c 03       		.uleb128 0x3
 1257 002d 04       		.byte	0x4
 1258 002e 07       		.byte	0x7
 1259 002f 85010000 		.4byte	.LASF0
 1260 0033 03       		.uleb128 0x3
 1261 0034 01       		.byte	0x1
 1262 0035 06       		.byte	0x6
 1263 0036 8F000000 		.4byte	.LASF1
 1264 003a 04       		.uleb128 0x4
 1265 003b 21000000 		.4byte	.LASF5
 1266 003f 02       		.byte	0x2
 1267 0040 1D       		.byte	0x1d
 1268 0041 45000000 		.4byte	0x45
 1269 0045 03       		.uleb128 0x3
 1270 0046 01       		.byte	0x1
 1271 0047 08       		.byte	0x8
 1272 0048 C8030000 		.4byte	.LASF2
 1273 004c 03       		.uleb128 0x3
 1274 004d 02       		.byte	0x2
 1275 004e 05       		.byte	0x5
 1276 004f 1F040000 		.4byte	.LASF3
 1277 0053 03       		.uleb128 0x3
 1278 0054 02       		.byte	0x2
 1279 0055 07       		.byte	0x7
 1280 0056 C3010000 		.4byte	.LASF4
 1281 005a 04       		.uleb128 0x4
 1282 005b CD040000 		.4byte	.LASF6
 1283 005f 02       		.byte	0x2
 1284 0060 3F       		.byte	0x3f
 1285 0061 65000000 		.4byte	0x65
 1286 0065 03       		.uleb128 0x3
 1287 0066 04       		.byte	0x4
 1288 0067 05       		.byte	0x5
 1289 0068 C9000000 		.4byte	.LASF7
ARM GAS  /tmp/ccHPpRbv.s 			page 24


 1290 006c 04       		.uleb128 0x4
 1291 006d 2B010000 		.4byte	.LASF8
 1292 0071 02       		.byte	0x2
 1293 0072 41       		.byte	0x41
 1294 0073 77000000 		.4byte	0x77
 1295 0077 03       		.uleb128 0x3
 1296 0078 04       		.byte	0x4
 1297 0079 07       		.byte	0x7
 1298 007a 92010000 		.4byte	.LASF9
 1299 007e 03       		.uleb128 0x3
 1300 007f 08       		.byte	0x8
 1301 0080 05       		.byte	0x5
 1302 0081 81000000 		.4byte	.LASF10
 1303 0085 04       		.uleb128 0x4
 1304 0086 68030000 		.4byte	.LASF11
 1305 008a 02       		.byte	0x2
 1306 008b 5B       		.byte	0x5b
 1307 008c 90000000 		.4byte	0x90
 1308 0090 03       		.uleb128 0x3
 1309 0091 08       		.byte	0x8
 1310 0092 07       		.byte	0x7
 1311 0093 37000000 		.4byte	.LASF12
 1312 0097 04       		.uleb128 0x4
 1313 0098 13050000 		.4byte	.LASF13
 1314 009c 03       		.byte	0x3
 1315 009d 15       		.byte	0x15
 1316 009e 3A000000 		.4byte	0x3a
 1317 00a2 04       		.uleb128 0x4
 1318 00a3 C0030000 		.4byte	.LASF14
 1319 00a7 03       		.byte	0x3
 1320 00a8 2C       		.byte	0x2c
 1321 00a9 5A000000 		.4byte	0x5a
 1322 00ad 04       		.uleb128 0x4
 1323 00ae 8F040000 		.4byte	.LASF15
 1324 00b2 03       		.byte	0x3
 1325 00b3 2D       		.byte	0x2d
 1326 00b4 6C000000 		.4byte	0x6c
 1327 00b8 04       		.uleb128 0x4
 1328 00b9 18000000 		.4byte	.LASF16
 1329 00bd 03       		.byte	0x3
 1330 00be 39       		.byte	0x39
 1331 00bf 85000000 		.4byte	0x85
 1332 00c3 03       		.uleb128 0x3
 1333 00c4 01       		.byte	0x1
 1334 00c5 02       		.byte	0x2
 1335 00c6 BA030000 		.4byte	.LASF17
 1336 00ca 04       		.uleb128 0x4
 1337 00cb 0E020000 		.4byte	.LASF18
 1338 00cf 04       		.byte	0x4
 1339 00d0 2C       		.byte	0x2c
 1340 00d1 97000000 		.4byte	0x97
 1341 00d5 04       		.uleb128 0x4
 1342 00d6 D2000000 		.4byte	.LASF19
 1343 00da 04       		.byte	0x4
 1344 00db 2D       		.byte	0x2d
 1345 00dc 97000000 		.4byte	0x97
 1346 00e0 04       		.uleb128 0x4
ARM GAS  /tmp/ccHPpRbv.s 			page 25


 1347 00e1 7C030000 		.4byte	.LASF20
 1348 00e5 04       		.byte	0x4
 1349 00e6 2E       		.byte	0x2e
 1350 00e7 97000000 		.4byte	0x97
 1351 00eb 04       		.uleb128 0x4
 1352 00ec BF000000 		.4byte	.LASF21
 1353 00f0 04       		.byte	0x4
 1354 00f1 2F       		.byte	0x2f
 1355 00f2 97000000 		.4byte	0x97
 1356 00f6 04       		.uleb128 0x4
 1357 00f7 B2030000 		.4byte	.LASF22
 1358 00fb 04       		.byte	0x4
 1359 00fc 30       		.byte	0x30
 1360 00fd AD000000 		.4byte	0xad
 1361 0101 04       		.uleb128 0x4
 1362 0102 E8010000 		.4byte	.LASF23
 1363 0106 04       		.byte	0x4
 1364 0107 31       		.byte	0x31
 1365 0108 A2000000 		.4byte	0xa2
 1366 010c 04       		.uleb128 0x4
 1367 010d 58010000 		.4byte	.LASF24
 1368 0111 04       		.byte	0x4
 1369 0112 32       		.byte	0x32
 1370 0113 A2000000 		.4byte	0xa2
 1371 0117 04       		.uleb128 0x4
 1372 0118 22020000 		.4byte	.LASF25
 1373 011c 04       		.byte	0x4
 1374 011d 33       		.byte	0x33
 1375 011e AD000000 		.4byte	0xad
 1376 0122 04       		.uleb128 0x4
 1377 0123 F0040000 		.4byte	.LASF26
 1378 0127 04       		.byte	0x4
 1379 0128 34       		.byte	0x34
 1380 0129 AD000000 		.4byte	0xad
 1381 012d 04       		.uleb128 0x4
 1382 012e B8040000 		.4byte	.LASF27
 1383 0132 04       		.byte	0x4
 1384 0133 35       		.byte	0x35
 1385 0134 AD000000 		.4byte	0xad
 1386 0138 04       		.uleb128 0x4
 1387 0139 6F040000 		.4byte	.LASF28
 1388 013d 05       		.byte	0x5
 1389 013e 2A       		.byte	0x2a
 1390 013f 43010000 		.4byte	0x143
 1391 0143 05       		.uleb128 0x5
 1392 0144 6F040000 		.4byte	.LASF28
 1393 0148 4C       		.byte	0x4c
 1394 0149 06       		.byte	0x6
 1395 014a 5E       		.byte	0x5e
 1396 014b 4C020000 		.4byte	0x24c
 1397 014f 06       		.uleb128 0x6
 1398 0150 60040000 		.4byte	.LASF29
 1399 0154 06       		.byte	0x6
 1400 0155 5F       		.byte	0x5f
 1401 0156 6D020000 		.4byte	0x26d
 1402 015a 00       		.byte	0
 1403 015b 06       		.uleb128 0x6
ARM GAS  /tmp/ccHPpRbv.s 			page 26


 1404 015c AB030000 		.4byte	.LASF30
 1405 0160 06       		.byte	0x6
 1406 0161 61       		.byte	0x61
 1407 0162 6D020000 		.4byte	0x26d
 1408 0166 04       		.byte	0x4
 1409 0167 06       		.uleb128 0x6
 1410 0168 7A000000 		.4byte	.LASF31
 1411 016c 06       		.byte	0x6
 1412 016d 63       		.byte	0x63
 1413 016e F6000000 		.4byte	0xf6
 1414 0172 08       		.byte	0x8
 1415 0173 06       		.uleb128 0x6
 1416 0174 A8050000 		.4byte	.LASF32
 1417 0178 06       		.byte	0x6
 1418 0179 64       		.byte	0x64
 1419 017a 32030000 		.4byte	0x332
 1420 017e 0C       		.byte	0xc
 1421 017f 06       		.uleb128 0x6
 1422 0180 12010000 		.4byte	.LASF33
 1423 0184 06       		.byte	0x6
 1424 0185 66       		.byte	0x66
 1425 0186 6D020000 		.4byte	0x26d
 1426 018a 10       		.byte	0x10
 1427 018b 06       		.uleb128 0x6
 1428 018c 21030000 		.4byte	.LASF34
 1429 0190 06       		.byte	0x6
 1430 0191 67       		.byte	0x67
 1431 0192 6D020000 		.4byte	0x26d
 1432 0196 14       		.byte	0x14
 1433 0197 06       		.uleb128 0x6
 1434 0198 4A050000 		.4byte	.LASF35
 1435 019c 06       		.byte	0x6
 1436 019d 6E       		.byte	0x6e
 1437 019e C0040000 		.4byte	0x4c0
 1438 01a2 18       		.byte	0x18
 1439 01a3 06       		.uleb128 0x6
 1440 01a4 7A010000 		.4byte	.LASF36
 1441 01a8 06       		.byte	0x6
 1442 01a9 74       		.byte	0x74
 1443 01aa D2040000 		.4byte	0x4d2
 1444 01ae 1C       		.byte	0x1c
 1445 01af 06       		.uleb128 0x6
 1446 01b0 29040000 		.4byte	.LASF37
 1447 01b4 06       		.byte	0x6
 1448 01b5 79       		.byte	0x79
 1449 01b6 D5000000 		.4byte	0xd5
 1450 01ba 20       		.byte	0x20
 1451 01bb 06       		.uleb128 0x6
 1452 01bc 67040000 		.4byte	.LASF38
 1453 01c0 06       		.byte	0x6
 1454 01c1 7D       		.byte	0x7d
 1455 01c2 CA000000 		.4byte	0xca
 1456 01c6 21       		.byte	0x21
 1457 01c7 06       		.uleb128 0x6
 1458 01c8 FC040000 		.4byte	.LASF39
 1459 01cc 06       		.byte	0x6
 1460 01cd 82       		.byte	0x82
ARM GAS  /tmp/ccHPpRbv.s 			page 27


 1461 01ce E0000000 		.4byte	0xe0
 1462 01d2 22       		.byte	0x22
 1463 01d3 06       		.uleb128 0x6
 1464 01d4 31040000 		.4byte	.LASF40
 1465 01d8 06       		.byte	0x6
 1466 01d9 88       		.byte	0x88
 1467 01da EB000000 		.4byte	0xeb
 1468 01de 23       		.byte	0x23
 1469 01df 06       		.uleb128 0x6
 1470 01e0 D7040000 		.4byte	.LASF41
 1471 01e4 06       		.byte	0x6
 1472 01e5 8F       		.byte	0x8f
 1473 01e6 5A030000 		.4byte	0x35a
 1474 01ea 24       		.byte	0x24
 1475 01eb 07       		.uleb128 0x7
 1476 01ec 705F7500 		.ascii	"p_u\000"
 1477 01f0 06       		.byte	0x6
 1478 01f1 B4       		.byte	0xb4
 1479 01f2 8B040000 		.4byte	0x48b
 1480 01f6 28       		.byte	0x28
 1481 01f7 06       		.uleb128 0x6
 1482 01f8 AE050000 		.4byte	.LASF42
 1483 01fc 06       		.byte	0x6
 1484 01fd B9       		.byte	0xb9
 1485 01fe 93020000 		.4byte	0x293
 1486 0202 2C       		.byte	0x2c
 1487 0203 06       		.uleb128 0x6
 1488 0204 E5040000 		.4byte	.LASF43
 1489 0208 06       		.byte	0x6
 1490 0209 BF       		.byte	0xbf
 1491 020a 73020000 		.4byte	0x273
 1492 020e 30       		.byte	0x30
 1493 020f 06       		.uleb128 0x6
 1494 0210 00000000 		.4byte	.LASF44
 1495 0214 06       		.byte	0x6
 1496 0215 C3       		.byte	0xc3
 1497 0216 01010000 		.4byte	0x101
 1498 021a 38       		.byte	0x38
 1499 021b 06       		.uleb128 0x6
 1500 021c 84040000 		.4byte	.LASF45
 1501 0220 06       		.byte	0x6
 1502 0221 C9       		.byte	0xc9
 1503 0222 17010000 		.4byte	0x117
 1504 0226 3C       		.byte	0x3c
 1505 0227 06       		.uleb128 0x6
 1506 0228 15040000 		.4byte	.LASF46
 1507 022c 06       		.byte	0x6
 1508 022d D0       		.byte	0xd0
 1509 022e D8040000 		.4byte	0x4d8
 1510 0232 40       		.byte	0x40
 1511 0233 06       		.uleb128 0x6
 1512 0234 C2040000 		.4byte	.LASF47
 1513 0238 06       		.byte	0x6
 1514 0239 D4       		.byte	0xd4
 1515 023a F6000000 		.4byte	0xf6
 1516 023e 44       		.byte	0x44
 1517 023f 06       		.uleb128 0x6
ARM GAS  /tmp/ccHPpRbv.s 			page 28


 1518 0240 AF000000 		.4byte	.LASF48
 1519 0244 06       		.byte	0x6
 1520 0245 DA       		.byte	0xda
 1521 0246 A9020000 		.4byte	0x2a9
 1522 024a 48       		.byte	0x48
 1523 024b 00       		.byte	0
 1524 024c 08       		.uleb128 0x8
 1525 024d 08       		.byte	0x8
 1526 024e 05       		.byte	0x5
 1527 024f 61       		.byte	0x61
 1528 0250 6D020000 		.4byte	0x26d
 1529 0254 06       		.uleb128 0x6
 1530 0255 60040000 		.4byte	.LASF29
 1531 0259 05       		.byte	0x5
 1532 025a 62       		.byte	0x62
 1533 025b 6D020000 		.4byte	0x26d
 1534 025f 00       		.byte	0
 1535 0260 06       		.uleb128 0x6
 1536 0261 AB030000 		.4byte	.LASF30
 1537 0265 05       		.byte	0x5
 1538 0266 64       		.byte	0x64
 1539 0267 6D020000 		.4byte	0x26d
 1540 026b 04       		.byte	0x4
 1541 026c 00       		.byte	0
 1542 026d 09       		.uleb128 0x9
 1543 026e 04       		.byte	0x4
 1544 026f 38010000 		.4byte	0x138
 1545 0273 04       		.uleb128 0x4
 1546 0274 2F030000 		.4byte	.LASF49
 1547 0278 05       		.byte	0x5
 1548 0279 66       		.byte	0x66
 1549 027a 4C020000 		.4byte	0x24c
 1550 027e 08       		.uleb128 0x8
 1551 027f 04       		.byte	0x4
 1552 0280 05       		.byte	0x5
 1553 0281 6B       		.byte	0x6b
 1554 0282 93020000 		.4byte	0x293
 1555 0286 06       		.uleb128 0x6
 1556 0287 60040000 		.4byte	.LASF29
 1557 028b 05       		.byte	0x5
 1558 028c 6D       		.byte	0x6d
 1559 028d 6D020000 		.4byte	0x26d
 1560 0291 00       		.byte	0
 1561 0292 00       		.byte	0
 1562 0293 04       		.uleb128 0x4
 1563 0294 16020000 		.4byte	.LASF50
 1564 0298 05       		.byte	0x5
 1565 0299 70       		.byte	0x70
 1566 029a 7E020000 		.4byte	0x27e
 1567 029e 04       		.uleb128 0x4
 1568 029f 3B010000 		.4byte	.LASF51
 1569 02a3 07       		.byte	0x7
 1570 02a4 E5       		.byte	0xe5
 1571 02a5 A9020000 		.4byte	0x2a9
 1572 02a9 0A       		.uleb128 0xa
 1573 02aa 04       		.byte	0x4
 1574 02ab 04       		.uleb128 0x4
ARM GAS  /tmp/ccHPpRbv.s 			page 29


 1575 02ac F2020000 		.4byte	.LASF52
 1576 02b0 07       		.byte	0x7
 1577 02b1 EB       		.byte	0xeb
 1578 02b2 B8000000 		.4byte	0xb8
 1579 02b6 0B       		.uleb128 0xb
 1580 02b7 DE040000 		.4byte	.LASF53
 1581 02bb 24       		.byte	0x24
 1582 02bc 07       		.byte	0x7
 1583 02bd 0C01     		.2byte	0x10c
 1584 02bf 32030000 		.4byte	0x332
 1585 02c3 0C       		.uleb128 0xc
 1586 02c4 723400   		.ascii	"r4\000"
 1587 02c7 07       		.byte	0x7
 1588 02c8 1F01     		.2byte	0x11f
 1589 02ca 9E020000 		.4byte	0x29e
 1590 02ce 00       		.byte	0
 1591 02cf 0C       		.uleb128 0xc
 1592 02d0 723500   		.ascii	"r5\000"
 1593 02d3 07       		.byte	0x7
 1594 02d4 2001     		.2byte	0x120
 1595 02d6 9E020000 		.4byte	0x29e
 1596 02da 04       		.byte	0x4
 1597 02db 0C       		.uleb128 0xc
 1598 02dc 723600   		.ascii	"r6\000"
 1599 02df 07       		.byte	0x7
 1600 02e0 2101     		.2byte	0x121
 1601 02e2 9E020000 		.4byte	0x29e
 1602 02e6 08       		.byte	0x8
 1603 02e7 0C       		.uleb128 0xc
 1604 02e8 723700   		.ascii	"r7\000"
 1605 02eb 07       		.byte	0x7
 1606 02ec 2201     		.2byte	0x122
 1607 02ee 9E020000 		.4byte	0x29e
 1608 02f2 0C       		.byte	0xc
 1609 02f3 0C       		.uleb128 0xc
 1610 02f4 723800   		.ascii	"r8\000"
 1611 02f7 07       		.byte	0x7
 1612 02f8 2301     		.2byte	0x123
 1613 02fa 9E020000 		.4byte	0x29e
 1614 02fe 10       		.byte	0x10
 1615 02ff 0C       		.uleb128 0xc
 1616 0300 723900   		.ascii	"r9\000"
 1617 0303 07       		.byte	0x7
 1618 0304 2401     		.2byte	0x124
 1619 0306 9E020000 		.4byte	0x29e
 1620 030a 14       		.byte	0x14
 1621 030b 0C       		.uleb128 0xc
 1622 030c 72313000 		.ascii	"r10\000"
 1623 0310 07       		.byte	0x7
 1624 0311 2501     		.2byte	0x125
 1625 0313 9E020000 		.4byte	0x29e
 1626 0317 18       		.byte	0x18
 1627 0318 0C       		.uleb128 0xc
 1628 0319 72313100 		.ascii	"r11\000"
 1629 031d 07       		.byte	0x7
 1630 031e 2601     		.2byte	0x126
 1631 0320 9E020000 		.4byte	0x29e
ARM GAS  /tmp/ccHPpRbv.s 			page 30


 1632 0324 1C       		.byte	0x1c
 1633 0325 0C       		.uleb128 0xc
 1634 0326 6C7200   		.ascii	"lr\000"
 1635 0329 07       		.byte	0x7
 1636 032a 2701     		.2byte	0x127
 1637 032c 9E020000 		.4byte	0x29e
 1638 0330 20       		.byte	0x20
 1639 0331 00       		.byte	0
 1640 0332 0B       		.uleb128 0xb
 1641 0333 BB010000 		.4byte	.LASF54
 1642 0337 04       		.byte	0x4
 1643 0338 07       		.byte	0x7
 1644 0339 3101     		.2byte	0x131
 1645 033b 4D030000 		.4byte	0x34d
 1646 033f 0C       		.uleb128 0xc
 1647 0340 72313300 		.ascii	"r13\000"
 1648 0344 07       		.byte	0x7
 1649 0345 3201     		.2byte	0x132
 1650 0347 4D030000 		.4byte	0x34d
 1651 034b 00       		.byte	0
 1652 034c 00       		.byte	0
 1653 034d 09       		.uleb128 0x9
 1654 034e 04       		.byte	0x4
 1655 034f B6020000 		.4byte	0x2b6
 1656 0353 03       		.uleb128 0x3
 1657 0354 04       		.byte	0x4
 1658 0355 07       		.byte	0x7
 1659 0356 0A030000 		.4byte	.LASF55
 1660 035a 0D       		.uleb128 0xd
 1661 035b 2D010000 		.4byte	0x12d
 1662 035f 08       		.uleb128 0x8
 1663 0360 1C       		.byte	0x1c
 1664 0361 08       		.byte	0x8
 1665 0362 5E       		.byte	0x5e
 1666 0363 B0030000 		.4byte	0x3b0
 1667 0367 06       		.uleb128 0x6
 1668 0368 98040000 		.4byte	.LASF56
 1669 036c 08       		.byte	0x8
 1670 036d 5F       		.byte	0x5f
 1671 036e 73020000 		.4byte	0x273
 1672 0372 00       		.byte	0
 1673 0373 06       		.uleb128 0x6
 1674 0374 3B040000 		.4byte	.LASF57
 1675 0378 08       		.byte	0x8
 1676 0379 60       		.byte	0x60
 1677 037a F6000000 		.4byte	0xf6
 1678 037e 08       		.byte	0x8
 1679 037f 06       		.uleb128 0x6
 1680 0380 29030000 		.4byte	.LASF58
 1681 0384 08       		.byte	0x8
 1682 0385 62       		.byte	0x62
 1683 0386 32030000 		.4byte	0x332
 1684 038a 0C       		.byte	0xc
 1685 038b 06       		.uleb128 0x6
 1686 038c EE010000 		.4byte	.LASF59
 1687 0390 08       		.byte	0x8
 1688 0391 65       		.byte	0x65
ARM GAS  /tmp/ccHPpRbv.s 			page 31


 1689 0392 6D020000 		.4byte	0x26d
 1690 0396 10       		.byte	0x10
 1691 0397 06       		.uleb128 0x6
 1692 0398 58030000 		.4byte	.LASF60
 1693 039c 08       		.byte	0x8
 1694 039d 66       		.byte	0x66
 1695 039e 6D020000 		.4byte	0x26d
 1696 03a2 14       		.byte	0x14
 1697 03a3 06       		.uleb128 0x6
 1698 03a4 4E030000 		.4byte	.LASF61
 1699 03a8 08       		.byte	0x8
 1700 03a9 69       		.byte	0x69
 1701 03aa 6D020000 		.4byte	0x26d
 1702 03ae 18       		.byte	0x18
 1703 03af 00       		.byte	0
 1704 03b0 04       		.uleb128 0x4
 1705 03b1 03050000 		.4byte	.LASF62
 1706 03b5 08       		.byte	0x8
 1707 03b6 6B       		.byte	0x6b
 1708 03b7 5F030000 		.4byte	0x35f
 1709 03bb 05       		.uleb128 0x5
 1710 03bc EC020000 		.4byte	.LASF63
 1711 03c0 10       		.byte	0x10
 1712 03c1 09       		.byte	0x9
 1713 03c2 2C       		.byte	0x2c
 1714 03c3 EC030000 		.4byte	0x3ec
 1715 03c7 06       		.uleb128 0x6
 1716 03c8 B7000000 		.4byte	.LASF64
 1717 03cc 09       		.byte	0x9
 1718 03cd 2D       		.byte	0x2d
 1719 03ce 73020000 		.4byte	0x273
 1720 03d2 00       		.byte	0
 1721 03d3 06       		.uleb128 0x6
 1722 03d4 91050000 		.4byte	.LASF65
 1723 03d8 09       		.byte	0x9
 1724 03d9 2F       		.byte	0x2f
 1725 03da 6D020000 		.4byte	0x26d
 1726 03de 08       		.byte	0x8
 1727 03df 06       		.uleb128 0x6
 1728 03e0 B1040000 		.4byte	.LASF66
 1729 03e4 09       		.byte	0x9
 1730 03e5 31       		.byte	0x31
 1731 03e6 EC030000 		.4byte	0x3ec
 1732 03ea 0C       		.byte	0xc
 1733 03eb 00       		.byte	0
 1734 03ec 09       		.uleb128 0x9
 1735 03ed 04       		.byte	0x4
 1736 03ee BB030000 		.4byte	0x3bb
 1737 03f2 04       		.uleb128 0x4
 1738 03f3 EC020000 		.4byte	.LASF63
 1739 03f7 09       		.byte	0x9
 1740 03f8 33       		.byte	0x33
 1741 03f9 BB030000 		.4byte	0x3bb
 1742 03fd 04       		.uleb128 0x4
 1743 03fe 21050000 		.4byte	.LASF67
 1744 0402 0A       		.byte	0xa
 1745 0403 2C       		.byte	0x2c
ARM GAS  /tmp/ccHPpRbv.s 			page 32


 1746 0404 08040000 		.4byte	0x408
 1747 0408 05       		.uleb128 0x5
 1748 0409 21050000 		.4byte	.LASF67
 1749 040d 10       		.byte	0x10
 1750 040e 0A       		.byte	0xa
 1751 040f 31       		.byte	0x31
 1752 0410 45040000 		.4byte	0x445
 1753 0414 06       		.uleb128 0x6
 1754 0415 F6010000 		.4byte	.LASF68
 1755 0419 0A       		.byte	0xa
 1756 041a 32       		.byte	0x32
 1757 041b 45040000 		.4byte	0x445
 1758 041f 00       		.byte	0
 1759 0420 06       		.uleb128 0x6
 1760 0421 00040000 		.4byte	.LASF69
 1761 0425 0A       		.byte	0xa
 1762 0426 35       		.byte	0x35
 1763 0427 6D020000 		.4byte	0x26d
 1764 042b 04       		.byte	0x4
 1765 042c 06       		.uleb128 0x6
 1766 042d 60030000 		.4byte	.LASF70
 1767 0431 0A       		.byte	0xa
 1768 0432 37       		.byte	0x37
 1769 0433 17010000 		.4byte	0x117
 1770 0437 08       		.byte	0x8
 1771 0438 06       		.uleb128 0x6
 1772 0439 0C040000 		.4byte	.LASF71
 1773 043d 0A       		.byte	0xa
 1774 043e 3A       		.byte	0x3a
 1775 043f 22010000 		.4byte	0x122
 1776 0443 0C       		.byte	0xc
 1777 0444 00       		.byte	0
 1778 0445 09       		.uleb128 0x9
 1779 0446 04       		.byte	0x4
 1780 0447 FD030000 		.4byte	0x3fd
 1781 044b 05       		.uleb128 0x5
 1782 044c 62010000 		.4byte	.LASF72
 1783 0450 04       		.byte	0x4
 1784 0451 0A       		.byte	0xa
 1785 0452 41       		.byte	0x41
 1786 0453 64040000 		.4byte	0x464
 1787 0457 06       		.uleb128 0x6
 1788 0458 51050000 		.4byte	.LASF73
 1789 045c 0A       		.byte	0xa
 1790 045d 42       		.byte	0x42
 1791 045e 45040000 		.4byte	0x445
 1792 0462 00       		.byte	0
 1793 0463 00       		.byte	0
 1794 0464 04       		.uleb128 0x4
 1795 0465 62010000 		.4byte	.LASF72
 1796 0469 0A       		.byte	0xa
 1797 046a 45       		.byte	0x45
 1798 046b 4B040000 		.4byte	0x44b
 1799 046f 04       		.uleb128 0x4
 1800 0470 6E010000 		.4byte	.LASF74
 1801 0474 0A       		.byte	0xa
 1802 0475 4A       		.byte	0x4a
ARM GAS  /tmp/ccHPpRbv.s 			page 33


 1803 0476 7A040000 		.4byte	0x47a
 1804 047a 09       		.uleb128 0x9
 1805 047b 04       		.byte	0x4
 1806 047c 80040000 		.4byte	0x480
 1807 0480 0E       		.uleb128 0xe
 1808 0481 8B040000 		.4byte	0x48b
 1809 0485 0F       		.uleb128 0xf
 1810 0486 0C010000 		.4byte	0x10c
 1811 048a 00       		.byte	0
 1812 048b 10       		.uleb128 0x10
 1813 048c 04       		.byte	0x4
 1814 048d 06       		.byte	0x6
 1815 048e 96       		.byte	0x96
 1816 048f C0040000 		.4byte	0x4c0
 1817 0493 11       		.uleb128 0x11
 1818 0494 11000000 		.4byte	.LASF75
 1819 0498 06       		.byte	0x6
 1820 0499 9D       		.byte	0x9d
 1821 049a 01010000 		.4byte	0x101
 1822 049e 11       		.uleb128 0x11
 1823 049f 5D000000 		.4byte	.LASF76
 1824 04a3 06       		.byte	0x6
 1825 04a4 A4       		.byte	0xa4
 1826 04a5 01010000 		.4byte	0x101
 1827 04a9 11       		.uleb128 0x11
 1828 04aa 43050000 		.4byte	.LASF77
 1829 04ae 06       		.byte	0x6
 1830 04af AB       		.byte	0xab
 1831 04b0 A9020000 		.4byte	0x2a9
 1832 04b4 11       		.uleb128 0x11
 1833 04b5 59040000 		.4byte	.LASF78
 1834 04b9 06       		.byte	0x6
 1835 04ba B2       		.byte	0xb2
 1836 04bb 17010000 		.4byte	0x117
 1837 04bf 00       		.byte	0
 1838 04c0 09       		.uleb128 0x9
 1839 04c1 04       		.byte	0x4
 1840 04c2 C6040000 		.4byte	0x4c6
 1841 04c6 12       		.uleb128 0x12
 1842 04c7 CB040000 		.4byte	0x4cb
 1843 04cb 03       		.uleb128 0x3
 1844 04cc 01       		.byte	0x1
 1845 04cd 08       		.byte	0x8
 1846 04ce AC040000 		.4byte	.LASF79
 1847 04d2 09       		.uleb128 0x9
 1848 04d3 04       		.byte	0x4
 1849 04d4 AB020000 		.4byte	0x2ab
 1850 04d8 09       		.uleb128 0x9
 1851 04d9 04       		.byte	0x4
 1852 04da F2030000 		.4byte	0x3f2
 1853 04de 13       		.uleb128 0x13
 1854 04df D6010000 		.4byte	.LASF81
 1855 04e3 01       		.byte	0x1
 1856 04e4 55       		.byte	0x55
 1857 04e5 00000000 		.4byte	.LFB7
 1858 04e9 34000000 		.4byte	.LFE7-.LFB7
 1859 04ed 01       		.uleb128 0x1
ARM GAS  /tmp/ccHPpRbv.s 			page 34


 1860 04ee 9C       		.byte	0x9c
 1861 04ef 69050000 		.4byte	0x569
 1862 04f3 14       		.uleb128 0x14
 1863 04f4 65737000 		.ascii	"esp\000"
 1864 04f8 01       		.byte	0x1
 1865 04f9 55       		.byte	0x55
 1866 04fa 69050000 		.4byte	0x569
 1867 04fe 00000000 		.4byte	.LLST0
 1868 0502 14       		.uleb128 0x14
 1869 0503 656C7000 		.ascii	"elp\000"
 1870 0507 01       		.byte	0x1
 1871 0508 55       		.byte	0x55
 1872 0509 45040000 		.4byte	0x445
 1873 050d 2C000000 		.4byte	.LLST1
 1874 0511 15       		.uleb128 0x15
 1875 0512 36010000 		.4byte	.LASF80
 1876 0516 01       		.byte	0x1
 1877 0517 55       		.byte	0x55
 1878 0518 17010000 		.4byte	0x117
 1879 051c 58000000 		.4byte	.LLST2
 1880 0520 16       		.uleb128 0x16
 1881 0521 08000000 		.4byte	.LBB2
 1882 0525 06000000 		.4byte	.LBE2-.LBB2
 1883 0529 3B050000 		.4byte	0x53b
 1884 052d 17       		.uleb128 0x17
 1885 052e 746D7000 		.ascii	"tmp\000"
 1886 0532 01       		.byte	0x1
 1887 0533 59       		.byte	0x59
 1888 0534 AD000000 		.4byte	0xad
 1889 0538 01       		.uleb128 0x1
 1890 0539 53       		.byte	0x53
 1891 053a 00       		.byte	0
 1892 053b 16       		.uleb128 0x16
 1893 053c 28000000 		.4byte	.LBB3
 1894 0540 0C000000 		.4byte	.LBE3-.LBB3
 1895 0544 56050000 		.4byte	0x556
 1896 0548 17       		.uleb128 0x17
 1897 0549 746D7000 		.ascii	"tmp\000"
 1898 054d 01       		.byte	0x1
 1899 054e 5F       		.byte	0x5f
 1900 054f AD000000 		.4byte	0xad
 1901 0553 01       		.uleb128 0x1
 1902 0554 53       		.byte	0x53
 1903 0555 00       		.byte	0
 1904 0556 18       		.uleb128 0x18
 1905 0557 12000000 		.4byte	.LVL1
 1906 055b E70E0000 		.4byte	0xee7
 1907 055f 18       		.uleb128 0x18
 1908 0560 28000000 		.4byte	.LVL3
 1909 0564 EE0E0000 		.4byte	0xeee
 1910 0568 00       		.byte	0
 1911 0569 09       		.uleb128 0x9
 1912 056a 04       		.byte	0x4
 1913 056b 64040000 		.4byte	0x464
 1914 056f 13       		.uleb128 0x13
 1915 0570 FE010000 		.4byte	.LASF82
 1916 0574 01       		.byte	0x1
ARM GAS  /tmp/ccHPpRbv.s 			page 35


 1917 0575 6F       		.byte	0x6f
 1918 0576 00000000 		.4byte	.LFB8
 1919 057a 32000000 		.4byte	.LFE8-.LFB8
 1920 057e 01       		.uleb128 0x1
 1921 057f 9C       		.byte	0x9c
 1922 0580 F8050000 		.4byte	0x5f8
 1923 0584 14       		.uleb128 0x14
 1924 0585 65737000 		.ascii	"esp\000"
 1925 0589 01       		.byte	0x1
 1926 058a 6F       		.byte	0x6f
 1927 058b 69050000 		.4byte	0x569
 1928 058f 84000000 		.4byte	.LLST3
 1929 0593 14       		.uleb128 0x14
 1930 0594 656C7000 		.ascii	"elp\000"
 1931 0598 01       		.byte	0x1
 1932 0599 6F       		.byte	0x6f
 1933 059a 45040000 		.4byte	0x445
 1934 059e A2000000 		.4byte	.LLST4
 1935 05a2 19       		.uleb128 0x19
 1936 05a3 7000     		.ascii	"p\000"
 1937 05a5 01       		.byte	0x1
 1938 05a6 70       		.byte	0x70
 1939 05a7 45040000 		.4byte	0x445
 1940 05ab C0000000 		.4byte	.LLST5
 1941 05af 16       		.uleb128 0x16
 1942 05b0 06000000 		.4byte	.LBB4
 1943 05b4 06000000 		.4byte	.LBE4-.LBB4
 1944 05b8 CA050000 		.4byte	0x5ca
 1945 05bc 17       		.uleb128 0x17
 1946 05bd 746D7000 		.ascii	"tmp\000"
 1947 05c1 01       		.byte	0x1
 1948 05c2 75       		.byte	0x75
 1949 05c3 AD000000 		.4byte	0xad
 1950 05c7 01       		.uleb128 0x1
 1951 05c8 53       		.byte	0x53
 1952 05c9 00       		.byte	0
 1953 05ca 16       		.uleb128 0x16
 1954 05cb 2A000000 		.4byte	.LBB5
 1955 05cf 08000000 		.4byte	.LBE5-.LBB5
 1956 05d3 E5050000 		.4byte	0x5e5
 1957 05d7 17       		.uleb128 0x17
 1958 05d8 746D7000 		.ascii	"tmp\000"
 1959 05dc 01       		.byte	0x1
 1960 05dd 7D       		.byte	0x7d
 1961 05de AD000000 		.4byte	0xad
 1962 05e2 01       		.uleb128 0x1
 1963 05e3 53       		.byte	0x53
 1964 05e4 00       		.byte	0
 1965 05e5 18       		.uleb128 0x18
 1966 05e6 10000000 		.4byte	.LVL7
 1967 05ea E70E0000 		.4byte	0xee7
 1968 05ee 18       		.uleb128 0x18
 1969 05ef 2A000000 		.4byte	.LVL10
 1970 05f3 EE0E0000 		.4byte	0xeee
 1971 05f7 00       		.byte	0
 1972 05f8 1A       		.uleb128 0x1a
 1973 05f9 A4010000 		.4byte	.LASF83
ARM GAS  /tmp/ccHPpRbv.s 			page 36


 1974 05fd 01       		.byte	0x1
 1975 05fe 88       		.byte	0x88
 1976 05ff 17010000 		.4byte	0x117
 1977 0603 00000000 		.4byte	.LFB9
 1978 0607 30000000 		.4byte	.LFE9-.LFB9
 1979 060b 01       		.uleb128 0x1
 1980 060c 9C       		.byte	0x9c
 1981 060d 76060000 		.4byte	0x676
 1982 0611 15       		.uleb128 0x15
 1983 0612 36010000 		.4byte	.LASF80
 1984 0616 01       		.byte	0x1
 1985 0617 88       		.byte	0x88
 1986 0618 17010000 		.4byte	0x117
 1987 061c E9000000 		.4byte	.LLST6
 1988 0620 19       		.uleb128 0x19
 1989 0621 6D00     		.ascii	"m\000"
 1990 0623 01       		.byte	0x1
 1991 0624 89       		.byte	0x89
 1992 0625 17010000 		.4byte	0x117
 1993 0629 15010000 		.4byte	.LLST7
 1994 062d 16       		.uleb128 0x16
 1995 062e 04000000 		.4byte	.LBB6
 1996 0632 06000000 		.4byte	.LBE6-.LBB6
 1997 0636 48060000 		.4byte	0x648
 1998 063a 17       		.uleb128 0x17
 1999 063b 746D7000 		.ascii	"tmp\000"
 2000 063f 01       		.byte	0x1
 2001 0640 8B       		.byte	0x8b
 2002 0641 AD000000 		.4byte	0xad
 2003 0645 01       		.uleb128 0x1
 2004 0646 53       		.byte	0x53
 2005 0647 00       		.byte	0
 2006 0648 16       		.uleb128 0x16
 2007 0649 22000000 		.4byte	.LBB7
 2008 064d 06000000 		.4byte	.LBE7-.LBB7
 2009 0651 63060000 		.4byte	0x663
 2010 0655 17       		.uleb128 0x17
 2011 0656 746D7000 		.ascii	"tmp\000"
 2012 065a 01       		.byte	0x1
 2013 065b 90       		.byte	0x90
 2014 065c AD000000 		.4byte	0xad
 2015 0660 01       		.uleb128 0x1
 2016 0661 53       		.byte	0x53
 2017 0662 00       		.byte	0
 2018 0663 18       		.uleb128 0x18
 2019 0664 0E000000 		.4byte	.LVL12
 2020 0668 E70E0000 		.4byte	0xee7
 2021 066c 18       		.uleb128 0x18
 2022 066d 22000000 		.4byte	.LVL14
 2023 0671 EE0E0000 		.4byte	0xeee
 2024 0675 00       		.byte	0
 2025 0676 1A       		.uleb128 0x1a
 2026 0677 4E000000 		.4byte	.LASF84
 2027 067b 01       		.byte	0x1
 2028 067c 9D       		.byte	0x9d
 2029 067d 17010000 		.4byte	0x117
 2030 0681 00000000 		.4byte	.LFB10
ARM GAS  /tmp/ccHPpRbv.s 			page 37


 2031 0685 2C000000 		.4byte	.LFE10-.LFB10
 2032 0689 01       		.uleb128 0x1
 2033 068a 9C       		.byte	0x9c
 2034 068b E7060000 		.4byte	0x6e7
 2035 068f 15       		.uleb128 0x15
 2036 0690 36010000 		.4byte	.LASF80
 2037 0694 01       		.byte	0x1
 2038 0695 9D       		.byte	0x9d
 2039 0696 17010000 		.4byte	0x117
 2040 069a 33010000 		.4byte	.LLST8
 2041 069e 16       		.uleb128 0x16
 2042 069f 04000000 		.4byte	.LBB8
 2043 06a3 06000000 		.4byte	.LBE8-.LBB8
 2044 06a7 B9060000 		.4byte	0x6b9
 2045 06ab 17       		.uleb128 0x17
 2046 06ac 746D7000 		.ascii	"tmp\000"
 2047 06b0 01       		.byte	0x1
 2048 06b1 9F       		.byte	0x9f
 2049 06b2 AD000000 		.4byte	0xad
 2050 06b6 01       		.uleb128 0x1
 2051 06b7 53       		.byte	0x53
 2052 06b8 00       		.byte	0
 2053 06b9 16       		.uleb128 0x16
 2054 06ba 1C000000 		.4byte	.LBB9
 2055 06be 06000000 		.4byte	.LBE9-.LBB9
 2056 06c2 D4060000 		.4byte	0x6d4
 2057 06c6 17       		.uleb128 0x17
 2058 06c7 746D7000 		.ascii	"tmp\000"
 2059 06cb 01       		.byte	0x1
 2060 06cc A3       		.byte	0xa3
 2061 06cd AD000000 		.4byte	0xad
 2062 06d1 01       		.uleb128 0x1
 2063 06d2 53       		.byte	0x53
 2064 06d3 00       		.byte	0
 2065 06d4 18       		.uleb128 0x18
 2066 06d5 0E000000 		.4byte	.LVL17
 2067 06d9 E70E0000 		.4byte	0xee7
 2068 06dd 18       		.uleb128 0x18
 2069 06de 1C000000 		.4byte	.LVL20
 2070 06e2 EE0E0000 		.4byte	0xeee
 2071 06e6 00       		.byte	0
 2072 06e7 1A       		.uleb128 0x1a
 2073 06e8 59050000 		.4byte	.LASF85
 2074 06ec 01       		.byte	0x1
 2075 06ed D1       		.byte	0xd1
 2076 06ee 22010000 		.4byte	0x122
 2077 06f2 00000000 		.4byte	.LFB12
 2078 06f6 22000000 		.4byte	.LFE12-.LFB12
 2079 06fa 01       		.uleb128 0x1
 2080 06fb 9C       		.byte	0x9c
 2081 06fc 65070000 		.4byte	0x765
 2082 0700 14       		.uleb128 0x14
 2083 0701 656C7000 		.ascii	"elp\000"
 2084 0705 01       		.byte	0x1
 2085 0706 D1       		.byte	0xd1
 2086 0707 45040000 		.4byte	0x445
 2087 070b 75010000 		.4byte	.LLST9
ARM GAS  /tmp/ccHPpRbv.s 			page 38


 2088 070f 1B       		.uleb128 0x1b
 2089 0710 1B050000 		.4byte	.LASF86
 2090 0714 01       		.byte	0x1
 2091 0715 D2       		.byte	0xd2
 2092 0716 22010000 		.4byte	0x122
 2093 071a 01       		.uleb128 0x1
 2094 071b 56       		.byte	0x56
 2095 071c 16       		.uleb128 0x16
 2096 071d 04000000 		.4byte	.LBB10
 2097 0721 06000000 		.4byte	.LBE10-.LBB10
 2098 0725 37070000 		.4byte	0x737
 2099 0729 17       		.uleb128 0x17
 2100 072a 746D7000 		.ascii	"tmp\000"
 2101 072e 01       		.byte	0x1
 2102 072f D4       		.byte	0xd4
 2103 0730 AD000000 		.4byte	0xad
 2104 0734 01       		.uleb128 0x1
 2105 0735 53       		.byte	0x53
 2106 0736 00       		.byte	0
 2107 0737 16       		.uleb128 0x16
 2108 0738 18000000 		.4byte	.LBB11
 2109 073c 06000000 		.4byte	.LBE11-.LBB11
 2110 0740 52070000 		.4byte	0x752
 2111 0744 17       		.uleb128 0x17
 2112 0745 746D7000 		.ascii	"tmp\000"
 2113 0749 01       		.byte	0x1
 2114 074a D9       		.byte	0xd9
 2115 074b AD000000 		.4byte	0xad
 2116 074f 01       		.uleb128 0x1
 2117 0750 53       		.byte	0x53
 2118 0751 00       		.byte	0
 2119 0752 18       		.uleb128 0x18
 2120 0753 0E000000 		.4byte	.LVL23
 2121 0757 E70E0000 		.4byte	0xee7
 2122 075b 18       		.uleb128 0x18
 2123 075c 18000000 		.4byte	.LVL25
 2124 0760 EE0E0000 		.4byte	0xeee
 2125 0764 00       		.byte	0
 2126 0765 13       		.uleb128 0x13
 2127 0766 B8050000 		.4byte	.LASF87
 2128 076a 01       		.byte	0x1
 2129 076b FB       		.byte	0xfb
 2130 076c 00000000 		.4byte	.LFB14
 2131 0770 38000000 		.4byte	.LFE14-.LFB14
 2132 0774 01       		.uleb128 0x1
 2133 0775 9C       		.byte	0x9c
 2134 0776 B1070000 		.4byte	0x7b1
 2135 077a 14       		.uleb128 0x14
 2136 077b 747000   		.ascii	"tp\000"
 2137 077e 01       		.byte	0x1
 2138 077f FB       		.byte	0xfb
 2139 0780 6D020000 		.4byte	0x26d
 2140 0784 93010000 		.4byte	.LLST10
 2141 0788 15       		.uleb128 0x15
 2142 0789 36010000 		.4byte	.LASF80
 2143 078d 01       		.byte	0x1
 2144 078e FB       		.byte	0xfb
ARM GAS  /tmp/ccHPpRbv.s 			page 39


 2145 078f 17010000 		.4byte	0x117
 2146 0793 B1010000 		.4byte	.LLST11
 2147 0797 18       		.uleb128 0x18
 2148 0798 0A000000 		.4byte	.LVL27
 2149 079c F50E0000 		.4byte	0xef5
 2150 07a0 1C       		.uleb128 0x1c
 2151 07a1 32000000 		.4byte	.LVL28
 2152 07a5 FC0E0000 		.4byte	0xefc
 2153 07a9 1D       		.uleb128 0x1d
 2154 07aa 01       		.uleb128 0x1
 2155 07ab 50       		.byte	0x50
 2156 07ac 02       		.uleb128 0x2
 2157 07ad 74       		.byte	0x74
 2158 07ae 00       		.sleb128 0
 2159 07af 00       		.byte	0
 2160 07b0 00       		.byte	0
 2161 07b1 13       		.uleb128 0x13
 2162 07b2 FD000000 		.4byte	.LASF88
 2163 07b6 01       		.byte	0x1
 2164 07b7 B8       		.byte	0xb8
 2165 07b8 00000000 		.4byte	.LFB11
 2166 07bc 24000000 		.4byte	.LFE11-.LFB11
 2167 07c0 01       		.uleb128 0x1
 2168 07c1 9C       		.byte	0x9c
 2169 07c2 04080000 		.4byte	0x804
 2170 07c6 14       		.uleb128 0x14
 2171 07c7 65737000 		.ascii	"esp\000"
 2172 07cb 01       		.byte	0x1
 2173 07cc B8       		.byte	0xb8
 2174 07cd 69050000 		.4byte	0x569
 2175 07d1 CF010000 		.4byte	.LLST12
 2176 07d5 15       		.uleb128 0x15
 2177 07d6 1B050000 		.4byte	.LASF86
 2178 07da 01       		.byte	0x1
 2179 07db B8       		.byte	0xb8
 2180 07dc 22010000 		.4byte	0x122
 2181 07e0 ED010000 		.4byte	.LLST13
 2182 07e4 17       		.uleb128 0x17
 2183 07e5 656C7000 		.ascii	"elp\000"
 2184 07e9 01       		.byte	0x1
 2185 07ea B9       		.byte	0xb9
 2186 07eb 45040000 		.4byte	0x445
 2187 07ef 01       		.uleb128 0x1
 2188 07f0 54       		.byte	0x54
 2189 07f1 18       		.uleb128 0x18
 2190 07f2 0A000000 		.4byte	.LVL30
 2191 07f6 F50E0000 		.4byte	0xef5
 2192 07fa 18       		.uleb128 0x18
 2193 07fb 1C000000 		.4byte	.LVL32
 2194 07ff 65070000 		.4byte	0x765
 2195 0803 00       		.byte	0
 2196 0804 13       		.uleb128 0x13
 2197 0805 2B000000 		.4byte	.LASF89
 2198 0809 01       		.byte	0x1
 2199 080a E5       		.byte	0xe5
 2200 080b 00000000 		.4byte	.LFB13
 2201 080f 28000000 		.4byte	.LFE13-.LFB13
ARM GAS  /tmp/ccHPpRbv.s 			page 40


 2202 0813 01       		.uleb128 0x1
 2203 0814 9C       		.byte	0x9c
 2204 0815 A2080000 		.4byte	0x8a2
 2205 0819 14       		.uleb128 0x14
 2206 081a 747000   		.ascii	"tp\000"
 2207 081d 01       		.byte	0x1
 2208 081e E5       		.byte	0xe5
 2209 081f 6D020000 		.4byte	0x26d
 2210 0823 0B020000 		.4byte	.LLST14
 2211 0827 15       		.uleb128 0x15
 2212 0828 36010000 		.4byte	.LASF80
 2213 082c 01       		.byte	0x1
 2214 082d E5       		.byte	0xe5
 2215 082e 17010000 		.4byte	0x117
 2216 0832 29020000 		.4byte	.LLST15
 2217 0836 16       		.uleb128 0x16
 2218 0837 06000000 		.4byte	.LBB12
 2219 083b 06000000 		.4byte	.LBE12-.LBB12
 2220 083f 51080000 		.4byte	0x851
 2221 0843 17       		.uleb128 0x17
 2222 0844 746D7000 		.ascii	"tmp\000"
 2223 0848 01       		.byte	0x1
 2224 0849 E9       		.byte	0xe9
 2225 084a AD000000 		.4byte	0xad
 2226 084e 01       		.uleb128 0x1
 2227 084f 53       		.byte	0x53
 2228 0850 00       		.byte	0
 2229 0851 16       		.uleb128 0x16
 2230 0852 20000000 		.4byte	.LBB13
 2231 0856 08000000 		.4byte	.LBE13-.LBB13
 2232 085a 6C080000 		.4byte	0x86c
 2233 085e 17       		.uleb128 0x17
 2234 085f 746D7000 		.ascii	"tmp\000"
 2235 0863 01       		.byte	0x1
 2236 0864 EC       		.byte	0xec
 2237 0865 AD000000 		.4byte	0xad
 2238 0869 01       		.uleb128 0x1
 2239 086a 53       		.byte	0x53
 2240 086b 00       		.byte	0
 2241 086c 18       		.uleb128 0x18
 2242 086d 10000000 		.4byte	.LVL35
 2243 0871 E70E0000 		.4byte	0xee7
 2244 0875 1E       		.uleb128 0x1e
 2245 0876 18000000 		.4byte	.LVL36
 2246 087a 65070000 		.4byte	0x765
 2247 087e 8F080000 		.4byte	0x88f
 2248 0882 1D       		.uleb128 0x1d
 2249 0883 01       		.uleb128 0x1
 2250 0884 51       		.byte	0x51
 2251 0885 02       		.uleb128 0x2
 2252 0886 74       		.byte	0x74
 2253 0887 00       		.sleb128 0
 2254 0888 1D       		.uleb128 0x1d
 2255 0889 01       		.uleb128 0x1
 2256 088a 50       		.byte	0x50
 2257 088b 02       		.uleb128 0x2
 2258 088c 75       		.byte	0x75
ARM GAS  /tmp/ccHPpRbv.s 			page 41


 2259 088d 00       		.sleb128 0
 2260 088e 00       		.byte	0
 2261 088f 18       		.uleb128 0x18
 2262 0890 1C000000 		.4byte	.LVL37
 2263 0894 110F0000 		.4byte	0xf11
 2264 0898 18       		.uleb128 0x18
 2265 0899 20000000 		.4byte	.LVL38
 2266 089d EE0E0000 		.4byte	0xeee
 2267 08a1 00       		.byte	0
 2268 08a2 1F       		.uleb128 0x1f
 2269 08a3 44010000 		.4byte	.LASF90
 2270 08a7 01       		.byte	0x1
 2271 08a8 1601     		.2byte	0x116
 2272 08aa 00000000 		.4byte	.LFB15
 2273 08ae 28000000 		.4byte	.LFE15-.LFB15
 2274 08b2 01       		.uleb128 0x1
 2275 08b3 9C       		.byte	0x9c
 2276 08b4 46090000 		.4byte	0x946
 2277 08b8 20       		.uleb128 0x20
 2278 08b9 65737000 		.ascii	"esp\000"
 2279 08bd 01       		.byte	0x1
 2280 08be 1601     		.2byte	0x116
 2281 08c0 69050000 		.4byte	0x569
 2282 08c4 47020000 		.4byte	.LLST16
 2283 08c8 21       		.uleb128 0x21
 2284 08c9 1B050000 		.4byte	.LASF86
 2285 08cd 01       		.byte	0x1
 2286 08ce 1601     		.2byte	0x116
 2287 08d0 22010000 		.4byte	0x122
 2288 08d4 65020000 		.4byte	.LLST17
 2289 08d8 16       		.uleb128 0x16
 2290 08d9 06000000 		.4byte	.LBB14
 2291 08dd 06000000 		.4byte	.LBE14-.LBB14
 2292 08e1 F4080000 		.4byte	0x8f4
 2293 08e5 22       		.uleb128 0x22
 2294 08e6 746D7000 		.ascii	"tmp\000"
 2295 08ea 01       		.byte	0x1
 2296 08eb 1801     		.2byte	0x118
 2297 08ed AD000000 		.4byte	0xad
 2298 08f1 01       		.uleb128 0x1
 2299 08f2 53       		.byte	0x53
 2300 08f3 00       		.byte	0
 2301 08f4 16       		.uleb128 0x16
 2302 08f5 20000000 		.4byte	.LBB15
 2303 08f9 08000000 		.4byte	.LBE15-.LBB15
 2304 08fd 10090000 		.4byte	0x910
 2305 0901 22       		.uleb128 0x22
 2306 0902 746D7000 		.ascii	"tmp\000"
 2307 0906 01       		.byte	0x1
 2308 0907 1B01     		.2byte	0x11b
 2309 0909 AD000000 		.4byte	0xad
 2310 090d 01       		.uleb128 0x1
 2311 090e 53       		.byte	0x53
 2312 090f 00       		.byte	0
 2313 0910 18       		.uleb128 0x18
 2314 0911 10000000 		.4byte	.LVL40
 2315 0915 E70E0000 		.4byte	0xee7
ARM GAS  /tmp/ccHPpRbv.s 			page 42


 2316 0919 1E       		.uleb128 0x1e
 2317 091a 18000000 		.4byte	.LVL41
 2318 091e B1070000 		.4byte	0x7b1
 2319 0922 33090000 		.4byte	0x933
 2320 0926 1D       		.uleb128 0x1d
 2321 0927 01       		.uleb128 0x1
 2322 0928 51       		.byte	0x51
 2323 0929 02       		.uleb128 0x2
 2324 092a 74       		.byte	0x74
 2325 092b 00       		.sleb128 0
 2326 092c 1D       		.uleb128 0x1d
 2327 092d 01       		.uleb128 0x1
 2328 092e 50       		.byte	0x50
 2329 092f 02       		.uleb128 0x2
 2330 0930 75       		.byte	0x75
 2331 0931 00       		.sleb128 0
 2332 0932 00       		.byte	0
 2333 0933 18       		.uleb128 0x18
 2334 0934 1C000000 		.4byte	.LVL42
 2335 0938 110F0000 		.4byte	0xf11
 2336 093c 18       		.uleb128 0x18
 2337 093d 20000000 		.4byte	.LVL43
 2338 0941 EE0E0000 		.4byte	0xeee
 2339 0945 00       		.byte	0
 2340 0946 23       		.uleb128 0x23
 2341 0947 42040000 		.4byte	.LASF91
 2342 094b 01       		.byte	0x1
 2343 094c 2901     		.2byte	0x129
 2344 094e 22010000 		.4byte	0x122
 2345 0952 00000000 		.4byte	.LFB16
 2346 0956 0A000000 		.4byte	.LFE16-.LFB16
 2347 095a 01       		.uleb128 0x1
 2348 095b 9C       		.byte	0x9c
 2349 095c 7F090000 		.4byte	0x97f
 2350 0960 20       		.uleb128 0x20
 2351 0961 656C7000 		.ascii	"elp\000"
 2352 0965 01       		.byte	0x1
 2353 0966 2901     		.2byte	0x129
 2354 0968 45040000 		.4byte	0x445
 2355 096c 83020000 		.4byte	.LLST18
 2356 0970 24       		.uleb128 0x24
 2357 0971 1B050000 		.4byte	.LASF86
 2358 0975 01       		.byte	0x1
 2359 0976 2A01     		.2byte	0x12a
 2360 0978 22010000 		.4byte	0x122
 2361 097c 01       		.uleb128 0x1
 2362 097d 50       		.byte	0x50
 2363 097e 00       		.byte	0
 2364 097f 1F       		.uleb128 0x1f
 2365 0980 13030000 		.4byte	.LASF92
 2366 0984 01       		.byte	0x1
 2367 0985 3B01     		.2byte	0x13b
 2368 0987 00000000 		.4byte	.LFB17
 2369 098b 40000000 		.4byte	.LFE17-.LFB17
 2370 098f 01       		.uleb128 0x1
 2371 0990 9C       		.byte	0x9c
 2372 0991 E9090000 		.4byte	0x9e9
ARM GAS  /tmp/ccHPpRbv.s 			page 43


 2373 0995 21       		.uleb128 0x21
 2374 0996 73030000 		.4byte	.LASF93
 2375 099a 01       		.byte	0x1
 2376 099b 3B01     		.2byte	0x13b
 2377 099d E9090000 		.4byte	0x9e9
 2378 09a1 A1020000 		.4byte	.LLST19
 2379 09a5 21       		.uleb128 0x21
 2380 09a6 36010000 		.4byte	.LASF80
 2381 09aa 01       		.byte	0x1
 2382 09ab 3B01     		.2byte	0x13b
 2383 09ad 17010000 		.4byte	0x117
 2384 09b1 CD020000 		.4byte	.LLST20
 2385 09b5 25       		.uleb128 0x25
 2386 09b6 65696400 		.ascii	"eid\000"
 2387 09ba 01       		.byte	0x1
 2388 09bb 3C01     		.2byte	0x13c
 2389 09bd 0C010000 		.4byte	0x10c
 2390 09c1 EB020000 		.4byte	.LLST21
 2391 09c5 1E       		.uleb128 0x1e
 2392 09c6 24000000 		.4byte	.LVL49
 2393 09ca 180F0000 		.4byte	0xf18
 2394 09ce DC090000 		.4byte	0x9dc
 2395 09d2 1D       		.uleb128 0x1d
 2396 09d3 01       		.uleb128 0x1
 2397 09d4 50       		.byte	0x50
 2398 09d5 05       		.uleb128 0x5
 2399 09d6 03       		.byte	0x3
 2400 09d7 00000000 		.4byte	.LC0
 2401 09db 00       		.byte	0
 2402 09dc 26       		.uleb128 0x26
 2403 09dd 30000000 		.4byte	.LVL51
 2404 09e1 1D       		.uleb128 0x1d
 2405 09e2 01       		.uleb128 0x1
 2406 09e3 50       		.byte	0x50
 2407 09e4 02       		.uleb128 0x2
 2408 09e5 74       		.byte	0x74
 2409 09e6 00       		.sleb128 0
 2410 09e7 00       		.byte	0
 2411 09e8 00       		.byte	0
 2412 09e9 09       		.uleb128 0x9
 2413 09ea 04       		.byte	0x4
 2414 09eb EF090000 		.4byte	0x9ef
 2415 09ef 12       		.uleb128 0x12
 2416 09f0 6F040000 		.4byte	0x46f
 2417 09f4 23       		.uleb128 0x23
 2418 09f5 FD020000 		.4byte	.LASF94
 2419 09f9 01       		.byte	0x1
 2420 09fa 5E01     		.2byte	0x15e
 2421 09fc 17010000 		.4byte	0x117
 2422 0a00 00000000 		.4byte	.LFB18
 2423 0a04 44000000 		.4byte	.LFE18-.LFB18
 2424 0a08 01       		.uleb128 0x1
 2425 0a09 9C       		.byte	0x9c
 2426 0a0a 9A0A0000 		.4byte	0xa9a
 2427 0a0e 21       		.uleb128 0x21
 2428 0a0f 36010000 		.4byte	.LASF80
 2429 0a13 01       		.byte	0x1
ARM GAS  /tmp/ccHPpRbv.s 			page 44


 2430 0a14 5E01     		.2byte	0x15e
 2431 0a16 17010000 		.4byte	0x117
 2432 0a1a 0A030000 		.4byte	.LLST22
 2433 0a1e 25       		.uleb128 0x25
 2434 0a1f 63747000 		.ascii	"ctp\000"
 2435 0a23 01       		.byte	0x1
 2436 0a24 5F01     		.2byte	0x15f
 2437 0a26 6D020000 		.4byte	0x26d
 2438 0a2a 36030000 		.4byte	.LLST23
 2439 0a2e 25       		.uleb128 0x25
 2440 0a2f 6D00     		.ascii	"m\000"
 2441 0a31 01       		.byte	0x1
 2442 0a32 6001     		.2byte	0x160
 2443 0a34 17010000 		.4byte	0x117
 2444 0a38 49030000 		.4byte	.LLST24
 2445 0a3c 16       		.uleb128 0x16
 2446 0a3d 08000000 		.4byte	.LBB16
 2447 0a41 06000000 		.4byte	.LBE16-.LBB16
 2448 0a45 580A0000 		.4byte	0xa58
 2449 0a49 22       		.uleb128 0x22
 2450 0a4a 746D7000 		.ascii	"tmp\000"
 2451 0a4e 01       		.byte	0x1
 2452 0a4f 6201     		.2byte	0x162
 2453 0a51 AD000000 		.4byte	0xad
 2454 0a55 01       		.uleb128 0x1
 2455 0a56 53       		.byte	0x53
 2456 0a57 00       		.byte	0
 2457 0a58 16       		.uleb128 0x16
 2458 0a59 34000000 		.4byte	.LBB17
 2459 0a5d 06000000 		.4byte	.LBE17-.LBB17
 2460 0a61 740A0000 		.4byte	0xa74
 2461 0a65 22       		.uleb128 0x22
 2462 0a66 746D7000 		.ascii	"tmp\000"
 2463 0a6a 01       		.byte	0x1
 2464 0a6b 6C01     		.2byte	0x16c
 2465 0a6d AD000000 		.4byte	0xad
 2466 0a71 01       		.uleb128 0x1
 2467 0a72 53       		.byte	0x53
 2468 0a73 00       		.byte	0
 2469 0a74 18       		.uleb128 0x18
 2470 0a75 12000000 		.4byte	.LVL56
 2471 0a79 E70E0000 		.4byte	0xee7
 2472 0a7d 1E       		.uleb128 0x1e
 2473 0a7e 20000000 		.4byte	.LVL59
 2474 0a82 290F0000 		.4byte	0xf29
 2475 0a86 900A0000 		.4byte	0xa90
 2476 0a8a 1D       		.uleb128 0x1d
 2477 0a8b 01       		.uleb128 0x1
 2478 0a8c 50       		.byte	0x50
 2479 0a8d 01       		.uleb128 0x1
 2480 0a8e 38       		.byte	0x38
 2481 0a8f 00       		.byte	0
 2482 0a90 18       		.uleb128 0x18
 2483 0a91 34000000 		.4byte	.LVL63
 2484 0a95 EE0E0000 		.4byte	0xeee
 2485 0a99 00       		.byte	0
 2486 0a9a 23       		.uleb128 0x23
ARM GAS  /tmp/ccHPpRbv.s 			page 45


 2487 0a9b DB000000 		.4byte	.LASF95
 2488 0a9f 01       		.byte	0x1
 2489 0aa0 7B01     		.2byte	0x17b
 2490 0aa2 17010000 		.4byte	0x117
 2491 0aa6 00000000 		.4byte	.LFB19
 2492 0aaa 40000000 		.4byte	.LFE19-.LFB19
 2493 0aae 01       		.uleb128 0x1
 2494 0aaf 9C       		.byte	0x9c
 2495 0ab0 400B0000 		.4byte	0xb40
 2496 0ab4 21       		.uleb128 0x21
 2497 0ab5 36010000 		.4byte	.LASF80
 2498 0ab9 01       		.byte	0x1
 2499 0aba 7B01     		.2byte	0x17b
 2500 0abc 17010000 		.4byte	0x117
 2501 0ac0 8D030000 		.4byte	.LLST25
 2502 0ac4 25       		.uleb128 0x25
 2503 0ac5 63747000 		.ascii	"ctp\000"
 2504 0ac9 01       		.byte	0x1
 2505 0aca 7C01     		.2byte	0x17c
 2506 0acc 6D020000 		.4byte	0x26d
 2507 0ad0 B9030000 		.4byte	.LLST26
 2508 0ad4 25       		.uleb128 0x25
 2509 0ad5 6D00     		.ascii	"m\000"
 2510 0ad7 01       		.byte	0x1
 2511 0ad8 7D01     		.2byte	0x17d
 2512 0ada 17010000 		.4byte	0x117
 2513 0ade CC030000 		.4byte	.LLST27
 2514 0ae2 16       		.uleb128 0x16
 2515 0ae3 08000000 		.4byte	.LBB18
 2516 0ae7 06000000 		.4byte	.LBE18-.LBB18
 2517 0aeb FE0A0000 		.4byte	0xafe
 2518 0aef 22       		.uleb128 0x22
 2519 0af0 746D7000 		.ascii	"tmp\000"
 2520 0af4 01       		.byte	0x1
 2521 0af5 7F01     		.2byte	0x17f
 2522 0af7 AD000000 		.4byte	0xad
 2523 0afb 01       		.uleb128 0x1
 2524 0afc 53       		.byte	0x53
 2525 0afd 00       		.byte	0
 2526 0afe 16       		.uleb128 0x16
 2527 0aff 30000000 		.4byte	.LBB19
 2528 0b03 06000000 		.4byte	.LBE19-.LBB19
 2529 0b07 1A0B0000 		.4byte	0xb1a
 2530 0b0b 22       		.uleb128 0x22
 2531 0b0c 746D7000 		.ascii	"tmp\000"
 2532 0b10 01       		.byte	0x1
 2533 0b11 8801     		.2byte	0x188
 2534 0b13 AD000000 		.4byte	0xad
 2535 0b17 01       		.uleb128 0x1
 2536 0b18 53       		.byte	0x53
 2537 0b19 00       		.byte	0
 2538 0b1a 18       		.uleb128 0x18
 2539 0b1b 12000000 		.4byte	.LVL67
 2540 0b1f E70E0000 		.4byte	0xee7
 2541 0b23 1E       		.uleb128 0x1e
 2542 0b24 20000000 		.4byte	.LVL70
 2543 0b28 290F0000 		.4byte	0xf29
ARM GAS  /tmp/ccHPpRbv.s 			page 46


 2544 0b2c 360B0000 		.4byte	0xb36
 2545 0b30 1D       		.uleb128 0x1d
 2546 0b31 01       		.uleb128 0x1
 2547 0b32 50       		.byte	0x50
 2548 0b33 01       		.uleb128 0x1
 2549 0b34 38       		.byte	0x38
 2550 0b35 00       		.byte	0
 2551 0b36 18       		.uleb128 0x18
 2552 0b37 30000000 		.4byte	.LVL73
 2553 0b3b EE0E0000 		.4byte	0xeee
 2554 0b3f 00       		.byte	0
 2555 0b40 23       		.uleb128 0x23
 2556 0b41 41030000 		.4byte	.LASF96
 2557 0b45 01       		.byte	0x1
 2558 0b46 9701     		.2byte	0x197
 2559 0b48 17010000 		.4byte	0x117
 2560 0b4c 00000000 		.4byte	.LFB20
 2561 0b50 3C000000 		.4byte	.LFE20-.LFB20
 2562 0b54 01       		.uleb128 0x1
 2563 0b55 9C       		.byte	0x9c
 2564 0b56 D80B0000 		.4byte	0xbd8
 2565 0b5a 21       		.uleb128 0x21
 2566 0b5b 36010000 		.4byte	.LASF80
 2567 0b5f 01       		.byte	0x1
 2568 0b60 9701     		.2byte	0x197
 2569 0b62 17010000 		.4byte	0x117
 2570 0b66 05040000 		.4byte	.LLST28
 2571 0b6a 25       		.uleb128 0x25
 2572 0b6b 63747000 		.ascii	"ctp\000"
 2573 0b6f 01       		.byte	0x1
 2574 0b70 9801     		.2byte	0x198
 2575 0b72 6D020000 		.4byte	0x26d
 2576 0b76 2E040000 		.4byte	.LLST29
 2577 0b7a 16       		.uleb128 0x16
 2578 0b7b 08000000 		.4byte	.LBB20
 2579 0b7f 06000000 		.4byte	.LBE20-.LBB20
 2580 0b83 960B0000 		.4byte	0xb96
 2581 0b87 22       		.uleb128 0x22
 2582 0b88 746D7000 		.ascii	"tmp\000"
 2583 0b8c 01       		.byte	0x1
 2584 0b8d 9A01     		.2byte	0x19a
 2585 0b8f AD000000 		.4byte	0xad
 2586 0b93 01       		.uleb128 0x1
 2587 0b94 53       		.byte	0x53
 2588 0b95 00       		.byte	0
 2589 0b96 16       		.uleb128 0x16
 2590 0b97 2E000000 		.4byte	.LBB21
 2591 0b9b 06000000 		.4byte	.LBE21-.LBB21
 2592 0b9f B20B0000 		.4byte	0xbb2
 2593 0ba3 22       		.uleb128 0x22
 2594 0ba4 746D7000 		.ascii	"tmp\000"
 2595 0ba8 01       		.byte	0x1
 2596 0ba9 A201     		.2byte	0x1a2
 2597 0bab AD000000 		.4byte	0xad
 2598 0baf 01       		.uleb128 0x1
 2599 0bb0 53       		.byte	0x53
 2600 0bb1 00       		.byte	0
ARM GAS  /tmp/ccHPpRbv.s 			page 47


 2601 0bb2 18       		.uleb128 0x18
 2602 0bb3 12000000 		.4byte	.LVL77
 2603 0bb7 E70E0000 		.4byte	0xee7
 2604 0bbb 1E       		.uleb128 0x1e
 2605 0bbc 22000000 		.4byte	.LVL78
 2606 0bc0 290F0000 		.4byte	0xf29
 2607 0bc4 CE0B0000 		.4byte	0xbce
 2608 0bc8 1D       		.uleb128 0x1d
 2609 0bc9 01       		.uleb128 0x1
 2610 0bca 50       		.byte	0x50
 2611 0bcb 01       		.uleb128 0x1
 2612 0bcc 39       		.byte	0x39
 2613 0bcd 00       		.byte	0
 2614 0bce 18       		.uleb128 0x18
 2615 0bcf 2E000000 		.4byte	.LVL79
 2616 0bd3 EE0E0000 		.4byte	0xeee
 2617 0bd7 00       		.byte	0
 2618 0bd8 23       		.uleb128 0x23
 2619 0bd9 2F050000 		.4byte	.LASF97
 2620 0bdd 01       		.byte	0x1
 2621 0bde BE01     		.2byte	0x1be
 2622 0be0 17010000 		.4byte	0x117
 2623 0be4 00000000 		.4byte	.LFB21
 2624 0be8 68000000 		.4byte	.LFE21-.LFB21
 2625 0bec 01       		.uleb128 0x1
 2626 0bed 9C       		.byte	0x9c
 2627 0bee DE0C0000 		.4byte	0xcde
 2628 0bf2 21       		.uleb128 0x21
 2629 0bf3 36010000 		.4byte	.LASF80
 2630 0bf7 01       		.byte	0x1
 2631 0bf8 BE01     		.2byte	0x1be
 2632 0bfa 17010000 		.4byte	0x117
 2633 0bfe 41040000 		.4byte	.LLST30
 2634 0c02 21       		.uleb128 0x21
 2635 0c03 3C030000 		.4byte	.LASF98
 2636 0c07 01       		.byte	0x1
 2637 0c08 BE01     		.2byte	0x1be
 2638 0c0a 2D010000 		.4byte	0x12d
 2639 0c0e 6D040000 		.4byte	.LLST31
 2640 0c12 25       		.uleb128 0x25
 2641 0c13 63747000 		.ascii	"ctp\000"
 2642 0c17 01       		.byte	0x1
 2643 0c18 BF01     		.2byte	0x1bf
 2644 0c1a 6D020000 		.4byte	0x26d
 2645 0c1e 99040000 		.4byte	.LLST32
 2646 0c22 25       		.uleb128 0x25
 2647 0c23 6D00     		.ascii	"m\000"
 2648 0c25 01       		.byte	0x1
 2649 0c26 C001     		.2byte	0x1c0
 2650 0c28 17010000 		.4byte	0x117
 2651 0c2c AC040000 		.4byte	.LLST33
 2652 0c30 16       		.uleb128 0x16
 2653 0c31 0A000000 		.4byte	.LBB22
 2654 0c35 06000000 		.4byte	.LBE22-.LBB22
 2655 0c39 4C0C0000 		.4byte	0xc4c
 2656 0c3d 22       		.uleb128 0x22
 2657 0c3e 746D7000 		.ascii	"tmp\000"
ARM GAS  /tmp/ccHPpRbv.s 			page 48


 2658 0c42 01       		.byte	0x1
 2659 0c43 C201     		.2byte	0x1c2
 2660 0c45 AD000000 		.4byte	0xad
 2661 0c49 01       		.uleb128 0x1
 2662 0c4a 53       		.byte	0x53
 2663 0c4b 00       		.byte	0
 2664 0c4c 16       		.uleb128 0x16
 2665 0c4d 20000000 		.4byte	.LBB23
 2666 0c51 06000000 		.4byte	.LBE23-.LBB23
 2667 0c55 680C0000 		.4byte	0xc68
 2668 0c59 22       		.uleb128 0x22
 2669 0c5a 746D7000 		.ascii	"tmp\000"
 2670 0c5e 01       		.byte	0x1
 2671 0c5f C601     		.2byte	0x1c6
 2672 0c61 AD000000 		.4byte	0xad
 2673 0c65 01       		.uleb128 0x1
 2674 0c66 53       		.byte	0x53
 2675 0c67 00       		.byte	0
 2676 0c68 16       		.uleb128 0x16
 2677 0c69 3C000000 		.4byte	.LBB24
 2678 0c6d 06000000 		.4byte	.LBE24-.LBB24
 2679 0c71 840C0000 		.4byte	0xc84
 2680 0c75 22       		.uleb128 0x22
 2681 0c76 746D7000 		.ascii	"tmp\000"
 2682 0c7a 01       		.byte	0x1
 2683 0c7b CB01     		.2byte	0x1cb
 2684 0c7d AD000000 		.4byte	0xad
 2685 0c81 01       		.uleb128 0x1
 2686 0c82 53       		.byte	0x53
 2687 0c83 00       		.byte	0
 2688 0c84 16       		.uleb128 0x16
 2689 0c85 5A000000 		.4byte	.LBB25
 2690 0c89 06000000 		.4byte	.LBE25-.LBB25
 2691 0c8d A00C0000 		.4byte	0xca0
 2692 0c91 22       		.uleb128 0x22
 2693 0c92 746D7000 		.ascii	"tmp\000"
 2694 0c96 01       		.byte	0x1
 2695 0c97 D301     		.2byte	0x1d3
 2696 0c99 AD000000 		.4byte	0xad
 2697 0c9d 01       		.uleb128 0x1
 2698 0c9e 53       		.byte	0x53
 2699 0c9f 00       		.byte	0
 2700 0ca0 18       		.uleb128 0x18
 2701 0ca1 14000000 		.4byte	.LVL83
 2702 0ca5 E70E0000 		.4byte	0xee7
 2703 0ca9 18       		.uleb128 0x18
 2704 0caa 20000000 		.4byte	.LVL86
 2705 0cae EE0E0000 		.4byte	0xeee
 2706 0cb2 1E       		.uleb128 0x1e
 2707 0cb3 34000000 		.4byte	.LVL88
 2708 0cb7 3A0F0000 		.4byte	0xf3a
 2709 0cbb CB0C0000 		.4byte	0xccb
 2710 0cbf 1D       		.uleb128 0x1d
 2711 0cc0 01       		.uleb128 0x1
 2712 0cc1 51       		.byte	0x51
 2713 0cc2 02       		.uleb128 0x2
 2714 0cc3 76       		.byte	0x76
ARM GAS  /tmp/ccHPpRbv.s 			page 49


 2715 0cc4 00       		.sleb128 0
 2716 0cc5 1D       		.uleb128 0x1d
 2717 0cc6 01       		.uleb128 0x1
 2718 0cc7 50       		.byte	0x50
 2719 0cc8 01       		.uleb128 0x1
 2720 0cc9 38       		.byte	0x38
 2721 0cca 00       		.byte	0
 2722 0ccb 18       		.uleb128 0x18
 2723 0ccc 3C000000 		.4byte	.LVL89
 2724 0cd0 EE0E0000 		.4byte	0xeee
 2725 0cd4 18       		.uleb128 0x18
 2726 0cd5 5A000000 		.4byte	.LVL94
 2727 0cd9 EE0E0000 		.4byte	0xeee
 2728 0cdd 00       		.byte	0
 2729 0cde 23       		.uleb128 0x23
 2730 0cdf 66000000 		.4byte	.LASF99
 2731 0ce3 01       		.byte	0x1
 2732 0ce4 E901     		.2byte	0x1e9
 2733 0ce6 17010000 		.4byte	0x117
 2734 0cea 00000000 		.4byte	.LFB22
 2735 0cee 68000000 		.4byte	.LFE22-.LFB22
 2736 0cf2 01       		.uleb128 0x1
 2737 0cf3 9C       		.byte	0x9c
 2738 0cf4 E40D0000 		.4byte	0xde4
 2739 0cf8 21       		.uleb128 0x21
 2740 0cf9 36010000 		.4byte	.LASF80
 2741 0cfd 01       		.byte	0x1
 2742 0cfe E901     		.2byte	0x1e9
 2743 0d00 17010000 		.4byte	0x117
 2744 0d04 FB040000 		.4byte	.LLST34
 2745 0d08 21       		.uleb128 0x21
 2746 0d09 3C030000 		.4byte	.LASF98
 2747 0d0d 01       		.byte	0x1
 2748 0d0e E901     		.2byte	0x1e9
 2749 0d10 2D010000 		.4byte	0x12d
 2750 0d14 27050000 		.4byte	.LLST35
 2751 0d18 25       		.uleb128 0x25
 2752 0d19 63747000 		.ascii	"ctp\000"
 2753 0d1d 01       		.byte	0x1
 2754 0d1e EA01     		.2byte	0x1ea
 2755 0d20 6D020000 		.4byte	0x26d
 2756 0d24 53050000 		.4byte	.LLST36
 2757 0d28 25       		.uleb128 0x25
 2758 0d29 6D00     		.ascii	"m\000"
 2759 0d2b 01       		.byte	0x1
 2760 0d2c EB01     		.2byte	0x1eb
 2761 0d2e 17010000 		.4byte	0x117
 2762 0d32 66050000 		.4byte	.LLST37
 2763 0d36 16       		.uleb128 0x16
 2764 0d37 0A000000 		.4byte	.LBB26
 2765 0d3b 06000000 		.4byte	.LBE26-.LBB26
 2766 0d3f 520D0000 		.4byte	0xd52
 2767 0d43 22       		.uleb128 0x22
 2768 0d44 746D7000 		.ascii	"tmp\000"
 2769 0d48 01       		.byte	0x1
 2770 0d49 ED01     		.2byte	0x1ed
 2771 0d4b AD000000 		.4byte	0xad
ARM GAS  /tmp/ccHPpRbv.s 			page 50


 2772 0d4f 01       		.uleb128 0x1
 2773 0d50 53       		.byte	0x53
 2774 0d51 00       		.byte	0
 2775 0d52 16       		.uleb128 0x16
 2776 0d53 22000000 		.4byte	.LBB27
 2777 0d57 06000000 		.4byte	.LBE27-.LBB27
 2778 0d5b 6E0D0000 		.4byte	0xd6e
 2779 0d5f 22       		.uleb128 0x22
 2780 0d60 746D7000 		.ascii	"tmp\000"
 2781 0d64 01       		.byte	0x1
 2782 0d65 F101     		.2byte	0x1f1
 2783 0d67 AD000000 		.4byte	0xad
 2784 0d6b 01       		.uleb128 0x1
 2785 0d6c 53       		.byte	0x53
 2786 0d6d 00       		.byte	0
 2787 0d6e 16       		.uleb128 0x16
 2788 0d6f 3E000000 		.4byte	.LBB28
 2789 0d73 06000000 		.4byte	.LBE28-.LBB28
 2790 0d77 8A0D0000 		.4byte	0xd8a
 2791 0d7b 22       		.uleb128 0x22
 2792 0d7c 746D7000 		.ascii	"tmp\000"
 2793 0d80 01       		.byte	0x1
 2794 0d81 F601     		.2byte	0x1f6
 2795 0d83 AD000000 		.4byte	0xad
 2796 0d87 01       		.uleb128 0x1
 2797 0d88 53       		.byte	0x53
 2798 0d89 00       		.byte	0
 2799 0d8a 16       		.uleb128 0x16
 2800 0d8b 5A000000 		.4byte	.LBB29
 2801 0d8f 06000000 		.4byte	.LBE29-.LBB29
 2802 0d93 A60D0000 		.4byte	0xda6
 2803 0d97 22       		.uleb128 0x22
 2804 0d98 746D7000 		.ascii	"tmp\000"
 2805 0d9c 01       		.byte	0x1
 2806 0d9d FD01     		.2byte	0x1fd
 2807 0d9f AD000000 		.4byte	0xad
 2808 0da3 01       		.uleb128 0x1
 2809 0da4 53       		.byte	0x53
 2810 0da5 00       		.byte	0
 2811 0da6 18       		.uleb128 0x18
 2812 0da7 14000000 		.4byte	.LVL98
 2813 0dab E70E0000 		.4byte	0xee7
 2814 0daf 18       		.uleb128 0x18
 2815 0db0 22000000 		.4byte	.LVL101
 2816 0db4 EE0E0000 		.4byte	0xeee
 2817 0db8 1E       		.uleb128 0x1e
 2818 0db9 36000000 		.4byte	.LVL103
 2819 0dbd 3A0F0000 		.4byte	0xf3a
 2820 0dc1 D10D0000 		.4byte	0xdd1
 2821 0dc5 1D       		.uleb128 0x1d
 2822 0dc6 01       		.uleb128 0x1
 2823 0dc7 51       		.byte	0x51
 2824 0dc8 02       		.uleb128 0x2
 2825 0dc9 77       		.byte	0x77
 2826 0dca 00       		.sleb128 0
 2827 0dcb 1D       		.uleb128 0x1d
 2828 0dcc 01       		.uleb128 0x1
ARM GAS  /tmp/ccHPpRbv.s 			page 51


 2829 0dcd 50       		.byte	0x50
 2830 0dce 01       		.uleb128 0x1
 2831 0dcf 38       		.byte	0x38
 2832 0dd0 00       		.byte	0
 2833 0dd1 18       		.uleb128 0x18
 2834 0dd2 3E000000 		.4byte	.LVL104
 2835 0dd6 EE0E0000 		.4byte	0xeee
 2836 0dda 18       		.uleb128 0x18
 2837 0ddb 5A000000 		.4byte	.LVL107
 2838 0ddf EE0E0000 		.4byte	0xeee
 2839 0de3 00       		.byte	0
 2840 0de4 23       		.uleb128 0x23
 2841 0de5 9B000000 		.4byte	.LASF100
 2842 0de9 01       		.byte	0x1
 2843 0dea 1202     		.2byte	0x212
 2844 0dec 17010000 		.4byte	0x117
 2845 0df0 00000000 		.4byte	.LFB23
 2846 0df4 64000000 		.4byte	.LFE23-.LFB23
 2847 0df8 01       		.uleb128 0x1
 2848 0df9 9C       		.byte	0x9c
 2849 0dfa DC0E0000 		.4byte	0xedc
 2850 0dfe 21       		.uleb128 0x21
 2851 0dff 36010000 		.4byte	.LASF80
 2852 0e03 01       		.byte	0x1
 2853 0e04 1202     		.2byte	0x212
 2854 0e06 17010000 		.4byte	0x117
 2855 0e0a 94050000 		.4byte	.LLST38
 2856 0e0e 21       		.uleb128 0x21
 2857 0e0f 3C030000 		.4byte	.LASF98
 2858 0e13 01       		.byte	0x1
 2859 0e14 1202     		.2byte	0x212
 2860 0e16 2D010000 		.4byte	0x12d
 2861 0e1a BD050000 		.4byte	.LLST39
 2862 0e1e 25       		.uleb128 0x25
 2863 0e1f 63747000 		.ascii	"ctp\000"
 2864 0e23 01       		.byte	0x1
 2865 0e24 1302     		.2byte	0x213
 2866 0e26 6D020000 		.4byte	0x26d
 2867 0e2a E9050000 		.4byte	.LLST40
 2868 0e2e 16       		.uleb128 0x16
 2869 0e2f 0A000000 		.4byte	.LBB30
 2870 0e33 06000000 		.4byte	.LBE30-.LBB30
 2871 0e37 4A0E0000 		.4byte	0xe4a
 2872 0e3b 22       		.uleb128 0x22
 2873 0e3c 746D7000 		.ascii	"tmp\000"
 2874 0e40 01       		.byte	0x1
 2875 0e41 1502     		.2byte	0x215
 2876 0e43 AD000000 		.4byte	0xad
 2877 0e47 01       		.uleb128 0x1
 2878 0e48 53       		.byte	0x53
 2879 0e49 00       		.byte	0
 2880 0e4a 16       		.uleb128 0x16
 2881 0e4b 22000000 		.4byte	.LBB31
 2882 0e4f 06000000 		.4byte	.LBE31-.LBB31
 2883 0e53 660E0000 		.4byte	0xe66
 2884 0e57 22       		.uleb128 0x22
 2885 0e58 746D7000 		.ascii	"tmp\000"
ARM GAS  /tmp/ccHPpRbv.s 			page 52


 2886 0e5c 01       		.byte	0x1
 2887 0e5d 1902     		.2byte	0x219
 2888 0e5f AD000000 		.4byte	0xad
 2889 0e63 01       		.uleb128 0x1
 2890 0e64 53       		.byte	0x53
 2891 0e65 00       		.byte	0
 2892 0e66 16       		.uleb128 0x16
 2893 0e67 3E000000 		.4byte	.LBB32
 2894 0e6b 06000000 		.4byte	.LBE32-.LBB32
 2895 0e6f 820E0000 		.4byte	0xe82
 2896 0e73 22       		.uleb128 0x22
 2897 0e74 746D7000 		.ascii	"tmp\000"
 2898 0e78 01       		.byte	0x1
 2899 0e79 1E02     		.2byte	0x21e
 2900 0e7b AD000000 		.4byte	0xad
 2901 0e7f 01       		.uleb128 0x1
 2902 0e80 53       		.byte	0x53
 2903 0e81 00       		.byte	0
 2904 0e82 16       		.uleb128 0x16
 2905 0e83 54000000 		.4byte	.LBB33
 2906 0e87 06000000 		.4byte	.LBE33-.LBB33
 2907 0e8b 9E0E0000 		.4byte	0xe9e
 2908 0e8f 22       		.uleb128 0x22
 2909 0e90 746D7000 		.ascii	"tmp\000"
 2910 0e94 01       		.byte	0x1
 2911 0e95 2402     		.2byte	0x224
 2912 0e97 AD000000 		.4byte	0xad
 2913 0e9b 01       		.uleb128 0x1
 2914 0e9c 53       		.byte	0x53
 2915 0e9d 00       		.byte	0
 2916 0e9e 18       		.uleb128 0x18
 2917 0e9f 14000000 		.4byte	.LVL111
 2918 0ea3 E70E0000 		.4byte	0xee7
 2919 0ea7 18       		.uleb128 0x18
 2920 0ea8 22000000 		.4byte	.LVL112
 2921 0eac EE0E0000 		.4byte	0xeee
 2922 0eb0 1E       		.uleb128 0x1e
 2923 0eb1 36000000 		.4byte	.LVL114
 2924 0eb5 3A0F0000 		.4byte	0xf3a
 2925 0eb9 C90E0000 		.4byte	0xec9
 2926 0ebd 1D       		.uleb128 0x1d
 2927 0ebe 01       		.uleb128 0x1
 2928 0ebf 51       		.byte	0x51
 2929 0ec0 02       		.uleb128 0x2
 2930 0ec1 76       		.byte	0x76
 2931 0ec2 00       		.sleb128 0
 2932 0ec3 1D       		.uleb128 0x1d
 2933 0ec4 01       		.uleb128 0x1
 2934 0ec5 50       		.byte	0x50
 2935 0ec6 01       		.uleb128 0x1
 2936 0ec7 39       		.byte	0x39
 2937 0ec8 00       		.byte	0
 2938 0ec9 18       		.uleb128 0x18
 2939 0eca 3E000000 		.4byte	.LVL115
 2940 0ece EE0E0000 		.4byte	0xeee
 2941 0ed2 18       		.uleb128 0x18
 2942 0ed3 54000000 		.4byte	.LVL117
ARM GAS  /tmp/ccHPpRbv.s 			page 53


 2943 0ed7 EE0E0000 		.4byte	0xeee
 2944 0edb 00       		.byte	0
 2945 0edc 27       		.uleb128 0x27
 2946 0edd 0D050000 		.4byte	.LASF111
 2947 0ee1 08       		.byte	0x8
 2948 0ee2 6F       		.byte	0x6f
 2949 0ee3 B0030000 		.4byte	0x3b0
 2950 0ee7 28       		.uleb128 0x28
 2951 0ee8 99050000 		.4byte	.LASF101
 2952 0eec 0B       		.byte	0xb
 2953 0eed E7       		.byte	0xe7
 2954 0eee 28       		.uleb128 0x28
 2955 0eef 6F050000 		.4byte	.LASF102
 2956 0ef3 0B       		.byte	0xb
 2957 0ef4 E8       		.byte	0xe8
 2958 0ef5 28       		.uleb128 0x28
 2959 0ef6 80050000 		.4byte	.LASF103
 2960 0efa 0B       		.byte	0xb
 2961 0efb ED       		.byte	0xed
 2962 0efc 29       		.uleb128 0x29
 2963 0efd A0040000 		.4byte	.LASF112
 2964 0f01 08       		.byte	0x8
 2965 0f02 90       		.byte	0x90
 2966 0f03 6D020000 		.4byte	0x26d
 2967 0f07 110F0000 		.4byte	0xf11
 2968 0f0b 0F       		.uleb128 0xf
 2969 0f0c 6D020000 		.4byte	0x26d
 2970 0f10 00       		.byte	0
 2971 0f11 28       		.uleb128 0x28
 2972 0f12 1A010000 		.4byte	.LASF104
 2973 0f16 08       		.byte	0x8
 2974 0f17 9C       		.byte	0x9c
 2975 0f18 2A       		.uleb128 0x2a
 2976 0f19 06000000 		.4byte	.LASF105
 2977 0f1d 0B       		.byte	0xb
 2978 0f1e F6       		.byte	0xf6
 2979 0f1f 290F0000 		.4byte	0xf29
 2980 0f23 0F       		.uleb128 0xf
 2981 0f24 C0040000 		.4byte	0x4c0
 2982 0f28 00       		.byte	0
 2983 0f29 2A       		.uleb128 0x2a
 2984 0f2a 76040000 		.4byte	.LASF106
 2985 0f2e 08       		.byte	0x8
 2986 0f2f 93       		.byte	0x93
 2987 0f30 3A0F0000 		.4byte	0xf3a
 2988 0f34 0F       		.uleb128 0xf
 2989 0f35 D5000000 		.4byte	0xd5
 2990 0f39 00       		.byte	0
 2991 0f3a 2B       		.uleb128 0x2b
 2992 0f3b E8000000 		.4byte	.LASF107
 2993 0f3f 08       		.byte	0x8
 2994 0f40 96       		.byte	0x96
 2995 0f41 01010000 		.4byte	0x101
 2996 0f45 0F       		.uleb128 0xf
 2997 0f46 D5000000 		.4byte	0xd5
 2998 0f4a 0F       		.uleb128 0xf
 2999 0f4b 2D010000 		.4byte	0x12d
ARM GAS  /tmp/ccHPpRbv.s 			page 54


 3000 0f4f 00       		.byte	0
 3001 0f50 00       		.byte	0
 3002              		.section	.debug_abbrev,"",%progbits
 3003              	.Ldebug_abbrev0:
 3004 0000 01       		.uleb128 0x1
 3005 0001 11       		.uleb128 0x11
 3006 0002 01       		.byte	0x1
 3007 0003 25       		.uleb128 0x25
 3008 0004 0E       		.uleb128 0xe
 3009 0005 13       		.uleb128 0x13
 3010 0006 0B       		.uleb128 0xb
 3011 0007 03       		.uleb128 0x3
 3012 0008 0E       		.uleb128 0xe
 3013 0009 1B       		.uleb128 0x1b
 3014 000a 0E       		.uleb128 0xe
 3015 000b 55       		.uleb128 0x55
 3016 000c 17       		.uleb128 0x17
 3017 000d 11       		.uleb128 0x11
 3018 000e 01       		.uleb128 0x1
 3019 000f 10       		.uleb128 0x10
 3020 0010 17       		.uleb128 0x17
 3021 0011 00       		.byte	0
 3022 0012 00       		.byte	0
 3023 0013 02       		.uleb128 0x2
 3024 0014 24       		.uleb128 0x24
 3025 0015 00       		.byte	0
 3026 0016 0B       		.uleb128 0xb
 3027 0017 0B       		.uleb128 0xb
 3028 0018 3E       		.uleb128 0x3e
 3029 0019 0B       		.uleb128 0xb
 3030 001a 03       		.uleb128 0x3
 3031 001b 08       		.uleb128 0x8
 3032 001c 00       		.byte	0
 3033 001d 00       		.byte	0
 3034 001e 03       		.uleb128 0x3
 3035 001f 24       		.uleb128 0x24
 3036 0020 00       		.byte	0
 3037 0021 0B       		.uleb128 0xb
 3038 0022 0B       		.uleb128 0xb
 3039 0023 3E       		.uleb128 0x3e
 3040 0024 0B       		.uleb128 0xb
 3041 0025 03       		.uleb128 0x3
 3042 0026 0E       		.uleb128 0xe
 3043 0027 00       		.byte	0
 3044 0028 00       		.byte	0
 3045 0029 04       		.uleb128 0x4
 3046 002a 16       		.uleb128 0x16
 3047 002b 00       		.byte	0
 3048 002c 03       		.uleb128 0x3
 3049 002d 0E       		.uleb128 0xe
 3050 002e 3A       		.uleb128 0x3a
 3051 002f 0B       		.uleb128 0xb
 3052 0030 3B       		.uleb128 0x3b
 3053 0031 0B       		.uleb128 0xb
 3054 0032 49       		.uleb128 0x49
 3055 0033 13       		.uleb128 0x13
 3056 0034 00       		.byte	0
ARM GAS  /tmp/ccHPpRbv.s 			page 55


 3057 0035 00       		.byte	0
 3058 0036 05       		.uleb128 0x5
 3059 0037 13       		.uleb128 0x13
 3060 0038 01       		.byte	0x1
 3061 0039 03       		.uleb128 0x3
 3062 003a 0E       		.uleb128 0xe
 3063 003b 0B       		.uleb128 0xb
 3064 003c 0B       		.uleb128 0xb
 3065 003d 3A       		.uleb128 0x3a
 3066 003e 0B       		.uleb128 0xb
 3067 003f 3B       		.uleb128 0x3b
 3068 0040 0B       		.uleb128 0xb
 3069 0041 01       		.uleb128 0x1
 3070 0042 13       		.uleb128 0x13
 3071 0043 00       		.byte	0
 3072 0044 00       		.byte	0
 3073 0045 06       		.uleb128 0x6
 3074 0046 0D       		.uleb128 0xd
 3075 0047 00       		.byte	0
 3076 0048 03       		.uleb128 0x3
 3077 0049 0E       		.uleb128 0xe
 3078 004a 3A       		.uleb128 0x3a
 3079 004b 0B       		.uleb128 0xb
 3080 004c 3B       		.uleb128 0x3b
 3081 004d 0B       		.uleb128 0xb
 3082 004e 49       		.uleb128 0x49
 3083 004f 13       		.uleb128 0x13
 3084 0050 38       		.uleb128 0x38
 3085 0051 0B       		.uleb128 0xb
 3086 0052 00       		.byte	0
 3087 0053 00       		.byte	0
 3088 0054 07       		.uleb128 0x7
 3089 0055 0D       		.uleb128 0xd
 3090 0056 00       		.byte	0
 3091 0057 03       		.uleb128 0x3
 3092 0058 08       		.uleb128 0x8
 3093 0059 3A       		.uleb128 0x3a
 3094 005a 0B       		.uleb128 0xb
 3095 005b 3B       		.uleb128 0x3b
 3096 005c 0B       		.uleb128 0xb
 3097 005d 49       		.uleb128 0x49
 3098 005e 13       		.uleb128 0x13
 3099 005f 38       		.uleb128 0x38
 3100 0060 0B       		.uleb128 0xb
 3101 0061 00       		.byte	0
 3102 0062 00       		.byte	0
 3103 0063 08       		.uleb128 0x8
 3104 0064 13       		.uleb128 0x13
 3105 0065 01       		.byte	0x1
 3106 0066 0B       		.uleb128 0xb
 3107 0067 0B       		.uleb128 0xb
 3108 0068 3A       		.uleb128 0x3a
 3109 0069 0B       		.uleb128 0xb
 3110 006a 3B       		.uleb128 0x3b
 3111 006b 0B       		.uleb128 0xb
 3112 006c 01       		.uleb128 0x1
 3113 006d 13       		.uleb128 0x13
ARM GAS  /tmp/ccHPpRbv.s 			page 56


 3114 006e 00       		.byte	0
 3115 006f 00       		.byte	0
 3116 0070 09       		.uleb128 0x9
 3117 0071 0F       		.uleb128 0xf
 3118 0072 00       		.byte	0
 3119 0073 0B       		.uleb128 0xb
 3120 0074 0B       		.uleb128 0xb
 3121 0075 49       		.uleb128 0x49
 3122 0076 13       		.uleb128 0x13
 3123 0077 00       		.byte	0
 3124 0078 00       		.byte	0
 3125 0079 0A       		.uleb128 0xa
 3126 007a 0F       		.uleb128 0xf
 3127 007b 00       		.byte	0
 3128 007c 0B       		.uleb128 0xb
 3129 007d 0B       		.uleb128 0xb
 3130 007e 00       		.byte	0
 3131 007f 00       		.byte	0
 3132 0080 0B       		.uleb128 0xb
 3133 0081 13       		.uleb128 0x13
 3134 0082 01       		.byte	0x1
 3135 0083 03       		.uleb128 0x3
 3136 0084 0E       		.uleb128 0xe
 3137 0085 0B       		.uleb128 0xb
 3138 0086 0B       		.uleb128 0xb
 3139 0087 3A       		.uleb128 0x3a
 3140 0088 0B       		.uleb128 0xb
 3141 0089 3B       		.uleb128 0x3b
 3142 008a 05       		.uleb128 0x5
 3143 008b 01       		.uleb128 0x1
 3144 008c 13       		.uleb128 0x13
 3145 008d 00       		.byte	0
 3146 008e 00       		.byte	0
 3147 008f 0C       		.uleb128 0xc
 3148 0090 0D       		.uleb128 0xd
 3149 0091 00       		.byte	0
 3150 0092 03       		.uleb128 0x3
 3151 0093 08       		.uleb128 0x8
 3152 0094 3A       		.uleb128 0x3a
 3153 0095 0B       		.uleb128 0xb
 3154 0096 3B       		.uleb128 0x3b
 3155 0097 05       		.uleb128 0x5
 3156 0098 49       		.uleb128 0x49
 3157 0099 13       		.uleb128 0x13
 3158 009a 38       		.uleb128 0x38
 3159 009b 0B       		.uleb128 0xb
 3160 009c 00       		.byte	0
 3161 009d 00       		.byte	0
 3162 009e 0D       		.uleb128 0xd
 3163 009f 35       		.uleb128 0x35
 3164 00a0 00       		.byte	0
 3165 00a1 49       		.uleb128 0x49
 3166 00a2 13       		.uleb128 0x13
 3167 00a3 00       		.byte	0
 3168 00a4 00       		.byte	0
 3169 00a5 0E       		.uleb128 0xe
 3170 00a6 15       		.uleb128 0x15
ARM GAS  /tmp/ccHPpRbv.s 			page 57


 3171 00a7 01       		.byte	0x1
 3172 00a8 27       		.uleb128 0x27
 3173 00a9 19       		.uleb128 0x19
 3174 00aa 01       		.uleb128 0x1
 3175 00ab 13       		.uleb128 0x13
 3176 00ac 00       		.byte	0
 3177 00ad 00       		.byte	0
 3178 00ae 0F       		.uleb128 0xf
 3179 00af 05       		.uleb128 0x5
 3180 00b0 00       		.byte	0
 3181 00b1 49       		.uleb128 0x49
 3182 00b2 13       		.uleb128 0x13
 3183 00b3 00       		.byte	0
 3184 00b4 00       		.byte	0
 3185 00b5 10       		.uleb128 0x10
 3186 00b6 17       		.uleb128 0x17
 3187 00b7 01       		.byte	0x1
 3188 00b8 0B       		.uleb128 0xb
 3189 00b9 0B       		.uleb128 0xb
 3190 00ba 3A       		.uleb128 0x3a
 3191 00bb 0B       		.uleb128 0xb
 3192 00bc 3B       		.uleb128 0x3b
 3193 00bd 0B       		.uleb128 0xb
 3194 00be 01       		.uleb128 0x1
 3195 00bf 13       		.uleb128 0x13
 3196 00c0 00       		.byte	0
 3197 00c1 00       		.byte	0
 3198 00c2 11       		.uleb128 0x11
 3199 00c3 0D       		.uleb128 0xd
 3200 00c4 00       		.byte	0
 3201 00c5 03       		.uleb128 0x3
 3202 00c6 0E       		.uleb128 0xe
 3203 00c7 3A       		.uleb128 0x3a
 3204 00c8 0B       		.uleb128 0xb
 3205 00c9 3B       		.uleb128 0x3b
 3206 00ca 0B       		.uleb128 0xb
 3207 00cb 49       		.uleb128 0x49
 3208 00cc 13       		.uleb128 0x13
 3209 00cd 00       		.byte	0
 3210 00ce 00       		.byte	0
 3211 00cf 12       		.uleb128 0x12
 3212 00d0 26       		.uleb128 0x26
 3213 00d1 00       		.byte	0
 3214 00d2 49       		.uleb128 0x49
 3215 00d3 13       		.uleb128 0x13
 3216 00d4 00       		.byte	0
 3217 00d5 00       		.byte	0
 3218 00d6 13       		.uleb128 0x13
 3219 00d7 2E       		.uleb128 0x2e
 3220 00d8 01       		.byte	0x1
 3221 00d9 3F       		.uleb128 0x3f
 3222 00da 19       		.uleb128 0x19
 3223 00db 03       		.uleb128 0x3
 3224 00dc 0E       		.uleb128 0xe
 3225 00dd 3A       		.uleb128 0x3a
 3226 00de 0B       		.uleb128 0xb
 3227 00df 3B       		.uleb128 0x3b
ARM GAS  /tmp/ccHPpRbv.s 			page 58


 3228 00e0 0B       		.uleb128 0xb
 3229 00e1 27       		.uleb128 0x27
 3230 00e2 19       		.uleb128 0x19
 3231 00e3 11       		.uleb128 0x11
 3232 00e4 01       		.uleb128 0x1
 3233 00e5 12       		.uleb128 0x12
 3234 00e6 06       		.uleb128 0x6
 3235 00e7 40       		.uleb128 0x40
 3236 00e8 18       		.uleb128 0x18
 3237 00e9 9742     		.uleb128 0x2117
 3238 00eb 19       		.uleb128 0x19
 3239 00ec 01       		.uleb128 0x1
 3240 00ed 13       		.uleb128 0x13
 3241 00ee 00       		.byte	0
 3242 00ef 00       		.byte	0
 3243 00f0 14       		.uleb128 0x14
 3244 00f1 05       		.uleb128 0x5
 3245 00f2 00       		.byte	0
 3246 00f3 03       		.uleb128 0x3
 3247 00f4 08       		.uleb128 0x8
 3248 00f5 3A       		.uleb128 0x3a
 3249 00f6 0B       		.uleb128 0xb
 3250 00f7 3B       		.uleb128 0x3b
 3251 00f8 0B       		.uleb128 0xb
 3252 00f9 49       		.uleb128 0x49
 3253 00fa 13       		.uleb128 0x13
 3254 00fb 02       		.uleb128 0x2
 3255 00fc 17       		.uleb128 0x17
 3256 00fd 00       		.byte	0
 3257 00fe 00       		.byte	0
 3258 00ff 15       		.uleb128 0x15
 3259 0100 05       		.uleb128 0x5
 3260 0101 00       		.byte	0
 3261 0102 03       		.uleb128 0x3
 3262 0103 0E       		.uleb128 0xe
 3263 0104 3A       		.uleb128 0x3a
 3264 0105 0B       		.uleb128 0xb
 3265 0106 3B       		.uleb128 0x3b
 3266 0107 0B       		.uleb128 0xb
 3267 0108 49       		.uleb128 0x49
 3268 0109 13       		.uleb128 0x13
 3269 010a 02       		.uleb128 0x2
 3270 010b 17       		.uleb128 0x17
 3271 010c 00       		.byte	0
 3272 010d 00       		.byte	0
 3273 010e 16       		.uleb128 0x16
 3274 010f 0B       		.uleb128 0xb
 3275 0110 01       		.byte	0x1
 3276 0111 11       		.uleb128 0x11
 3277 0112 01       		.uleb128 0x1
 3278 0113 12       		.uleb128 0x12
 3279 0114 06       		.uleb128 0x6
 3280 0115 01       		.uleb128 0x1
 3281 0116 13       		.uleb128 0x13
 3282 0117 00       		.byte	0
 3283 0118 00       		.byte	0
 3284 0119 17       		.uleb128 0x17
ARM GAS  /tmp/ccHPpRbv.s 			page 59


 3285 011a 34       		.uleb128 0x34
 3286 011b 00       		.byte	0
 3287 011c 03       		.uleb128 0x3
 3288 011d 08       		.uleb128 0x8
 3289 011e 3A       		.uleb128 0x3a
 3290 011f 0B       		.uleb128 0xb
 3291 0120 3B       		.uleb128 0x3b
 3292 0121 0B       		.uleb128 0xb
 3293 0122 49       		.uleb128 0x49
 3294 0123 13       		.uleb128 0x13
 3295 0124 02       		.uleb128 0x2
 3296 0125 18       		.uleb128 0x18
 3297 0126 00       		.byte	0
 3298 0127 00       		.byte	0
 3299 0128 18       		.uleb128 0x18
 3300 0129 898201   		.uleb128 0x4109
 3301 012c 00       		.byte	0
 3302 012d 11       		.uleb128 0x11
 3303 012e 01       		.uleb128 0x1
 3304 012f 31       		.uleb128 0x31
 3305 0130 13       		.uleb128 0x13
 3306 0131 00       		.byte	0
 3307 0132 00       		.byte	0
 3308 0133 19       		.uleb128 0x19
 3309 0134 34       		.uleb128 0x34
 3310 0135 00       		.byte	0
 3311 0136 03       		.uleb128 0x3
 3312 0137 08       		.uleb128 0x8
 3313 0138 3A       		.uleb128 0x3a
 3314 0139 0B       		.uleb128 0xb
 3315 013a 3B       		.uleb128 0x3b
 3316 013b 0B       		.uleb128 0xb
 3317 013c 49       		.uleb128 0x49
 3318 013d 13       		.uleb128 0x13
 3319 013e 02       		.uleb128 0x2
 3320 013f 17       		.uleb128 0x17
 3321 0140 00       		.byte	0
 3322 0141 00       		.byte	0
 3323 0142 1A       		.uleb128 0x1a
 3324 0143 2E       		.uleb128 0x2e
 3325 0144 01       		.byte	0x1
 3326 0145 3F       		.uleb128 0x3f
 3327 0146 19       		.uleb128 0x19
 3328 0147 03       		.uleb128 0x3
 3329 0148 0E       		.uleb128 0xe
 3330 0149 3A       		.uleb128 0x3a
 3331 014a 0B       		.uleb128 0xb
 3332 014b 3B       		.uleb128 0x3b
 3333 014c 0B       		.uleb128 0xb
 3334 014d 27       		.uleb128 0x27
 3335 014e 19       		.uleb128 0x19
 3336 014f 49       		.uleb128 0x49
 3337 0150 13       		.uleb128 0x13
 3338 0151 11       		.uleb128 0x11
 3339 0152 01       		.uleb128 0x1
 3340 0153 12       		.uleb128 0x12
 3341 0154 06       		.uleb128 0x6
ARM GAS  /tmp/ccHPpRbv.s 			page 60


 3342 0155 40       		.uleb128 0x40
 3343 0156 18       		.uleb128 0x18
 3344 0157 9742     		.uleb128 0x2117
 3345 0159 19       		.uleb128 0x19
 3346 015a 01       		.uleb128 0x1
 3347 015b 13       		.uleb128 0x13
 3348 015c 00       		.byte	0
 3349 015d 00       		.byte	0
 3350 015e 1B       		.uleb128 0x1b
 3351 015f 34       		.uleb128 0x34
 3352 0160 00       		.byte	0
 3353 0161 03       		.uleb128 0x3
 3354 0162 0E       		.uleb128 0xe
 3355 0163 3A       		.uleb128 0x3a
 3356 0164 0B       		.uleb128 0xb
 3357 0165 3B       		.uleb128 0x3b
 3358 0166 0B       		.uleb128 0xb
 3359 0167 49       		.uleb128 0x49
 3360 0168 13       		.uleb128 0x13
 3361 0169 02       		.uleb128 0x2
 3362 016a 18       		.uleb128 0x18
 3363 016b 00       		.byte	0
 3364 016c 00       		.byte	0
 3365 016d 1C       		.uleb128 0x1c
 3366 016e 898201   		.uleb128 0x4109
 3367 0171 01       		.byte	0x1
 3368 0172 11       		.uleb128 0x11
 3369 0173 01       		.uleb128 0x1
 3370 0174 31       		.uleb128 0x31
 3371 0175 13       		.uleb128 0x13
 3372 0176 00       		.byte	0
 3373 0177 00       		.byte	0
 3374 0178 1D       		.uleb128 0x1d
 3375 0179 8A8201   		.uleb128 0x410a
 3376 017c 00       		.byte	0
 3377 017d 02       		.uleb128 0x2
 3378 017e 18       		.uleb128 0x18
 3379 017f 9142     		.uleb128 0x2111
 3380 0181 18       		.uleb128 0x18
 3381 0182 00       		.byte	0
 3382 0183 00       		.byte	0
 3383 0184 1E       		.uleb128 0x1e
 3384 0185 898201   		.uleb128 0x4109
 3385 0188 01       		.byte	0x1
 3386 0189 11       		.uleb128 0x11
 3387 018a 01       		.uleb128 0x1
 3388 018b 31       		.uleb128 0x31
 3389 018c 13       		.uleb128 0x13
 3390 018d 01       		.uleb128 0x1
 3391 018e 13       		.uleb128 0x13
 3392 018f 00       		.byte	0
 3393 0190 00       		.byte	0
 3394 0191 1F       		.uleb128 0x1f
 3395 0192 2E       		.uleb128 0x2e
 3396 0193 01       		.byte	0x1
 3397 0194 3F       		.uleb128 0x3f
 3398 0195 19       		.uleb128 0x19
ARM GAS  /tmp/ccHPpRbv.s 			page 61


 3399 0196 03       		.uleb128 0x3
 3400 0197 0E       		.uleb128 0xe
 3401 0198 3A       		.uleb128 0x3a
 3402 0199 0B       		.uleb128 0xb
 3403 019a 3B       		.uleb128 0x3b
 3404 019b 05       		.uleb128 0x5
 3405 019c 27       		.uleb128 0x27
 3406 019d 19       		.uleb128 0x19
 3407 019e 11       		.uleb128 0x11
 3408 019f 01       		.uleb128 0x1
 3409 01a0 12       		.uleb128 0x12
 3410 01a1 06       		.uleb128 0x6
 3411 01a2 40       		.uleb128 0x40
 3412 01a3 18       		.uleb128 0x18
 3413 01a4 9742     		.uleb128 0x2117
 3414 01a6 19       		.uleb128 0x19
 3415 01a7 01       		.uleb128 0x1
 3416 01a8 13       		.uleb128 0x13
 3417 01a9 00       		.byte	0
 3418 01aa 00       		.byte	0
 3419 01ab 20       		.uleb128 0x20
 3420 01ac 05       		.uleb128 0x5
 3421 01ad 00       		.byte	0
 3422 01ae 03       		.uleb128 0x3
 3423 01af 08       		.uleb128 0x8
 3424 01b0 3A       		.uleb128 0x3a
 3425 01b1 0B       		.uleb128 0xb
 3426 01b2 3B       		.uleb128 0x3b
 3427 01b3 05       		.uleb128 0x5
 3428 01b4 49       		.uleb128 0x49
 3429 01b5 13       		.uleb128 0x13
 3430 01b6 02       		.uleb128 0x2
 3431 01b7 17       		.uleb128 0x17
 3432 01b8 00       		.byte	0
 3433 01b9 00       		.byte	0
 3434 01ba 21       		.uleb128 0x21
 3435 01bb 05       		.uleb128 0x5
 3436 01bc 00       		.byte	0
 3437 01bd 03       		.uleb128 0x3
 3438 01be 0E       		.uleb128 0xe
 3439 01bf 3A       		.uleb128 0x3a
 3440 01c0 0B       		.uleb128 0xb
 3441 01c1 3B       		.uleb128 0x3b
 3442 01c2 05       		.uleb128 0x5
 3443 01c3 49       		.uleb128 0x49
 3444 01c4 13       		.uleb128 0x13
 3445 01c5 02       		.uleb128 0x2
 3446 01c6 17       		.uleb128 0x17
 3447 01c7 00       		.byte	0
 3448 01c8 00       		.byte	0
 3449 01c9 22       		.uleb128 0x22
 3450 01ca 34       		.uleb128 0x34
 3451 01cb 00       		.byte	0
 3452 01cc 03       		.uleb128 0x3
 3453 01cd 08       		.uleb128 0x8
 3454 01ce 3A       		.uleb128 0x3a
 3455 01cf 0B       		.uleb128 0xb
ARM GAS  /tmp/ccHPpRbv.s 			page 62


 3456 01d0 3B       		.uleb128 0x3b
 3457 01d1 05       		.uleb128 0x5
 3458 01d2 49       		.uleb128 0x49
 3459 01d3 13       		.uleb128 0x13
 3460 01d4 02       		.uleb128 0x2
 3461 01d5 18       		.uleb128 0x18
 3462 01d6 00       		.byte	0
 3463 01d7 00       		.byte	0
 3464 01d8 23       		.uleb128 0x23
 3465 01d9 2E       		.uleb128 0x2e
 3466 01da 01       		.byte	0x1
 3467 01db 3F       		.uleb128 0x3f
 3468 01dc 19       		.uleb128 0x19
 3469 01dd 03       		.uleb128 0x3
 3470 01de 0E       		.uleb128 0xe
 3471 01df 3A       		.uleb128 0x3a
 3472 01e0 0B       		.uleb128 0xb
 3473 01e1 3B       		.uleb128 0x3b
 3474 01e2 05       		.uleb128 0x5
 3475 01e3 27       		.uleb128 0x27
 3476 01e4 19       		.uleb128 0x19
 3477 01e5 49       		.uleb128 0x49
 3478 01e6 13       		.uleb128 0x13
 3479 01e7 11       		.uleb128 0x11
 3480 01e8 01       		.uleb128 0x1
 3481 01e9 12       		.uleb128 0x12
 3482 01ea 06       		.uleb128 0x6
 3483 01eb 40       		.uleb128 0x40
 3484 01ec 18       		.uleb128 0x18
 3485 01ed 9742     		.uleb128 0x2117
 3486 01ef 19       		.uleb128 0x19
 3487 01f0 01       		.uleb128 0x1
 3488 01f1 13       		.uleb128 0x13
 3489 01f2 00       		.byte	0
 3490 01f3 00       		.byte	0
 3491 01f4 24       		.uleb128 0x24
 3492 01f5 34       		.uleb128 0x34
 3493 01f6 00       		.byte	0
 3494 01f7 03       		.uleb128 0x3
 3495 01f8 0E       		.uleb128 0xe
 3496 01f9 3A       		.uleb128 0x3a
 3497 01fa 0B       		.uleb128 0xb
 3498 01fb 3B       		.uleb128 0x3b
 3499 01fc 05       		.uleb128 0x5
 3500 01fd 49       		.uleb128 0x49
 3501 01fe 13       		.uleb128 0x13
 3502 01ff 02       		.uleb128 0x2
 3503 0200 18       		.uleb128 0x18
 3504 0201 00       		.byte	0
 3505 0202 00       		.byte	0
 3506 0203 25       		.uleb128 0x25
 3507 0204 34       		.uleb128 0x34
 3508 0205 00       		.byte	0
 3509 0206 03       		.uleb128 0x3
 3510 0207 08       		.uleb128 0x8
 3511 0208 3A       		.uleb128 0x3a
 3512 0209 0B       		.uleb128 0xb
ARM GAS  /tmp/ccHPpRbv.s 			page 63


 3513 020a 3B       		.uleb128 0x3b
 3514 020b 05       		.uleb128 0x5
 3515 020c 49       		.uleb128 0x49
 3516 020d 13       		.uleb128 0x13
 3517 020e 02       		.uleb128 0x2
 3518 020f 17       		.uleb128 0x17
 3519 0210 00       		.byte	0
 3520 0211 00       		.byte	0
 3521 0212 26       		.uleb128 0x26
 3522 0213 898201   		.uleb128 0x4109
 3523 0216 01       		.byte	0x1
 3524 0217 11       		.uleb128 0x11
 3525 0218 01       		.uleb128 0x1
 3526 0219 00       		.byte	0
 3527 021a 00       		.byte	0
 3528 021b 27       		.uleb128 0x27
 3529 021c 34       		.uleb128 0x34
 3530 021d 00       		.byte	0
 3531 021e 03       		.uleb128 0x3
 3532 021f 0E       		.uleb128 0xe
 3533 0220 3A       		.uleb128 0x3a
 3534 0221 0B       		.uleb128 0xb
 3535 0222 3B       		.uleb128 0x3b
 3536 0223 0B       		.uleb128 0xb
 3537 0224 49       		.uleb128 0x49
 3538 0225 13       		.uleb128 0x13
 3539 0226 3F       		.uleb128 0x3f
 3540 0227 19       		.uleb128 0x19
 3541 0228 3C       		.uleb128 0x3c
 3542 0229 19       		.uleb128 0x19
 3543 022a 00       		.byte	0
 3544 022b 00       		.byte	0
 3545 022c 28       		.uleb128 0x28
 3546 022d 2E       		.uleb128 0x2e
 3547 022e 00       		.byte	0
 3548 022f 3F       		.uleb128 0x3f
 3549 0230 19       		.uleb128 0x19
 3550 0231 03       		.uleb128 0x3
 3551 0232 0E       		.uleb128 0xe
 3552 0233 3A       		.uleb128 0x3a
 3553 0234 0B       		.uleb128 0xb
 3554 0235 3B       		.uleb128 0x3b
 3555 0236 0B       		.uleb128 0xb
 3556 0237 27       		.uleb128 0x27
 3557 0238 19       		.uleb128 0x19
 3558 0239 3C       		.uleb128 0x3c
 3559 023a 19       		.uleb128 0x19
 3560 023b 00       		.byte	0
 3561 023c 00       		.byte	0
 3562 023d 29       		.uleb128 0x29
 3563 023e 2E       		.uleb128 0x2e
 3564 023f 01       		.byte	0x1
 3565 0240 3F       		.uleb128 0x3f
 3566 0241 19       		.uleb128 0x19
 3567 0242 03       		.uleb128 0x3
 3568 0243 0E       		.uleb128 0xe
 3569 0244 3A       		.uleb128 0x3a
ARM GAS  /tmp/ccHPpRbv.s 			page 64


 3570 0245 0B       		.uleb128 0xb
 3571 0246 3B       		.uleb128 0x3b
 3572 0247 0B       		.uleb128 0xb
 3573 0248 27       		.uleb128 0x27
 3574 0249 19       		.uleb128 0x19
 3575 024a 49       		.uleb128 0x49
 3576 024b 13       		.uleb128 0x13
 3577 024c 3C       		.uleb128 0x3c
 3578 024d 19       		.uleb128 0x19
 3579 024e 01       		.uleb128 0x1
 3580 024f 13       		.uleb128 0x13
 3581 0250 00       		.byte	0
 3582 0251 00       		.byte	0
 3583 0252 2A       		.uleb128 0x2a
 3584 0253 2E       		.uleb128 0x2e
 3585 0254 01       		.byte	0x1
 3586 0255 3F       		.uleb128 0x3f
 3587 0256 19       		.uleb128 0x19
 3588 0257 03       		.uleb128 0x3
 3589 0258 0E       		.uleb128 0xe
 3590 0259 3A       		.uleb128 0x3a
 3591 025a 0B       		.uleb128 0xb
 3592 025b 3B       		.uleb128 0x3b
 3593 025c 0B       		.uleb128 0xb
 3594 025d 27       		.uleb128 0x27
 3595 025e 19       		.uleb128 0x19
 3596 025f 3C       		.uleb128 0x3c
 3597 0260 19       		.uleb128 0x19
 3598 0261 01       		.uleb128 0x1
 3599 0262 13       		.uleb128 0x13
 3600 0263 00       		.byte	0
 3601 0264 00       		.byte	0
 3602 0265 2B       		.uleb128 0x2b
 3603 0266 2E       		.uleb128 0x2e
 3604 0267 01       		.byte	0x1
 3605 0268 3F       		.uleb128 0x3f
 3606 0269 19       		.uleb128 0x19
 3607 026a 03       		.uleb128 0x3
 3608 026b 0E       		.uleb128 0xe
 3609 026c 3A       		.uleb128 0x3a
 3610 026d 0B       		.uleb128 0xb
 3611 026e 3B       		.uleb128 0x3b
 3612 026f 0B       		.uleb128 0xb
 3613 0270 27       		.uleb128 0x27
 3614 0271 19       		.uleb128 0x19
 3615 0272 49       		.uleb128 0x49
 3616 0273 13       		.uleb128 0x13
 3617 0274 3C       		.uleb128 0x3c
 3618 0275 19       		.uleb128 0x19
 3619 0276 00       		.byte	0
 3620 0277 00       		.byte	0
 3621 0278 00       		.byte	0
 3622              		.section	.debug_loc,"",%progbits
 3623              	.Ldebug_loc0:
 3624              	.LLST0:
 3625 0000 00000000 		.4byte	.LVL0
 3626 0004 11000000 		.4byte	.LVL1-1
ARM GAS  /tmp/ccHPpRbv.s 			page 65


 3627 0008 0100     		.2byte	0x1
 3628 000a 50       		.byte	0x50
 3629 000b 11000000 		.4byte	.LVL1-1
 3630 000f 22000000 		.4byte	.LVL2
 3631 0013 0100     		.2byte	0x1
 3632 0015 55       		.byte	0x55
 3633 0016 22000000 		.4byte	.LVL2
 3634 001a 34000000 		.4byte	.LFE7
 3635 001e 0400     		.2byte	0x4
 3636 0020 F3       		.byte	0xf3
 3637 0021 01       		.uleb128 0x1
 3638 0022 50       		.byte	0x50
 3639 0023 9F       		.byte	0x9f
 3640 0024 00000000 		.4byte	0
 3641 0028 00000000 		.4byte	0
 3642              	.LLST1:
 3643 002c 00000000 		.4byte	.LVL0
 3644 0030 11000000 		.4byte	.LVL1-1
 3645 0034 0100     		.2byte	0x1
 3646 0036 51       		.byte	0x51
 3647 0037 11000000 		.4byte	.LVL1-1
 3648 003b 30000000 		.4byte	.LVL4
 3649 003f 0100     		.2byte	0x1
 3650 0041 54       		.byte	0x54
 3651 0042 30000000 		.4byte	.LVL4
 3652 0046 34000000 		.4byte	.LFE7
 3653 004a 0400     		.2byte	0x4
 3654 004c F3       		.byte	0xf3
 3655 004d 01       		.uleb128 0x1
 3656 004e 51       		.byte	0x51
 3657 004f 9F       		.byte	0x9f
 3658 0050 00000000 		.4byte	0
 3659 0054 00000000 		.4byte	0
 3660              	.LLST2:
 3661 0058 00000000 		.4byte	.LVL0
 3662 005c 11000000 		.4byte	.LVL1-1
 3663 0060 0100     		.2byte	0x1
 3664 0062 52       		.byte	0x52
 3665 0063 11000000 		.4byte	.LVL1-1
 3666 0067 30000000 		.4byte	.LVL4
 3667 006b 0100     		.2byte	0x1
 3668 006d 56       		.byte	0x56
 3669 006e 30000000 		.4byte	.LVL4
 3670 0072 34000000 		.4byte	.LFE7
 3671 0076 0400     		.2byte	0x4
 3672 0078 F3       		.byte	0xf3
 3673 0079 01       		.uleb128 0x1
 3674 007a 52       		.byte	0x52
 3675 007b 9F       		.byte	0x9f
 3676 007c 00000000 		.4byte	0
 3677 0080 00000000 		.4byte	0
 3678              	.LLST3:
 3679 0084 00000000 		.4byte	.LVL5
 3680 0088 0F000000 		.4byte	.LVL7-1
 3681 008c 0100     		.2byte	0x1
 3682 008e 50       		.byte	0x50
 3683 008f 0F000000 		.4byte	.LVL7-1
ARM GAS  /tmp/ccHPpRbv.s 			page 66


 3684 0093 32000000 		.4byte	.LFE8
 3685 0097 0100     		.2byte	0x1
 3686 0099 54       		.byte	0x54
 3687 009a 00000000 		.4byte	0
 3688 009e 00000000 		.4byte	0
 3689              	.LLST4:
 3690 00a2 00000000 		.4byte	.LVL5
 3691 00a6 0F000000 		.4byte	.LVL7-1
 3692 00aa 0100     		.2byte	0x1
 3693 00ac 51       		.byte	0x51
 3694 00ad 0F000000 		.4byte	.LVL7-1
 3695 00b1 32000000 		.4byte	.LFE8
 3696 00b5 0100     		.2byte	0x1
 3697 00b7 55       		.byte	0x55
 3698 00b8 00000000 		.4byte	0
 3699 00bc 00000000 		.4byte	0
 3700              	.LLST5:
 3701 00c0 06000000 		.4byte	.LVL6
 3702 00c4 0F000000 		.4byte	.LVL7-1
 3703 00c8 0100     		.2byte	0x1
 3704 00ca 50       		.byte	0x50
 3705 00cb 0F000000 		.4byte	.LVL7-1
 3706 00cf 14000000 		.4byte	.LVL8
 3707 00d3 0100     		.2byte	0x1
 3708 00d5 54       		.byte	0x54
 3709 00d6 14000000 		.4byte	.LVL8
 3710 00da 29000000 		.4byte	.LVL10-1
 3711 00de 0100     		.2byte	0x1
 3712 00e0 52       		.byte	0x52
 3713 00e1 00000000 		.4byte	0
 3714 00e5 00000000 		.4byte	0
 3715              	.LLST6:
 3716 00e9 00000000 		.4byte	.LVL11
 3717 00ed 0D000000 		.4byte	.LVL12-1
 3718 00f1 0100     		.2byte	0x1
 3719 00f3 50       		.byte	0x50
 3720 00f4 0D000000 		.4byte	.LVL12-1
 3721 00f8 2C000000 		.4byte	.LVL15
 3722 00fc 0100     		.2byte	0x1
 3723 00fe 54       		.byte	0x54
 3724 00ff 2C000000 		.4byte	.LVL15
 3725 0103 30000000 		.4byte	.LFE9
 3726 0107 0400     		.2byte	0x4
 3727 0109 F3       		.byte	0xf3
 3728 010a 01       		.uleb128 0x1
 3729 010b 50       		.byte	0x50
 3730 010c 9F       		.byte	0x9f
 3731 010d 00000000 		.4byte	0
 3732 0111 00000000 		.4byte	0
 3733              	.LLST7:
 3734 0115 18000000 		.4byte	.LVL13
 3735 0119 2C000000 		.4byte	.LVL15
 3736 011d 0100     		.2byte	0x1
 3737 011f 55       		.byte	0x55
 3738 0120 2C000000 		.4byte	.LVL15
 3739 0124 30000000 		.4byte	.LFE9
 3740 0128 0100     		.2byte	0x1
ARM GAS  /tmp/ccHPpRbv.s 			page 67


 3741 012a 50       		.byte	0x50
 3742 012b 00000000 		.4byte	0
 3743 012f 00000000 		.4byte	0
 3744              	.LLST8:
 3745 0133 00000000 		.4byte	.LVL16
 3746 0137 0D000000 		.4byte	.LVL17-1
 3747 013b 0100     		.2byte	0x1
 3748 013d 50       		.byte	0x50
 3749 013e 0D000000 		.4byte	.LVL17-1
 3750 0142 16000000 		.4byte	.LVL18
 3751 0146 0100     		.2byte	0x1
 3752 0148 54       		.byte	0x54
 3753 0149 16000000 		.4byte	.LVL18
 3754 014d 18000000 		.4byte	.LVL19
 3755 0151 0400     		.2byte	0x4
 3756 0153 F3       		.byte	0xf3
 3757 0154 01       		.uleb128 0x1
 3758 0155 50       		.byte	0x50
 3759 0156 9F       		.byte	0x9f
 3760 0157 18000000 		.4byte	.LVL19
 3761 015b 26000000 		.4byte	.LVL21
 3762 015f 0100     		.2byte	0x1
 3763 0161 54       		.byte	0x54
 3764 0162 26000000 		.4byte	.LVL21
 3765 0166 2C000000 		.4byte	.LFE10
 3766 016a 0100     		.2byte	0x1
 3767 016c 50       		.byte	0x50
 3768 016d 00000000 		.4byte	0
 3769 0171 00000000 		.4byte	0
 3770              	.LLST9:
 3771 0175 00000000 		.4byte	.LVL22
 3772 0179 0D000000 		.4byte	.LVL23-1
 3773 017d 0100     		.2byte	0x1
 3774 017f 50       		.byte	0x50
 3775 0180 0D000000 		.4byte	.LVL23-1
 3776 0184 22000000 		.4byte	.LFE12
 3777 0188 0100     		.2byte	0x1
 3778 018a 55       		.byte	0x55
 3779 018b 00000000 		.4byte	0
 3780 018f 00000000 		.4byte	0
 3781              	.LLST10:
 3782 0193 00000000 		.4byte	.LVL26
 3783 0197 09000000 		.4byte	.LVL27-1
 3784 019b 0100     		.2byte	0x1
 3785 019d 50       		.byte	0x50
 3786 019e 09000000 		.4byte	.LVL27-1
 3787 01a2 38000000 		.4byte	.LFE14
 3788 01a6 0100     		.2byte	0x1
 3789 01a8 54       		.byte	0x54
 3790 01a9 00000000 		.4byte	0
 3791 01ad 00000000 		.4byte	0
 3792              	.LLST11:
 3793 01b1 00000000 		.4byte	.LVL26
 3794 01b5 09000000 		.4byte	.LVL27-1
 3795 01b9 0100     		.2byte	0x1
 3796 01bb 51       		.byte	0x51
 3797 01bc 09000000 		.4byte	.LVL27-1
ARM GAS  /tmp/ccHPpRbv.s 			page 68


 3798 01c0 38000000 		.4byte	.LFE14
 3799 01c4 0100     		.2byte	0x1
 3800 01c6 55       		.byte	0x55
 3801 01c7 00000000 		.4byte	0
 3802 01cb 00000000 		.4byte	0
 3803              	.LLST12:
 3804 01cf 00000000 		.4byte	.LVL29
 3805 01d3 09000000 		.4byte	.LVL30-1
 3806 01d7 0100     		.2byte	0x1
 3807 01d9 50       		.byte	0x50
 3808 01da 09000000 		.4byte	.LVL30-1
 3809 01de 24000000 		.4byte	.LFE11
 3810 01e2 0100     		.2byte	0x1
 3811 01e4 55       		.byte	0x55
 3812 01e5 00000000 		.4byte	0
 3813 01e9 00000000 		.4byte	0
 3814              	.LLST13:
 3815 01ed 00000000 		.4byte	.LVL29
 3816 01f1 09000000 		.4byte	.LVL30-1
 3817 01f5 0100     		.2byte	0x1
 3818 01f7 51       		.byte	0x51
 3819 01f8 09000000 		.4byte	.LVL30-1
 3820 01fc 24000000 		.4byte	.LFE11
 3821 0200 0100     		.2byte	0x1
 3822 0202 56       		.byte	0x56
 3823 0203 00000000 		.4byte	0
 3824 0207 00000000 		.4byte	0
 3825              	.LLST14:
 3826 020b 00000000 		.4byte	.LVL34
 3827 020f 0F000000 		.4byte	.LVL35-1
 3828 0213 0100     		.2byte	0x1
 3829 0215 50       		.byte	0x50
 3830 0216 0F000000 		.4byte	.LVL35-1
 3831 021a 28000000 		.4byte	.LFE13
 3832 021e 0100     		.2byte	0x1
 3833 0220 55       		.byte	0x55
 3834 0221 00000000 		.4byte	0
 3835 0225 00000000 		.4byte	0
 3836              	.LLST15:
 3837 0229 00000000 		.4byte	.LVL34
 3838 022d 0F000000 		.4byte	.LVL35-1
 3839 0231 0100     		.2byte	0x1
 3840 0233 51       		.byte	0x51
 3841 0234 0F000000 		.4byte	.LVL35-1
 3842 0238 28000000 		.4byte	.LFE13
 3843 023c 0100     		.2byte	0x1
 3844 023e 54       		.byte	0x54
 3845 023f 00000000 		.4byte	0
 3846 0243 00000000 		.4byte	0
 3847              	.LLST16:
 3848 0247 00000000 		.4byte	.LVL39
 3849 024b 0F000000 		.4byte	.LVL40-1
 3850 024f 0100     		.2byte	0x1
 3851 0251 50       		.byte	0x50
 3852 0252 0F000000 		.4byte	.LVL40-1
 3853 0256 28000000 		.4byte	.LFE15
 3854 025a 0100     		.2byte	0x1
ARM GAS  /tmp/ccHPpRbv.s 			page 69


 3855 025c 55       		.byte	0x55
 3856 025d 00000000 		.4byte	0
 3857 0261 00000000 		.4byte	0
 3858              	.LLST17:
 3859 0265 00000000 		.4byte	.LVL39
 3860 0269 0F000000 		.4byte	.LVL40-1
 3861 026d 0100     		.2byte	0x1
 3862 026f 51       		.byte	0x51
 3863 0270 0F000000 		.4byte	.LVL40-1
 3864 0274 28000000 		.4byte	.LFE15
 3865 0278 0100     		.2byte	0x1
 3866 027a 54       		.byte	0x54
 3867 027b 00000000 		.4byte	0
 3868 027f 00000000 		.4byte	0
 3869              	.LLST18:
 3870 0283 00000000 		.4byte	.LVL44
 3871 0287 04000000 		.4byte	.LVL45
 3872 028b 0100     		.2byte	0x1
 3873 028d 50       		.byte	0x50
 3874 028e 04000000 		.4byte	.LVL45
 3875 0292 0A000000 		.4byte	.LFE16
 3876 0296 0100     		.2byte	0x1
 3877 0298 53       		.byte	0x53
 3878 0299 00000000 		.4byte	0
 3879 029d 00000000 		.4byte	0
 3880              	.LLST19:
 3881 02a1 00000000 		.4byte	.LVL46
 3882 02a5 0C000000 		.4byte	.LVL48
 3883 02a9 0100     		.2byte	0x1
 3884 02ab 50       		.byte	0x50
 3885 02ac 0C000000 		.4byte	.LVL48
 3886 02b0 3A000000 		.4byte	.LVL53
 3887 02b4 0100     		.2byte	0x1
 3888 02b6 57       		.byte	0x57
 3889 02b7 3A000000 		.4byte	.LVL53
 3890 02bb 40000000 		.4byte	.LFE17
 3891 02bf 0400     		.2byte	0x4
 3892 02c1 F3       		.byte	0xf3
 3893 02c2 01       		.uleb128 0x1
 3894 02c3 50       		.byte	0x50
 3895 02c4 9F       		.byte	0x9f
 3896 02c5 00000000 		.4byte	0
 3897 02c9 00000000 		.4byte	0
 3898              	.LLST20:
 3899 02cd 00000000 		.4byte	.LVL46
 3900 02d1 0C000000 		.4byte	.LVL48
 3901 02d5 0100     		.2byte	0x1
 3902 02d7 51       		.byte	0x51
 3903 02d8 0C000000 		.4byte	.LVL48
 3904 02dc 3A000000 		.4byte	.LVL53
 3905 02e0 0100     		.2byte	0x1
 3906 02e2 56       		.byte	0x56
 3907 02e3 00000000 		.4byte	0
 3908 02e7 00000000 		.4byte	0
 3909              	.LLST21:
 3910 02eb 08000000 		.4byte	.LVL47
 3911 02ef 0C000000 		.4byte	.LVL48
ARM GAS  /tmp/ccHPpRbv.s 			page 70


 3912 02f3 0200     		.2byte	0x2
 3913 02f5 30       		.byte	0x30
 3914 02f6 9F       		.byte	0x9f
 3915 02f7 0C000000 		.4byte	.LVL48
 3916 02fb 3A000000 		.4byte	.LVL53
 3917 02ff 0100     		.2byte	0x1
 3918 0301 54       		.byte	0x54
 3919 0302 00000000 		.4byte	0
 3920 0306 00000000 		.4byte	0
 3921              	.LLST22:
 3922 030a 00000000 		.4byte	.LVL54
 3923 030e 11000000 		.4byte	.LVL56-1
 3924 0312 0100     		.2byte	0x1
 3925 0314 50       		.byte	0x50
 3926 0315 11000000 		.4byte	.LVL56-1
 3927 0319 26000000 		.4byte	.LVL61
 3928 031d 0100     		.2byte	0x1
 3929 031f 54       		.byte	0x54
 3930 0320 26000000 		.4byte	.LVL61
 3931 0324 44000000 		.4byte	.LFE18
 3932 0328 0400     		.2byte	0x4
 3933 032a F3       		.byte	0xf3
 3934 032b 01       		.uleb128 0x1
 3935 032c 50       		.byte	0x50
 3936 032d 9F       		.byte	0x9f
 3937 032e 00000000 		.4byte	0
 3938 0332 00000000 		.4byte	0
 3939              	.LLST23:
 3940 0336 08000000 		.4byte	.LVL55
 3941 033a 3E000000 		.4byte	.LVL64
 3942 033e 0100     		.2byte	0x1
 3943 0340 55       		.byte	0x55
 3944 0341 00000000 		.4byte	0
 3945 0345 00000000 		.4byte	0
 3946              	.LLST24:
 3947 0349 14000000 		.4byte	.LVL57
 3948 034d 16000000 		.4byte	.LVL58
 3949 0351 0600     		.2byte	0x6
 3950 0353 73       		.byte	0x73
 3951 0354 00       		.sleb128 0
 3952 0355 74       		.byte	0x74
 3953 0356 00       		.sleb128 0
 3954 0357 1A       		.byte	0x1a
 3955 0358 9F       		.byte	0x9f
 3956 0359 16000000 		.4byte	.LVL58
 3957 035d 1F000000 		.4byte	.LVL59-1
 3958 0361 0100     		.2byte	0x1
 3959 0363 53       		.byte	0x53
 3960 0364 24000000 		.4byte	.LVL60
 3961 0368 28000000 		.4byte	.LVL62
 3962 036c 0100     		.2byte	0x1
 3963 036e 53       		.byte	0x53
 3964 036f 28000000 		.4byte	.LVL62
 3965 0373 3E000000 		.4byte	.LVL64
 3966 0377 0100     		.2byte	0x1
 3967 0379 54       		.byte	0x54
 3968 037a 3E000000 		.4byte	.LVL64
ARM GAS  /tmp/ccHPpRbv.s 			page 71


 3969 037e 44000000 		.4byte	.LFE18
 3970 0382 0100     		.2byte	0x1
 3971 0384 50       		.byte	0x50
 3972 0385 00000000 		.4byte	0
 3973 0389 00000000 		.4byte	0
 3974              	.LLST25:
 3975 038d 00000000 		.4byte	.LVL65
 3976 0391 11000000 		.4byte	.LVL67-1
 3977 0395 0100     		.2byte	0x1
 3978 0397 50       		.byte	0x50
 3979 0398 11000000 		.4byte	.LVL67-1
 3980 039c 3A000000 		.4byte	.LVL74
 3981 03a0 0100     		.2byte	0x1
 3982 03a2 56       		.byte	0x56
 3983 03a3 3A000000 		.4byte	.LVL74
 3984 03a7 40000000 		.4byte	.LFE19
 3985 03ab 0400     		.2byte	0x4
 3986 03ad F3       		.byte	0xf3
 3987 03ae 01       		.uleb128 0x1
 3988 03af 50       		.byte	0x50
 3989 03b0 9F       		.byte	0x9f
 3990 03b1 00000000 		.4byte	0
 3991 03b5 00000000 		.4byte	0
 3992              	.LLST26:
 3993 03b9 08000000 		.4byte	.LVL66
 3994 03bd 3A000000 		.4byte	.LVL74
 3995 03c1 0100     		.2byte	0x1
 3996 03c3 55       		.byte	0x55
 3997 03c4 00000000 		.4byte	0
 3998 03c8 00000000 		.4byte	0
 3999              	.LLST27:
 4000 03cc 14000000 		.4byte	.LVL68
 4001 03d0 16000000 		.4byte	.LVL69
 4002 03d4 0600     		.2byte	0x6
 4003 03d6 74       		.byte	0x74
 4004 03d7 00       		.sleb128 0
 4005 03d8 76       		.byte	0x76
 4006 03d9 00       		.sleb128 0
 4007 03da 1A       		.byte	0x1a
 4008 03db 9F       		.byte	0x9f
 4009 03dc 16000000 		.4byte	.LVL69
 4010 03e0 22000000 		.4byte	.LVL71
 4011 03e4 0100     		.2byte	0x1
 4012 03e6 54       		.byte	0x54
 4013 03e7 24000000 		.4byte	.LVL72
 4014 03eb 3A000000 		.4byte	.LVL74
 4015 03ef 0100     		.2byte	0x1
 4016 03f1 54       		.byte	0x54
 4017 03f2 3A000000 		.4byte	.LVL74
 4018 03f6 40000000 		.4byte	.LFE19
 4019 03fa 0100     		.2byte	0x1
 4020 03fc 50       		.byte	0x50
 4021 03fd 00000000 		.4byte	0
 4022 0401 00000000 		.4byte	0
 4023              	.LLST28:
 4024 0405 00000000 		.4byte	.LVL75
 4025 0409 11000000 		.4byte	.LVL77-1
ARM GAS  /tmp/ccHPpRbv.s 			page 72


 4026 040d 0100     		.2byte	0x1
 4027 040f 50       		.byte	0x50
 4028 0410 11000000 		.4byte	.LVL77-1
 4029 0414 38000000 		.4byte	.LVL80
 4030 0418 0100     		.2byte	0x1
 4031 041a 54       		.byte	0x54
 4032 041b 38000000 		.4byte	.LVL80
 4033 041f 3C000000 		.4byte	.LFE20
 4034 0423 0100     		.2byte	0x1
 4035 0425 50       		.byte	0x50
 4036 0426 00000000 		.4byte	0
 4037 042a 00000000 		.4byte	0
 4038              	.LLST29:
 4039 042e 08000000 		.4byte	.LVL76
 4040 0432 38000000 		.4byte	.LVL80
 4041 0436 0100     		.2byte	0x1
 4042 0438 55       		.byte	0x55
 4043 0439 00000000 		.4byte	0
 4044 043d 00000000 		.4byte	0
 4045              	.LLST30:
 4046 0441 00000000 		.4byte	.LVL81
 4047 0445 13000000 		.4byte	.LVL83-1
 4048 0449 0100     		.2byte	0x1
 4049 044b 50       		.byte	0x50
 4050 044c 13000000 		.4byte	.LVL83-1
 4051 0450 4C000000 		.4byte	.LVL92
 4052 0454 0100     		.2byte	0x1
 4053 0456 54       		.byte	0x54
 4054 0457 4C000000 		.4byte	.LVL92
 4055 045b 68000000 		.4byte	.LFE21
 4056 045f 0400     		.2byte	0x4
 4057 0461 F3       		.byte	0xf3
 4058 0462 01       		.uleb128 0x1
 4059 0463 50       		.byte	0x50
 4060 0464 9F       		.byte	0x9f
 4061 0465 00000000 		.4byte	0
 4062 0469 00000000 		.4byte	0
 4063              	.LLST31:
 4064 046d 00000000 		.4byte	.LVL81
 4065 0471 13000000 		.4byte	.LVL83-1
 4066 0475 0100     		.2byte	0x1
 4067 0477 51       		.byte	0x51
 4068 0478 13000000 		.4byte	.LVL83-1
 4069 047c 64000000 		.4byte	.LVL95
 4070 0480 0100     		.2byte	0x1
 4071 0482 56       		.byte	0x56
 4072 0483 64000000 		.4byte	.LVL95
 4073 0487 68000000 		.4byte	.LFE21
 4074 048b 0400     		.2byte	0x4
 4075 048d F3       		.byte	0xf3
 4076 048e 01       		.uleb128 0x1
 4077 048f 51       		.byte	0x51
 4078 0490 9F       		.byte	0x9f
 4079 0491 00000000 		.4byte	0
 4080 0495 00000000 		.4byte	0
 4081              	.LLST32:
 4082 0499 0A000000 		.4byte	.LVL82
ARM GAS  /tmp/ccHPpRbv.s 			page 73


 4083 049d 64000000 		.4byte	.LVL95
 4084 04a1 0100     		.2byte	0x1
 4085 04a3 55       		.byte	0x55
 4086 04a4 00000000 		.4byte	0
 4087 04a8 00000000 		.4byte	0
 4088              	.LLST33:
 4089 04ac 16000000 		.4byte	.LVL84
 4090 04b0 18000000 		.4byte	.LVL85
 4091 04b4 0600     		.2byte	0x6
 4092 04b6 73       		.byte	0x73
 4093 04b7 00       		.sleb128 0
 4094 04b8 74       		.byte	0x74
 4095 04b9 00       		.sleb128 0
 4096 04ba 1A       		.byte	0x1a
 4097 04bb 9F       		.byte	0x9f
 4098 04bc 18000000 		.4byte	.LVL85
 4099 04c0 1F000000 		.4byte	.LVL86-1
 4100 04c4 0100     		.2byte	0x1
 4101 04c6 53       		.byte	0x53
 4102 04c7 2A000000 		.4byte	.LVL87
 4103 04cb 33000000 		.4byte	.LVL88-1
 4104 04cf 0100     		.2byte	0x1
 4105 04d1 53       		.byte	0x53
 4106 04d2 4A000000 		.4byte	.LVL91
 4107 04d6 4E000000 		.4byte	.LVL93
 4108 04da 0100     		.2byte	0x1
 4109 04dc 53       		.byte	0x53
 4110 04dd 4E000000 		.4byte	.LVL93
 4111 04e1 64000000 		.4byte	.LVL95
 4112 04e5 0100     		.2byte	0x1
 4113 04e7 54       		.byte	0x54
 4114 04e8 64000000 		.4byte	.LVL95
 4115 04ec 68000000 		.4byte	.LFE21
 4116 04f0 0100     		.2byte	0x1
 4117 04f2 50       		.byte	0x50
 4118 04f3 00000000 		.4byte	0
 4119 04f7 00000000 		.4byte	0
 4120              	.LLST34:
 4121 04fb 00000000 		.4byte	.LVL96
 4122 04ff 13000000 		.4byte	.LVL98-1
 4123 0503 0100     		.2byte	0x1
 4124 0505 50       		.byte	0x50
 4125 0506 13000000 		.4byte	.LVL98-1
 4126 050a 64000000 		.4byte	.LVL108
 4127 050e 0100     		.2byte	0x1
 4128 0510 56       		.byte	0x56
 4129 0511 64000000 		.4byte	.LVL108
 4130 0515 68000000 		.4byte	.LFE22
 4131 0519 0400     		.2byte	0x4
 4132 051b F3       		.byte	0xf3
 4133 051c 01       		.uleb128 0x1
 4134 051d 50       		.byte	0x50
 4135 051e 9F       		.byte	0x9f
 4136 051f 00000000 		.4byte	0
 4137 0523 00000000 		.4byte	0
 4138              	.LLST35:
 4139 0527 00000000 		.4byte	.LVL96
ARM GAS  /tmp/ccHPpRbv.s 			page 74


 4140 052b 13000000 		.4byte	.LVL98-1
 4141 052f 0100     		.2byte	0x1
 4142 0531 51       		.byte	0x51
 4143 0532 13000000 		.4byte	.LVL98-1
 4144 0536 64000000 		.4byte	.LVL108
 4145 053a 0100     		.2byte	0x1
 4146 053c 57       		.byte	0x57
 4147 053d 64000000 		.4byte	.LVL108
 4148 0541 68000000 		.4byte	.LFE22
 4149 0545 0400     		.2byte	0x4
 4150 0547 F3       		.byte	0xf3
 4151 0548 01       		.uleb128 0x1
 4152 0549 51       		.byte	0x51
 4153 054a 9F       		.byte	0x9f
 4154 054b 00000000 		.4byte	0
 4155 054f 00000000 		.4byte	0
 4156              	.LLST36:
 4157 0553 0A000000 		.4byte	.LVL97
 4158 0557 64000000 		.4byte	.LVL108
 4159 055b 0100     		.2byte	0x1
 4160 055d 55       		.byte	0x55
 4161 055e 00000000 		.4byte	0
 4162 0562 00000000 		.4byte	0
 4163              	.LLST37:
 4164 0566 16000000 		.4byte	.LVL99
 4165 056a 1A000000 		.4byte	.LVL100
 4166 056e 0600     		.2byte	0x6
 4167 0570 73       		.byte	0x73
 4168 0571 00       		.sleb128 0
 4169 0572 76       		.byte	0x76
 4170 0573 00       		.sleb128 0
 4171 0574 1A       		.byte	0x1a
 4172 0575 9F       		.byte	0x9f
 4173 0576 1A000000 		.4byte	.LVL100
 4174 057a 64000000 		.4byte	.LVL108
 4175 057e 0100     		.2byte	0x1
 4176 0580 54       		.byte	0x54
 4177 0581 64000000 		.4byte	.LVL108
 4178 0585 68000000 		.4byte	.LFE22
 4179 0589 0100     		.2byte	0x1
 4180 058b 50       		.byte	0x50
 4181 058c 00000000 		.4byte	0
 4182 0590 00000000 		.4byte	0
 4183              	.LLST38:
 4184 0594 00000000 		.4byte	.LVL109
 4185 0598 13000000 		.4byte	.LVL111-1
 4186 059c 0100     		.2byte	0x1
 4187 059e 50       		.byte	0x50
 4188 059f 13000000 		.4byte	.LVL111-1
 4189 05a3 5E000000 		.4byte	.LVL118
 4190 05a7 0100     		.2byte	0x1
 4191 05a9 54       		.byte	0x54
 4192 05aa 5E000000 		.4byte	.LVL118
 4193 05ae 64000000 		.4byte	.LFE23
 4194 05b2 0100     		.2byte	0x1
 4195 05b4 50       		.byte	0x50
 4196 05b5 00000000 		.4byte	0
ARM GAS  /tmp/ccHPpRbv.s 			page 75


 4197 05b9 00000000 		.4byte	0
 4198              	.LLST39:
 4199 05bd 00000000 		.4byte	.LVL109
 4200 05c1 13000000 		.4byte	.LVL111-1
 4201 05c5 0100     		.2byte	0x1
 4202 05c7 51       		.byte	0x51
 4203 05c8 13000000 		.4byte	.LVL111-1
 4204 05cc 5E000000 		.4byte	.LVL118
 4205 05d0 0100     		.2byte	0x1
 4206 05d2 56       		.byte	0x56
 4207 05d3 5E000000 		.4byte	.LVL118
 4208 05d7 64000000 		.4byte	.LFE23
 4209 05db 0400     		.2byte	0x4
 4210 05dd F3       		.byte	0xf3
 4211 05de 01       		.uleb128 0x1
 4212 05df 51       		.byte	0x51
 4213 05e0 9F       		.byte	0x9f
 4214 05e1 00000000 		.4byte	0
 4215 05e5 00000000 		.4byte	0
 4216              	.LLST40:
 4217 05e9 0A000000 		.4byte	.LVL110
 4218 05ed 5E000000 		.4byte	.LVL118
 4219 05f1 0100     		.2byte	0x1
 4220 05f3 55       		.byte	0x55
 4221 05f4 00000000 		.4byte	0
 4222 05f8 00000000 		.4byte	0
 4223              		.section	.debug_aranges,"",%progbits
 4224 0000 9C000000 		.4byte	0x9c
 4225 0004 0200     		.2byte	0x2
 4226 0006 00000000 		.4byte	.Ldebug_info0
 4227 000a 04       		.byte	0x4
 4228 000b 00       		.byte	0
 4229 000c 0000     		.2byte	0
 4230 000e 0000     		.2byte	0
 4231 0010 00000000 		.4byte	.LFB7
 4232 0014 34000000 		.4byte	.LFE7-.LFB7
 4233 0018 00000000 		.4byte	.LFB8
 4234 001c 32000000 		.4byte	.LFE8-.LFB8
 4235 0020 00000000 		.4byte	.LFB9
 4236 0024 30000000 		.4byte	.LFE9-.LFB9
 4237 0028 00000000 		.4byte	.LFB10
 4238 002c 2C000000 		.4byte	.LFE10-.LFB10
 4239 0030 00000000 		.4byte	.LFB12
 4240 0034 22000000 		.4byte	.LFE12-.LFB12
 4241 0038 00000000 		.4byte	.LFB14
 4242 003c 38000000 		.4byte	.LFE14-.LFB14
 4243 0040 00000000 		.4byte	.LFB11
 4244 0044 24000000 		.4byte	.LFE11-.LFB11
 4245 0048 00000000 		.4byte	.LFB13
 4246 004c 28000000 		.4byte	.LFE13-.LFB13
 4247 0050 00000000 		.4byte	.LFB15
 4248 0054 28000000 		.4byte	.LFE15-.LFB15
 4249 0058 00000000 		.4byte	.LFB16
 4250 005c 0A000000 		.4byte	.LFE16-.LFB16
 4251 0060 00000000 		.4byte	.LFB17
 4252 0064 40000000 		.4byte	.LFE17-.LFB17
 4253 0068 00000000 		.4byte	.LFB18
ARM GAS  /tmp/ccHPpRbv.s 			page 76


 4254 006c 44000000 		.4byte	.LFE18-.LFB18
 4255 0070 00000000 		.4byte	.LFB19
 4256 0074 40000000 		.4byte	.LFE19-.LFB19
 4257 0078 00000000 		.4byte	.LFB20
 4258 007c 3C000000 		.4byte	.LFE20-.LFB20
 4259 0080 00000000 		.4byte	.LFB21
 4260 0084 68000000 		.4byte	.LFE21-.LFB21
 4261 0088 00000000 		.4byte	.LFB22
 4262 008c 68000000 		.4byte	.LFE22-.LFB22
 4263 0090 00000000 		.4byte	.LFB23
 4264 0094 64000000 		.4byte	.LFE23-.LFB23
 4265 0098 00000000 		.4byte	0
 4266 009c 00000000 		.4byte	0
 4267              		.section	.debug_ranges,"",%progbits
 4268              	.Ldebug_ranges0:
 4269 0000 00000000 		.4byte	.LFB7
 4270 0004 34000000 		.4byte	.LFE7
 4271 0008 00000000 		.4byte	.LFB8
 4272 000c 32000000 		.4byte	.LFE8
 4273 0010 00000000 		.4byte	.LFB9
 4274 0014 30000000 		.4byte	.LFE9
 4275 0018 00000000 		.4byte	.LFB10
 4276 001c 2C000000 		.4byte	.LFE10
 4277 0020 00000000 		.4byte	.LFB12
 4278 0024 22000000 		.4byte	.LFE12
 4279 0028 00000000 		.4byte	.LFB14
 4280 002c 38000000 		.4byte	.LFE14
 4281 0030 00000000 		.4byte	.LFB11
 4282 0034 24000000 		.4byte	.LFE11
 4283 0038 00000000 		.4byte	.LFB13
 4284 003c 28000000 		.4byte	.LFE13
 4285 0040 00000000 		.4byte	.LFB15
 4286 0044 28000000 		.4byte	.LFE15
 4287 0048 00000000 		.4byte	.LFB16
 4288 004c 0A000000 		.4byte	.LFE16
 4289 0050 00000000 		.4byte	.LFB17
 4290 0054 40000000 		.4byte	.LFE17
 4291 0058 00000000 		.4byte	.LFB18
 4292 005c 44000000 		.4byte	.LFE18
 4293 0060 00000000 		.4byte	.LFB19
 4294 0064 40000000 		.4byte	.LFE19
 4295 0068 00000000 		.4byte	.LFB20
 4296 006c 3C000000 		.4byte	.LFE20
 4297 0070 00000000 		.4byte	.LFB21
 4298 0074 68000000 		.4byte	.LFE21
 4299 0078 00000000 		.4byte	.LFB22
 4300 007c 68000000 		.4byte	.LFE22
 4301 0080 00000000 		.4byte	.LFB23
 4302 0084 64000000 		.4byte	.LFE23
 4303 0088 00000000 		.4byte	0
 4304 008c 00000000 		.4byte	0
 4305              		.section	.debug_line,"",%progbits
 4306              	.Ldebug_line0:
 4307 0000 05030000 		.section	.debug_str,"MS",%progbits,1
 4307      02005101 
 4307      00000201 
 4307      FB0E0D00 
ARM GAS  /tmp/ccHPpRbv.s 			page 77


 4307      01010101 
 4308              	.LASF44:
 4309 0000 705F6D73 		.ascii	"p_msg\000"
 4309      6700
 4310              	.LASF105:
 4311 0006 63684462 		.ascii	"chDbgPanic\000"
 4311      6750616E 
 4311      696300
 4312              	.LASF75:
 4313 0011 7264796D 		.ascii	"rdymsg\000"
 4313      736700
 4314              	.LASF16:
 4315 0018 75696E74 		.ascii	"uint64_t\000"
 4315      36345F74 
 4315      00
 4316              	.LASF5:
 4317 0021 5F5F7569 		.ascii	"__uint8_t\000"
 4317      6E74385F 
 4317      7400
 4318              	.LASF89:
 4319 002b 63684576 		.ascii	"chEvtSignal\000"
 4319      74536967 
 4319      6E616C00 
 4320              	.LASF12:
 4321 0037 6C6F6E67 		.ascii	"long long unsigned int\000"
 4321      206C6F6E 
 4321      6720756E 
 4321      7369676E 
 4321      65642069 
 4322              	.LASF84:
 4323 004e 63684576 		.ascii	"chEvtAddEvents\000"
 4323      74416464 
 4323      4576656E 
 4323      747300
 4324              	.LASF76:
 4325 005d 65786974 		.ascii	"exitcode\000"
 4325      636F6465 
 4325      00
 4326              	.LASF99:
 4327 0066 63684576 		.ascii	"chEvtWaitAnyTimeout\000"
 4327      74576169 
 4327      74416E79 
 4327      54696D65 
 4327      6F757400 
 4328              	.LASF31:
 4329 007a 705F7072 		.ascii	"p_prio\000"
 4329      696F00
 4330              	.LASF10:
 4331 0081 6C6F6E67 		.ascii	"long long int\000"
 4331      206C6F6E 
 4331      6720696E 
 4331      7400
 4332              	.LASF1:
 4333 008f 7369676E 		.ascii	"signed char\000"
 4333      65642063 
 4333      68617200 
 4334              	.LASF100:
ARM GAS  /tmp/ccHPpRbv.s 			page 78


 4335 009b 63684576 		.ascii	"chEvtWaitAllTimeout\000"
 4335      74576169 
 4335      74416C6C 
 4335      54696D65 
 4335      6F757400 
 4336              	.LASF48:
 4337 00af 705F6D70 		.ascii	"p_mpool\000"
 4337      6F6F6C00 
 4338              	.LASF64:
 4339 00b7 6D5F7175 		.ascii	"m_queue\000"
 4339      65756500 
 4340              	.LASF21:
 4341 00bf 74736C69 		.ascii	"tslices_t\000"
 4341      6365735F 
 4341      7400
 4342              	.LASF7:
 4343 00c9 6C6F6E67 		.ascii	"long int\000"
 4343      20696E74 
 4343      00
 4344              	.LASF19:
 4345 00d2 74737461 		.ascii	"tstate_t\000"
 4345      74655F74 
 4345      00
 4346              	.LASF95:
 4347 00db 63684576 		.ascii	"chEvtWaitAny\000"
 4347      74576169 
 4347      74416E79 
 4347      00
 4348              	.LASF107:
 4349 00e8 63685363 		.ascii	"chSchGoSleepTimeoutS\000"
 4349      68476F53 
 4349      6C656570 
 4349      54696D65 
 4349      6F757453 
 4350              	.LASF88:
 4351 00fd 63684576 		.ascii	"chEvtBroadcastFlagsI\000"
 4351      7442726F 
 4351      61646361 
 4351      7374466C 
 4351      61677349 
 4352              	.LASF33:
 4353 0112 705F6E65 		.ascii	"p_newer\000"
 4353      77657200 
 4354              	.LASF104:
 4355 011a 63685363 		.ascii	"chSchRescheduleS\000"
 4355      68526573 
 4355      63686564 
 4355      756C6553 
 4355      00
 4356              	.LASF8:
 4357 012b 5F5F7569 		.ascii	"__uint32_t\000"
 4357      6E743332 
 4357      5F7400
 4358              	.LASF80:
 4359 0136 6D61736B 		.ascii	"mask\000"
 4359      00
 4360              	.LASF51:
ARM GAS  /tmp/ccHPpRbv.s 			page 79


 4361 013b 72656761 		.ascii	"regarm_t\000"
 4361      726D5F74 
 4361      00
 4362              	.LASF90:
 4363 0144 63684576 		.ascii	"chEvtBroadcastFlags\000"
 4363      7442726F 
 4363      61646361 
 4363      7374466C 
 4363      61677300 
 4364              	.LASF24:
 4365 0158 6576656E 		.ascii	"eventid_t\000"
 4365      7469645F 
 4365      7400
 4366              	.LASF72:
 4367 0162 4576656E 		.ascii	"EventSource\000"
 4367      74536F75 
 4367      72636500 
 4368              	.LASF74:
 4369 016e 65766861 		.ascii	"evhandler_t\000"
 4369      6E646C65 
 4369      725F7400 
 4370              	.LASF36:
 4371 017a 705F7374 		.ascii	"p_stklimit\000"
 4371      6B6C696D 
 4371      697400
 4372              	.LASF0:
 4373 0185 756E7369 		.ascii	"unsigned int\000"
 4373      676E6564 
 4373      20696E74 
 4373      00
 4374              	.LASF9:
 4375 0192 6C6F6E67 		.ascii	"long unsigned int\000"
 4375      20756E73 
 4375      69676E65 
 4375      6420696E 
 4375      7400
 4376              	.LASF83:
 4377 01a4 63684576 		.ascii	"chEvtGetAndClearEvents\000"
 4377      74476574 
 4377      416E6443 
 4377      6C656172 
 4377      4576656E 
 4378              	.LASF54:
 4379 01bb 636F6E74 		.ascii	"context\000"
 4379      65787400 
 4380              	.LASF4:
 4381 01c3 73686F72 		.ascii	"short unsigned int\000"
 4381      7420756E 
 4381      7369676E 
 4381      65642069 
 4381      6E7400
 4382              	.LASF81:
 4383 01d6 63684576 		.ascii	"chEvtRegisterMask\000"
 4383      74526567 
 4383      69737465 
 4383      724D6173 
 4383      6B00
ARM GAS  /tmp/ccHPpRbv.s 			page 80


 4384              	.LASF23:
 4385 01e8 6D73675F 		.ascii	"msg_t\000"
 4385      7400
 4386              	.LASF59:
 4387 01ee 725F6E65 		.ascii	"r_newer\000"
 4387      77657200 
 4388              	.LASF68:
 4389 01f6 656C5F6E 		.ascii	"el_next\000"
 4389      65787400 
 4390              	.LASF82:
 4391 01fe 63684576 		.ascii	"chEvtUnregister\000"
 4391      74556E72 
 4391      65676973 
 4391      74657200 
 4392              	.LASF18:
 4393 020e 746D6F64 		.ascii	"tmode_t\000"
 4393      655F7400 
 4394              	.LASF50:
 4395 0216 54687265 		.ascii	"ThreadsList\000"
 4395      6164734C 
 4395      69737400 
 4396              	.LASF25:
 4397 0222 6576656E 		.ascii	"eventmask_t\000"
 4397      746D6173 
 4397      6B5F7400 
 4398              	.LASF108:
 4399 022e 474E5520 		.ascii	"GNU C 4.9.2 20150128 (prerelease) -mcpu=cortex-m4 -"
 4399      4320342E 
 4399      392E3220 
 4399      32303135 
 4399      30313238 
 4400 0261 6D6E6F2D 		.ascii	"mno-thumb-interwork -mthumb -ggdb -Og -std=gnu99 -f"
 4400      7468756D 
 4400      622D696E 
 4400      74657277 
 4400      6F726B20 
 4401 0294 6F6D6974 		.ascii	"omit-frame-pointer -falign-functions=16 -ffunction-"
 4401      2D667261 
 4401      6D652D70 
 4401      6F696E74 
 4401      6572202D 
 4402 02c7 73656374 		.ascii	"sections -fdata-sections -fno-common\000"
 4402      696F6E73 
 4402      202D6664 
 4402      6174612D 
 4402      73656374 
 4403              	.LASF63:
 4404 02ec 4D757465 		.ascii	"Mutex\000"
 4404      7800
 4405              	.LASF52:
 4406 02f2 73746B61 		.ascii	"stkalign_t\000"
 4406      6C69676E 
 4406      5F7400
 4407              	.LASF94:
 4408 02fd 63684576 		.ascii	"chEvtWaitOne\000"
 4408      74576169 
 4408      744F6E65 
ARM GAS  /tmp/ccHPpRbv.s 			page 81


 4408      00
 4409              	.LASF55:
 4410 030a 73697A65 		.ascii	"sizetype\000"
 4410      74797065 
 4410      00
 4411              	.LASF92:
 4412 0313 63684576 		.ascii	"chEvtDispatch\000"
 4412      74446973 
 4412      70617463 
 4412      6800
 4413              	.LASF34:
 4414 0321 705F6F6C 		.ascii	"p_older\000"
 4414      64657200 
 4415              	.LASF58:
 4416 0329 725F6374 		.ascii	"r_ctx\000"
 4416      7800
 4417              	.LASF49:
 4418 032f 54687265 		.ascii	"ThreadsQueue\000"
 4418      61647351 
 4418      75657565 
 4418      00
 4419              	.LASF98:
 4420 033c 74696D65 		.ascii	"time\000"
 4420      00
 4421              	.LASF96:
 4422 0341 63684576 		.ascii	"chEvtWaitAll\000"
 4422      74576169 
 4422      74416C6C 
 4422      00
 4423              	.LASF61:
 4424 034e 725F6375 		.ascii	"r_current\000"
 4424      7272656E 
 4424      7400
 4425              	.LASF60:
 4426 0358 725F6F6C 		.ascii	"r_older\000"
 4426      64657200 
 4427              	.LASF70:
 4428 0360 656C5F6D 		.ascii	"el_mask\000"
 4428      61736B00 
 4429              	.LASF11:
 4430 0368 5F5F7569 		.ascii	"__uint64_t\000"
 4430      6E743634 
 4430      5F7400
 4431              	.LASF93:
 4432 0373 68616E64 		.ascii	"handlers\000"
 4432      6C657273 
 4432      00
 4433              	.LASF20:
 4434 037c 74726566 		.ascii	"trefs_t\000"
 4434      735F7400 
 4435              	.LASF110:
 4436 0384 2F686F6D 		.ascii	"/home/seth/marionette-firmware/src/CAN\000"
 4436      652F7365 
 4436      74682F6D 
 4436      6172696F 
 4436      6E657474 
 4437              	.LASF30:
ARM GAS  /tmp/ccHPpRbv.s 			page 82


 4438 03ab 705F7072 		.ascii	"p_prev\000"
 4438      657600
 4439              	.LASF22:
 4440 03b2 74707269 		.ascii	"tprio_t\000"
 4440      6F5F7400 
 4441              	.LASF17:
 4442 03ba 5F426F6F 		.ascii	"_Bool\000"
 4442      6C00
 4443              	.LASF14:
 4444 03c0 696E7433 		.ascii	"int32_t\000"
 4444      325F7400 
 4445              	.LASF2:
 4446 03c8 756E7369 		.ascii	"unsigned char\000"
 4446      676E6564 
 4446      20636861 
 4446      7200
 4447              	.LASF109:
 4448 03d6 2E2E2F2E 		.ascii	"../../ChibiOS-RT/os/kernel/src/chevents.c\000"
 4448      2E2F4368 
 4448      6962694F 
 4448      532D5254 
 4448      2F6F732F 
 4449              	.LASF69:
 4450 0400 656C5F6C 		.ascii	"el_listener\000"
 4450      69737465 
 4450      6E657200 
 4451              	.LASF71:
 4452 040c 656C5F66 		.ascii	"el_flags\000"
 4452      6C616773 
 4452      00
 4453              	.LASF46:
 4454 0415 705F6D74 		.ascii	"p_mtxlist\000"
 4454      786C6973 
 4454      7400
 4455              	.LASF3:
 4456 041f 73686F72 		.ascii	"short int\000"
 4456      7420696E 
 4456      7400
 4457              	.LASF37:
 4458 0429 705F7374 		.ascii	"p_state\000"
 4458      61746500 
 4459              	.LASF40:
 4460 0431 705F7072 		.ascii	"p_preempt\000"
 4460      65656D70 
 4460      7400
 4461              	.LASF57:
 4462 043b 725F7072 		.ascii	"r_prio\000"
 4462      696F00
 4463              	.LASF91:
 4464 0442 63684576 		.ascii	"chEvtGetAndClearFlagsI\000"
 4464      74476574 
 4464      416E6443 
 4464      6C656172 
 4464      466C6167 
 4465              	.LASF78:
 4466 0459 65776D61 		.ascii	"ewmask\000"
 4466      736B00
ARM GAS  /tmp/ccHPpRbv.s 			page 83


 4467              	.LASF29:
 4468 0460 705F6E65 		.ascii	"p_next\000"
 4468      787400
 4469              	.LASF38:
 4470 0467 705F666C 		.ascii	"p_flags\000"
 4470      61677300 
 4471              	.LASF28:
 4472 046f 54687265 		.ascii	"Thread\000"
 4472      616400
 4473              	.LASF106:
 4474 0476 63685363 		.ascii	"chSchGoSleepS\000"
 4474      68476F53 
 4474      6C656570 
 4474      5300
 4475              	.LASF45:
 4476 0484 705F6570 		.ascii	"p_epending\000"
 4476      656E6469 
 4476      6E6700
 4477              	.LASF15:
 4478 048f 75696E74 		.ascii	"uint32_t\000"
 4478      33325F74 
 4478      00
 4479              	.LASF56:
 4480 0498 725F7175 		.ascii	"r_queue\000"
 4480      65756500 
 4481              	.LASF112:
 4482 04a0 63685363 		.ascii	"chSchReadyI\000"
 4482      68526561 
 4482      64794900 
 4483              	.LASF79:
 4484 04ac 63686172 		.ascii	"char\000"
 4484      00
 4485              	.LASF66:
 4486 04b1 6D5F6E65 		.ascii	"m_next\000"
 4486      787400
 4487              	.LASF27:
 4488 04b8 73797374 		.ascii	"systime_t\000"
 4488      696D655F 
 4488      7400
 4489              	.LASF47:
 4490 04c2 705F7265 		.ascii	"p_realprio\000"
 4490      616C7072 
 4490      696F00
 4491              	.LASF6:
 4492 04cd 5F5F696E 		.ascii	"__int32_t\000"
 4492      7433325F 
 4492      7400
 4493              	.LASF41:
 4494 04d7 705F7469 		.ascii	"p_time\000"
 4494      6D6500
 4495              	.LASF53:
 4496 04de 696E7463 		.ascii	"intctx\000"
 4496      747800
 4497              	.LASF43:
 4498 04e5 705F6D73 		.ascii	"p_msgqueue\000"
 4498      67717565 
 4498      756500
ARM GAS  /tmp/ccHPpRbv.s 			page 84


 4499              	.LASF26:
 4500 04f0 666C6167 		.ascii	"flagsmask_t\000"
 4500      736D6173 
 4500      6B5F7400 
 4501              	.LASF39:
 4502 04fc 705F7265 		.ascii	"p_refs\000"
 4502      667300
 4503              	.LASF62:
 4504 0503 52656164 		.ascii	"ReadyList\000"
 4504      794C6973 
 4504      7400
 4505              	.LASF111:
 4506 050d 726C6973 		.ascii	"rlist\000"
 4506      7400
 4507              	.LASF13:
 4508 0513 75696E74 		.ascii	"uint8_t\000"
 4508      385F7400 
 4509              	.LASF86:
 4510 051b 666C6167 		.ascii	"flags\000"
 4510      7300
 4511              	.LASF67:
 4512 0521 4576656E 		.ascii	"EventListener\000"
 4512      744C6973 
 4512      74656E65 
 4512      7200
 4513              	.LASF97:
 4514 052f 63684576 		.ascii	"chEvtWaitOneTimeout\000"
 4514      74576169 
 4514      744F6E65 
 4514      54696D65 
 4514      6F757400 
 4515              	.LASF77:
 4516 0543 77746F62 		.ascii	"wtobjp\000"
 4516      6A7000
 4517              	.LASF35:
 4518 054a 705F6E61 		.ascii	"p_name\000"
 4518      6D6500
 4519              	.LASF73:
 4520 0551 65735F6E 		.ascii	"es_next\000"
 4520      65787400 
 4521              	.LASF85:
 4522 0559 63684576 		.ascii	"chEvtGetAndClearFlags\000"
 4522      74476574 
 4522      416E6443 
 4522      6C656172 
 4522      466C6167 
 4523              	.LASF102:
 4524 056f 6462675F 		.ascii	"dbg_check_unlock\000"
 4524      63686563 
 4524      6B5F756E 
 4524      6C6F636B 
 4524      00
 4525              	.LASF103:
 4526 0580 63684462 		.ascii	"chDbgCheckClassI\000"
 4526      67436865 
 4526      636B436C 
 4526      61737349 
ARM GAS  /tmp/ccHPpRbv.s 			page 85


 4526      00
 4527              	.LASF65:
 4528 0591 6D5F6F77 		.ascii	"m_owner\000"
 4528      6E657200 
 4529              	.LASF101:
 4530 0599 6462675F 		.ascii	"dbg_check_lock\000"
 4530      63686563 
 4530      6B5F6C6F 
 4530      636B00
 4531              	.LASF32:
 4532 05a8 705F6374 		.ascii	"p_ctx\000"
 4532      7800
 4533              	.LASF42:
 4534 05ae 705F7761 		.ascii	"p_waiting\000"
 4534      6974696E 
 4534      6700
 4535              	.LASF87:
 4536 05b8 63684576 		.ascii	"chEvtSignalI\000"
 4536      74536967 
 4536      6E616C49 
 4536      00
 4537              		.ident	"GCC: (Arch Repository) 4.9.2 20150128 (prerelease)"
ARM GAS  /tmp/ccHPpRbv.s 			page 86


DEFINED SYMBOLS
                            *ABS*:0000000000000000 chevents.c
     /tmp/ccHPpRbv.s:19     .text.chEvtRegisterMask:0000000000000000 $t
     /tmp/ccHPpRbv.s:25     .text.chEvtRegisterMask:0000000000000000 chEvtRegisterMask
     /tmp/ccHPpRbv.s:81     .text.chEvtRegisterMask:0000000000000030 $d
     /tmp/ccHPpRbv.s:87     .text.chEvtUnregister:0000000000000000 $t
     /tmp/ccHPpRbv.s:93     .text.chEvtUnregister:0000000000000000 chEvtUnregister
     /tmp/ccHPpRbv.s:158    .text.chEvtGetAndClearEvents:0000000000000000 $t
     /tmp/ccHPpRbv.s:164    .text.chEvtGetAndClearEvents:0000000000000000 chEvtGetAndClearEvents
     /tmp/ccHPpRbv.s:214    .text.chEvtGetAndClearEvents:000000000000002c $d
     /tmp/ccHPpRbv.s:219    .text.chEvtAddEvents:0000000000000000 $t
     /tmp/ccHPpRbv.s:225    .text.chEvtAddEvents:0000000000000000 chEvtAddEvents
     /tmp/ccHPpRbv.s:272    .text.chEvtAddEvents:0000000000000028 $d
     /tmp/ccHPpRbv.s:277    .text.chEvtGetAndClearFlags:0000000000000000 $t
     /tmp/ccHPpRbv.s:283    .text.chEvtGetAndClearFlags:0000000000000000 chEvtGetAndClearFlags
     /tmp/ccHPpRbv.s:330    .text.chEvtSignalI:0000000000000000 $t
     /tmp/ccHPpRbv.s:336    .text.chEvtSignalI:0000000000000000 chEvtSignalI
     /tmp/ccHPpRbv.s:390    .text.chEvtBroadcastFlagsI:0000000000000000 $t
     /tmp/ccHPpRbv.s:396    .text.chEvtBroadcastFlagsI:0000000000000000 chEvtBroadcastFlagsI
     /tmp/ccHPpRbv.s:442    .text.chEvtSignal:0000000000000000 $t
     /tmp/ccHPpRbv.s:448    .text.chEvtSignal:0000000000000000 chEvtSignal
     /tmp/ccHPpRbv.s:496    .text.chEvtBroadcastFlags:0000000000000000 $t
     /tmp/ccHPpRbv.s:502    .text.chEvtBroadcastFlags:0000000000000000 chEvtBroadcastFlags
     /tmp/ccHPpRbv.s:550    .text.chEvtGetAndClearFlagsI:0000000000000000 $t
     /tmp/ccHPpRbv.s:556    .text.chEvtGetAndClearFlagsI:0000000000000000 chEvtGetAndClearFlagsI
     /tmp/ccHPpRbv.s:577    .text.chEvtDispatch:0000000000000000 $t
     /tmp/ccHPpRbv.s:583    .text.chEvtDispatch:0000000000000000 chEvtDispatch
     /tmp/ccHPpRbv.s:643    .text.chEvtDispatch:000000000000003c $d
     /tmp/ccHPpRbv.s:648    .text.chEvtWaitOne:0000000000000000 $t
     /tmp/ccHPpRbv.s:654    .text.chEvtWaitOne:0000000000000000 chEvtWaitOne
     /tmp/ccHPpRbv.s:725    .text.chEvtWaitOne:0000000000000040 $d
     /tmp/ccHPpRbv.s:730    .text.chEvtWaitAny:0000000000000000 $t
     /tmp/ccHPpRbv.s:736    .text.chEvtWaitAny:0000000000000000 chEvtWaitAny
     /tmp/ccHPpRbv.s:803    .text.chEvtWaitAny:000000000000003c $d
     /tmp/ccHPpRbv.s:808    .text.chEvtWaitAll:0000000000000000 $t
     /tmp/ccHPpRbv.s:814    .text.chEvtWaitAll:0000000000000000 chEvtWaitAll
     /tmp/ccHPpRbv.s:875    .text.chEvtWaitAll:0000000000000038 $d
     /tmp/ccHPpRbv.s:880    .text.chEvtWaitOneTimeout:0000000000000000 $t
     /tmp/ccHPpRbv.s:886    .text.chEvtWaitOneTimeout:0000000000000000 chEvtWaitOneTimeout
     /tmp/ccHPpRbv.s:994    .text.chEvtWaitOneTimeout:0000000000000064 $d
     /tmp/ccHPpRbv.s:999    .text.chEvtWaitAnyTimeout:0000000000000000 $t
     /tmp/ccHPpRbv.s:1005   .text.chEvtWaitAnyTimeout:0000000000000000 chEvtWaitAnyTimeout
     /tmp/ccHPpRbv.s:1110   .text.chEvtWaitAnyTimeout:0000000000000064 $d
     /tmp/ccHPpRbv.s:1115   .text.chEvtWaitAllTimeout:0000000000000000 $t
     /tmp/ccHPpRbv.s:1121   .text.chEvtWaitAllTimeout:0000000000000000 chEvtWaitAllTimeout
     /tmp/ccHPpRbv.s:1218   .text.chEvtWaitAllTimeout:0000000000000060 $d
     /tmp/ccHPpRbv.s:1223   .rodata.str1.4:0000000000000000 $d
                     .debug_frame:0000000000000010 $d
     /tmp/ccHPpRbv.s:86     .text.chEvtRegisterMask:0000000000000034 $t
     /tmp/ccHPpRbv.s:276    .text.chEvtAddEvents:000000000000002c $t
     /tmp/ccHPpRbv.s:729    .text.chEvtWaitOne:0000000000000044 $t
     /tmp/ccHPpRbv.s:879    .text.chEvtWaitAll:000000000000003c $t
     /tmp/ccHPpRbv.s:998    .text.chEvtWaitOneTimeout:0000000000000068 $t
     /tmp/ccHPpRbv.s:1114   .text.chEvtWaitAnyTimeout:0000000000000068 $t
     /tmp/ccHPpRbv.s:1222   .text.chEvtWaitAllTimeout:0000000000000064 $t

UNDEFINED SYMBOLS
ARM GAS  /tmp/ccHPpRbv.s 			page 87


dbg_check_lock
dbg_check_unlock
rlist
chDbgCheckClassI
chSchReadyI
chSchRescheduleS
chDbgPanic
chSchGoSleepS
chSchGoSleepTimeoutS
