ARM GAS  /tmp/ccajsLhP.s 			page 1


   1              		.syntax unified
   2              		.cpu cortex-m4
   3              		.fpu softvfp
   4              		.eabi_attribute 20, 1
   5              		.eabi_attribute 21, 1
   6              		.eabi_attribute 23, 3
   7              		.eabi_attribute 24, 1
   8              		.eabi_attribute 25, 1
   9              		.eabi_attribute 26, 1
  10              		.eabi_attribute 30, 1
  11              		.eabi_attribute 34, 1
  12              		.eabi_attribute 18, 4
  13              		.thumb
  14              		.file	"chmemcore.c"
  15              		.text
  16              	.Ltext0:
  17              		.cfi_sections	.debug_frame
  18              		.section	.text._core_init,"ax",%progbits
  19              		.align	2
  20              		.p2align 4,,15
  21              		.global	_core_init
  22              		.thumb
  23              		.thumb_func
  24              		.type	_core_init, %function
  25              	_core_init:
  26              	.LFB7:
  27              		.file 1 "../../ChibiOS-RT/os/kernel/src/chmemcore.c"
  28              		.loc 1 66 0
  29              		.cfi_startproc
  30              		@ args = 0, pretend = 0, frame = 0
  31              		@ frame_needed = 0, uses_anonymous_args = 0
  32              		@ link register save eliminated.
  33              		.loc 1 70 0
  34 0000 054B     		ldr	r3, .L2
  35 0002 23F00703 		bic	r3, r3, #7
  36 0006 054A     		ldr	r2, .L2+4
  37 0008 1360     		str	r3, [r2]
  38              		.loc 1 71 0
  39 000a 054A     		ldr	r2, .L2+8
  40 000c 054B     		ldr	r3, .L2+12
  41 000e 23F00703 		bic	r3, r3, #7
  42 0012 1360     		str	r3, [r2]
  43 0014 7047     		bx	lr
  44              	.L3:
  45 0016 00BF     		.align	2
  46              	.L2:
  47 0018 07000000 		.word	__heap_base__+7
  48 001c 00000000 		.word	.LANCHOR0
  49 0020 00000000 		.word	.LANCHOR1
  50 0024 00000000 		.word	__heap_end__
  51              		.cfi_endproc
  52              	.LFE7:
  53              		.size	_core_init, .-_core_init
  54 0028 AFF30080 		.section	.text.chCoreAllocI,"ax",%progbits
  54      AFF30080 
  55              		.align	2
  56              		.p2align 4,,15
ARM GAS  /tmp/ccajsLhP.s 			page 2


  57              		.global	chCoreAllocI
  58              		.thumb
  59              		.thumb_func
  60              		.type	chCoreAllocI, %function
  61              	chCoreAllocI:
  62              	.LFB9:
  63              		.loc 1 112 0
  64              		.cfi_startproc
  65              		@ args = 0, pretend = 0, frame = 0
  66              		@ frame_needed = 0, uses_anonymous_args = 0
  67              	.LVL0:
  68 0000 10B5     		push	{r4, lr}
  69              		.cfi_def_cfa_offset 8
  70              		.cfi_offset 4, -8
  71              		.cfi_offset 14, -4
  72 0002 0446     		mov	r4, r0
  73              		.loc 1 115 0
  74 0004 FFF7FEFF 		bl	chDbgCheckClassI
  75              	.LVL1:
  76              		.loc 1 117 0
  77 0008 E31D     		adds	r3, r4, #7
  78 000a 23F00703 		bic	r3, r3, #7
  79              	.LVL2:
  80              		.loc 1 118 0
  81 000e 064A     		ldr	r2, .L8
  82 0010 1068     		ldr	r0, [r2]
  83 0012 064A     		ldr	r2, .L8+4
  84 0014 1268     		ldr	r2, [r2]
  85 0016 121A     		subs	r2, r2, r0
  86 0018 9A42     		cmp	r2, r3
  87 001a 03D3     		bcc	.L6
  88              	.LVL3:
  89              		.loc 1 121 0
  90 001c 0344     		add	r3, r3, r0
  91              	.LVL4:
  92 001e 024A     		ldr	r2, .L8
  93 0020 1360     		str	r3, [r2]
  94              		.loc 1 122 0
  95 0022 10BD     		pop	{r4, pc}
  96              	.LVL5:
  97              	.L6:
  98              		.loc 1 119 0
  99 0024 0020     		movs	r0, #0
 100              		.loc 1 123 0
 101 0026 10BD     		pop	{r4, pc}
 102              	.L9:
 103              		.align	2
 104              	.L8:
 105 0028 00000000 		.word	.LANCHOR0
 106 002c 00000000 		.word	.LANCHOR1
 107              		.cfi_endproc
 108              	.LFE9:
 109              		.size	chCoreAllocI, .-chCoreAllocI
 110              		.section	.text.chCoreAlloc,"ax",%progbits
 111              		.align	2
 112              		.p2align 4,,15
 113              		.global	chCoreAlloc
ARM GAS  /tmp/ccajsLhP.s 			page 3


 114              		.thumb
 115              		.thumb_func
 116              		.type	chCoreAlloc, %function
 117              	chCoreAlloc:
 118              	.LFB8:
 119              		.loc 1 91 0
 120              		.cfi_startproc
 121              		@ args = 0, pretend = 0, frame = 0
 122              		@ frame_needed = 0, uses_anonymous_args = 0
 123              	.LVL6:
 124 0000 10B5     		push	{r4, lr}
 125              		.cfi_def_cfa_offset 8
 126              		.cfi_offset 4, -8
 127              		.cfi_offset 14, -4
 128 0002 0446     		mov	r4, r0
 129              	.LBB2:
 130              		.loc 1 94 0
 131 0004 2023     		movs	r3, #32
 132              	@ 94 "../../ChibiOS-RT/os/kernel/src/chmemcore.c" 1
 133 0006 83F31188 		msr     BASEPRI, r3
 134              	@ 0 "" 2
 135              		.thumb
 136              	.LBE2:
 137 000a FFF7FEFF 		bl	dbg_check_lock
 138              	.LVL7:
 139              		.loc 1 95 0
 140 000e 2046     		mov	r0, r4
 141 0010 FFF7FEFF 		bl	chCoreAllocI
 142              	.LVL8:
 143 0014 0446     		mov	r4, r0
 144              	.LVL9:
 145              		.loc 1 96 0
 146 0016 FFF7FEFF 		bl	dbg_check_unlock
 147              	.LVL10:
 148              	.LBB3:
 149 001a 0023     		movs	r3, #0
 150              	@ 96 "../../ChibiOS-RT/os/kernel/src/chmemcore.c" 1
 151 001c 83F31188 		msr     BASEPRI, r3
 152              	@ 0 "" 2
 153              		.thumb
 154              	.LBE3:
 155              		.loc 1 98 0
 156 0020 2046     		mov	r0, r4
 157 0022 10BD     		pop	{r4, pc}
 158              		.cfi_endproc
 159              	.LFE8:
 160              		.size	chCoreAlloc, .-chCoreAlloc
 161 0024 AFF30080 		.section	.text.chCoreStatus,"ax",%progbits
 161      AFF30080 
 161      AFF30080 
 162              		.align	2
 163              		.p2align 4,,15
 164              		.global	chCoreStatus
 165              		.thumb
 166              		.thumb_func
 167              		.type	chCoreStatus, %function
 168              	chCoreStatus:
ARM GAS  /tmp/ccajsLhP.s 			page 4


 169              	.LFB10:
 170              		.loc 1 132 0
 171              		.cfi_startproc
 172              		@ args = 0, pretend = 0, frame = 0
 173              		@ frame_needed = 0, uses_anonymous_args = 0
 174              		@ link register save eliminated.
 175              		.loc 1 134 0
 176 0000 024B     		ldr	r3, .L13
 177 0002 1868     		ldr	r0, [r3]
 178 0004 024B     		ldr	r3, .L13+4
 179 0006 1B68     		ldr	r3, [r3]
 180              		.loc 1 135 0
 181 0008 C01A     		subs	r0, r0, r3
 182 000a 7047     		bx	lr
 183              	.L14:
 184              		.align	2
 185              	.L13:
 186 000c 00000000 		.word	.LANCHOR1
 187 0010 00000000 		.word	.LANCHOR0
 188              		.cfi_endproc
 189              	.LFE10:
 190              		.size	chCoreStatus, .-chCoreStatus
 191 0014 AFF30080 		.section	.bss.endmem,"aw",%nobits
 191      AFF30080 
 191      AFF30080 
 192              		.align	2
 193              		.set	.LANCHOR1,. + 0
 194              		.type	endmem, %object
 195              		.size	endmem, 4
 196              	endmem:
 197 0000 00000000 		.space	4
 198              		.section	.bss.nextmem,"aw",%nobits
 199              		.align	2
 200              		.set	.LANCHOR0,. + 0
 201              		.type	nextmem, %object
 202              		.size	nextmem, 4
 203              	nextmem:
 204 0000 00000000 		.space	4
 205              		.text
 206              	.Letext0:
 207              		.file 2 "/usr/lib/gcc/arm-none-eabi/4.9.2/include/stddef.h"
 208              		.file 3 "/usr/arm-none-eabi/include/machine/_default_types.h"
 209              		.file 4 "/usr/arm-none-eabi/include/stdint.h"
 210              		.file 5 "../../ChibiOS-RT/os/kernel/include/chdebug.h"