ARM GAS  /tmp/ccAKfHG8.s 			page 1


   1              		.syntax unified
   2              		.cpu cortex-m4
   3              		.fpu softvfp
   4              		.eabi_attribute 20, 1
   5              		.eabi_attribute 21, 1
   6              		.eabi_attribute 23, 3
   7              		.eabi_attribute 24, 1
   8              		.eabi_attribute 25, 1
   9              		.eabi_attribute 26, 1
  10              		.eabi_attribute 30, 1
  11              		.eabi_attribute 34, 1
  12              		.eabi_attribute 18, 4
  13              		.thumb
  14              		.file	"chmsg.c"
  15              		.text
  16              	.Ltext0:
  17              		.cfi_sections	.debug_frame
  18              		.section	.text.chMsgSend,"ax",%progbits
  19              		.align	2
  20              		.p2align 4,,15
  21              		.global	chMsgSend
  22              		.thumb
  23              		.thumb_func
  24              		.type	chMsgSend, %function
  25              	chMsgSend:
  26              	.LFB7:
  27              		.file 1 "../../ChibiOS-RT/os/kernel/src/chmsg.c"
  28              		.loc 1 75 0
  29              		.cfi_startproc
  30              		@ args = 0, pretend = 0, frame = 0
  31              		@ frame_needed = 0, uses_anonymous_args = 0
  32              	.LVL0:
  33 0000 70B5     		push	{r4, r5, r6, lr}
  34              		.cfi_def_cfa_offset 16
  35              		.cfi_offset 4, -16
  36              		.cfi_offset 5, -12
  37              		.cfi_offset 6, -8
  38              		.cfi_offset 14, -4
  39 0002 0546     		mov	r5, r0
  40 0004 0E46     		mov	r6, r1
  41              		.loc 1 76 0
  42 0006 114B     		ldr	r3, .L4
  43 0008 9C69     		ldr	r4, [r3, #24]
  44              	.LVL1:
  45              	.LBB10:
  46              		.loc 1 80 0
  47 000a 2023     		movs	r3, #32
  48              	@ 80 "../../ChibiOS-RT/os/kernel/src/chmsg.c" 1
  49 000c 83F31188 		msr     BASEPRI, r3
  50              	@ 0 "" 2
  51              		.thumb
  52              	.LBE10:
  53 0010 FFF7FEFF 		bl	dbg_check_lock
  54              	.LVL2:
  55              		.loc 1 81 0
  56 0014 A663     		str	r6, [r4, #56]
  57              		.loc 1 82 0
ARM GAS  /tmp/ccAKfHG8.s 			page 2


  58 0016 05F13003 		add	r3, r5, #48
  59 001a A362     		str	r3, [r4, #40]
  60              	.LVL3:
  61              	.LBB11:
  62              	.LBB12:
  63              		.file 2 "../../ChibiOS-RT/os/kernel/include/chinline.h"
  64              		.loc 2 54 0
  65 001c 2360     		str	r3, [r4]
  66              		.loc 2 55 0
  67 001e 6B6B     		ldr	r3, [r5, #52]
  68              	.LVL4:
  69 0020 6360     		str	r3, [r4, #4]
  70              		.loc 2 56 0
  71 0022 6C63     		str	r4, [r5, #52]
  72              	.LVL5:
  73 0024 1C60     		str	r4, [r3]
  74              	.LBE12:
  75              	.LBE11:
  76              		.loc 1 84 0
  77 0026 95F82030 		ldrb	r3, [r5, #32]	@ zero_extendqisi2
  78 002a 0C2B     		cmp	r3, #12
  79 002c 02D1     		bne	.L2
  80              		.loc 1 85 0
  81 002e 2846     		mov	r0, r5
  82 0030 FFF7FEFF 		bl	chSchReadyI
  83              	.LVL6:
  84              	.L2:
  85              		.loc 1 86 0
  86 0034 0A20     		movs	r0, #10
  87 0036 FFF7FEFF 		bl	chSchGoSleepS
  88              	.LVL7:
  89              		.loc 1 87 0
  90 003a A46A     		ldr	r4, [r4, #40]
  91              	.LVL8:
  92              		.loc 1 88 0
  93 003c FFF7FEFF 		bl	dbg_check_unlock
  94              	.LVL9:
  95              	.LBB13:
  96 0040 0023     		movs	r3, #0
  97              	@ 88 "../../ChibiOS-RT/os/kernel/src/chmsg.c" 1
  98 0042 83F31188 		msr     BASEPRI, r3
  99              	@ 0 "" 2
 100              		.thumb
 101              	.LBE13:
 102              		.loc 1 90 0
 103 0046 2046     		mov	r0, r4
 104 0048 70BD     		pop	{r4, r5, r6, pc}
 105              	.LVL10:
 106              	.L5:
 107 004a 00BF     		.align	2
 108              	.L4:
 109 004c 00000000 		.word	rlist
 110              		.cfi_endproc
 111              	.LFE7:
 112              		.size	chMsgSend, .-chMsgSend
 113              		.section	.text.chMsgWait,"ax",%progbits
 114              		.align	2
ARM GAS  /tmp/ccAKfHG8.s 			page 3


 115              		.p2align 4,,15
 116              		.global	chMsgWait
 117              		.thumb
 118              		.thumb_func
 119              		.type	chMsgWait, %function
 120              	chMsgWait:
 121              	.LFB8:
 122              		.loc 1 106 0
 123              		.cfi_startproc
 124              		@ args = 0, pretend = 0, frame = 0
 125              		@ frame_needed = 0, uses_anonymous_args = 0
 126 0000 10B5     		push	{r4, lr}
 127              		.cfi_def_cfa_offset 8
 128              		.cfi_offset 4, -8
 129              		.cfi_offset 14, -4
 130              	.LBB14:
 131              		.loc 1 109 0
 132 0002 2023     		movs	r3, #32
 133              	@ 109 "../../ChibiOS-RT/os/kernel/src/chmsg.c" 1
 134 0004 83F31188 		msr     BASEPRI, r3
 135              	@ 0 "" 2
 136              		.thumb
 137              	.LBE14:
 138 0008 FFF7FEFF 		bl	dbg_check_lock
 139              	.LVL11:
 140              		.loc 1 110 0
 141 000c 0D4B     		ldr	r3, .L9
 142 000e 9B69     		ldr	r3, [r3, #24]
 143 0010 53F8302F 		ldr	r2, [r3, #48]!
 144 0014 9A42     		cmp	r2, r3
 145 0016 02D1     		bne	.L7
 146              		.loc 1 111 0
 147 0018 0C20     		movs	r0, #12
 148 001a FFF7FEFF 		bl	chSchGoSleepS
 149              	.LVL12:
 150              	.L7:
 151              		.loc 1 112 0
 152 001e 094B     		ldr	r3, .L9
 153 0020 9B69     		ldr	r3, [r3, #24]
 154 0022 03F13001 		add	r1, r3, #48
 155              	.LVL13:
 156              	.LBB15:
 157              	.LBB16:
 158              		.loc 2 60 0
 159 0026 1C6B     		ldr	r4, [r3, #48]
 160              	.LVL14:
 161              		.loc 2 62 0
 162 0028 2268     		ldr	r2, [r4]
 163 002a 1A63     		str	r2, [r3, #48]
 164 002c 5160     		str	r1, [r2, #4]
 165              	.LBE16:
 166              	.LBE15:
 167              		.loc 1 113 0
 168 002e 0B23     		movs	r3, #11
 169 0030 84F82030 		strb	r3, [r4, #32]
 170              		.loc 1 114 0
 171 0034 FFF7FEFF 		bl	dbg_check_unlock
ARM GAS  /tmp/ccAKfHG8.s 			page 4


 172              	.LVL15:
 173              	.LBB17:
 174 0038 0023     		movs	r3, #0
 175              	@ 114 "../../ChibiOS-RT/os/kernel/src/chmsg.c" 1
 176 003a 83F31188 		msr     BASEPRI, r3
 177              	@ 0 "" 2
 178              		.thumb
 179              	.LBE17:
 180              		.loc 1 116 0
 181 003e 2046     		mov	r0, r4
 182 0040 10BD     		pop	{r4, pc}
 183              	.LVL16:
 184              	.L10:
 185 0042 00BF     		.align	2
 186              	.L9:
 187 0044 00000000 		.word	rlist
 188              		.cfi_endproc
 189              	.LFE8:
 190              		.size	chMsgWait, .-chMsgWait
 191 0048 AFF30080 		.section	.text.chMsgRelease,"ax",%progbits
 191      AFF30080 
 192              		.align	2
 193              		.p2align 4,,15
 194              		.global	chMsgRelease
 195              		.thumb
 196              		.thumb_func
 197              		.type	chMsgRelease, %function
 198              	chMsgRelease:
 199              	.LFB9:
 200              		.loc 1 128 0
 201              		.cfi_startproc
 202              		@ args = 0, pretend = 0, frame = 0
 203              		@ frame_needed = 0, uses_anonymous_args = 0
 204              	.LVL17:
 205 0000 38B5     		push	{r3, r4, r5, lr}
 206              		.cfi_def_cfa_offset 16
 207              		.cfi_offset 3, -16
 208              		.cfi_offset 4, -12
 209              		.cfi_offset 5, -8
 210              		.cfi_offset 14, -4
 211 0002 0446     		mov	r4, r0
 212 0004 0D46     		mov	r5, r1
 213              	.LBB18:
 214              		.loc 1 130 0
 215 0006 2023     		movs	r3, #32
 216              	@ 130 "../../ChibiOS-RT/os/kernel/src/chmsg.c" 1
 217 0008 83F31188 		msr     BASEPRI, r3
 218              	@ 0 "" 2
 219              		.thumb
 220              	.LBE18:
 221 000c FFF7FEFF 		bl	dbg_check_lock
 222              	.LVL18:
 223              		.loc 1 131 0
 224 0010 94F82030 		ldrb	r3, [r4, #32]	@ zero_extendqisi2
 225 0014 0B2B     		cmp	r3, #11
 226 0016 02D0     		beq	.L12
 227              		.loc 1 131 0 is_stmt 0 discriminator 1
ARM GAS  /tmp/ccAKfHG8.s 			page 5


 228 0018 0648     		ldr	r0, .L14
 229 001a FFF7FEFF 		bl	chDbgPanic
 230              	.LVL19:
 231              	.L12:
 232              		.loc 1 133 0 is_stmt 1
 233 001e 2046     		mov	r0, r4
 234 0020 2946     		mov	r1, r5
 235 0022 FFF7FEFF 		bl	chSchWakeupS
 236              	.LVL20:
 237              		.loc 1 134 0
 238 0026 FFF7FEFF 		bl	dbg_check_unlock
 239              	.LVL21:
 240              	.LBB19:
 241 002a 0023     		movs	r3, #0
 242              	@ 134 "../../ChibiOS-RT/os/kernel/src/chmsg.c" 1
 243 002c 83F31188 		msr     BASEPRI, r3
 244              	@ 0 "" 2
 245              		.thumb
 246 0030 38BD     		pop	{r3, r4, r5, pc}
 247              	.LVL22:
 248              	.L15:
 249 0032 00BF     		.align	2
 250              	.L14:
 251 0034 00000000 		.word	.LC0
 252              	.LBE19:
 253              		.cfi_endproc
 254              	.LFE9:
 255              		.size	chMsgRelease, .-chMsgRelease
 256 0038 AFF30080 		.section	.rodata.str1.4,"aMS",%progbits,1
 256      AFF30080 
 257              		.align	2
 258              	.LC0:
 259 0000 63684D73 		.ascii	"chMsgRelease(), #1\000"
 259      6752656C 
 259      65617365 
 259      28292C20 
 259      233100
 260 0013 00       		.text
 261              	.Letext0:
 262              		.file 3 "/usr/arm-none-eabi/include/machine/_default_types.h"
 263              		.file 4 "/usr/arm-none-eabi/include/stdint.h"
 264              		.file 5 "../../ChibiOS-RT/os/ports/GCC/ARMCMx/chtypes.h"
 265              		.file 6 "../../ChibiOS-RT/os/kernel/include/chlists.h"
 266              		.file 7 "../../ChibiOS-RT/os/kernel/include/chthreads.h"
 267              		.file 8 "../../ChibiOS-RT/os/ports/GCC/ARMCMx/chcore_v7m.h"
 268              		.file 9 "../../ChibiOS-RT/os/kernel/include/chschd.h"
 269              		.file 10 "../../ChibiOS-RT/os/kernel/include/chmtx.h"
 270              		.file 11 "../../ChibiOS-RT/os/kernel/include/chdebug.h"