ARM GAS  /tmp/ccOiGXXl.s 			page 1


   1              		.syntax unified
   2              		.cpu cortex-m4
   3              		.fpu softvfp
   4              		.eabi_attribute 20, 1
   5              		.eabi_attribute 21, 1
   6              		.eabi_attribute 23, 3
   7              		.eabi_attribute 24, 1
   8              		.eabi_attribute 25, 1
   9              		.eabi_attribute 26, 1
  10              		.eabi_attribute 30, 1
  11              		.eabi_attribute 34, 1
  12              		.eabi_attribute 18, 4
  13              		.thumb
  14              		.file	"chmtx.c"
  15              		.text
  16              	.Ltext0:
  17              		.cfi_sections	.debug_frame
  18              		.section	.text.chMtxInit,"ax",%progbits
  19              		.align	2
  20              		.p2align 4,,15
  21              		.global	chMtxInit
  22              		.thumb
  23              		.thumb_func
  24              		.type	chMtxInit, %function
  25              	chMtxInit:
  26              	.LFB7:
  27              		.file 1 "../../ChibiOS-RT/os/kernel/src/chmtx.c"
  28              		.loc 1 86 0
  29              		.cfi_startproc
  30              		@ args = 0, pretend = 0, frame = 0
  31              		@ frame_needed = 0, uses_anonymous_args = 0
  32              		@ link register save eliminated.
  33              	.LVL0:
  34              		.loc 1 90 0
  35 0000 4060     		str	r0, [r0, #4]
  36 0002 0060     		str	r0, [r0]
  37              		.loc 1 91 0
  38 0004 0023     		movs	r3, #0
  39 0006 8360     		str	r3, [r0, #8]
  40 0008 7047     		bx	lr
  41              		.cfi_endproc
  42              	.LFE7:
  43              		.size	chMtxInit, .-chMtxInit
  44 000a 00BFAFF3 		.section	.text.chMtxLockS,"ax",%progbits
  44      0080
  45              		.align	2
  46              		.p2align 4,,15
  47              		.global	chMtxLockS
  48              		.thumb
  49              		.thumb_func
  50              		.type	chMtxLockS, %function
  51              	chMtxLockS:
  52              	.LFB9:
  53              		.loc 1 121 0
  54              		.cfi_startproc
  55              		@ args = 0, pretend = 0, frame = 0
  56              		@ frame_needed = 0, uses_anonymous_args = 0
ARM GAS  /tmp/ccOiGXXl.s 			page 2


  57              	.LVL1:
  58 0000 70B5     		push	{r4, r5, r6, lr}
  59              		.cfi_def_cfa_offset 16
  60              		.cfi_offset 4, -16
  61              		.cfi_offset 5, -12
  62              		.cfi_offset 6, -8
  63              		.cfi_offset 14, -4
  64 0002 0546     		mov	r5, r0
  65              		.loc 1 122 0
  66 0004 384B     		ldr	r3, .L20
  67 0006 9C69     		ldr	r4, [r3, #24]
  68              	.LVL2:
  69              		.loc 1 124 0
  70 0008 FFF7FEFF 		bl	chDbgCheckClassS
  71              	.LVL3:
  72              		.loc 1 128 0
  73 000c A868     		ldr	r0, [r5, #8]
  74 000e 0028     		cmp	r0, #0
  75 0010 42D1     		bne	.L3
  76 0012 64E0     		b	.L18
  77              	.LVL4:
  78              	.L13:
  79              	.LBB29:
  80              		.loc 1 137 0
  81 0014 8260     		str	r2, [r0, #8]
  82              		.loc 1 139 0
  83 0016 90F82020 		ldrb	r2, [r0, #32]	@ zero_extendqisi2
  84 001a 042A     		cmp	r2, #4
  85 001c 04D0     		beq	.L6
  86 001e 052A     		cmp	r2, #5
  87 0020 19D0     		beq	.L7
  88 0022 002A     		cmp	r2, #0
  89 0024 3CD1     		bne	.L5
  90 0026 2BE0     		b	.L8
  91              	.L6:
  92              	.LVL5:
  93              	.LBB30:
  94              	.LBB31:
  95              		.file 2 "../../ChibiOS-RT/os/kernel/include/chinline.h"
  96              		.loc 2 75 0
  97 0028 4268     		ldr	r2, [r0, #4]
  98 002a 0168     		ldr	r1, [r0]
  99 002c 1160     		str	r1, [r2]
 100              		.loc 2 76 0
 101 002e 0268     		ldr	r2, [r0]
 102 0030 4168     		ldr	r1, [r0, #4]
 103 0032 5160     		str	r1, [r2, #4]
 104              	.LBE31:
 105              	.LBE30:
 106              		.loc 1 142 0
 107 0034 866A     		ldr	r6, [r0, #40]
 108              	.LVL6:
 109              	.LBB32:
 110              	.LBB33:
 111              		.loc 2 43 0
 112 0036 3246     		mov	r2, r6
 113              	.LVL7:
ARM GAS  /tmp/ccOiGXXl.s 			page 3


 114              	.L10:
 115              		.loc 2 45 0
 116 0038 1268     		ldr	r2, [r2]
 117              	.LVL8:
 118              		.loc 2 46 0
 119 003a 9642     		cmp	r6, r2
 120 003c 03D0     		beq	.L9
 121 003e 9368     		ldr	r3, [r2, #8]
 122 0040 8168     		ldr	r1, [r0, #8]
 123 0042 8B42     		cmp	r3, r1
 124 0044 F8D2     		bcs	.L10
 125              	.L9:
 126              		.loc 2 47 0
 127 0046 0260     		str	r2, [r0]
 128              		.loc 2 48 0
 129 0048 5168     		ldr	r1, [r2, #4]
 130 004a 4160     		str	r1, [r0, #4]
 131              		.loc 2 49 0
 132 004c 5060     		str	r0, [r2, #4]
 133 004e 0860     		str	r0, [r1]
 134              	.LBE33:
 135              	.LBE32:
 136              		.loc 1 143 0
 137 0050 836A     		ldr	r3, [r0, #40]
 138 0052 9868     		ldr	r0, [r3, #8]
 139              	.LVL9:
 140              		.loc 1 144 0
 141 0054 20E0     		b	.L3
 142              	.LVL10:
 143              	.L7:
 144              	.LBB34:
 145              	.LBB35:
 146              		.loc 2 75 0
 147 0056 4268     		ldr	r2, [r0, #4]
 148 0058 0168     		ldr	r1, [r0]
 149 005a 1160     		str	r1, [r2]
 150              		.loc 2 76 0
 151 005c 0268     		ldr	r2, [r0]
 152 005e 4168     		ldr	r1, [r0, #4]
 153 0060 5160     		str	r1, [r2, #4]
 154              	.LBE35:
 155              	.LBE34:
 156              		.loc 1 158 0
 157 0062 866A     		ldr	r6, [r0, #40]
 158              	.LVL11:
 159              	.LBB36:
 160              	.LBB37:
 161              		.loc 2 43 0
 162 0064 3246     		mov	r2, r6
 163              	.LVL12:
 164              	.L12:
 165              		.loc 2 45 0
 166 0066 1268     		ldr	r2, [r2]
 167              	.LVL13:
 168              		.loc 2 46 0
 169 0068 9642     		cmp	r6, r2
 170 006a 03D0     		beq	.L11
ARM GAS  /tmp/ccOiGXXl.s 			page 4


 171 006c 9368     		ldr	r3, [r2, #8]
 172 006e 8168     		ldr	r1, [r0, #8]
 173 0070 8B42     		cmp	r3, r1
 174 0072 F8D2     		bcs	.L12
 175              	.L11:
 176              		.loc 2 47 0
 177 0074 0260     		str	r2, [r0]
 178              		.loc 2 48 0
 179 0076 5168     		ldr	r1, [r2, #4]
 180 0078 4160     		str	r1, [r0, #4]
 181              		.loc 2 49 0
 182 007a 5060     		str	r0, [r2, #4]
 183 007c 0860     		str	r0, [r1]
 184 007e 0FE0     		b	.L5
 185              	.LVL14:
 186              	.L8:
 187              	.LBE37:
 188              	.LBE36:
 189              		.loc 1 164 0
 190 0080 0122     		movs	r2, #1
 191 0082 80F82020 		strb	r2, [r0, #32]
 192              	.LVL15:
 193              	.LBB38:
 194              	.LBB39:
 195              		.loc 2 75 0
 196 0086 4268     		ldr	r2, [r0, #4]
 197 0088 0168     		ldr	r1, [r0]
 198 008a 1160     		str	r1, [r2]
 199              		.loc 2 76 0
 200 008c 0268     		ldr	r2, [r0]
 201 008e 4168     		ldr	r1, [r0, #4]
 202 0090 5160     		str	r1, [r2, #4]
 203              	.LBE39:
 204              	.LBE38:
 205              		.loc 1 167 0
 206 0092 FFF7FEFF 		bl	chSchReadyI
 207              	.LVL16:
 208              		.loc 1 168 0
 209 0096 03E0     		b	.L5
 210              	.L3:
 211              	.LVL17:
 212              		.loc 1 135 0
 213 0098 8168     		ldr	r1, [r0, #8]
 214 009a A268     		ldr	r2, [r4, #8]
 215 009c 9142     		cmp	r1, r2
 216 009e B9D3     		bcc	.L13
 217              	.LVL18:
 218              	.L5:
 219              		.loc 1 173 0
 220 00a0 2846     		mov	r0, r5
 221              	.LVL19:
 222              	.LBB40:
 223              	.LBB41:
 224              		.loc 2 43 0
 225 00a2 2B46     		mov	r3, r5
 226              	.LVL20:
 227              	.L15:
ARM GAS  /tmp/ccOiGXXl.s 			page 5


 228              		.loc 2 45 0
 229 00a4 1B68     		ldr	r3, [r3]
 230              	.LVL21:
 231              		.loc 2 46 0
 232 00a6 9842     		cmp	r0, r3
 233 00a8 03D0     		beq	.L14
 234 00aa 9968     		ldr	r1, [r3, #8]
 235 00ac A268     		ldr	r2, [r4, #8]
 236 00ae 9142     		cmp	r1, r2
 237 00b0 F8D2     		bcs	.L15
 238              	.L14:
 239              		.loc 2 47 0
 240 00b2 2360     		str	r3, [r4]
 241              		.loc 2 48 0
 242 00b4 5A68     		ldr	r2, [r3, #4]
 243 00b6 6260     		str	r2, [r4, #4]
 244              		.loc 2 49 0
 245 00b8 5C60     		str	r4, [r3, #4]
 246 00ba 1460     		str	r4, [r2]
 247              	.LBE41:
 248              	.LBE40:
 249              		.loc 1 174 0
 250 00bc A562     		str	r5, [r4, #40]
 251              		.loc 1 175 0
 252 00be 0420     		movs	r0, #4
 253              	.LVL22:
 254 00c0 FFF7FEFF 		bl	chSchGoSleepS
 255              	.LVL23:
 256              		.loc 1 178 0
 257 00c4 AB68     		ldr	r3, [r5, #8]
 258 00c6 A342     		cmp	r3, r4
 259 00c8 02D0     		beq	.L16
 260              		.loc 1 178 0 is_stmt 0 discriminator 1
 261 00ca 0848     		ldr	r0, .L20+4
 262 00cc FFF7FEFF 		bl	chDbgPanic
 263              	.LVL24:
 264              	.L16:
 265              		.loc 1 179 0 is_stmt 1
 266 00d0 236C     		ldr	r3, [r4, #64]
 267 00d2 AB42     		cmp	r3, r5
 268 00d4 07D0     		beq	.L2
 269              		.loc 1 179 0 is_stmt 0 discriminator 1
 270 00d6 0648     		ldr	r0, .L20+8
 271 00d8 FFF7FEFF 		bl	chDbgPanic
 272              	.LVL25:
 273 00dc 70BD     		pop	{r4, r5, r6, pc}
 274              	.LVL26:
 275              	.L18:
 276              	.LBE29:
 277              		.loc 1 183 0 is_stmt 1
 278 00de AC60     		str	r4, [r5, #8]
 279              		.loc 1 184 0
 280 00e0 236C     		ldr	r3, [r4, #64]
 281 00e2 EB60     		str	r3, [r5, #12]
 282              		.loc 1 185 0
 283 00e4 2564     		str	r5, [r4, #64]
 284              	.L2:
ARM GAS  /tmp/ccOiGXXl.s 			page 6


 285 00e6 70BD     		pop	{r4, r5, r6, pc}
 286              	.LVL27:
 287              	.L21:
 288              		.align	2
 289              	.L20:
 290 00e8 00000000 		.word	rlist
 291 00ec 00000000 		.word	.LC0
 292 00f0 14000000 		.word	.LC1
 293              		.cfi_endproc
 294              	.LFE9:
 295              		.size	chMtxLockS, .-chMtxLockS
 296 00f4 AFF30080 		.section	.text.chMtxLock,"ax",%progbits
 296      AFF30080 
 296      AFF30080 
 297              		.align	2
 298              		.p2align 4,,15
 299              		.global	chMtxLock
 300              		.thumb
 301              		.thumb_func
 302              		.type	chMtxLock, %function
 303              	chMtxLock:
 304              	.LFB8:
 305              		.loc 1 103 0
 306              		.cfi_startproc
 307              		@ args = 0, pretend = 0, frame = 0
 308              		@ frame_needed = 0, uses_anonymous_args = 0
 309              	.LVL28:
 310 0000 10B5     		push	{r4, lr}
 311              		.cfi_def_cfa_offset 8
 312              		.cfi_offset 4, -8
 313              		.cfi_offset 14, -4
 314 0002 0446     		mov	r4, r0
 315              	.LBB42:
 316              		.loc 1 105 0
 317 0004 2023     		movs	r3, #32
 318              	@ 105 "../../ChibiOS-RT/os/kernel/src/chmtx.c" 1
 319 0006 83F31188 		msr     BASEPRI, r3
 320              	@ 0 "" 2
 321              		.thumb
 322              	.LBE42:
 323 000a FFF7FEFF 		bl	dbg_check_lock
 324              	.LVL29:
 325              		.loc 1 107 0
 326 000e 2046     		mov	r0, r4
 327 0010 FFF7FEFF 		bl	chMtxLockS
 328              	.LVL30:
 329              		.loc 1 109 0
 330 0014 FFF7FEFF 		bl	dbg_check_unlock
 331              	.LVL31:
 332              	.LBB43:
 333 0018 0023     		movs	r3, #0
 334              	@ 109 "../../ChibiOS-RT/os/kernel/src/chmtx.c" 1
 335 001a 83F31188 		msr     BASEPRI, r3
 336              	@ 0 "" 2
 337              		.thumb
 338 001e 10BD     		pop	{r4, pc}
 339              	.LBE43:
ARM GAS  /tmp/ccOiGXXl.s 			page 7


 340              		.cfi_endproc
 341              	.LFE8:
 342              		.size	chMtxLock, .-chMtxLock
 343              		.section	.text.chMtxTryLockS,"ax",%progbits
 344              		.align	2
 345              		.p2align 4,,15
 346              		.global	chMtxTryLockS
 347              		.thumb
 348              		.thumb_func
 349              		.type	chMtxTryLockS, %function
 350              	chMtxTryLockS:
 351              	.LFB11:
 352              		.loc 1 234 0
 353              		.cfi_startproc
 354              		@ args = 0, pretend = 0, frame = 0
 355              		@ frame_needed = 0, uses_anonymous_args = 0
 356              	.LVL32:
 357 0000 10B5     		push	{r4, lr}
 358              		.cfi_def_cfa_offset 8
 359              		.cfi_offset 4, -8
 360              		.cfi_offset 14, -4
 361 0002 0446     		mov	r4, r0
 362              		.loc 1 236 0
 363 0004 FFF7FEFF 		bl	chDbgCheckClassS
 364              	.LVL33:
 365              		.loc 1 239 0
 366 0008 A368     		ldr	r3, [r4, #8]
 367 000a 4BB9     		cbnz	r3, .L26
 368              		.loc 1 241 0
 369 000c 054B     		ldr	r3, .L28
 370 000e 9A69     		ldr	r2, [r3, #24]
 371 0010 A260     		str	r2, [r4, #8]
 372              		.loc 1 242 0
 373 0012 9A69     		ldr	r2, [r3, #24]
 374 0014 126C     		ldr	r2, [r2, #64]
 375 0016 E260     		str	r2, [r4, #12]
 376              		.loc 1 243 0
 377 0018 9B69     		ldr	r3, [r3, #24]
 378 001a 1C64     		str	r4, [r3, #64]
 379              		.loc 1 244 0
 380 001c 0120     		movs	r0, #1
 381 001e 10BD     		pop	{r4, pc}
 382              	.LVL34:
 383              	.L26:
 384              		.loc 1 240 0
 385 0020 0020     		movs	r0, #0
 386              		.loc 1 245 0
 387 0022 10BD     		pop	{r4, pc}
 388              	.LVL35:
 389              	.L29:
 390              		.align	2
 391              	.L28:
 392 0024 00000000 		.word	rlist
 393              		.cfi_endproc
 394              	.LFE11:
 395              		.size	chMtxTryLockS, .-chMtxTryLockS
 396 0028 AFF30080 		.section	.text.chMtxTryLock,"ax",%progbits
ARM GAS  /tmp/ccOiGXXl.s 			page 8


 396      AFF30080 
 397              		.align	2
 398              		.p2align 4,,15
 399              		.global	chMtxTryLock
 400              		.thumb
 401              		.thumb_func
 402              		.type	chMtxTryLock, %function
 403              	chMtxTryLock:
 404              	.LFB10:
 405              		.loc 1 206 0
 406              		.cfi_startproc
 407              		@ args = 0, pretend = 0, frame = 0
 408              		@ frame_needed = 0, uses_anonymous_args = 0
 409              	.LVL36:
 410 0000 10B5     		push	{r4, lr}
 411              		.cfi_def_cfa_offset 8
 412              		.cfi_offset 4, -8
 413              		.cfi_offset 14, -4
 414 0002 0446     		mov	r4, r0
 415              	.LBB44:
 416              		.loc 1 209 0
 417 0004 2023     		movs	r3, #32
 418              	@ 209 "../../ChibiOS-RT/os/kernel/src/chmtx.c" 1
 419 0006 83F31188 		msr     BASEPRI, r3
 420              	@ 0 "" 2
 421              		.thumb
 422              	.LBE44:
 423 000a FFF7FEFF 		bl	dbg_check_lock
 424              	.LVL37:
 425              		.loc 1 211 0
 426 000e 2046     		mov	r0, r4
 427 0010 FFF7FEFF 		bl	chMtxTryLockS
 428              	.LVL38:
 429 0014 0446     		mov	r4, r0
 430              	.LVL39:
 431              		.loc 1 213 0
 432 0016 FFF7FEFF 		bl	dbg_check_unlock
 433              	.LVL40:
 434              	.LBB45:
 435 001a 0023     		movs	r3, #0
 436              	@ 213 "../../ChibiOS-RT/os/kernel/src/chmtx.c" 1
 437 001c 83F31188 		msr     BASEPRI, r3
 438              	@ 0 "" 2
 439              		.thumb
 440              	.LBE45:
 441              		.loc 1 215 0
 442 0020 2046     		mov	r0, r4
 443 0022 10BD     		pop	{r4, pc}
 444              		.cfi_endproc
 445              	.LFE10:
 446              		.size	chMtxTryLock, .-chMtxTryLock
 447 0024 AFF30080 		.section	.text.chMtxUnlock,"ax",%progbits
 447      AFF30080 
 447      AFF30080 
 448              		.align	2
 449              		.p2align 4,,15
 450              		.global	chMtxUnlock
ARM GAS  /tmp/ccOiGXXl.s 			page 9


 451              		.thumb
 452              		.thumb_func
 453              		.type	chMtxUnlock, %function
 454              	chMtxUnlock:
 455              	.LFB12:
 456              		.loc 1 257 0
 457              		.cfi_startproc
 458              		@ args = 0, pretend = 0, frame = 0
 459              		@ frame_needed = 0, uses_anonymous_args = 0
 460 0000 38B5     		push	{r3, r4, r5, lr}
 461              		.cfi_def_cfa_offset 16
 462              		.cfi_offset 3, -16
 463              		.cfi_offset 4, -12
 464              		.cfi_offset 5, -8
 465              		.cfi_offset 14, -4
 466              		.loc 1 258 0
 467 0002 1D4B     		ldr	r3, .L42
 468 0004 9D69     		ldr	r5, [r3, #24]
 469              	.LVL41:
 470              	.LBB46:
 471              		.loc 1 261 0
 472 0006 2023     		movs	r3, #32
 473              	@ 261 "../../ChibiOS-RT/os/kernel/src/chmtx.c" 1
 474 0008 83F31188 		msr     BASEPRI, r3
 475              	@ 0 "" 2
 476              		.thumb
 477              	.LBE46:
 478 000c FFF7FEFF 		bl	dbg_check_lock
 479              	.LVL42:
 480              		.loc 1 262 0
 481 0010 2B6C     		ldr	r3, [r5, #64]
 482 0012 13B9     		cbnz	r3, .L33
 483              		.loc 1 262 0 is_stmt 0 discriminator 1
 484 0014 1948     		ldr	r0, .L42+4
 485 0016 FFF7FEFF 		bl	chDbgPanic
 486              	.LVL43:
 487              	.L33:
 488              		.loc 1 265 0 is_stmt 1
 489 001a 2B6C     		ldr	r3, [r5, #64]
 490 001c 9B68     		ldr	r3, [r3, #8]
 491 001e AB42     		cmp	r3, r5
 492 0020 02D0     		beq	.L34
 493              		.loc 1 265 0 is_stmt 0 discriminator 1
 494 0022 1748     		ldr	r0, .L42+8
 495 0024 FFF7FEFF 		bl	chDbgPanic
 496              	.LVL44:
 497              	.L34:
 498              		.loc 1 270 0 is_stmt 1
 499 0028 2C6C     		ldr	r4, [r5, #64]
 500              	.LVL45:
 501              		.loc 1 271 0
 502 002a E368     		ldr	r3, [r4, #12]
 503 002c 2B64     		str	r3, [r5, #64]
 504              		.loc 1 273 0
 505 002e 2268     		ldr	r2, [r4]
 506 0030 A242     		cmp	r2, r4
 507 0032 18D0     		beq	.L35
ARM GAS  /tmp/ccOiGXXl.s 			page 10


 508              	.LBB47:
 509              		.loc 1 278 0
 510 0034 696C     		ldr	r1, [r5, #68]
 511              	.LVL46:
 512              		.loc 1 280 0
 513 0036 07E0     		b	.L36
 514              	.L38:
 515              		.loc 1 284 0
 516 0038 1A68     		ldr	r2, [r3]
 517 003a 9A42     		cmp	r2, r3
 518 003c 03D0     		beq	.L37
 519              		.loc 1 284 0 is_stmt 0 discriminator 1
 520 003e 9268     		ldr	r2, [r2, #8]
 521 0040 8A42     		cmp	r2, r1
 522 0042 00D9     		bls	.L37
 523              		.loc 1 285 0 is_stmt 1
 524 0044 1146     		mov	r1, r2
 525              	.LVL47:
 526              	.L37:
 527              		.loc 1 286 0
 528 0046 DB68     		ldr	r3, [r3, #12]
 529              	.LVL48:
 530              	.L36:
 531              		.loc 1 280 0
 532 0048 002B     		cmp	r3, #0
 533 004a F5D1     		bne	.L38
 534              		.loc 1 290 0
 535 004c A960     		str	r1, [r5, #8]
 536              	.LVL49:
 537              	.LBB48:
 538              	.LBB49:
 539              		.loc 2 60 0
 540 004e 2068     		ldr	r0, [r4]
 541              	.LVL50:
 542              		.loc 2 62 0
 543 0050 0368     		ldr	r3, [r0]
 544              	.LVL51:
 545 0052 2360     		str	r3, [r4]
 546 0054 5C60     		str	r4, [r3, #4]
 547              	.LBE49:
 548              	.LBE48:
 549              		.loc 1 294 0
 550 0056 A060     		str	r0, [r4, #8]
 551              		.loc 1 295 0
 552 0058 036C     		ldr	r3, [r0, #64]
 553 005a E360     		str	r3, [r4, #12]
 554              		.loc 1 296 0
 555 005c 0464     		str	r4, [r0, #64]
 556              		.loc 1 297 0
 557 005e 0021     		movs	r1, #0
 558              	.LVL52:
 559 0060 FFF7FEFF 		bl	chSchWakeupS
 560              	.LVL53:
 561              	.LBE47:
 562 0064 01E0     		b	.L39
 563              	.LVL54:
 564              	.L35:
ARM GAS  /tmp/ccOiGXXl.s 			page 11


 565              		.loc 1 300 0
 566 0066 0023     		movs	r3, #0
 567 0068 A360     		str	r3, [r4, #8]
 568              	.L39:
 569              		.loc 1 301 0
 570 006a FFF7FEFF 		bl	dbg_check_unlock
 571              	.LVL55:
 572              	.LBB50:
 573 006e 0023     		movs	r3, #0
 574              	@ 301 "../../ChibiOS-RT/os/kernel/src/chmtx.c" 1
 575 0070 83F31188 		msr     BASEPRI, r3
 576              	@ 0 "" 2
 577              		.thumb
 578              	.LBE50:
 579              		.loc 1 303 0
 580 0074 2046     		mov	r0, r4
 581 0076 38BD     		pop	{r3, r4, r5, pc}
 582              	.LVL56:
 583              	.L43:
 584              		.align	2
 585              	.L42:
 586 0078 00000000 		.word	rlist
 587 007c 28000000 		.word	.LC2
 588 0080 3C000000 		.word	.LC3
 589              		.cfi_endproc
 590              	.LFE12:
 591              		.size	chMtxUnlock, .-chMtxUnlock
 592 0084 AFF30080 		.section	.text.chMtxUnlockS,"ax",%progbits
 592      AFF30080 
 592      AFF30080 
 593              		.align	2
 594              		.p2align 4,,15
 595              		.global	chMtxUnlockS
 596              		.thumb
 597              		.thumb_func
 598              		.type	chMtxUnlockS, %function
 599              	chMtxUnlockS:
 600              	.LFB13:
 601              		.loc 1 317 0
 602              		.cfi_startproc
 603              		@ args = 0, pretend = 0, frame = 0
 604              		@ frame_needed = 0, uses_anonymous_args = 0
 605 0000 38B5     		push	{r3, r4, r5, lr}
 606              		.cfi_def_cfa_offset 16
 607              		.cfi_offset 3, -16
 608              		.cfi_offset 4, -12
 609              		.cfi_offset 5, -8
 610              		.cfi_offset 14, -4
 611              		.loc 1 318 0
 612 0002 194B     		ldr	r3, .L54
 613 0004 9D69     		ldr	r5, [r3, #24]
 614              	.LVL57:
 615              		.loc 1 321 0
 616 0006 FFF7FEFF 		bl	chDbgCheckClassS
 617              	.LVL58:
 618              		.loc 1 322 0
 619 000a 2B6C     		ldr	r3, [r5, #64]
ARM GAS  /tmp/ccOiGXXl.s 			page 12


 620 000c 13B9     		cbnz	r3, .L45
 621              		.loc 1 322 0 is_stmt 0 discriminator 1
 622 000e 1748     		ldr	r0, .L54+4
 623 0010 FFF7FEFF 		bl	chDbgPanic
 624              	.LVL59:
 625              	.L45:
 626              		.loc 1 325 0 is_stmt 1
 627 0014 2B6C     		ldr	r3, [r5, #64]
 628 0016 9B68     		ldr	r3, [r3, #8]
 629 0018 AB42     		cmp	r3, r5
 630 001a 02D0     		beq	.L46
 631              		.loc 1 325 0 is_stmt 0 discriminator 1
 632 001c 1448     		ldr	r0, .L54+8
 633 001e FFF7FEFF 		bl	chDbgPanic
 634              	.LVL60:
 635              	.L46:
 636              		.loc 1 331 0 is_stmt 1
 637 0022 2C6C     		ldr	r4, [r5, #64]
 638              	.LVL61:
 639              		.loc 1 332 0
 640 0024 E368     		ldr	r3, [r4, #12]
 641 0026 2B64     		str	r3, [r5, #64]
 642              		.loc 1 334 0
 643 0028 2268     		ldr	r2, [r4]
 644 002a A242     		cmp	r2, r4
 645 002c 17D0     		beq	.L47
 646              	.LBB51:
 647              		.loc 1 339 0
 648 002e 696C     		ldr	r1, [r5, #68]
 649              	.LVL62:
 650              		.loc 1 341 0
 651 0030 07E0     		b	.L48
 652              	.L50:
 653              		.loc 1 345 0
 654 0032 1A68     		ldr	r2, [r3]
 655 0034 9A42     		cmp	r2, r3
 656 0036 03D0     		beq	.L49
 657              		.loc 1 345 0 is_stmt 0 discriminator 1
 658 0038 9268     		ldr	r2, [r2, #8]
 659 003a 8A42     		cmp	r2, r1
 660 003c 00D9     		bls	.L49
 661              		.loc 1 346 0 is_stmt 1
 662 003e 1146     		mov	r1, r2
 663              	.LVL63:
 664              	.L49:
 665              		.loc 1 347 0
 666 0040 DB68     		ldr	r3, [r3, #12]
 667              	.LVL64:
 668              	.L48:
 669              		.loc 1 341 0
 670 0042 002B     		cmp	r3, #0
 671 0044 F5D1     		bne	.L50
 672              		.loc 1 349 0
 673 0046 A960     		str	r1, [r5, #8]
 674              	.LVL65:
 675              	.LBB52:
 676              	.LBB53:
ARM GAS  /tmp/ccOiGXXl.s 			page 13


 677              		.loc 2 60 0
 678 0048 2068     		ldr	r0, [r4]
 679              	.LVL66:
 680              		.loc 2 62 0
 681 004a 0368     		ldr	r3, [r0]
 682              	.LVL67:
 683 004c 2360     		str	r3, [r4]
 684 004e 5C60     		str	r4, [r3, #4]
 685              	.LBE53:
 686              	.LBE52:
 687              		.loc 1 353 0
 688 0050 A060     		str	r0, [r4, #8]
 689              		.loc 1 354 0
 690 0052 036C     		ldr	r3, [r0, #64]
 691 0054 E360     		str	r3, [r4, #12]
 692              		.loc 1 355 0
 693 0056 0464     		str	r4, [r0, #64]
 694              		.loc 1 356 0
 695 0058 FFF7FEFF 		bl	chSchReadyI
 696              	.LVL68:
 697              	.LBE51:
 698 005c 01E0     		b	.L51
 699              	.LVL69:
 700              	.L47:
 701              		.loc 1 359 0
 702 005e 0023     		movs	r3, #0
 703 0060 A360     		str	r3, [r4, #8]
 704              	.L51:
 705              		.loc 1 361 0
 706 0062 2046     		mov	r0, r4
 707 0064 38BD     		pop	{r3, r4, r5, pc}
 708              	.LVL70:
 709              	.L55:
 710 0066 00BF     		.align	2
 711              	.L54:
 712 0068 00000000 		.word	rlist
 713 006c 50000000 		.word	.LC4
 714 0070 64000000 		.word	.LC5
 715              		.cfi_endproc
 716              	.LFE13:
 717              		.size	chMtxUnlockS, .-chMtxUnlockS
 718 0074 AFF30080 		.section	.text.chMtxUnlockAll,"ax",%progbits
 718      AFF30080 
 718      AFF30080 
 719              		.align	2
 720              		.p2align 4,,15
 721              		.global	chMtxUnlockAll
 722              		.thumb
 723              		.thumb_func
 724              		.type	chMtxUnlockAll, %function
 725              	chMtxUnlockAll:
 726              	.LFB14:
 727              		.loc 1 374 0
 728              		.cfi_startproc
 729              		@ args = 0, pretend = 0, frame = 0
 730              		@ frame_needed = 0, uses_anonymous_args = 0
 731 0000 10B5     		push	{r4, lr}
ARM GAS  /tmp/ccOiGXXl.s 			page 14


 732              		.cfi_def_cfa_offset 8
 733              		.cfi_offset 4, -8
 734              		.cfi_offset 14, -4
 735              		.loc 1 375 0
 736 0002 144B     		ldr	r3, .L62
 737 0004 9C69     		ldr	r4, [r3, #24]
 738              	.LVL71:
 739              	.LBB54:
 740              		.loc 1 377 0
 741 0006 2023     		movs	r3, #32
 742              	@ 377 "../../ChibiOS-RT/os/kernel/src/chmtx.c" 1
 743 0008 83F31188 		msr     BASEPRI, r3
 744              	@ 0 "" 2
 745              		.thumb
 746              	.LBE54:
 747 000c FFF7FEFF 		bl	dbg_check_lock
 748              	.LVL72:
 749              		.loc 1 378 0
 750 0010 236C     		ldr	r3, [r4, #64]
 751 0012 C3B1     		cbz	r3, .L57
 752              	.L60:
 753              	.LBB55:
 754              		.loc 1 380 0
 755 0014 236C     		ldr	r3, [r4, #64]
 756              	.LVL73:
 757              		.loc 1 381 0
 758 0016 DA68     		ldr	r2, [r3, #12]
 759 0018 2264     		str	r2, [r4, #64]
 760              		.loc 1 382 0
 761 001a 1868     		ldr	r0, [r3]
 762 001c 9842     		cmp	r0, r3
 763 001e 09D0     		beq	.L58
 764              	.LVL74:
 765              	.LBB56:
 766              	.LBB57:
 767              	.LBB58:
 768              		.loc 2 62 0
 769 0020 0268     		ldr	r2, [r0]
 770 0022 1A60     		str	r2, [r3]
 771 0024 5360     		str	r3, [r2, #4]
 772              	.LBE58:
 773              	.LBE57:
 774              		.loc 1 384 0
 775 0026 9860     		str	r0, [r3, #8]
 776              		.loc 1 385 0
 777 0028 026C     		ldr	r2, [r0, #64]
 778 002a DA60     		str	r2, [r3, #12]
 779              		.loc 1 386 0
 780 002c 0364     		str	r3, [r0, #64]
 781              		.loc 1 387 0
 782 002e FFF7FEFF 		bl	chSchReadyI
 783              	.LVL75:
 784              	.LBE56:
 785 0032 01E0     		b	.L59
 786              	.LVL76:
 787              	.L58:
 788              		.loc 1 390 0
ARM GAS  /tmp/ccOiGXXl.s 			page 15


 789 0034 0022     		movs	r2, #0
 790 0036 9A60     		str	r2, [r3, #8]
 791              	.LVL77:
 792              	.L59:
 793              	.LBE55:
 794              		.loc 1 391 0
 795 0038 236C     		ldr	r3, [r4, #64]
 796 003a 002B     		cmp	r3, #0
 797 003c EAD1     		bne	.L60
 798              		.loc 1 392 0
 799 003e 636C     		ldr	r3, [r4, #68]
 800 0040 A360     		str	r3, [r4, #8]
 801              		.loc 1 393 0
 802 0042 FFF7FEFF 		bl	chSchRescheduleS
 803              	.LVL78:
 804              	.L57:
 805              		.loc 1 395 0
 806 0046 FFF7FEFF 		bl	dbg_check_unlock
 807              	.LVL79:
 808              	.LBB59:
 809 004a 0023     		movs	r3, #0
 810              	@ 395 "../../ChibiOS-RT/os/kernel/src/chmtx.c" 1
 811 004c 83F31188 		msr     BASEPRI, r3
 812              	@ 0 "" 2
 813              		.thumb
 814 0050 10BD     		pop	{r4, pc}
 815              	.LVL80:
 816              	.L63:
 817 0052 00BF     		.align	2
 818              	.L62:
 819 0054 00000000 		.word	rlist
 820              	.LBE59:
 821              		.cfi_endproc
 822              	.LFE14:
 823              		.size	chMtxUnlockAll, .-chMtxUnlockAll
 824 0058 AFF30080 		.section	.rodata.str1.4,"aMS",%progbits,1
 824      AFF30080 
 825              		.align	2
 826              	.LC0:
 827 0000 63684D74 		.ascii	"chMtxLockS(), #1\000"
 827      784C6F63 
 827      6B532829 
 827      2C202331 
 827      00
 828 0011 000000   		.space	3
 829              	.LC1:
 830 0014 63684D74 		.ascii	"chMtxLockS(), #2\000"
 830      784C6F63 
 830      6B532829 
 830      2C202332 
 830      00
 831 0025 000000   		.space	3
 832              	.LC2:
 833 0028 63684D74 		.ascii	"chMtxUnlock(), #1\000"
 833      78556E6C 
 833      6F636B28 
 833      292C2023 
ARM GAS  /tmp/ccOiGXXl.s 			page 16


 833      3100
 834 003a 0000     		.space	2
 835              	.LC3:
 836 003c 63684D74 		.ascii	"chMtxUnlock(), #2\000"
 836      78556E6C 
 836      6F636B28 
 836      292C2023 
 836      3200
 837 004e 0000     		.space	2
 838              	.LC4:
 839 0050 63684D74 		.ascii	"chMtxUnlockS(), #1\000"
 839      78556E6C 
 839      6F636B53 
 839      28292C20 
 839      233100
 840 0063 00       		.space	1
 841              	.LC5:
 842 0064 63684D74 		.ascii	"chMtxUnlockS(), #2\000"
 842      78556E6C 
 842      6F636B53 
 842      28292C20 
 842      233200
 843 0077 00       		.text
 844              	.Letext0:
 845              		.file 3 "/usr/arm-none-eabi/include/machine/_default_types.h"
 846              		.file 4 "/usr/arm-none-eabi/include/stdint.h"
 847              		.file 5 "../../ChibiOS-RT/os/ports/GCC/ARMCMx/chtypes.h"
 848              		.file 6 "../../ChibiOS-RT/os/kernel/include/chlists.h"
 849              		.file 7 "../../ChibiOS-RT/os/kernel/include/chthreads.h"
 850              		.file 8 "../../ChibiOS-RT/os/ports/GCC/ARMCMx/chcore_v7m.h"
 851              		.file 9 "../../ChibiOS-RT/os/kernel/include/chschd.h"
 852              		.file 10 "../../ChibiOS-RT/os/kernel/include/chmtx.h"
 853              		.file 11 "../../ChibiOS-RT/os/kernel/include/chdebug.h"