ARM GAS  /tmp/cchPOgg8.s 			page 1


   1              		.syntax unified
   2              		.cpu cortex-m4
   3              		.fpu softvfp
   4              		.eabi_attribute 20, 1
   5              		.eabi_attribute 21, 1
   6              		.eabi_attribute 23, 3
   7              		.eabi_attribute 24, 1
   8              		.eabi_attribute 25, 1
   9              		.eabi_attribute 26, 1
  10              		.eabi_attribute 30, 1
  11              		.eabi_attribute 34, 1
  12              		.eabi_attribute 18, 4
  13              		.thumb
  14              		.file	"chprintf.c"
  15              		.text
  16              	.Ltext0:
  17              		.cfi_sections	.debug_frame
  18              		.section	.text.long_to_string_with_divisor,"ax",%progbits
  19              		.align	2
  20              		.p2align 4,,15
  21              		.thumb
  22              		.thumb_func
  23              		.type	long_to_string_with_divisor, %function
  24              	long_to_string_with_divisor:
  25              	.LFB8:
  26              		.file 1 "../../ChibiOS-RT/os/various/chprintf.c"
  27              		.loc 1 40 0
  28              		.cfi_startproc
  29              		@ args = 0, pretend = 0, frame = 0
  30              		@ frame_needed = 0, uses_anonymous_args = 0
  31              		@ link register save eliminated.
  32              	.LVL0:
  33 0000 F0B4     		push	{r4, r5, r6, r7}
  34              		.cfi_def_cfa_offset 16
  35              		.cfi_offset 4, -16
  36              		.cfi_offset 5, -12
  37              		.cfi_offset 6, -8
  38              		.cfi_offset 7, -4
  39              	.LVL1:
  40              		.loc 1 46 0
  41 0002 1E46     		mov	r6, r3
  42 0004 03B9     		cbnz	r3, .L2
  43              		.loc 1 47 0
  44 0006 0E46     		mov	r6, r1
  45              	.L2:
  46              	.LVL2:
  47              		.loc 1 52 0
  48 0008 00F10B03 		add	r3, r0, #11
  49              	.LVL3:
  50 000c 1C46     		mov	r4, r3
  51              	.LVL4:
  52              	.L4:
  53              		.loc 1 54 0
  54 000e 0F46     		mov	r7, r1
  55 0010 B1FBF2F5 		udiv	r5, r1, r2
  56 0014 02FB1511 		mls	r1, r2, r5, r1
  57              	.LVL5:
ARM GAS  /tmp/cchPOgg8.s 			page 2


  58              		.loc 1 55 0
  59 0018 01F13005 		add	r5, r1, #48
  60              	.LVL6:
  61              		.loc 1 56 0
  62 001c 392D     		cmp	r5, #57
  63 001e 01DD     		ble	.L3
  64              		.loc 1 57 0
  65 0020 01F13705 		add	r5, r1, #55
  66              	.LVL7:
  67              	.L3:
  68              		.loc 1 58 0
  69 0024 04F8015D 		strb	r5, [r4, #-1]!
  70              	.LVL8:
  71              		.loc 1 59 0
  72 0028 B7FBF2F1 		udiv	r1, r7, r2
  73              	.LVL9:
  74              		.loc 1 60 0
  75 002c B6FBF2F6 		udiv	r6, r6, r2
  76              	.LVL10:
  77 0030 002E     		cmp	r6, #0
  78 0032 ECD1     		bne	.L4
  79              		.loc 1 62 0
  80 0034 1B1B     		subs	r3, r3, r4
  81              	.LVL11:
  82              	.L5:
  83              		.loc 1 64 0 discriminator 1
  84 0036 421C     		adds	r2, r0, #1
  85              	.LVL12:
  86 0038 2178     		ldrb	r1, [r4]	@ zero_extendqisi2
  87 003a 0170     		strb	r1, [r0]
  88              	.LVL13:
  89 003c 1046     		mov	r0, r2
  90 003e 0134     		adds	r4, r4, #1
  91              	.LVL14:
  92              		.loc 1 65 0 discriminator 1
  93 0040 013B     		subs	r3, r3, #1
  94              	.LVL15:
  95 0042 F8D1     		bne	.L5
  96              		.loc 1 68 0
  97 0044 F0BC     		pop	{r4, r5, r6, r7}
  98              		.cfi_restore 7
  99              		.cfi_restore 6
 100              		.cfi_restore 5
 101              		.cfi_restore 4
 102              		.cfi_def_cfa_offset 0
 103              	.LVL16:
 104 0046 7047     		bx	lr
 105              		.cfi_endproc
 106              	.LFE8:
 107              		.size	long_to_string_with_divisor, .-long_to_string_with_divisor
 108 0048 AFF30080 		.section	.text.ltoa,"ax",%progbits
 108      AFF30080 
 109              		.align	2
 110              		.p2align 4,,15
 111              		.thumb
 112              		.thumb_func
 113              		.type	ltoa, %function
ARM GAS  /tmp/cchPOgg8.s 			page 3


 114              	ltoa:
 115              	.LFB9:
 116              		.loc 1 70 0
 117              		.cfi_startproc
 118              		@ args = 0, pretend = 0, frame = 0
 119              		@ frame_needed = 0, uses_anonymous_args = 0
 120              	.LVL17:
 121 0000 08B5     		push	{r3, lr}
 122              		.cfi_def_cfa_offset 8
 123              		.cfi_offset 3, -8
 124              		.cfi_offset 14, -4
 125              		.loc 1 72 0
 126 0002 0023     		movs	r3, #0
 127 0004 FFF7FEFF 		bl	long_to_string_with_divisor
 128              	.LVL18:
 129              		.loc 1 73 0
 130 0008 08BD     		pop	{r3, pc}
 131              		.cfi_endproc
 132              	.LFE9:
 133              		.size	ltoa, .-ltoa
 134 000a 00BFAFF3 		.section	.text.chvprintf,"ax",%progbits
 134      0080
 135              		.align	2
 136              		.p2align 4,,15
 137              		.global	chvprintf
 138              		.thumb
 139              		.thumb_func
 140              		.type	chvprintf, %function
 141              	chvprintf:
 142              	.LFB10:
 143              		.loc 1 112 0
 144              		.cfi_startproc
 145              		@ args = 0, pretend = 0, frame = 16
 146              		@ frame_needed = 0, uses_anonymous_args = 0
 147              	.LVL19:
 148 0000 2DE9F04F 		push	{r4, r5, r6, r7, r8, r9, r10, fp, lr}
 149              		.cfi_def_cfa_offset 36
 150              		.cfi_offset 4, -36
 151              		.cfi_offset 5, -32
 152              		.cfi_offset 6, -28
 153              		.cfi_offset 7, -24
 154              		.cfi_offset 8, -20
 155              		.cfi_offset 9, -16
 156              		.cfi_offset 10, -12
 157              		.cfi_offset 11, -8
 158              		.cfi_offset 14, -4
 159 0004 85B0     		sub	sp, sp, #20
 160              		.cfi_def_cfa_offset 56
 161 0006 0646     		mov	r6, r0
 162 0008 0D46     		mov	r5, r1
 163 000a 1746     		mov	r7, r2
 164              	.LVL20:
 165              	.L11:
 166              		.loc 1 125 0
 167 000c 05F1010A 		add	r10, r5, #1
 168              	.LVL21:
 169 0010 2978     		ldrb	r1, [r5]	@ zero_extendqisi2
ARM GAS  /tmp/cchPOgg8.s 			page 4


 170              	.LVL22:
 171              		.loc 1 126 0
 172 0012 0029     		cmp	r1, #0
 173 0014 00F00681 		beq	.L10
 174              		.loc 1 128 0
 175 0018 2529     		cmp	r1, #37
 176 001a 05D0     		beq	.L13
 177              		.loc 1 129 0
 178 001c 3368     		ldr	r3, [r6]
 179 001e 9B68     		ldr	r3, [r3, #8]
 180 0020 3046     		mov	r0, r6
 181 0022 9847     		blx	r3
 182              	.LVL23:
 183              		.loc 1 125 0
 184 0024 5546     		mov	r5, r10
 185              		.loc 1 130 0
 186 0026 F1E7     		b	.L11
 187              	.LVL24:
 188              	.L13:
 189              		.loc 1 135 0
 190 0028 6B78     		ldrb	r3, [r5, #1]	@ zero_extendqisi2
 191 002a 2D2B     		cmp	r3, #45
 192 002c 04D1     		bne	.L54
 193              		.loc 1 136 0
 194 002e 05F1020A 		add	r10, r5, #2
 195              	.LVL25:
 196              		.loc 1 137 0
 197 0032 4FF00109 		mov	r9, #1
 198 0036 01E0     		b	.L15
 199              	.LVL26:
 200              	.L54:
 201              		.loc 1 134 0
 202 0038 4FF00009 		mov	r9, #0
 203              	.LVL27:
 204              	.L15:
 205              		.loc 1 140 0
 206 003c 9AF80030 		ldrb	r3, [r10]	@ zero_extendqisi2
 207 0040 2E2B     		cmp	r3, #46
 208 0042 01D0     		beq	.L16
 209              		.loc 1 140 0 is_stmt 0 discriminator 1
 210 0044 302B     		cmp	r3, #48
 211 0046 04D1     		bne	.L55
 212              	.L16:
 213              		.loc 1 141 0 is_stmt 1
 214 0048 0AF1010A 		add	r10, r10, #1
 215              	.LVL28:
 216              		.loc 1 142 0
 217 004c 4FF03008 		mov	r8, #48
 218 0050 01E0     		b	.L17
 219              	.LVL29:
 220              	.L55:
 221              		.loc 1 139 0
 222 0052 4FF02008 		mov	r8, #32
 223              	.LVL30:
 224              	.L17:
 225              		.loc 1 144 0
 226 0056 0024     		movs	r4, #0
ARM GAS  /tmp/cchPOgg8.s 			page 5


 227              	.LVL31:
 228              	.L20:
 229              		.loc 1 146 0
 230 0058 0AF10105 		add	r5, r10, #1
 231              	.LVL32:
 232 005c 9AF80020 		ldrb	r2, [r10]	@ zero_extendqisi2
 233              	.LVL33:
 234              		.loc 1 147 0
 235 0060 A2F13003 		sub	r3, r2, #48
 236 0064 DBB2     		uxtb	r3, r3
 237 0066 092B     		cmp	r3, #9
 238 0068 03D9     		bls	.L18
 239              		.loc 1 149 0
 240 006a 2A2A     		cmp	r2, #42
 241 006c 07D1     		bne	.L19
 242              		.loc 1 150 0
 243 006e 3B78     		ldrb	r3, [r7]	@ zero_extendqisi2
 244              	.LVL34:
 245 0070 0437     		adds	r7, r7, #4
 246              	.LVL35:
 247              	.L18:
 248              		.loc 1 153 0
 249 0072 04EB8404 		add	r4, r4, r4, lsl #2
 250              	.LVL36:
 251 0076 6400     		lsls	r4, r4, #1
 252 0078 1C44     		add	r4, r4, r3
 253              	.LVL37:
 254              		.loc 1 146 0
 255 007a AA46     		mov	r10, r5
 256              		.loc 1 154 0
 257 007c ECE7     		b	.L20
 258              	.LVL38:
 259              	.L19:
 260              		.loc 1 156 0
 261 007e 2E2A     		cmp	r2, #46
 262 0080 12D1     		bne	.L56
 263              		.loc 1 146 0
 264 0082 2B46     		mov	r3, r5
 265              		.loc 1 156 0
 266 0084 0021     		movs	r1, #0
 267              	.LVL39:
 268              	.L23:
 269              		.loc 1 158 0
 270 0086 5D1C     		adds	r5, r3, #1
 271              	.LVL40:
 272 0088 1A78     		ldrb	r2, [r3]	@ zero_extendqisi2
 273              	.LVL41:
 274              		.loc 1 159 0
 275 008a A2F13003 		sub	r3, r2, #48
 276 008e DBB2     		uxtb	r3, r3
 277 0090 092B     		cmp	r3, #9
 278 0092 03D9     		bls	.L22
 279              		.loc 1 161 0
 280 0094 2A2A     		cmp	r2, #42
 281 0096 08D1     		bne	.L21
 282              		.loc 1 162 0
 283 0098 3B78     		ldrb	r3, [r7]	@ zero_extendqisi2
ARM GAS  /tmp/cchPOgg8.s 			page 6


 284              	.LVL42:
 285 009a 0437     		adds	r7, r7, #4
 286              	.LVL43:
 287              	.L22:
 288              		.loc 1 165 0
 289 009c 01EB8102 		add	r2, r1, r1, lsl #2
 290 00a0 5200     		lsls	r2, r2, #1
 291              	.LVL44:
 292              		.loc 1 166 0
 293 00a2 9918     		adds	r1, r3, r2
 294              	.LVL45:
 295              		.loc 1 158 0
 296 00a4 2B46     		mov	r3, r5
 297              	.LVL46:
 298              		.loc 1 167 0
 299 00a6 EEE7     		b	.L23
 300              	.LVL47:
 301              	.L56:
 302              		.loc 1 155 0
 303 00a8 0021     		movs	r1, #0
 304              	.LVL48:
 305              	.L21:
 306              		.loc 1 170 0
 307 00aa 6C2A     		cmp	r2, #108
 308 00ac 01D0     		beq	.L24
 309              		.loc 1 170 0 is_stmt 0 discriminator 1
 310 00ae 4C2A     		cmp	r2, #76
 311 00b0 05D1     		bne	.L25
 312              	.L24:
 313              	.LVL49:
 314              		.loc 1 172 0 is_stmt 1
 315 00b2 2B78     		ldrb	r3, [r5]	@ zero_extendqisi2
 316 00b4 5BB1     		cbz	r3, .L57
 317              		.loc 1 173 0
 318 00b6 0135     		adds	r5, r5, #1
 319              	.LVL50:
 320 00b8 1A46     		mov	r2, r3
 321              		.loc 1 171 0
 322 00ba 0123     		movs	r3, #1
 323              	.LVL51:
 324 00bc 08E0     		b	.L26
 325              	.LVL52:
 326              	.L25:
 327              		.loc 1 176 0
 328 00be A2F14103 		sub	r3, r2, #65
 329 00c2 DBB2     		uxtb	r3, r3
 330 00c4 192B     		cmp	r3, #25
 331 00c6 8CBF     		ite	hi
 332 00c8 0023     		movhi	r3, #0
 333 00ca 0123     		movls	r3, #1
 334              	.LVL53:
 335 00cc 00E0     		b	.L26
 336              	.LVL54:
 337              	.L57:
 338              		.loc 1 171 0
 339 00ce 0123     		movs	r3, #1
 340              	.LVL55:
ARM GAS  /tmp/cchPOgg8.s 			page 7


 341              	.L26:
 342              		.loc 1 179 0
 343 00d0 A2F14400 		sub	r0, r2, #68
 344 00d4 3428     		cmp	r0, #52
 345 00d6 63D8     		bhi	.L27
 346 00d8 DFE800F0 		tbb	[pc, r0]
 347              	.L29:
 348 00dc 3D       		.byte	(.L28-.L29)/2
 349 00dd 62       		.byte	(.L27-.L29)/2
 350 00de 62       		.byte	(.L27-.L29)/2
 351 00df 62       		.byte	(.L27-.L29)/2
 352 00e0 62       		.byte	(.L27-.L29)/2
 353 00e1 3D       		.byte	(.L28-.L29)/2
 354 00e2 62       		.byte	(.L27-.L29)/2
 355 00e3 62       		.byte	(.L27-.L29)/2
 356 00e4 62       		.byte	(.L27-.L29)/2
 357 00e5 62       		.byte	(.L27-.L29)/2
 358 00e6 62       		.byte	(.L27-.L29)/2
 359 00e7 53       		.byte	(.L30-.L29)/2
 360 00e8 62       		.byte	(.L27-.L29)/2
 361 00e9 62       		.byte	(.L27-.L29)/2
 362 00ea 62       		.byte	(.L27-.L29)/2
 363 00eb 62       		.byte	(.L27-.L29)/2
 364 00ec 62       		.byte	(.L27-.L29)/2
 365 00ed 55       		.byte	(.L58-.L29)/2
 366 00ee 62       		.byte	(.L27-.L29)/2
 367 00ef 62       		.byte	(.L27-.L29)/2
 368 00f0 1B       		.byte	(.L32-.L29)/2
 369 00f1 62       		.byte	(.L27-.L29)/2
 370 00f2 62       		.byte	(.L27-.L29)/2
 371 00f3 62       		.byte	(.L27-.L29)/2
 372 00f4 62       		.byte	(.L27-.L29)/2
 373 00f5 62       		.byte	(.L27-.L29)/2
 374 00f6 62       		.byte	(.L27-.L29)/2
 375 00f7 62       		.byte	(.L27-.L29)/2
 376 00f8 62       		.byte	(.L27-.L29)/2
 377 00f9 62       		.byte	(.L27-.L29)/2
 378 00fa 62       		.byte	(.L27-.L29)/2
 379 00fb 1D       		.byte	(.L33-.L29)/2
 380 00fc 3D       		.byte	(.L28-.L29)/2
 381 00fd 62       		.byte	(.L27-.L29)/2
 382 00fe 62       		.byte	(.L27-.L29)/2
 383 00ff 62       		.byte	(.L27-.L29)/2
 384 0100 62       		.byte	(.L27-.L29)/2
 385 0101 3D       		.byte	(.L28-.L29)/2
 386 0102 62       		.byte	(.L27-.L29)/2
 387 0103 62       		.byte	(.L27-.L29)/2
 388 0104 62       		.byte	(.L27-.L29)/2
 389 0105 62       		.byte	(.L27-.L29)/2
 390 0106 62       		.byte	(.L27-.L29)/2
 391 0107 53       		.byte	(.L30-.L29)/2
 392 0108 62       		.byte	(.L27-.L29)/2
 393 0109 62       		.byte	(.L27-.L29)/2
 394 010a 62       		.byte	(.L27-.L29)/2
 395 010b 28       		.byte	(.L34-.L29)/2
 396 010c 62       		.byte	(.L27-.L29)/2
 397 010d 55       		.byte	(.L58-.L29)/2
ARM GAS  /tmp/cchPOgg8.s 			page 8


 398 010e 62       		.byte	(.L27-.L29)/2
 399 010f 62       		.byte	(.L27-.L29)/2
 400 0110 1B       		.byte	(.L32-.L29)/2
 401 0111 00       		.p2align 1
 402              	.L32:
 403              		.loc 1 219 0
 404 0112 1022     		movs	r2, #16
 405              	.LVL56:
 406 0114 38E0     		b	.L31
 407              	.LVL57:
 408              	.L33:
 409              		.loc 1 182 0
 410 0116 3B68     		ldr	r3, [r7]
 411              	.LVL58:
 412 0118 0437     		adds	r7, r7, #4
 413              	.LVL59:
 414 011a 0DF1100A 		add	r10, sp, #16
 415 011e 0AF80C3D 		strb	r3, [r10, #-12]!
 416              		.loc 1 181 0
 417 0122 4FF02008 		mov	r8, #32
 418              		.loc 1 182 0
 419 0126 0DF10500 		add	r0, sp, #5
 420              	.LVL60:
 421              		.loc 1 183 0
 422 012a 42E0     		b	.L35
 423              	.LVL61:
 424              	.L34:
 425              		.loc 1 186 0
 426 012c D7F800A0 		ldr	r10, [r7]
 427              	.LVL62:
 428 0130 0437     		adds	r7, r7, #4
 429              	.LVL63:
 430 0132 BAF1000F 		cmp	r10, #0
 431 0136 01D1     		bne	.L36
 432              		.loc 1 187 0
 433 0138 DFF8F0A0 		ldr	r10, .L65
 434              	.LVL64:
 435              	.L36:
 436              		.loc 1 188 0
 437 013c 09B9     		cbnz	r1, .L37
 438              		.loc 1 189 0
 439 013e 47F6FF71 		movw	r1, #32767
 440              	.LVL65:
 441              	.L37:
 442              		.loc 1 190 0
 443 0142 5046     		mov	r0, r10
 444 0144 00E0     		b	.L38
 445              	.LVL66:
 446              	.L39:
 447              		.loc 1 190 0 is_stmt 0 discriminator 4
 448 0146 0130     		adds	r0, r0, #1
 449              	.LVL67:
 450              	.L38:
 451              		.loc 1 190 0 discriminator 1
 452 0148 0378     		ldrb	r3, [r0]	@ zero_extendqisi2
 453 014a 83B3     		cbz	r3, .L61
 454              	.LVL68:
ARM GAS  /tmp/cchPOgg8.s 			page 9


 455              		.loc 1 190 0 discriminator 3
 456 014c 0139     		subs	r1, r1, #1
 457              	.LVL69:
 458 014e FAD5     		bpl	.L39
 459              		.loc 1 185 0 is_stmt 1
 460 0150 4FF02008 		mov	r8, #32
 461 0154 2DE0     		b	.L35
 462              	.LVL70:
 463              	.L28:
 464              		.loc 1 197 0
 465 0156 13B1     		cbz	r3, .L40
 466              		.loc 1 198 0
 467 0158 3968     		ldr	r1, [r7]
 468              	.LVL71:
 469 015a 0437     		adds	r7, r7, #4
 470              	.LVL72:
 471 015c 01E0     		b	.L41
 472              	.LVL73:
 473              	.L40:
 474              		.loc 1 200 0
 475 015e 3968     		ldr	r1, [r7]
 476              	.LVL74:
 477 0160 0437     		adds	r7, r7, #4
 478              	.LVL75:
 479              	.L41:
 480              		.loc 1 201 0
 481 0162 0029     		cmp	r1, #0
 482 0164 06DA     		bge	.L62
 483              	.LVL76:
 484              		.loc 1 202 0
 485 0166 2D23     		movs	r3, #45
 486              	.LVL77:
 487 0168 8DF80430 		strb	r3, [sp, #4]
 488              		.loc 1 203 0
 489 016c 4942     		negs	r1, r1
 490              	.LVL78:
 491              		.loc 1 202 0
 492 016e 0DF10500 		add	r0, sp, #5
 493              	.LVL79:
 494 0172 00E0     		b	.L42
 495              	.LVL80:
 496              	.L62:
 497              		.loc 1 132 0
 498 0174 01A8     		add	r0, sp, #4
 499              	.LVL81:
 500              	.L42:
 501              		.loc 1 205 0
 502 0176 0A22     		movs	r2, #10
 503              	.LVL82:
 504 0178 FFF7FEFF 		bl	ltoa
 505              	.LVL83:
 506              		.loc 1 133 0
 507 017c 0DF1040A 		add	r10, sp, #4
 508              	.LVL84:
 509              		.loc 1 206 0
 510 0180 17E0     		b	.L35
 511              	.LVL85:
ARM GAS  /tmp/cchPOgg8.s 			page 10


 512              	.L30:
 513              		.loc 1 227 0
 514 0182 0822     		movs	r2, #8
 515 0184 00E0     		b	.L31
 516              	.LVL86:
 517              	.L58:
 518              		.loc 1 223 0
 519 0186 0A22     		movs	r2, #10
 520              	.LVL87:
 521              	.L31:
 522              		.loc 1 229 0
 523 0188 13B1     		cbz	r3, .L43
 524              		.loc 1 230 0
 525 018a 3968     		ldr	r1, [r7]
 526              	.LVL88:
 527 018c 0437     		adds	r7, r7, #4
 528              	.LVL89:
 529 018e 01E0     		b	.L44
 530              	.LVL90:
 531              	.L43:
 532              		.loc 1 232 0
 533 0190 3968     		ldr	r1, [r7]
 534              	.LVL91:
 535 0192 0437     		adds	r7, r7, #4
 536              	.LVL92:
 537              	.L44:
 538              		.loc 1 233 0
 539 0194 01A8     		add	r0, sp, #4
 540              	.LVL93:
 541 0196 FFF7FEFF 		bl	ltoa
 542              	.LVL94:
 543              		.loc 1 133 0
 544 019a 0DF1040A 		add	r10, sp, #4
 545              	.LVL95:
 546              		.loc 1 234 0
 547 019e 08E0     		b	.L35
 548              	.LVL96:
 549              	.L27:
 550              		.loc 1 236 0
 551 01a0 0DF1100A 		add	r10, sp, #16
 552 01a4 0AF80C2D 		strb	r2, [r10, #-12]!
 553 01a8 0DF10500 		add	r0, sp, #5
 554              	.LVL97:
 555              		.loc 1 237 0
 556 01ac 01E0     		b	.L35
 557              	.LVL98:
 558              	.L61:
 559              		.loc 1 185 0
 560 01ae 4FF02008 		mov	r8, #32
 561              	.LVL99:
 562              	.L35:
 563              		.loc 1 239 0
 564 01b2 CAEB000B 		rsb	fp, r10, r0
 565              	.LVL100:
 566              		.loc 1 240 0
 567 01b6 B4EB0B04 		subs	r4, r4, fp
 568              	.LVL101:
ARM GAS  /tmp/cchPOgg8.s 			page 11


 569 01ba 00D5     		bpl	.L45
 570              		.loc 1 241 0
 571 01bc 0024     		movs	r4, #0
 572              	.LVL102:
 573              	.L45:
 574              		.loc 1 242 0
 575 01be B9F1000F 		cmp	r9, #0
 576 01c2 00D1     		bne	.L46
 577              		.loc 1 243 0
 578 01c4 6442     		negs	r4, r4
 579              	.LVL103:
 580              	.L46:
 581              		.loc 1 244 0
 582 01c6 002C     		cmp	r4, #0
 583 01c8 1FDA     		bge	.L50
 584              		.loc 1 245 0
 585 01ca 9AF80010 		ldrb	r1, [r10]	@ zero_extendqisi2
 586 01ce 2D29     		cmp	r1, #45
 587 01d0 0AD1     		bne	.L49
 588              		.loc 1 245 0 is_stmt 0 discriminator 1
 589 01d2 B8F1300F 		cmp	r8, #48
 590 01d6 07D1     		bne	.L49
 591              		.loc 1 246 0 is_stmt 1
 592 01d8 3368     		ldr	r3, [r6]
 593 01da 9B68     		ldr	r3, [r3, #8]
 594 01dc 0AF1010A 		add	r10, r10, #1
 595              	.LVL104:
 596 01e0 3046     		mov	r0, r6
 597              	.LVL105:
 598 01e2 9847     		blx	r3
 599              	.LVL106:
 600              		.loc 1 247 0
 601 01e4 0BF1FF3B 		add	fp, fp, #-1
 602              	.LVL107:
 603              	.L49:
 604              		.loc 1 250 0 discriminator 1
 605 01e8 3368     		ldr	r3, [r6]
 606 01ea 9B68     		ldr	r3, [r3, #8]
 607 01ec 3046     		mov	r0, r6
 608 01ee 4146     		mov	r1, r8
 609 01f0 9847     		blx	r3
 610              	.LVL108:
 611              		.loc 1 251 0 discriminator 1
 612 01f2 0134     		adds	r4, r4, #1
 613              	.LVL109:
 614 01f4 F8D1     		bne	.L49
 615 01f6 08E0     		b	.L50
 616              	.LVL110:
 617              	.L51:
 618              		.loc 1 254 0
 619 01f8 3368     		ldr	r3, [r6]
 620 01fa 9B68     		ldr	r3, [r3, #8]
 621 01fc 0AF10109 		add	r9, r10, #1
 622              	.LVL111:
 623 0200 3046     		mov	r0, r6
 624 0202 9AF80010 		ldrb	r1, [r10]	@ zero_extendqisi2
 625 0206 9847     		blx	r3
ARM GAS  /tmp/cchPOgg8.s 			page 12


 626              	.LVL112:
 627 0208 CA46     		mov	r10, r9
 628              	.LVL113:
 629              	.L50:
 630              		.loc 1 253 0
 631 020a BBF1010B 		subs	fp, fp, #1
 632              	.LVL114:
 633 020e F3D5     		bpl	.L51
 634 0210 05E0     		b	.L52
 635              	.L53:
 636              		.loc 1 257 0
 637 0212 3368     		ldr	r3, [r6]
 638 0214 9B68     		ldr	r3, [r3, #8]
 639 0216 3046     		mov	r0, r6
 640 0218 4146     		mov	r1, r8
 641 021a 9847     		blx	r3
 642              	.LVL115:
 643              		.loc 1 258 0
 644 021c 013C     		subs	r4, r4, #1
 645              	.LVL116:
 646              	.L52:
 647              		.loc 1 256 0
 648 021e 002C     		cmp	r4, #0
 649 0220 F7D1     		bne	.L53
 650 0222 F3E6     		b	.L11
 651              	.LVL117:
 652              	.L10:
 653              		.loc 1 261 0
 654 0224 05B0     		add	sp, sp, #20
 655              		.cfi_def_cfa_offset 36
 656              		@ sp needed
 657 0226 BDE8F08F 		pop	{r4, r5, r6, r7, r8, r9, r10, fp, pc}
 658              	.LVL118:
 659              	.L66:
 660 022a 00BF     		.align	2
 661              	.L65:
 662 022c 00000000 		.word	.LC0
 663              		.cfi_endproc
 664              	.LFE10:
 665              		.size	chvprintf, .-chvprintf
 666              		.section	.text.chsnprintf,"ax",%progbits
 667              		.align	2
 668              		.p2align 4,,15
 669              		.global	chsnprintf
 670              		.thumb
 671              		.thumb_func
 672              		.type	chsnprintf, %function
 673              	chsnprintf:
 674              	.LFB11:
 675              		.loc 1 288 0
 676              		.cfi_startproc
 677              		@ args = 4, pretend = 8, frame = 24
 678              		@ frame_needed = 0, uses_anonymous_args = 1
 679              	.LVL119:
 680 0000 0CB4     		push	{r2, r3}
 681              		.cfi_def_cfa_offset 8
 682              		.cfi_offset 2, -8
ARM GAS  /tmp/cchPOgg8.s 			page 13


 683              		.cfi_offset 3, -4
 684 0002 70B5     		push	{r4, r5, r6, lr}
 685              		.cfi_def_cfa_offset 24
 686              		.cfi_offset 4, -24
 687              		.cfi_offset 5, -20
 688              		.cfi_offset 6, -16
 689              		.cfi_offset 14, -12
 690 0004 86B0     		sub	sp, sp, #24
 691              		.cfi_def_cfa_offset 48
 692 0006 0546     		mov	r5, r0
 693 0008 0AAC     		add	r4, sp, #40
 694 000a 54F8046B 		ldr	r6, [r4], #4
 695              		.loc 1 295 0
 696 000e 4A1E     		subs	r2, r1, #1
 697 0010 6846     		mov	r0, sp
 698              	.LVL120:
 699 0012 2946     		mov	r1, r5
 700              	.LVL121:
 701 0014 0023     		movs	r3, #0
 702 0016 FFF7FEFF 		bl	msObjectInit
 703              	.LVL122:
 704              		.loc 1 299 0
 705 001a 0594     		str	r4, [sp, #20]
 706              		.loc 1 300 0
 707 001c 6846     		mov	r0, sp
 708 001e 3146     		mov	r1, r6
 709 0020 2246     		mov	r2, r4
 710 0022 FFF7FEFF 		bl	chvprintf
 711              	.LVL123:
 712              		.loc 1 304 0
 713 0026 0398     		ldr	r0, [sp, #12]
 714 0028 0022     		movs	r2, #0
 715 002a 2A54     		strb	r2, [r5, r0]
 716              		.loc 1 306 0
 717 002c 06B0     		add	sp, sp, #24
 718              		.cfi_def_cfa_offset 24
 719              	.LVL124:
 720              		@ sp needed
 721 002e BDE87040 		pop	{r4, r5, r6, lr}
 722              		.cfi_restore 14
 723              		.cfi_restore 6
 724              		.cfi_restore 5
 725              		.cfi_restore 4
 726              		.cfi_def_cfa_offset 8
 727              	.LVL125:
 728 0032 02B0     		add	sp, sp, #8
 729              		.cfi_restore 3
 730              		.cfi_restore 2
 731              		.cfi_def_cfa_offset 0
 732 0034 7047     		bx	lr
 733              		.cfi_endproc
 734              	.LFE11:
 735              		.size	chsnprintf, .-chsnprintf
 736 0036 00BFAFF3 		.section	.rodata.str1.4,"aMS",%progbits,1
 736      0080AFF3 
 736      0080
 737              		.align	2
ARM GAS  /tmp/cchPOgg8.s 			page 14


 738              	.LC0:
 739 0000 286E756C 		.ascii	"(null)\000"
 739      6C2900
 740 0007 00       		.text
 741              	.Letext0:
 742              		.file 2 "/usr/lib/gcc/arm-none-eabi/4.9.2/include/stddef.h"
 743              		.file 3 "/usr/arm-none-eabi/include/machine/_default_types.h"
 744              		.file 4 "/usr/arm-none-eabi/include/stdint.h"
 745              		.file 5 "../../ChibiOS-RT/os/ports/GCC/ARMCMx/chtypes.h"
 746              		.file 6 "../../ChibiOS-RT/os/kernel/include/chstreams.h"
 747              		.file 7 "/usr/lib/gcc/arm-none-eabi/4.9.2/include/stdarg.h"
 748              		.file 8 "<built-in>"
 749              		.file 9 "../../ChibiOS-RT/os/various/memstreams.h"