ARM GAS  /tmp/ccwSpLeL.s 			page 1


   1              		.syntax unified
   2              		.cpu cortex-m4
   3              		.fpu softvfp
   4              		.eabi_attribute 20, 1
   5              		.eabi_attribute 21, 1
   6              		.eabi_attribute 23, 3
   7              		.eabi_attribute 24, 1
   8              		.eabi_attribute 25, 1
   9              		.eabi_attribute 26, 1
  10              		.eabi_attribute 30, 1
  11              		.eabi_attribute 34, 1
  12              		.eabi_attribute 18, 4
  13              		.thumb
  14              		.file	"chqueues.c"
  15              		.text
  16              	.Ltext0:
  17              		.cfi_sections	.debug_frame
  18              		.section	.text.qwait,"ax",%progbits
  19              		.align	2
  20              		.p2align 4,,15
  21              		.thumb
  22              		.thumb_func
  23              		.type	qwait, %function
  24              	qwait:
  25              	.LFB7:
  26              		.file 1 "../../ChibiOS-RT/os/kernel/src/chqueues.c"
  27              		.loc 1 70 0
  28              		.cfi_startproc
  29              		@ args = 0, pretend = 0, frame = 0
  30              		@ frame_needed = 0, uses_anonymous_args = 0
  31              	.LVL0:
  32              		.loc 1 72 0
  33 0000 61B1     		cbz	r1, .L3
  34              		.loc 1 70 0
  35 0002 08B5     		push	{r3, lr}
  36              		.cfi_def_cfa_offset 8
  37              		.cfi_offset 3, -8
  38              		.cfi_offset 14, -4
  39              		.loc 1 74 0
  40 0004 074B     		ldr	r3, .L6
  41 0006 9B69     		ldr	r3, [r3, #24]
  42 0008 9862     		str	r0, [r3, #40]
  43              	.LVL1:
  44              	.LBB12:
  45              	.LBB13:
  46              		.file 2 "../../ChibiOS-RT/os/kernel/include/chinline.h"
  47              		.loc 2 54 0
  48 000a 1860     		str	r0, [r3]
  49              		.loc 2 55 0
  50 000c 4268     		ldr	r2, [r0, #4]
  51 000e 5A60     		str	r2, [r3, #4]
  52              		.loc 2 56 0
  53 0010 4360     		str	r3, [r0, #4]
  54 0012 1360     		str	r3, [r2]
  55              	.LBE13:
  56              	.LBE12:
  57              		.loc 1 76 0
ARM GAS  /tmp/ccwSpLeL.s 			page 2


  58 0014 0D20     		movs	r0, #13
  59              	.LVL2:
  60 0016 FFF7FEFF 		bl	chSchGoSleepTimeoutS
  61              	.LVL3:
  62 001a 08BD     		pop	{r3, pc}
  63              	.LVL4:
  64              	.L3:
  65              		.cfi_def_cfa_offset 0
  66              		.cfi_restore 3
  67              		.cfi_restore 14
  68              		.loc 1 73 0
  69 001c 4FF0FF30 		mov	r0, #-1
  70              	.LVL5:
  71 0020 7047     		bx	lr
  72              	.L7:
  73 0022 00BF     		.align	2
  74              	.L6:
  75 0024 00000000 		.word	rlist
  76              		.cfi_endproc
  77              	.LFE7:
  78              		.size	qwait, .-qwait
  79 0028 AFF30080 		.section	.text.chIQInit,"ax",%progbits
  79      AFF30080 
  80              		.align	2
  81              		.p2align 4,,15
  82              		.global	chIQInit
  83              		.thumb
  84              		.thumb_func
  85              		.type	chIQInit, %function
  86              	chIQInit:
  87              	.LFB8:
  88              		.loc 1 96 0
  89              		.cfi_startproc
  90              		@ args = 4, pretend = 0, frame = 0
  91              		@ frame_needed = 0, uses_anonymous_args = 0
  92              		@ link register save eliminated.
  93              	.LVL6:
  94 0000 10B4     		push	{r4}
  95              		.cfi_def_cfa_offset 4
  96              		.cfi_offset 4, -4
  97              		.loc 1 98 0
  98 0002 4060     		str	r0, [r0, #4]
  99 0004 0060     		str	r0, [r0]
 100              		.loc 1 99 0
 101 0006 0024     		movs	r4, #0
 102 0008 8460     		str	r4, [r0, #8]
 103              		.loc 1 100 0
 104 000a 4161     		str	r1, [r0, #20]
 105 000c 8161     		str	r1, [r0, #24]
 106 000e C160     		str	r1, [r0, #12]
 107              		.loc 1 101 0
 108 0010 0A44     		add	r2, r2, r1
 109              	.LVL7:
 110 0012 0261     		str	r2, [r0, #16]
 111              		.loc 1 102 0
 112 0014 C361     		str	r3, [r0, #28]
 113              		.loc 1 103 0
ARM GAS  /tmp/ccwSpLeL.s 			page 3


 114 0016 019B     		ldr	r3, [sp, #4]
 115              	.LVL8:
 116 0018 0362     		str	r3, [r0, #32]
 117              		.loc 1 104 0
 118 001a 5DF8044B 		ldr	r4, [sp], #4
 119              		.cfi_restore 4
 120              		.cfi_def_cfa_offset 0
 121              	.LVL9:
 122 001e 7047     		bx	lr
 123              		.cfi_endproc
 124              	.LFE8:
 125              		.size	chIQInit, .-chIQInit
 126              		.section	.text.chIQResetI,"ax",%progbits
 127              		.align	2
 128              		.p2align 4,,15
 129              		.global	chIQResetI
 130              		.thumb
 131              		.thumb_func
 132              		.type	chIQResetI, %function
 133              	chIQResetI:
 134              	.LFB9:
 135              		.loc 1 117 0
 136              		.cfi_startproc
 137              		@ args = 0, pretend = 0, frame = 0
 138              		@ frame_needed = 0, uses_anonymous_args = 0
 139              	.LVL10:
 140 0000 10B5     		push	{r4, lr}
 141              		.cfi_def_cfa_offset 8
 142              		.cfi_offset 4, -8
 143              		.cfi_offset 14, -4
 144 0002 0446     		mov	r4, r0
 145              		.loc 1 119 0
 146 0004 FFF7FEFF 		bl	chDbgCheckClassI
 147              	.LVL11:
 148              		.loc 1 121 0
 149 0008 E368     		ldr	r3, [r4, #12]
 150 000a 6361     		str	r3, [r4, #20]
 151 000c A361     		str	r3, [r4, #24]
 152              		.loc 1 122 0
 153 000e 0023     		movs	r3, #0
 154 0010 A360     		str	r3, [r4, #8]
 155              		.loc 1 123 0
 156 0012 07E0     		b	.L11
 157              	.L12:
 158              	.LVL12:
 159              	.LBB14:
 160              	.LBB15:
 161              		.loc 2 62 0
 162 0014 0368     		ldr	r3, [r0]
 163 0016 2360     		str	r3, [r4]
 164 0018 5C60     		str	r4, [r3, #4]
 165              	.LBE15:
 166              	.LBE14:
 167              		.loc 1 124 0
 168 001a FFF7FEFF 		bl	chSchReadyI
 169              	.LVL13:
 170 001e 6FF00103 		mvn	r3, #1
ARM GAS  /tmp/ccwSpLeL.s 			page 4


 171 0022 8362     		str	r3, [r0, #40]
 172              	.LVL14:
 173              	.L11:
 174              		.loc 1 123 0
 175 0024 2068     		ldr	r0, [r4]
 176 0026 A042     		cmp	r0, r4
 177 0028 F4D1     		bne	.L12
 178              		.loc 1 125 0
 179 002a 10BD     		pop	{r4, pc}
 180              		.cfi_endproc
 181              	.LFE9:
 182              		.size	chIQResetI, .-chIQResetI
 183 002c AFF30080 		.section	.text.chIQPutI,"ax",%progbits
 184              		.align	2
 185              		.p2align 4,,15
 186              		.global	chIQPutI
 187              		.thumb
 188              		.thumb_func
 189              		.type	chIQPutI, %function
 190              	chIQPutI:
 191              	.LFB10:
 192              		.loc 1 140 0
 193              		.cfi_startproc
 194              		@ args = 0, pretend = 0, frame = 0
 195              		@ frame_needed = 0, uses_anonymous_args = 0
 196              	.LVL15:
 197 0000 38B5     		push	{r3, r4, r5, lr}
 198              		.cfi_def_cfa_offset 16
 199              		.cfi_offset 3, -16
 200              		.cfi_offset 4, -12
 201              		.cfi_offset 5, -8
 202              		.cfi_offset 14, -4
 203 0002 0446     		mov	r4, r0
 204 0004 0D46     		mov	r5, r1
 205              		.loc 1 142 0
 206 0006 FFF7FEFF 		bl	chDbgCheckClassI
 207              	.LVL16:
 208              		.loc 1 144 0
 209 000a 6369     		ldr	r3, [r4, #20]
 210 000c A269     		ldr	r2, [r4, #24]
 211 000e 9342     		cmp	r3, r2
 212 0010 02D1     		bne	.L18
 213              		.loc 1 144 0 is_stmt 0 discriminator 1
 214 0012 A268     		ldr	r2, [r4, #8]
 215 0014 12B9     		cbnz	r2, .L19
 216 0016 02E0     		b	.L15
 217              	.L18:
 218              		.loc 1 144 0
 219 0018 0022     		movs	r2, #0
 220 001a 00E0     		b	.L15
 221              	.L19:
 222 001c 0122     		movs	r2, #1
 223              	.L15:
 224              		.loc 1 144 0 discriminator 6
 225 001e BAB9     		cbnz	r2, .L20
 226              		.loc 1 147 0 is_stmt 1
 227 0020 A268     		ldr	r2, [r4, #8]
ARM GAS  /tmp/ccwSpLeL.s 			page 5


 228 0022 0132     		adds	r2, r2, #1
 229 0024 A260     		str	r2, [r4, #8]
 230              		.loc 1 148 0
 231 0026 5A1C     		adds	r2, r3, #1
 232 0028 6261     		str	r2, [r4, #20]
 233 002a 1D70     		strb	r5, [r3]
 234              		.loc 1 149 0
 235 002c 6269     		ldr	r2, [r4, #20]
 236 002e 2369     		ldr	r3, [r4, #16]
 237 0030 9A42     		cmp	r2, r3
 238 0032 01D3     		bcc	.L17
 239              		.loc 1 150 0
 240 0034 E368     		ldr	r3, [r4, #12]
 241 0036 6361     		str	r3, [r4, #20]
 242              	.L17:
 243              		.loc 1 152 0
 244 0038 2068     		ldr	r0, [r4]
 245 003a A042     		cmp	r0, r4
 246 003c 0BD0     		beq	.L21
 247              	.LVL17:
 248              	.LBB16:
 249              	.LBB17:
 250              		.loc 2 62 0
 251 003e 0368     		ldr	r3, [r0]
 252 0040 2360     		str	r3, [r4]
 253 0042 5C60     		str	r4, [r3, #4]
 254              	.LBE17:
 255              	.LBE16:
 256              		.loc 1 153 0
 257 0044 FFF7FEFF 		bl	chSchReadyI
 258              	.LVL18:
 259 0048 0023     		movs	r3, #0
 260 004a 8362     		str	r3, [r0, #40]
 261              		.loc 1 155 0
 262 004c 1846     		mov	r0, r3
 263 004e 38BD     		pop	{r3, r4, r5, pc}
 264              	.LVL19:
 265              	.L20:
 266              		.loc 1 145 0
 267 0050 6FF00300 		mvn	r0, #3
 268 0054 38BD     		pop	{r3, r4, r5, pc}
 269              	.LVL20:
 270              	.L21:
 271              		.loc 1 155 0
 272 0056 0020     		movs	r0, #0
 273              		.loc 1 156 0
 274 0058 38BD     		pop	{r3, r4, r5, pc}
 275              		.cfi_endproc
 276              	.LFE10:
 277              		.size	chIQPutI, .-chIQPutI
 278 005a 00BFAFF3 		.section	.text.chIQGetTimeout,"ax",%progbits
 278      0080
 279              		.align	2
 280              		.p2align 4,,15
 281              		.global	chIQGetTimeout
 282              		.thumb
 283              		.thumb_func
ARM GAS  /tmp/ccwSpLeL.s 			page 6


 284              		.type	chIQGetTimeout, %function
 285              	chIQGetTimeout:
 286              	.LFB11:
 287              		.loc 1 178 0
 288              		.cfi_startproc
 289              		@ args = 0, pretend = 0, frame = 0
 290              		@ frame_needed = 0, uses_anonymous_args = 0
 291              	.LVL21:
 292 0000 70B5     		push	{r4, r5, r6, lr}
 293              		.cfi_def_cfa_offset 16
 294              		.cfi_offset 4, -16
 295              		.cfi_offset 5, -12
 296              		.cfi_offset 6, -8
 297              		.cfi_offset 14, -4
 298 0002 0446     		mov	r4, r0
 299 0004 0E46     		mov	r6, r1
 300              	.LBB18:
 301              		.loc 1 181 0
 302 0006 2023     		movs	r3, #32
 303              	@ 181 "../../ChibiOS-RT/os/kernel/src/chqueues.c" 1
 304 0008 83F31188 		msr     BASEPRI, r3
 305              	@ 0 "" 2
 306              		.thumb
 307              	.LBE18:
 308 000c FFF7FEFF 		bl	dbg_check_lock
 309              	.LVL22:
 310              		.loc 1 182 0
 311 0010 E369     		ldr	r3, [r4, #28]
 312 0012 7BB1     		cbz	r3, .L25
 313              		.loc 1 183 0
 314 0014 2046     		mov	r0, r4
 315 0016 9847     		blx	r3
 316              	.LVL23:
 317 0018 0CE0     		b	.L25
 318              	.L27:
 319              	.LBB19:
 320              		.loc 1 187 0
 321 001a 2046     		mov	r0, r4
 322 001c 3146     		mov	r1, r6
 323 001e FFF7FEFF 		bl	qwait
 324              	.LVL24:
 325 0022 051E     		subs	r5, r0, #0
 326 0024 06DA     		bge	.L25
 327              		.loc 1 188 0
 328 0026 FFF7FEFF 		bl	dbg_check_unlock
 329              	.LVL25:
 330              	.LBB20:
 331 002a 0023     		movs	r3, #0
 332              	@ 188 "../../ChibiOS-RT/os/kernel/src/chqueues.c" 1
 333 002c 83F31188 		msr     BASEPRI, r3
 334              	@ 0 "" 2
 335              		.thumb
 336              	.LBE20:
 337              		.loc 1 189 0
 338 0030 2846     		mov	r0, r5
 339 0032 70BD     		pop	{r4, r5, r6, pc}
 340              	.LVL26:
ARM GAS  /tmp/ccwSpLeL.s 			page 7


 341              	.L25:
 342              	.LBE19:
 343              		.loc 1 185 0
 344 0034 A368     		ldr	r3, [r4, #8]
 345 0036 002B     		cmp	r3, #0
 346 0038 EFD0     		beq	.L27
 347              		.loc 1 193 0
 348 003a 013B     		subs	r3, r3, #1
 349 003c A360     		str	r3, [r4, #8]
 350              		.loc 1 194 0
 351 003e A269     		ldr	r2, [r4, #24]
 352 0040 531C     		adds	r3, r2, #1
 353 0042 A361     		str	r3, [r4, #24]
 354 0044 1578     		ldrb	r5, [r2]	@ zero_extendqisi2
 355              	.LVL27:
 356              		.loc 1 195 0
 357 0046 2269     		ldr	r2, [r4, #16]
 358 0048 9342     		cmp	r3, r2
 359 004a 01D3     		bcc	.L28
 360              		.loc 1 196 0
 361 004c E368     		ldr	r3, [r4, #12]
 362 004e A361     		str	r3, [r4, #24]
 363              	.L28:
 364              		.loc 1 198 0
 365 0050 FFF7FEFF 		bl	dbg_check_unlock
 366              	.LVL28:
 367              	.LBB21:
 368 0054 0023     		movs	r3, #0
 369              	@ 198 "../../ChibiOS-RT/os/kernel/src/chqueues.c" 1
 370 0056 83F31188 		msr     BASEPRI, r3
 371              	@ 0 "" 2
 372              		.thumb
 373              	.LBE21:
 374              		.loc 1 199 0
 375 005a 2846     		mov	r0, r5
 376              		.loc 1 200 0
 377 005c 70BD     		pop	{r4, r5, r6, pc}
 378              		.cfi_endproc
 379              	.LFE11:
 380              		.size	chIQGetTimeout, .-chIQGetTimeout
 381 005e 00BF     		.section	.text.chIQReadTimeout,"ax",%progbits
 382              		.align	2
 383              		.p2align 4,,15
 384              		.global	chIQReadTimeout
 385              		.thumb
 386              		.thumb_func
 387              		.type	chIQReadTimeout, %function
 388              	chIQReadTimeout:
 389              	.LFB12:
 390              		.loc 1 227 0
 391              		.cfi_startproc
 392              		@ args = 0, pretend = 0, frame = 0
 393              		@ frame_needed = 0, uses_anonymous_args = 0
 394              	.LVL29:
 395 0000 2DE9F047 		push	{r4, r5, r6, r7, r8, r9, r10, lr}
 396              		.cfi_def_cfa_offset 32
 397              		.cfi_offset 4, -32
ARM GAS  /tmp/ccwSpLeL.s 			page 8


 398              		.cfi_offset 5, -28
 399              		.cfi_offset 6, -24
 400              		.cfi_offset 7, -20
 401              		.cfi_offset 8, -16
 402              		.cfi_offset 9, -12
 403              		.cfi_offset 10, -8
 404              		.cfi_offset 14, -4
 405 0004 0446     		mov	r4, r0
 406 0006 8A46     		mov	r10, r1
 407 0008 9146     		mov	r9, r2
 408 000a 1E46     		mov	r6, r3
 409              		.loc 1 228 0
 410 000c C769     		ldr	r7, [r0, #28]
 411              	.LVL30:
 412              	.LBB22:
 413              		.loc 1 233 0
 414 000e 2023     		movs	r3, #32
 415              	.LVL31:
 416              	@ 233 "../../ChibiOS-RT/os/kernel/src/chqueues.c" 1
 417 0010 83F31188 		msr     BASEPRI, r3
 418              	@ 0 "" 2
 419              		.thumb
 420              	.LBE22:
 421 0014 FFF7FEFF 		bl	dbg_check_lock
 422              	.LVL32:
 423              		.loc 1 229 0
 424 0018 4FF00008 		mov	r8, #0
 425              	.LVL33:
 426              	.L37:
 427              		.loc 1 235 0
 428 001c 6FB1     		cbz	r7, .L32
 429              		.loc 1 236 0
 430 001e 2046     		mov	r0, r4
 431 0020 B847     		blx	r7
 432              	.LVL34:
 433 0022 0AE0     		b	.L32
 434              	.L34:
 435              		.loc 1 239 0
 436 0024 2046     		mov	r0, r4
 437 0026 3146     		mov	r1, r6
 438 0028 FFF7FEFF 		bl	qwait
 439              	.LVL35:
 440 002c 28B1     		cbz	r0, .L32
 441              		.loc 1 240 0
 442 002e FFF7FEFF 		bl	dbg_check_unlock
 443              	.LVL36:
 444              	.LBB23:
 445 0032 0023     		movs	r3, #0
 446              	@ 240 "../../ChibiOS-RT/os/kernel/src/chqueues.c" 1
 447 0034 83F31188 		msr     BASEPRI, r3
 448              	@ 0 "" 2
 449              		.thumb
 450              	.LBE23:
 451              		.loc 1 241 0
 452 0038 23E0     		b	.L33
 453              	.L32:
 454              		.loc 1 238 0
ARM GAS  /tmp/ccwSpLeL.s 			page 9


 455 003a A568     		ldr	r5, [r4, #8]
 456 003c 002D     		cmp	r5, #0
 457 003e F1D0     		beq	.L34
 458              		.loc 1 245 0
 459 0040 013D     		subs	r5, r5, #1
 460 0042 A560     		str	r5, [r4, #8]
 461              		.loc 1 246 0
 462 0044 0AF10105 		add	r5, r10, #1
 463              	.LVL37:
 464 0048 A369     		ldr	r3, [r4, #24]
 465 004a 5A1C     		adds	r2, r3, #1
 466 004c A261     		str	r2, [r4, #24]
 467 004e 1B78     		ldrb	r3, [r3]	@ zero_extendqisi2
 468 0050 8AF80030 		strb	r3, [r10]
 469              		.loc 1 247 0
 470 0054 A269     		ldr	r2, [r4, #24]
 471 0056 2369     		ldr	r3, [r4, #16]
 472 0058 9A42     		cmp	r2, r3
 473 005a 01D3     		bcc	.L35
 474              		.loc 1 248 0
 475 005c E368     		ldr	r3, [r4, #12]
 476 005e A361     		str	r3, [r4, #24]
 477              	.L35:
 478              		.loc 1 250 0
 479 0060 FFF7FEFF 		bl	dbg_check_unlock
 480              	.LVL38:
 481              	.LBB24:
 482 0064 0023     		movs	r3, #0
 483              	@ 250 "../../ChibiOS-RT/os/kernel/src/chqueues.c" 1
 484 0066 83F31188 		msr     BASEPRI, r3
 485              	@ 0 "" 2
 486              		.thumb
 487              	.LBE24:
 488              		.loc 1 251 0
 489 006a 08F10108 		add	r8, r8, #1
 490              	.LVL39:
 491              		.loc 1 252 0
 492 006e B9F10109 		subs	r9, r9, #1
 493              	.LVL40:
 494 0072 06D0     		beq	.L33
 495              	.LBB25:
 496              		.loc 1 255 0
 497 0074 2023     		movs	r3, #32
 498              	@ 255 "../../ChibiOS-RT/os/kernel/src/chqueues.c" 1
 499 0076 83F31188 		msr     BASEPRI, r3
 500              	@ 0 "" 2
 501              		.thumb
 502              	.LBE25:
 503 007a FFF7FEFF 		bl	dbg_check_lock
 504              	.LVL41:
 505              		.loc 1 246 0
 506 007e AA46     		mov	r10, r5
 507              		.loc 1 256 0
 508 0080 CCE7     		b	.L37
 509              	.LVL42:
 510              	.L33:
 511              		.loc 1 257 0
ARM GAS  /tmp/ccwSpLeL.s 			page 10


 512 0082 4046     		mov	r0, r8
 513 0084 BDE8F087 		pop	{r4, r5, r6, r7, r8, r9, r10, pc}
 514              		.cfi_endproc
 515              	.LFE12:
 516              		.size	chIQReadTimeout, .-chIQReadTimeout
 517              		.section	.text.chOQInit,"ax",%progbits
 518              		.align	2
 519              		.p2align 4,,15
 520              		.global	chOQInit
 521              		.thumb
 522              		.thumb_func
 523              		.type	chOQInit, %function
 524              	chOQInit:
 525              	.LFB13:
 526              		.loc 1 276 0
 527              		.cfi_startproc
 528              		@ args = 4, pretend = 0, frame = 0
 529              		@ frame_needed = 0, uses_anonymous_args = 0
 530              		@ link register save eliminated.
 531              	.LVL43:
 532              		.loc 1 278 0
 533 0000 4060     		str	r0, [r0, #4]
 534 0002 0060     		str	r0, [r0]
 535              		.loc 1 279 0
 536 0004 8260     		str	r2, [r0, #8]
 537              		.loc 1 280 0
 538 0006 4161     		str	r1, [r0, #20]
 539 0008 8161     		str	r1, [r0, #24]
 540 000a C160     		str	r1, [r0, #12]
 541              		.loc 1 281 0
 542 000c 0A44     		add	r2, r2, r1
 543              	.LVL44:
 544 000e 0261     		str	r2, [r0, #16]
 545              		.loc 1 282 0
 546 0010 C361     		str	r3, [r0, #28]
 547              		.loc 1 283 0
 548 0012 009B     		ldr	r3, [sp]
 549              	.LVL45:
 550 0014 0362     		str	r3, [r0, #32]
 551 0016 7047     		bx	lr
 552              		.cfi_endproc
 553              	.LFE13:
 554              		.size	chOQInit, .-chOQInit
 555 0018 AFF30080 		.section	.text.chOQResetI,"ax",%progbits
 555      AFF30080 
 556              		.align	2
 557              		.p2align 4,,15
 558              		.global	chOQResetI
 559              		.thumb
 560              		.thumb_func
 561              		.type	chOQResetI, %function
 562              	chOQResetI:
 563              	.LFB14:
 564              		.loc 1 297 0
 565              		.cfi_startproc
 566              		@ args = 0, pretend = 0, frame = 0
 567              		@ frame_needed = 0, uses_anonymous_args = 0
ARM GAS  /tmp/ccwSpLeL.s 			page 11


 568              	.LVL46:
 569 0000 10B5     		push	{r4, lr}
 570              		.cfi_def_cfa_offset 8
 571              		.cfi_offset 4, -8
 572              		.cfi_offset 14, -4
 573 0002 0446     		mov	r4, r0
 574              		.loc 1 299 0
 575 0004 FFF7FEFF 		bl	chDbgCheckClassI
 576              	.LVL47:
 577              		.loc 1 301 0
 578 0008 E268     		ldr	r2, [r4, #12]
 579 000a 6261     		str	r2, [r4, #20]
 580 000c A261     		str	r2, [r4, #24]
 581              		.loc 1 302 0
 582 000e 2369     		ldr	r3, [r4, #16]
 583 0010 9B1A     		subs	r3, r3, r2
 584 0012 A360     		str	r3, [r4, #8]
 585              		.loc 1 303 0
 586 0014 07E0     		b	.L41
 587              	.L42:
 588              	.LVL48:
 589              	.LBB26:
 590              	.LBB27:
 591              		.loc 2 62 0
 592 0016 0368     		ldr	r3, [r0]
 593 0018 2360     		str	r3, [r4]
 594 001a 5C60     		str	r4, [r3, #4]
 595              	.LBE27:
 596              	.LBE26:
 597              		.loc 1 304 0
 598 001c FFF7FEFF 		bl	chSchReadyI
 599              	.LVL49:
 600 0020 6FF00103 		mvn	r3, #1
 601 0024 8362     		str	r3, [r0, #40]
 602              	.LVL50:
 603              	.L41:
 604              		.loc 1 303 0
 605 0026 2068     		ldr	r0, [r4]
 606 0028 A042     		cmp	r0, r4
 607 002a F4D1     		bne	.L42
 608              		.loc 1 305 0
 609 002c 10BD     		pop	{r4, pc}
 610              		.cfi_endproc
 611              	.LFE14:
 612              		.size	chOQResetI, .-chOQResetI
 613 002e 00BF     		.section	.text.chOQPutTimeout,"ax",%progbits
 614              		.align	2
 615              		.p2align 4,,15
 616              		.global	chOQPutTimeout
 617              		.thumb
 618              		.thumb_func
 619              		.type	chOQPutTimeout, %function
 620              	chOQPutTimeout:
 621              	.LFB15:
 622              		.loc 1 329 0
 623              		.cfi_startproc
 624              		@ args = 0, pretend = 0, frame = 0
ARM GAS  /tmp/ccwSpLeL.s 			page 12


 625              		@ frame_needed = 0, uses_anonymous_args = 0
 626              	.LVL51:
 627 0000 F8B5     		push	{r3, r4, r5, r6, r7, lr}
 628              		.cfi_def_cfa_offset 24
 629              		.cfi_offset 3, -24
 630              		.cfi_offset 4, -20
 631              		.cfi_offset 5, -16
 632              		.cfi_offset 6, -12
 633              		.cfi_offset 7, -8
 634              		.cfi_offset 14, -4
 635 0002 0446     		mov	r4, r0
 636 0004 0F46     		mov	r7, r1
 637 0006 1646     		mov	r6, r2
 638              	.LBB28:
 639              		.loc 1 331 0
 640 0008 2023     		movs	r3, #32
 641              	@ 331 "../../ChibiOS-RT/os/kernel/src/chqueues.c" 1
 642 000a 83F31188 		msr     BASEPRI, r3
 643              	@ 0 "" 2
 644              		.thumb
 645              	.LBE28:
 646 000e FFF7FEFF 		bl	dbg_check_lock
 647              	.LVL52:
 648              		.loc 1 332 0
 649 0012 0CE0     		b	.L45
 650              	.L47:
 651              	.LBB29:
 652              		.loc 1 335 0
 653 0014 2046     		mov	r0, r4
 654 0016 3146     		mov	r1, r6
 655 0018 FFF7FEFF 		bl	qwait
 656              	.LVL53:
 657 001c 051E     		subs	r5, r0, #0
 658 001e 06DA     		bge	.L45
 659              		.loc 1 336 0
 660 0020 FFF7FEFF 		bl	dbg_check_unlock
 661              	.LVL54:
 662              	.LBB30:
 663 0024 0023     		movs	r3, #0
 664              	@ 336 "../../ChibiOS-RT/os/kernel/src/chqueues.c" 1
 665 0026 83F31188 		msr     BASEPRI, r3
 666              	@ 0 "" 2
 667              		.thumb
 668              	.LBE30:
 669              		.loc 1 337 0
 670 002a 2846     		mov	r0, r5
 671 002c F8BD     		pop	{r3, r4, r5, r6, r7, pc}
 672              	.LVL55:
 673              	.L45:
 674              	.LBE29:
 675              		.loc 1 332 0
 676 002e A368     		ldr	r3, [r4, #8]
 677 0030 002B     		cmp	r3, #0
 678 0032 EFD0     		beq	.L47
 679              		.loc 1 341 0
 680 0034 013B     		subs	r3, r3, #1
 681 0036 A360     		str	r3, [r4, #8]
ARM GAS  /tmp/ccwSpLeL.s 			page 13


 682              		.loc 1 342 0
 683 0038 6369     		ldr	r3, [r4, #20]
 684 003a 5A1C     		adds	r2, r3, #1
 685 003c 6261     		str	r2, [r4, #20]
 686 003e 1F70     		strb	r7, [r3]
 687              		.loc 1 343 0
 688 0040 6269     		ldr	r2, [r4, #20]
 689 0042 2369     		ldr	r3, [r4, #16]
 690 0044 9A42     		cmp	r2, r3
 691 0046 01D3     		bcc	.L48
 692              		.loc 1 344 0
 693 0048 E368     		ldr	r3, [r4, #12]
 694 004a 6361     		str	r3, [r4, #20]
 695              	.L48:
 696              		.loc 1 346 0
 697 004c E369     		ldr	r3, [r4, #28]
 698 004e 0BB1     		cbz	r3, .L49
 699              		.loc 1 347 0
 700 0050 2046     		mov	r0, r4
 701 0052 9847     		blx	r3
 702              	.LVL56:
 703              	.L49:
 704              		.loc 1 349 0
 705 0054 FFF7FEFF 		bl	dbg_check_unlock
 706              	.LVL57:
 707              	.LBB31:
 708 0058 0023     		movs	r3, #0
 709              	@ 349 "../../ChibiOS-RT/os/kernel/src/chqueues.c" 1
 710 005a 83F31188 		msr     BASEPRI, r3
 711              	@ 0 "" 2
 712              		.thumb
 713              	.LBE31:
 714              		.loc 1 350 0
 715 005e 1846     		mov	r0, r3
 716              		.loc 1 351 0
 717 0060 F8BD     		pop	{r3, r4, r5, r6, r7, pc}
 718              		.cfi_endproc
 719              	.LFE15:
 720              		.size	chOQPutTimeout, .-chOQPutTimeout
 721 0062 00BFAFF3 		.section	.text.chOQGetI,"ax",%progbits
 721      0080AFF3 
 721      0080AFF3 
 721      0080
 722              		.align	2
 723              		.p2align 4,,15
 724              		.global	chOQGetI
 725              		.thumb
 726              		.thumb_func
 727              		.type	chOQGetI, %function
 728              	chOQGetI:
 729              	.LFB16:
 730              		.loc 1 363 0
 731              		.cfi_startproc
 732              		@ args = 0, pretend = 0, frame = 0
 733              		@ frame_needed = 0, uses_anonymous_args = 0
 734              	.LVL58:
 735 0000 38B5     		push	{r3, r4, r5, lr}
ARM GAS  /tmp/ccwSpLeL.s 			page 14


 736              		.cfi_def_cfa_offset 16
 737              		.cfi_offset 3, -16
 738              		.cfi_offset 4, -12
 739              		.cfi_offset 5, -8
 740              		.cfi_offset 14, -4
 741 0002 0446     		mov	r4, r0
 742              		.loc 1 366 0
 743 0004 FFF7FEFF 		bl	chDbgCheckClassI
 744              	.LVL59:
 745              		.loc 1 368 0
 746 0008 6269     		ldr	r2, [r4, #20]
 747 000a A369     		ldr	r3, [r4, #24]
 748 000c 9A42     		cmp	r2, r3
 749 000e 02D1     		bne	.L56
 750              		.loc 1 368 0 is_stmt 0 discriminator 1
 751 0010 A268     		ldr	r2, [r4, #8]
 752 0012 12B9     		cbnz	r2, .L57
 753 0014 02E0     		b	.L52
 754              	.L56:
 755              		.loc 1 368 0
 756 0016 0022     		movs	r2, #0
 757 0018 00E0     		b	.L52
 758              	.L57:
 759 001a 0122     		movs	r2, #1
 760              	.L52:
 761              		.loc 1 368 0 discriminator 6
 762 001c B2B9     		cbnz	r2, .L58
 763              		.loc 1 371 0 is_stmt 1
 764 001e A268     		ldr	r2, [r4, #8]
 765 0020 0132     		adds	r2, r2, #1
 766 0022 A260     		str	r2, [r4, #8]
 767              		.loc 1 372 0
 768 0024 5A1C     		adds	r2, r3, #1
 769 0026 A261     		str	r2, [r4, #24]
 770 0028 1D78     		ldrb	r5, [r3]	@ zero_extendqisi2
 771              	.LVL60:
 772              		.loc 1 373 0
 773 002a 2369     		ldr	r3, [r4, #16]
 774 002c 9A42     		cmp	r2, r3
 775 002e 01D3     		bcc	.L54
 776              		.loc 1 374 0
 777 0030 E368     		ldr	r3, [r4, #12]
 778 0032 A361     		str	r3, [r4, #24]
 779              	.L54:
 780              		.loc 1 376 0
 781 0034 2068     		ldr	r0, [r4]
 782 0036 A042     		cmp	r0, r4
 783 0038 06D0     		beq	.L55
 784              	.LVL61:
 785              	.LBB32:
 786              	.LBB33:
 787              		.loc 2 62 0
 788 003a 0368     		ldr	r3, [r0]
 789 003c 2360     		str	r3, [r4]
 790 003e 5C60     		str	r4, [r3, #4]
 791              	.LBE33:
 792              	.LBE32:
ARM GAS  /tmp/ccwSpLeL.s 			page 15


 793              		.loc 1 377 0
 794 0040 FFF7FEFF 		bl	chSchReadyI
 795              	.LVL62:
 796 0044 0023     		movs	r3, #0
 797 0046 8362     		str	r3, [r0, #40]
 798              	.LVL63:
 799              	.L55:
 800              		.loc 1 379 0
 801 0048 2846     		mov	r0, r5
 802 004a 38BD     		pop	{r3, r4, r5, pc}
 803              	.LVL64:
 804              	.L58:
 805              		.loc 1 369 0
 806 004c 6FF00200 		mvn	r0, #2
 807              		.loc 1 380 0
 808 0050 38BD     		pop	{r3, r4, r5, pc}
 809              		.cfi_endproc
 810              	.LFE16:
 811              		.size	chOQGetI, .-chOQGetI
 812 0052 00BFAFF3 		.section	.text.chOQWriteTimeout,"ax",%progbits
 812      0080AFF3 
 812      0080AFF3 
 812      0080
 813              		.align	2
 814              		.p2align 4,,15
 815              		.global	chOQWriteTimeout
 816              		.thumb
 817              		.thumb_func
 818              		.type	chOQWriteTimeout, %function
 819              	chOQWriteTimeout:
 820              	.LFB17:
 821              		.loc 1 407 0
 822              		.cfi_startproc
 823              		@ args = 0, pretend = 0, frame = 0
 824              		@ frame_needed = 0, uses_anonymous_args = 0
 825              	.LVL65:
 826 0000 2DE9F047 		push	{r4, r5, r6, r7, r8, r9, r10, lr}
 827              		.cfi_def_cfa_offset 32
 828              		.cfi_offset 4, -32
 829              		.cfi_offset 5, -28
 830              		.cfi_offset 6, -24
 831              		.cfi_offset 7, -20
 832              		.cfi_offset 8, -16
 833              		.cfi_offset 9, -12
 834              		.cfi_offset 10, -8
 835              		.cfi_offset 14, -4
 836 0004 0446     		mov	r4, r0
 837 0006 0F46     		mov	r7, r1
 838 0008 1646     		mov	r6, r2
 839 000a 9A46     		mov	r10, r3
 840              		.loc 1 408 0
 841 000c D0F81C90 		ldr	r9, [r0, #28]
 842              	.LVL66:
 843              	.LBB34:
 844              		.loc 1 413 0
 845 0010 2023     		movs	r3, #32
 846              	.LVL67:
ARM GAS  /tmp/ccwSpLeL.s 			page 16


 847              	@ 413 "../../ChibiOS-RT/os/kernel/src/chqueues.c" 1
 848 0012 83F31188 		msr     BASEPRI, r3
 849              	@ 0 "" 2
 850              		.thumb
 851              	.LBE34:
 852 0016 FFF7FEFF 		bl	dbg_check_lock
 853              	.LVL68:
 854              		.loc 1 409 0
 855 001a 4FF00008 		mov	r8, #0
 856 001e 0AE0     		b	.L61
 857              	.LVL69:
 858              	.L64:
 859              		.loc 1 416 0
 860 0020 2046     		mov	r0, r4
 861 0022 5146     		mov	r1, r10
 862 0024 FFF7FEFF 		bl	qwait
 863              	.LVL70:
 864 0028 28B1     		cbz	r0, .L61
 865              		.loc 1 417 0
 866 002a FFF7FEFF 		bl	dbg_check_unlock
 867              	.LVL71:
 868              	.LBB35:
 869 002e 0023     		movs	r3, #0
 870              	@ 417 "../../ChibiOS-RT/os/kernel/src/chqueues.c" 1
 871 0030 83F31188 		msr     BASEPRI, r3
 872              	@ 0 "" 2
 873              		.thumb
 874              	.LBE35:
 875              		.loc 1 418 0
 876 0034 25E0     		b	.L63
 877              	.LVL72:
 878              	.L61:
 879              		.loc 1 415 0
 880 0036 A568     		ldr	r5, [r4, #8]
 881 0038 002D     		cmp	r5, #0
 882 003a F1D0     		beq	.L64
 883              		.loc 1 421 0
 884 003c 013D     		subs	r5, r5, #1
 885 003e A560     		str	r5, [r4, #8]
 886              		.loc 1 422 0
 887 0040 6369     		ldr	r3, [r4, #20]
 888 0042 5A1C     		adds	r2, r3, #1
 889 0044 6261     		str	r2, [r4, #20]
 890 0046 7D1C     		adds	r5, r7, #1
 891              	.LVL73:
 892 0048 3A78     		ldrb	r2, [r7]	@ zero_extendqisi2
 893 004a 1A70     		strb	r2, [r3]
 894              		.loc 1 423 0
 895 004c 6269     		ldr	r2, [r4, #20]
 896 004e 2369     		ldr	r3, [r4, #16]
 897 0050 9A42     		cmp	r2, r3
 898 0052 01D3     		bcc	.L65
 899              		.loc 1 424 0
 900 0054 E368     		ldr	r3, [r4, #12]
 901 0056 6361     		str	r3, [r4, #20]
 902              	.L65:
 903              		.loc 1 426 0
ARM GAS  /tmp/ccwSpLeL.s 			page 17


 904 0058 B9F1000F 		cmp	r9, #0
 905 005c 01D0     		beq	.L66
 906              		.loc 1 427 0
 907 005e 2046     		mov	r0, r4
 908 0060 C847     		blx	r9
 909              	.LVL74:
 910              	.L66:
 911              		.loc 1 429 0
 912 0062 FFF7FEFF 		bl	dbg_check_unlock
 913              	.LVL75:
 914              	.LBB36:
 915 0066 0023     		movs	r3, #0
 916              	@ 429 "../../ChibiOS-RT/os/kernel/src/chqueues.c" 1
 917 0068 83F31188 		msr     BASEPRI, r3
 918              	@ 0 "" 2
 919              		.thumb
 920              	.LBE36:
 921              		.loc 1 430 0
 922 006c 08F10108 		add	r8, r8, #1
 923              	.LVL76:
 924              		.loc 1 431 0
 925 0070 013E     		subs	r6, r6, #1
 926              	.LVL77:
 927 0072 06D0     		beq	.L63
 928              	.LBB37:
 929              		.loc 1 433 0
 930 0074 2023     		movs	r3, #32
 931              	@ 433 "../../ChibiOS-RT/os/kernel/src/chqueues.c" 1
 932 0076 83F31188 		msr     BASEPRI, r3
 933              	@ 0 "" 2
 934              		.thumb
 935              	.LBE37:
 936 007a FFF7FEFF 		bl	dbg_check_lock
 937              	.LVL78:
 938              		.loc 1 422 0
 939 007e 2F46     		mov	r7, r5
 940              		.loc 1 434 0
 941 0080 D9E7     		b	.L61
 942              	.LVL79:
 943              	.L63:
 944              		.loc 1 435 0
 945 0082 4046     		mov	r0, r8
 946 0084 BDE8F087 		pop	{r4, r5, r6, r7, r8, r9, r10, pc}
 947              		.cfi_endproc
 948              	.LFE17:
 949              		.size	chOQWriteTimeout, .-chOQWriteTimeout
 950 0088 AFF30080 		.text
 950      AFF30080 
 951              	.Letext0:
 952              		.file 3 "/usr/lib/gcc/arm-none-eabi/4.9.2/include/stddef.h"
 953              		.file 4 "/usr/arm-none-eabi/include/machine/_default_types.h"
 954              		.file 5 "/usr/arm-none-eabi/include/stdint.h"
 955              		.file 6 "../../ChibiOS-RT/os/ports/GCC/ARMCMx/chtypes.h"
 956              		.file 7 "../../ChibiOS-RT/os/kernel/include/chlists.h"
 957              		.file 8 "../../ChibiOS-RT/os/kernel/include/chthreads.h"
 958              		.file 9 "../../ChibiOS-RT/os/ports/GCC/ARMCMx/chcore_v7m.h"
 959              		.file 10 "../../ChibiOS-RT/os/kernel/include/chschd.h"
ARM GAS  /tmp/ccwSpLeL.s 			page 18


 960              		.file 11 "../../ChibiOS-RT/os/kernel/include/chmtx.h"
 961              		.file 12 "../../ChibiOS-RT/os/kernel/include/chqueues.h"
 962              		.file 13 "../../ChibiOS-RT/os/kernel/include/chdebug.h"