ARM GAS  /tmp/ccwSpLeL.s 			page 1


   1              		.syntax unified
   2              		.cpu cortex-m4
   3              		.fpu softvfp
   4              		.eabi_attribute 20, 1
   5              		.eabi_attribute 21, 1
   6              		.eabi_attribute 23, 3
   7              		.eabi_attribute 24, 1
   8              		.eabi_attribute 25, 1
   9              		.eabi_attribute 26, 1
  10              		.eabi_attribute 30, 1
  11              		.eabi_attribute 34, 1
  12              		.eabi_attribute 18, 4
  13              		.thumb
  14              		.file	"chqueues.c"
  15              		.text
  16              	.Ltext0:
  17              		.cfi_sections	.debug_frame
  18              		.section	.text.qwait,"ax",%progbits
  19              		.align	2
  20              		.p2align 4,,15
  21              		.thumb
  22              		.thumb_func
  23              		.type	qwait, %function
  24              	qwait:
  25              	.LFB7:
  26              		.file 1 "../../ChibiOS-RT/os/kernel/src/chqueues.c"
  27              		.loc 1 70 0
  28              		.cfi_startproc
  29              		@ args = 0, pretend = 0, frame = 0
  30              		@ frame_needed = 0, uses_anonymous_args = 0
  31              	.LVL0:
  32              		.loc 1 72 0
  33 0000 61B1     		cbz	r1, .L3
  34              		.loc 1 70 0
  35 0002 08B5     		push	{r3, lr}
  36              		.cfi_def_cfa_offset 8
  37              		.cfi_offset 3, -8
  38              		.cfi_offset 14, -4
  39              		.loc 1 74 0
  40 0004 074B     		ldr	r3, .L6
  41 0006 9B69     		ldr	r3, [r3, #24]
  42 0008 9862     		str	r0, [r3, #40]
  43              	.LVL1:
  44              	.LBB12:
  45              	.LBB13:
  46              		.file 2 "../../ChibiOS-RT/os/kernel/include/chinline.h"
  47              		.loc 2 54 0
  48 000a 1860     		str	r0, [r3]
  49              		.loc 2 55 0
  50 000c 4268     		ldr	r2, [r0, #4]
  51 000e 5A60     		str	r2, [r3, #4]
  52              		.loc 2 56 0
  53 0010 4360     		str	r3, [r0, #4]
  54 0012 1360     		str	r3, [r2]
  55              	.LBE13:
  56              	.LBE12:
  57              		.loc 1 76 0
ARM GAS  /tmp/ccwSpLeL.s 			page 2


  58 0014 0D20     		movs	r0, #13
  59              	.LVL2:
  60 0016 FFF7FEFF 		bl	chSchGoSleepTimeoutS
  61              	.LVL3:
  62 001a 08BD     		pop	{r3, pc}
  63              	.LVL4:
  64              	.L3:
  65              		.cfi_def_cfa_offset 0
  66              		.cfi_restore 3
  67              		.cfi_restore 14
  68              		.loc 1 73 0
  69 001c 4FF0FF30 		mov	r0, #-1
  70              	.LVL5:
  71 0020 7047     		bx	lr
  72              	.L7:
  73 0022 00BF     		.align	2
  74              	.L6:
  75 0024 00000000 		.word	rlist
  76              		.cfi_endproc
  77              	.LFE7:
  78              		.size	qwait, .-qwait
  79 0028 AFF30080 		.section	.text.chIQInit,"ax",%progbits
  79      AFF30080 
  80              		.align	2
  81              		.p2align 4,,15
  82              		.global	chIQInit
  83              		.thumb
  84              		.thumb_func
  85              		.type	chIQInit, %function
  86              	chIQInit:
  87              	.LFB8:
  88              		.loc 1 96 0
  89              		.cfi_startproc
  90              		@ args = 4, pretend = 0, frame = 0
  91              		@ frame_needed = 0, uses_anonymous_args = 0
  92              		@ link register save eliminated.
  93              	.LVL6:
  94 0000 10B4     		push	{r4}
  95              		.cfi_def_cfa_offset 4
  96              		.cfi_offset 4, -4
  97              		.loc 1 98 0
  98 0002 4060     		str	r0, [r0, #4]
  99 0004 0060     		str	r0, [r0]
 100              		.loc 1 99 0
 101 0006 0024     		movs	r4, #0
 102 0008 8460     		str	r4, [r0, #8]
 103              		.loc 1 100 0
 104 000a 4161     		str	r1, [r0, #20]
 105 000c 8161     		str	r1, [r0, #24]
 106 000e C160     		str	r1, [r0, #12]
 107              		.loc 1 101 0
 108 0010 0A44     		add	r2, r2, r1
 109              	.LVL7:
 110 0012 0261     		str	r2, [r0, #16]
 111              		.loc 1 102 0
 112 0014 C361     		str	r3, [r0, #28]
 113              		.loc 1 103 0
ARM GAS  /tmp/ccwSpLeL.s 			page 3


 114 0016 019B     		ldr	r3, [sp, #4]
 115              	.LVL8:
 116 0018 0362     		str	r3, [r0, #32]
 117              		.loc 1 104 0
 118 001a 5DF8044B 		ldr	r4, [sp], #4
 119              		.cfi_restore 4
 120              		.cfi_def_cfa_offset 0
 121              	.LVL9:
 122 001e 7047     		bx	lr
 123              		.cfi_endproc
 124              	.LFE8:
 125              		.size	chIQInit, .-chIQInit
 126              		.section	.text.chIQResetI,"ax",%progbits
 127              		.align	2
 128              		.p2align 4,,15
 129              		.global	chIQResetI
 130              		.thumb
 131              		.thumb_func
 132              		.type	chIQResetI, %function
 133              	chIQResetI:
 134              	.LFB9:
 135              		.loc 1 117 0
 136              		.cfi_startproc
 137              		@ args = 0, pretend = 0, frame = 0
 138              		@ frame_needed = 0, uses_anonymous_args = 0
 139              	.LVL10:
 140 0000 10B5     		push	{r4, lr}
 141              		.cfi_def_cfa_offset 8
 142              		.cfi_offset 4, -8
 143              		.cfi_offset 14, -4
 144 0002 0446     		mov	r4, r0
 145              		.loc 1 119 0
 146 0004 FFF7FEFF 		bl	chDbgCheckClassI
 147              	.LVL11:
 148              		.loc 1 121 0
 149 0008 E368     		ldr	r3, [r4, #12]
 150 000a 6361     		str	r3, [r4, #20]
 151 000c A361     		str	r3, [r4, #24]
 152              		.loc 1 122 0
 153 000e 0023     		movs	r3, #0
 154 0010 A360     		str	r3, [r4, #8]
 155              		.loc 1 123 0
 156 0012 07E0     		b	.L11
 157              	.L12:
 158              	.LVL12:
 159              	.LBB14:
 160              	.LBB15:
 161              		.loc 2 62 0
 162 0014 0368     		ldr	r3, [r0]
 163 0016 2360     		str	r3, [r4]
 164 0018 5C60     		str	r4, [r3, #4]
 165              	.LBE15:
 166              	.LBE14:
 167              		.loc 1 124 0
 168 001a FFF7FEFF 		bl	chSchReadyI
 169              	.LVL13:
 170 001e 6FF00103 		mvn	r3, #1
ARM GAS  /tmp/ccwSpLeL.s 			page 4


 171 0022 8362     		str	r3, [r0, #40]
 172              	.LVL14:
 173              	.L11:
 174              		.loc 1 123 0
 175 0024 2068     		ldr	r0, [r4]
 176 0026 A042     		cmp	r0, r4
 177 0028 F4D1     		bne	.L12
 178              		.loc 1 125 0
 179 002a 10BD     		pop	{r4, pc}
 180              		.cfi_endproc
 181              	.LFE9:
 182              		.size	chIQResetI, .-chIQResetI
 183 002c AFF30080 		.section	.text.chIQPutI,"ax",%progbits
 184              		.align	2
 185              		.p2align 4,,15
 186              		.global	chIQPutI
 187              		.thumb
 188              		.thumb_func
 189              		.type	chIQPutI, %function
 190              	chIQPutI:
 191              	.LFB10:
 192              		.loc 1 140 0
 193              		.cfi_startproc
 194              		@ args = 0, pretend = 0, frame = 0
 195              		@ frame_needed = 0, uses_anonymous_args = 0
 196              	.LVL15:
 197 0000 38B5     		push	{r3, r4, r5, lr}
 198              		.cfi_def_cfa_offset 16
 199              		.cfi_offset 3, -16
 200              		.cfi_offset 4, -12
 201              		.cfi_offset 5, -8
 202              		.cfi_offset 14, -4
 203 0002 0446     		mov	r4, r0
 204 0004 0D46     		mov	r5, r1
 205              		.loc 1 142 0
 206 0006 FFF7FEFF 		bl	chDbgCheckClassI
 207              	.LVL16:
 208              		.loc 1 144 0
 209 000a 6369     		ldr	r3, [r4, #20]
 210 000c A269     		ldr	r2, [r4, #24]
 211 000e 9342     		cmp	r3, r2
 212 0010 02D1     		bne	.L18
 213              		.loc 1 144 0 is_stmt 0 discriminator 1
 214 0012 A268     		ldr	r2, [r4, #8]
 215 0014 12B9     		cbnz	r2, .L19
 216 0016 02E0     		b	.L15
 217              	.L18:
 218              		.loc 1 144 0
 219 0018 0022     		movs	r2, #0
 220 001a 00E0     		b	.L15
 221              	.L19:
 222 001c 0122     		movs	r2, #1
 223              	.L15:
 224              		.loc 1 144 0 discriminator 6
 225 001e BAB9     		cbnz	r2, .L20
 226              		.loc 1 147 0 is_stmt 1
 227 0020 A268     		ldr	r2, [r4, #8]
ARM GAS  /tmp/ccwSpLeL.s 			page 5


 228 0022 0132     		adds	r2, r2, #1
 229 0024 A260     		str	r2, [r4, #8]
 230              		.loc 1 148 0
 231 0026 5A1C     		adds	r2, r3, #1
 232 0028 6261     		str	r2, [r4, #20]
 233 002a 1D70     		strb	r5, [r3]
 234              		.loc 1 149 0
 235 002c 6269     		ldr	r2, [r4, #20]
 236 002e 2369     		ldr	r3, [r4, #16]
 237 0030 9A42     		cmp	r2, r3
 238 0032 01D3     		bcc	.L17
 239              		.loc 1 150 0
 240 0034 E368     		ldr	r3, [r4, #12]
 241 0036 6361     		str	r3, [r4, #20]
 242              	.L17:
 243              		.loc 1 152 0
 244 0038 2068     		ldr	r0, [r4]
 245 003a A042     		cmp	r0, r4
 246 003c 0BD0     		beq	.L21
 247              	.LVL17:
 248              	.LBB16:
 249              	.LBB17:
 250              		.loc 2 62 0
 251 003e 0368     		ldr	r3, [r0]
 252 0040 2360     		str	r3, [r4]
 253 0042 5C60     		str	r4, [r3, #4]
 254              	.LBE17:
 255              	.LBE16:
 256              		.loc 1 153 0
 257 0044 FFF7FEFF 		bl	chSchReadyI
 258              	.LVL18:
 259 0048 0023     		movs	r3, #0
 260 004a 8362     		str	r3, [r0, #40]
 261              		.loc 1 155 0
 262 004c 1846     		mov	r0, r3
 263 004e 38BD     		pop	{r3, r4, r5, pc}
 264              	.LVL19:
 265              	.L20:
 266              		.loc 1 145 0
 267 0050 6FF00300 		mvn	r0, #3
 268 0054 38BD     		pop	{r3, r4, r5, pc}
 269              	.LVL20:
 270              	.L21:
 271              		.loc 1 155 0
 272 0056 0020     		movs	r0, #0
 273              		.loc 1 156 0
 274 0058 38BD     		pop	{r3, r4, r5, pc}
 275              		.cfi_endproc
 276              	.LFE10:
 277              		.size	chIQPutI, .-chIQPutI
 278 005a 00BFAFF3 		.section	.text.chIQGetTimeout,"ax",%progbits
 278      0080
 279              		.align	2
 280              		.p2align 4,,15
 281              		.global	chIQGetTimeout
 282              		.thumb
 283              		.thumb_func
ARM GAS  /tmp/ccwSpLeL.s 			page 6


 284              		.type	chIQGetTimeout, %function
 285              	chIQGetTimeout:
 286              	.LFB11:
 287              		.loc 1 178 0
 288              		.cfi_startproc
 289              		@ args = 0, pretend = 0, frame = 0
 290              		@ frame_needed = 0, uses_anonymous_args = 0
 291              	.LVL21:
 292 0000 70B5     		push	{r4, r5, r6, lr}
 293              		.cfi_def_cfa_offset 16
 294              		.cfi_offset 4, -16
 295              		.cfi_offset 5, -12
 296              		.cfi_offset 6, -8
 297              		.cfi_offset 14, -4
 298 0002 0446     		mov	r4, r0
 299 0004 0E46     		mov	r6, r1
 300              	.LBB18:
 301              		.loc 1 181 0
 302 0006 2023     		movs	r3, #32
 303              	@ 181 "../../ChibiOS-RT/os/kernel/src/chqueues.c" 1
 304 0008 83F31188 		msr     BASEPRI, r3
 305              	@ 0 "" 2
 306              		.thumb
 307              	.LBE18:
 308 000c FFF7FEFF 		bl	dbg_check_lock
 309              	.LVL22:
 310              		.loc 1 182 0
 311 0010 E369     		ldr	r3, [r4, #28]
 312 0012 7BB1     		cbz	r3, .L25
 313              		.loc 1 183 0
 314 0014 2046     		mov	r0, r4
 315 0016 9847     		blx	r3
 316              	.LVL23:
 317 0018 0CE0     		b	.L25
 318              	.L27:
 319              	.LBB19:
 320              		.loc 1 187 0
 321 001a 2046     		mov	r0, r4
 322 001c 3146     		mov	r1, r6
 323 001e FFF7FEFF 		bl	qwait
 324              	.LVL24:
 325 0022 051E     		subs	r5, r0, #0
 326 0024 06DA     		bge	.L25
 327              		.loc 1 188 0
 328 0026 FFF7FEFF 		bl	dbg_check_unlock
 329              	.LVL25:
 330              	.LBB20:
 331 002a 0023     		movs	r3, #0
 332              	@ 188 "../../ChibiOS-RT/os/kernel/src/chqueues.c" 1
 333 002c 83F31188 		msr     BASEPRI, r3
 334              	@ 0 "" 2
 335              		.thumb
 336              	.LBE20:
 337              		.loc 1 189 0
 338 0030 2846     		mov	r0, r5
 339 0032 70BD     		pop	{r4, r5, r6, pc}
 340              	.LVL26:
ARM GAS  /tmp/ccwSpLeL.s 			page 7


 341              	.L25:
 342              	.LBE19:
 343              		.loc 1 185 0
 344 0034 A368     		ldr	r3, [r4, #8]
 345 0036 002B     		cmp	r3, #0
 346 0038 EFD0     		beq	.L27
 347              		.loc 1 193 0
 348 003a 013B     		subs	r3, r3, #1
 349 003c A360     		str	r3, [r4, #8]
 350              		.loc 1 194 0
 351 003e A269     		ldr	r2, [r4, #24]
 352 0040 531C     		adds	r3, r2, #1
 353 0042 A361     		str	r3, [r4, #24]
 354 0044 1578     		ldrb	r5, [r2]	@ zero_extendqisi2
 355              	.LVL27:
 356              		.loc 1 195 0
 357 0046 2269     		ldr	r2, [r4, #16]
 358 0048 9342     		cmp	r3, r2
 359 004a 01D3     		bcc	.L28
 360              		.loc 1 196 0
 361 004c E368     		ldr	r3, [r4, #12]
 362 004e A361     		str	r3, [r4, #24]
 363              	.L28:
 364              		.loc 1 198 0
 365 0050 FFF7FEFF 		bl	dbg_check_unlock
 366              	.LVL28:
 367              	.LBB21:
 368 0054 0023     		movs	r3, #0
 369              	@ 198 "../../ChibiOS-RT/os/kernel/src/chqueues.c" 1
 370 0056 83F31188 		msr     BASEPRI, r3
 371              	@ 0 "" 2
 372              		.thumb
 373              	.LBE21:
 374              		.loc 1 199 0
 375 005a 2846     		mov	r0, r5
 376              		.loc 1 200 0
 377 005c 70BD     		pop	{r4, r5, r6, pc}
 378              		.cfi_endproc
 379              	.LFE11:
 380              		.size	chIQGetTimeout, .-chIQGetTimeout
 381 005e 00BF     		.section	.text.chIQReadTimeout,"ax",%progbits
 382              		.align	2
 383              		.p2align 4,,15
 384              		.global	chIQReadTimeout
 385              		.thumb
 386              		.thumb_func
 387              		.type	chIQReadTimeout, %function
 388              	chIQReadTimeout:
 389              	.LFB12:
 390              		.loc 1 227 0
 391              		.cfi_startproc
 392              		@ args = 0, pretend = 0, frame = 0
 393              		@ frame_needed = 0, uses_anonymous_args = 0
 394              	.LVL29:
 395 0000 2DE9F047 		push	{r4, r5, r6, r7, r8, r9, r10, lr}
 396              		.cfi_def_cfa_offset 32
 397              		.cfi_offset 4, -32
ARM GAS  /tmp/ccwSpLeL.s 			page 8


 398              		.cfi_offset 5, -28
 399              		.cfi_offset 6, -24
 400              		.cfi_offset 7, -20
 401              		.cfi_offset 8, -16
 402              		.cfi_offset 9, -12
 403              		.cfi_offset 10, -8
 404              		.cfi_offset 14, -4
 405 0004 0446     		mov	r4, r0
 406 0006 8A46     		mov	r10, r1
 407 0008 9146     		mov	r9, r2
 408 000a 1E46     		mov	r6, r3
 409              		.loc 1 228 0
 410 000c C769     		ldr	r7, [r0, #28]
 411              	.LVL30:
 412              	.LBB22:
 413              		.loc 1 233 0
 414 000e 2023     		movs	r3, #32
 415              	.LVL31:
 416              	@ 233 "../../ChibiOS-RT/os/kernel/src/chqueues.c" 1
 417 0010 83F31188 		msr     BASEPRI, r3
 418              	@ 0 "" 2
 419              		.thumb
 420              	.LBE22:
 421 0014 FFF7FEFF 		bl	dbg_check_lock
 422              	.LVL32:
 423              		.loc 1 229 0
 424 0018 4FF00008 		mov	r8, #0
 425              	.LVL33:
 426              	.L37:
 427              		.loc 1 235 0
 428 001c 6FB1     		cbz	r7, .L32
 429              		.loc 1 236 0
 430 001e 2046     		mov	r0, r4
 431 0020 B847     		blx	r7
 432              	.LVL34:
 433 0022 0AE0     		b	.L32
 434              	.L34:
 435              		.loc 1 239 0
 436 0024 2046     		mov	r0, r4
 437 0026 3146     		mov	r1, r6
 438 0028 FFF7FEFF 		bl	qwait
 439              	.LVL35:
 440 002c 28B1     		cbz	r0, .L32
 441              		.loc 1 240 0
 442 002e FFF7FEFF 		bl	dbg_check_unlock
 443              	.LVL36:
 444              	.LBB23:
 445 0032 0023     		movs	r3, #0
 446              	@ 240 "../../ChibiOS-RT/os/kernel/src/chqueues.c" 1
 447 0034 83F31188 		msr     BASEPRI, r3
 448              	@ 0 "" 2
 449              		.thumb
 450              	.LBE23:
 451              		.loc 1 241 0
 452 0038 23E0     		b	.L33
 453              	.L32:
 454              		.loc 1 238 0
ARM GAS  /tmp/ccwSpLeL.s 			page 9


 455 003a A568     		ldr	r5, [r4, #8]
 456 003c 002D     		cmp	r5, #0
 457 003e F1D0     		beq	.L34
 458              		.loc 1 245 0
 459 0040 013D     		subs	r5, r5, #1
 460 0042 A560     		str	r5, [r4, #8]
 461              		.loc 1 246 0
 462 0044 0AF10105 		add	r5, r10, #1
 463              	.LVL37:
 464 0048 A369     		ldr	r3, [r4, #24]
 465 004a 5A1C     		adds	r2, r3, #1
 466 004c A261     		str	r2, [r4, #24]
 467 004e 1B78     		ldrb	r3, [r3]	@ zero_extendqisi2
 468 0050 8AF80030 		strb	r3, [r10]
 469              		.loc 1 247 0
 470 0054 A269     		ldr	r2, [r4, #24]
 471 0056 2369     		ldr	r3, [r4, #16]
 472 0058 9A42     		cmp	r2, r3
 473 005a 01D3     		bcc	.L35
 474              		.loc 1 248 0
 475 005c E368     		ldr	r3, [r4, #12]
 476 005e A361     		str	r3, [r4, #24]
 477              	.L35:
 478              		.loc 1 250 0
 479 0060 FFF7FEFF 		bl	dbg_check_unlock
 480              	.LVL38:
 481              	.LBB24:
 482 0064 0023     		movs	r3, #0
 483              	@ 250 "../../ChibiOS-RT/os/kernel/src/chqueues.c" 1
 484 0066 83F31188 		msr     BASEPRI, r3
 485              	@ 0 "" 2
 486              		.thumb
 487              	.LBE24:
 488              		.loc 1 251 0
 489 006a 08F10108 		add	r8, r8, #1
 490              	.LVL39:
 491              		.loc 1 252 0
 492 006e B9F10109 		subs	r9, r9, #1
 493              	.LVL40:
 494 0072 06D0     		beq	.L33
 495              	.LBB25:
 496              		.loc 1 255 0
 497 0074 2023     		movs	r3, #32
 498              	@ 255 "../../ChibiOS-RT/os/kernel/src/chqueues.c" 1
 499 0076 83F31188 		msr     BASEPRI, r3
 500              	@ 0 "" 2
 501              		.thumb
 502              	.LBE25:
 503 007a FFF7FEFF 		bl	dbg_check_lock
 504              	.LVL41:
 505              		.loc 1 246 0
 506 007e AA46     		mov	r10, r5
 507              		.loc 1 256 0
 508 0080 CCE7     		b	.L37
 509              	.LVL42:
 510              	.L33:
 511              		.loc 1 257 0
ARM GAS  /tmp/ccwSpLeL.s 			page 10


 512 0082 4046     		mov	r0, r8
 513 0084 BDE8F087 		pop	{r4, r5, r6, r7, r8, r9, r10, pc}
 514              		.cfi_endproc
 515              	.LFE12:
 516              		.size	chIQReadTimeout, .-chIQReadTimeout
 517              		.section	.text.chOQInit,"ax",%progbits
 518              		.align	2
 519              		.p2align 4,,15
 520              		.global	chOQInit
 521              		.thumb
 522              		.thumb_func
 523              		.type	chOQInit, %function
 524              	chOQInit:
 525              	.LFB13:
 526              		.loc 1 276 0
 527              		.cfi_startproc
 528              		@ args = 4, pretend = 0, frame = 0
 529              		@ frame_needed = 0, uses_anonymous_args = 0
 530              		@ link register save eliminated.
 531              	.LVL43:
 532              		.loc 1 278 0
 533 0000 4060     		str	r0, [r0, #4]
 534 0002 0060     		str	r0, [r0]
 535              		.loc 1 279 0
 536 0004 8260     		str	r2, [r0, #8]
 537              		.loc 1 280 0
 538 0006 4161     		str	r1, [r0, #20]
 539 0008 8161     		str	r1, [r0, #24]
 540 000a C160     		str	r1, [r0, #12]
 541              		.loc 1 281 0
 542 000c 0A44     		add	r2, r2, r1
 543              	.LVL44:
 544 000e 0261     		str	r2, [r0, #16]
 545              		.loc 1 282 0
 546 0010 C361     		str	r3, [r0, #28]
 547              		.loc 1 283 0
 548 0012 009B     		ldr	r3, [sp]
 549              	.LVL45:
 550 0014 0362     		str	r3, [r0, #32]
 551 0016 7047     		bx	lr
 552              		.cfi_endproc
 553              	.LFE13:
 554              		.size	chOQInit, .-chOQInit
 555 0018 AFF30080 		.section	.text.chOQResetI,"ax",%progbits
 555      AFF30080 
 556              		.align	2
 557              		.p2align 4,,15
 558              		.global	chOQResetI
 559              		.thumb
 560              		.thumb_func
 561              		.type	chOQResetI, %function
 562              	chOQResetI:
 563              	.LFB14:
 564              		.loc 1 297 0
 565              		.cfi_startproc
 566              		@ args = 0, pretend = 0, frame = 0
 567              		@ frame_needed = 0, uses_anonymous_args = 0
ARM GAS  /tmp/ccwSpLeL.s 			page 11


 568              	.LVL46:
 569 0000 10B5     		push	{r4, lr}
 570              		.cfi_def_cfa_offset 8
 571              		.cfi_offset 4, -8
 572              		.cfi_offset 14, -4
 573 0002 0446     		mov	r4, r0
 574              		.loc 1 299 0
 575 0004 FFF7FEFF 		bl	chDbgCheckClassI
 576              	.LVL47:
 577              		.loc 1 301 0
 578 0008 E268     		ldr	r2, [r4, #12]
 579 000a 6261     		str	r2, [r4, #20]
 580 000c A261     		str	r2, [r4, #24]
 581              		.loc 1 302 0
 582 000e 2369     		ldr	r3, [r4, #16]
 583 0010 9B1A     		subs	r3, r3, r2
 584 0012 A360     		str	r3, [r4, #8]
 585              		.loc 1 303 0
 586 0014 07E0     		b	.L41
 587              	.L42:
 588              	.LVL48:
 589              	.LBB26:
 590              	.LBB27:
 591              		.loc 2 62 0
 592 0016 0368     		ldr	r3, [r0]
 593 0018 2360     		str	r3, [r4]
 594 001a 5C60     		str	r4, [r3, #4]
 595              	.LBE27:
 596              	.LBE26:
 597              		.loc 1 304 0
 598 001c FFF7FEFF 		bl	chSchReadyI
 599              	.LVL49:
 600 0020 6FF00103 		mvn	r3, #1
 601 0024 8362     		str	r3, [r0, #40]
 602              	.LVL50:
 603              	.L41:
 604              		.loc 1 303 0
 605 0026 2068     		ldr	r0, [r4]
 606 0028 A042     		cmp	r0, r4
 607 002a F4D1     		bne	.L42
 608              		.loc 1 305 0
 609 002c 10BD     		pop	{r4, pc}
 610              		.cfi_endproc
 611              	.LFE14:
 612              		.size	chOQResetI, .-chOQResetI
 613 002e 00BF     		.section	.text.chOQPutTimeout,"ax",%progbits
 614              		.align	2
 615              		.p2align 4,,15
 616              		.global	chOQPutTimeout
 617              		.thumb
 618              		.thumb_func
 619              		.type	chOQPutTimeout, %function
 620              	chOQPutTimeout:
 621              	.LFB15:
 622              		.loc 1 329 0
 623              		.cfi_startproc
 624              		@ args = 0, pretend = 0, frame = 0
ARM GAS  /tmp/ccwSpLeL.s 			page 12


 625              		@ frame_needed = 0, uses_anonymous_args = 0
 626              	.LVL51:
 627 0000 F8B5     		push	{r3, r4, r5, r6, r7, lr}
 628              		.cfi_def_cfa_offset 24
 629              		.cfi_offset 3, -24
 630              		.cfi_offset 4, -20
 631              		.cfi_offset 5, -16
 632              		.cfi_offset 6, -12
 633              		.cfi_offset 7, -8
 634              		.cfi_offset 14, -4
 635 0002 0446     		mov	r4, r0
 636 0004 0F46     		mov	r7, r1
 637 0006 1646     		mov	r6, r2
 638              	.LBB28:
 639              		.loc 1 331 0
 640 0008 2023     		movs	r3, #32
 641              	@ 331 "../../ChibiOS-RT/os/kernel/src/chqueues.c" 1
 642 000a 83F31188 		msr     BASEPRI, r3
 643              	@ 0 "" 2
 644              		.thumb
 645              	.LBE28:
 646 000e FFF7FEFF 		bl	dbg_check_lock
 647              	.LVL52:
 648              		.loc 1 332 0
 649 0012 0CE0     		b	.L45
 650              	.L47:
 651              	.LBB29:
 652              		.loc 1 335 0
 653 0014 2046     		mov	r0, r4
 654 0016 3146     		mov	r1, r6
 655 0018 FFF7FEFF 		bl	qwait
 656              	.LVL53:
 657 001c 051E     		subs	r5, r0, #0
 658 001e 06DA     		bge	.L45
 659              		.loc 1 336 0
 660 0020 FFF7FEFF 		bl	dbg_check_unlock
 661              	.LVL54:
 662              	.LBB30:
 663 0024 0023     		movs	r3, #0
 664              	@ 336 "../../ChibiOS-RT/os/kernel/src/chqueues.c" 1
 665 0026 83F31188 		msr     BASEPRI, r3
 666              	@ 0 "" 2
 667              		.thumb
 668              	.LBE30:
 669              		.loc 1 337 0
 670 002a 2846     		mov	r0, r5
 671 002c F8BD     		pop	{r3, r4, r5, r6, r7, pc}
 672              	.LVL55:
 673              	.L45:
 674              	.LBE29:
 675              		.loc 1 332 0
 676 002e A368     		ldr	r3, [r4, #8]
 677 0030 002B     		cmp	r3, #0
 678 0032 EFD0     		beq	.L47
 679              		.loc 1 341 0
 680 0034 013B     		subs	r3, r3, #1
 681 0036 A360     		str	r3, [r4, #8]
ARM GAS  /tmp/ccwSpLeL.s 			page 13


 682              		.loc 1 342 0
 683 0038 6369     		ldr	r3, [r4, #20]
 684 003a 5A1C     		adds	r2, r3, #1
 685 003c 6261     		str	r2, [r4, #20]
 686 003e 1F70     		strb	r7, [r3]
 687              		.loc 1 343 0
 688 0040 6269     		ldr	r2, [r4, #20]
 689 0042 2369     		ldr	r3, [r4, #16]
 690 0044 9A42     		cmp	r2, r3
 691 0046 01D3     		bcc	.L48
 692              		.loc 1 344 0
 693 0048 E368     		ldr	r3, [r4, #12]
 694 004a 6361     		str	r3, [r4, #20]
 695              	.L48:
 696              		.loc 1 346 0
 697 004c E369     		ldr	r3, [r4, #28]
 698 004e 0BB1     		cbz	r3, .L49
 699              		.loc 1 347 0
 700 0050 2046     		mov	r0, r4
 701 0052 9847     		blx	r3
 702              	.LVL56:
 703              	.L49:
 704              		.loc 1 349 0
 705 0054 FFF7FEFF 		bl	dbg_check_unlock
 706              	.LVL57:
 707              	.LBB31:
 708 0058 0023     		movs	r3, #0
 709              	@ 349 "../../ChibiOS-RT/os/kernel/src/chqueues.c" 1
 710 005a 83F31188 		msr     BASEPRI, r3
 711              	@ 0 "" 2
 712              		.thumb
 713              	.LBE31:
 714              		.loc 1 350 0
 715 005e 1846     		mov	r0, r3
 716              		.loc 1 351 0
 717 0060 F8BD     		pop	{r3, r4, r5, r6, r7, pc}
 718              		.cfi_endproc
 719              	.LFE15:
 720              		.size	chOQPutTimeout, .-chOQPutTimeout
 721 0062 00BFAFF3 		.section	.text.chOQGetI,"ax",%progbits
 721      0080AFF3 
 721      0080AFF3 
 721      0080
 722              		.align	2
 723              		.p2align 4,,15
 724              		.global	chOQGetI
 725              		.thumb
 726              		.thumb_func
 727              		.type	chOQGetI, %function
 728              	chOQGetI:
 729              	.LFB16:
 730              		.loc 1 363 0
 731              		.cfi_startproc
 732              		@ args = 0, pretend = 0, frame = 0
 733              		@ frame_needed = 0, uses_anonymous_args = 0
 734              	.LVL58:
 735 0000 38B5     		push	{r3, r4, r5, lr}
ARM GAS  /tmp/ccwSpLeL.s 			page 14


 736              		.cfi_def_cfa_offset 16
 737              		.cfi_offset 3, -16
 738              		.cfi_offset 4, -12
 739              		.cfi_offset 5, -8
 740              		.cfi_offset 14, -4
 741 0002 0446     		mov	r4, r0
 742              		.loc 1 366 0
 743 0004 FFF7FEFF 		bl	chDbgCheckClassI
 744              	.LVL59:
 745              		.loc 1 368 0
 746 0008 6269     		ldr	r2, [r4, #20]
 747 000a A369     		ldr	r3, [r4, #24]
 748 000c 9A42     		cmp	r2, r3
 749 000e 02D1     		bne	.L56
 750              		.loc 1 368 0 is_stmt 0 discriminator 1
 751 0010 A268     		ldr	r2, [r4, #8]
 752 0012 12B9     		cbnz	r2, .L57
 753 0014 02E0     		b	.L52
 754              	.L56:
 755              		.loc 1 368 0
 756 0016 0022     		movs	r2, #0
 757 0018 00E0     		b	.L52
 758              	.L57:
 759 001a 0122     		movs	r2, #1
 760              	.L52:
 761              		.loc 1 368 0 discriminator 6
 762 001c B2B9     		cbnz	r2, .L58
 763              		.loc 1 371 0 is_stmt 1
 764 001e A268     		ldr	r2, [r4, #8]
 765 0020 0132     		adds	r2, r2, #1
 766 0022 A260     		str	r2, [r4, #8]
 767              		.loc 1 372 0
 768 0024 5A1C     		adds	r2, r3, #1
 769 0026 A261     		str	r2, [r4, #24]
 770 0028 1D78     		ldrb	r5, [r3]	@ zero_extendqisi2
 771              	.LVL60:
 772              		.loc 1 373 0
 773 002a 2369     		ldr	r3, [r4, #16]
 774 002c 9A42     		cmp	r2, r3
 775 002e 01D3     		bcc	.L54
 776              		.loc 1 374 0
 777 0030 E368     		ldr	r3, [r4, #12]
 778 0032 A361     		str	r3, [r4, #24]
 779              	.L54:
 780              		.loc 1 376 0
 781 0034 2068     		ldr	r0, [r4]
 782 0036 A042     		cmp	r0, r4
 783 0038 06D0     		beq	.L55
 784              	.LVL61:
 785              	.LBB32:
 786              	.LBB33:
 787              		.loc 2 62 0
 788 003a 0368     		ldr	r3, [r0]
 789 003c 2360     		str	r3, [r4]
 790 003e 5C60     		str	r4, [r3, #4]
 791              	.LBE33:
 792              	.LBE32:
ARM GAS  /tmp/ccwSpLeL.s 			page 15


 793              		.loc 1 377 0
 794 0040 FFF7FEFF 		bl	chSchReadyI
 795              	.LVL62:
 796 0044 0023     		movs	r3, #0
 797 0046 8362     		str	r3, [r0, #40]
 798              	.LVL63:
 799              	.L55:
 800              		.loc 1 379 0
 801 0048 2846     		mov	r0, r5
 802 004a 38BD     		pop	{r3, r4, r5, pc}
 803              	.LVL64:
 804              	.L58:
 805              		.loc 1 369 0
 806 004c 6FF00200 		mvn	r0, #2
 807              		.loc 1 380 0
 808 0050 38BD     		pop	{r3, r4, r5, pc}
 809              		.cfi_endproc
 810              	.LFE16:
 811              		.size	chOQGetI, .-chOQGetI
 812 0052 00BFAFF3 		.section	.text.chOQWriteTimeout,"ax",%progbits
 812      0080AFF3 
 812      0080AFF3 
 812      0080
 813              		.align	2
 814              		.p2align 4,,15
 815              		.global	chOQWriteTimeout
 816              		.thumb
 817              		.thumb_func
 818              		.type	chOQWriteTimeout, %function
 819              	chOQWriteTimeout:
 820              	.LFB17:
 821              		.loc 1 407 0
 822              		.cfi_startproc
 823              		@ args = 0, pretend = 0, frame = 0
 824              		@ frame_needed = 0, uses_anonymous_args = 0
 825              	.LVL65:
 826 0000 2DE9F047 		push	{r4, r5, r6, r7, r8, r9, r10, lr}
 827              		.cfi_def_cfa_offset 32
 828              		.cfi_offset 4, -32
 829              		.cfi_offset 5, -28
 830              		.cfi_offset 6, -24
 831              		.cfi_offset 7, -20
 832              		.cfi_offset 8, -16
 833              		.cfi_offset 9, -12
 834              		.cfi_offset 10, -8
 835              		.cfi_offset 14, -4
 836 0004 0446     		mov	r4, r0
 837 0006 0F46     		mov	r7, r1
 838 0008 1646     		mov	r6, r2
 839 000a 9A46     		mov	r10, r3
 840              		.loc 1 408 0
 841 000c D0F81C90 		ldr	r9, [r0, #28]
 842              	.LVL66:
 843              	.LBB34:
 844              		.loc 1 413 0
 845 0010 2023     		movs	r3, #32
 846              	.LVL67:
ARM GAS  /tmp/ccwSpLeL.s 			page 16


 847              	@ 413 "../../ChibiOS-RT/os/kernel/src/chqueues.c" 1
 848 0012 83F31188 		msr     BASEPRI, r3
 849              	@ 0 "" 2
 850              		.thumb
 851              	.LBE34:
 852 0016 FFF7FEFF 		bl	dbg_check_lock
 853              	.LVL68:
 854              		.loc 1 409 0
 855 001a 4FF00008 		mov	r8, #0
 856 001e 0AE0     		b	.L61
 857              	.LVL69:
 858              	.L64:
 859              		.loc 1 416 0
 860 0020 2046     		mov	r0, r4
 861 0022 5146     		mov	r1, r10
 862 0024 FFF7FEFF 		bl	qwait
 863              	.LVL70:
 864 0028 28B1     		cbz	r0, .L61
 865              		.loc 1 417 0
 866 002a FFF7FEFF 		bl	dbg_check_unlock
 867              	.LVL71:
 868              	.LBB35:
 869 002e 0023     		movs	r3, #0
 870              	@ 417 "../../ChibiOS-RT/os/kernel/src/chqueues.c" 1
 871 0030 83F31188 		msr     BASEPRI, r3
 872              	@ 0 "" 2
 873              		.thumb
 874              	.LBE35:
 875              		.loc 1 418 0
 876 0034 25E0     		b	.L63
 877              	.LVL72:
 878              	.L61:
 879              		.loc 1 415 0
 880 0036 A568     		ldr	r5, [r4, #8]
 881 0038 002D     		cmp	r5, #0
 882 003a F1D0     		beq	.L64
 883              		.loc 1 421 0
 884 003c 013D     		subs	r5, r5, #1
 885 003e A560     		str	r5, [r4, #8]
 886              		.loc 1 422 0
 887 0040 6369     		ldr	r3, [r4, #20]
 888 0042 5A1C     		adds	r2, r3, #1
 889 0044 6261     		str	r2, [r4, #20]
 890 0046 7D1C     		adds	r5, r7, #1
 891              	.LVL73:
 892 0048 3A78     		ldrb	r2, [r7]	@ zero_extendqisi2
 893 004a 1A70     		strb	r2, [r3]
 894              		.loc 1 423 0
 895 004c 6269     		ldr	r2, [r4, #20]
 896 004e 2369     		ldr	r3, [r4, #16]
 897 0050 9A42     		cmp	r2, r3
 898 0052 01D3     		bcc	.L65
 899              		.loc 1 424 0
 900 0054 E368     		ldr	r3, [r4, #12]
 901 0056 6361     		str	r3, [r4, #20]
 902              	.L65:
 903              		.loc 1 426 0
ARM GAS  /tmp/ccwSpLeL.s 			page 17


 904 0058 B9F1000F 		cmp	r9, #0
 905 005c 01D0     		beq	.L66
 906              		.loc 1 427 0
 907 005e 2046     		mov	r0, r4
 908 0060 C847     		blx	r9
 909              	.LVL74:
 910              	.L66:
 911              		.loc 1 429 0
 912 0062 FFF7FEFF 		bl	dbg_check_unlock
 913              	.LVL75:
 914              	.LBB36:
 915 0066 0023     		movs	r3, #0
 916              	@ 429 "../../ChibiOS-RT/os/kernel/src/chqueues.c" 1
 917 0068 83F31188 		msr     BASEPRI, r3
 918              	@ 0 "" 2
 919              		.thumb
 920              	.LBE36:
 921              		.loc 1 430 0
 922 006c 08F10108 		add	r8, r8, #1
 923              	.LVL76:
 924              		.loc 1 431 0
 925 0070 013E     		subs	r6, r6, #1
 926              	.LVL77:
 927 0072 06D0     		beq	.L63
 928              	.LBB37:
 929              		.loc 1 433 0
 930 0074 2023     		movs	r3, #32
 931              	@ 433 "../../ChibiOS-RT/os/kernel/src/chqueues.c" 1
 932 0076 83F31188 		msr     BASEPRI, r3
 933              	@ 0 "" 2
 934              		.thumb
 935              	.LBE37:
 936 007a FFF7FEFF 		bl	dbg_check_lock
 937              	.LVL78:
 938              		.loc 1 422 0
 939 007e 2F46     		mov	r7, r5
 940              		.loc 1 434 0
 941 0080 D9E7     		b	.L61
 942              	.LVL79:
 943              	.L63:
 944              		.loc 1 435 0
 945 0082 4046     		mov	r0, r8
 946 0084 BDE8F087 		pop	{r4, r5, r6, r7, r8, r9, r10, pc}
 947              		.cfi_endproc
 948              	.LFE17:
 949              		.size	chOQWriteTimeout, .-chOQWriteTimeout
 950 0088 AFF30080 		.text
 950      AFF30080 
 951              	.Letext0:
 952              		.file 3 "/usr/lib/gcc/arm-none-eabi/4.9.2/include/stddef.h"
 953              		.file 4 "/usr/arm-none-eabi/include/machine/_default_types.h"
 954              		.file 5 "/usr/arm-none-eabi/include/stdint.h"
 955              		.file 6 "../../ChibiOS-RT/os/ports/GCC/ARMCMx/chtypes.h"
 956              		.file 7 "../../ChibiOS-RT/os/kernel/include/chlists.h"
 957              		.file 8 "../../ChibiOS-RT/os/kernel/include/chthreads.h"
 958              		.file 9 "../../ChibiOS-RT/os/ports/GCC/ARMCMx/chcore_v7m.h"
 959              		.file 10 "../../ChibiOS-RT/os/kernel/include/chschd.h"
ARM GAS  /tmp/ccwSpLeL.s 			page 18


 960              		.file 11 "../../ChibiOS-RT/os/kernel/include/chmtx.h"
 961              		.file 12 "../../ChibiOS-RT/os/kernel/include/chqueues.h"
 962              		.file 13 "../../ChibiOS-RT/os/kernel/include/chdebug.h"
 963              		.section	.debug_info,"",%progbits
 964              	.Ldebug_info0:
 965 0000 FB0C0000 		.4byte	0xcfb
 966 0004 0400     		.2byte	0x4
 967 0006 00000000 		.4byte	.Ldebug_abbrev0
 968 000a 04       		.byte	0x4
 969 000b 01       		.uleb128 0x1
 970 000c FC010000 		.4byte	.LASF104
 971 0010 01       		.byte	0x1
 972 0011 B2000000 		.4byte	.LASF105
 973 0015 61030000 		.4byte	.LASF106
 974 0019 00000000 		.4byte	.Ldebug_ranges0+0
 975 001d 00000000 		.4byte	0
 976 0021 00000000 		.4byte	.Ldebug_line0
 977 0025 02       		.uleb128 0x2
 978 0026 04       		.byte	0x4
 979 0027 05       		.byte	0x5
 980 0028 696E7400 		.ascii	"int\000"
 981 002c 03       		.uleb128 0x3
 982 002d 21000000 		.4byte	.LASF2
 983 0031 03       		.byte	0x3
 984 0032 D4       		.byte	0xd4
 985 0033 37000000 		.4byte	0x37
 986 0037 04       		.uleb128 0x4
 987 0038 04       		.byte	0x4
 988 0039 07       		.byte	0x7
 989 003a 73010000 		.4byte	.LASF0
 990 003e 04       		.uleb128 0x4
 991 003f 01       		.byte	0x1
 992 0040 06       		.byte	0x6
 993 0041 A6000000 		.4byte	.LASF1
 994 0045 03       		.uleb128 0x3
 995 0046 4D000000 		.4byte	.LASF3
 996 004a 04       		.byte	0x4
 997 004b 1D       		.byte	0x1d
 998 004c 50000000 		.4byte	0x50
 999 0050 04       		.uleb128 0x4
 1000 0051 01       		.byte	0x1
 1001 0052 08       		.byte	0x8
 1002 0053 B7030000 		.4byte	.LASF4
 1003 0057 04       		.uleb128 0x4
 1004 0058 02       		.byte	0x2
 1005 0059 05       		.byte	0x5
 1006 005a CF030000 		.4byte	.LASF5
 1007 005e 04       		.uleb128 0x4
 1008 005f 02       		.byte	0x2
 1009 0060 07       		.byte	0x7
 1010 0061 AA010000 		.4byte	.LASF6
 1011 0065 03       		.uleb128 0x3
 1012 0066 69040000 		.4byte	.LASF7
 1013 006a 04       		.byte	0x4
 1014 006b 3F       		.byte	0x3f
 1015 006c 70000000 		.4byte	0x70
 1016 0070 04       		.uleb128 0x4
ARM GAS  /tmp/ccwSpLeL.s 			page 19


 1017 0071 04       		.byte	0x4
 1018 0072 05       		.byte	0x5
 1019 0073 03010000 		.4byte	.LASF8
 1020 0077 03       		.uleb128 0x3
 1021 0078 37010000 		.4byte	.LASF9
 1022 007c 04       		.byte	0x4
 1023 007d 41       		.byte	0x41
 1024 007e 82000000 		.4byte	0x82
 1025 0082 04       		.uleb128 0x4
 1026 0083 04       		.byte	0x4
 1027 0084 07       		.byte	0x7
 1028 0085 8B010000 		.4byte	.LASF10
 1029 0089 04       		.uleb128 0x4
 1030 008a 08       		.byte	0x8
 1031 008b 05       		.byte	0x5
 1032 008c 98000000 		.4byte	.LASF11
 1033 0090 03       		.uleb128 0x3
 1034 0091 4E030000 		.4byte	.LASF12
 1035 0095 04       		.byte	0x4
 1036 0096 5B       		.byte	0x5b
 1037 0097 9B000000 		.4byte	0x9b
 1038 009b 04       		.uleb128 0x4
 1039 009c 08       		.byte	0x8
 1040 009d 07       		.byte	0x7
 1041 009e 67000000 		.4byte	.LASF13
 1042 00a2 03       		.uleb128 0x3
 1043 00a3 BD040000 		.4byte	.LASF14
 1044 00a7 05       		.byte	0x5
 1045 00a8 15       		.byte	0x15
 1046 00a9 45000000 		.4byte	0x45
 1047 00ad 03       		.uleb128 0x3
 1048 00ae AF030000 		.4byte	.LASF15
 1049 00b2 05       		.byte	0x5
 1050 00b3 2C       		.byte	0x2c
 1051 00b4 65000000 		.4byte	0x65
 1052 00b8 03       		.uleb128 0x3
 1053 00b9 1F040000 		.4byte	.LASF16
 1054 00bd 05       		.byte	0x5
 1055 00be 2D       		.byte	0x2d
 1056 00bf 77000000 		.4byte	0x77
 1057 00c3 03       		.uleb128 0x3
 1058 00c4 38000000 		.4byte	.LASF17
 1059 00c8 05       		.byte	0x5
 1060 00c9 39       		.byte	0x39
 1061 00ca 90000000 		.4byte	0x90
 1062 00ce 03       		.uleb128 0x3
 1063 00cf E4000000 		.4byte	.LASF18
 1064 00d3 06       		.byte	0x6
 1065 00d4 2B       		.byte	0x2b
 1066 00d5 D9000000 		.4byte	0xd9
 1067 00d9 04       		.uleb128 0x4
 1068 00da 01       		.byte	0x1
 1069 00db 02       		.byte	0x2
 1070 00dc A9030000 		.4byte	.LASF19
 1071 00e0 03       		.uleb128 0x3
 1072 00e1 DC010000 		.4byte	.LASF20
 1073 00e5 06       		.byte	0x6
ARM GAS  /tmp/ccwSpLeL.s 			page 20


 1074 00e6 2C       		.byte	0x2c
 1075 00e7 A2000000 		.4byte	0xa2
 1076 00eb 03       		.uleb128 0x3
 1077 00ec 0C010000 		.4byte	.LASF21
 1078 00f0 06       		.byte	0x6
 1079 00f1 2D       		.byte	0x2d
 1080 00f2 A2000000 		.4byte	0xa2
 1081 00f6 03       		.uleb128 0x3
 1082 00f7 59030000 		.4byte	.LASF22
 1083 00fb 06       		.byte	0x6
 1084 00fc 2E       		.byte	0x2e
 1085 00fd A2000000 		.4byte	0xa2
 1086 0101 03       		.uleb128 0x3
 1087 0102 F3000000 		.4byte	.LASF23
 1088 0106 06       		.byte	0x6
 1089 0107 2F       		.byte	0x2f
 1090 0108 A2000000 		.4byte	0xa2
 1091 010c 03       		.uleb128 0x3
 1092 010d 99030000 		.4byte	.LASF24
 1093 0111 06       		.byte	0x6
 1094 0112 30       		.byte	0x30
 1095 0113 B8000000 		.4byte	0xb8
 1096 0117 03       		.uleb128 0x3
 1097 0118 BD010000 		.4byte	.LASF25
 1098 011c 06       		.byte	0x6
 1099 011d 31       		.byte	0x31
 1100 011e AD000000 		.4byte	0xad
 1101 0122 03       		.uleb128 0x3
 1102 0123 F0010000 		.4byte	.LASF26
 1103 0127 06       		.byte	0x6
 1104 0128 33       		.byte	0x33
 1105 0129 B8000000 		.4byte	0xb8
 1106 012d 03       		.uleb128 0x3
 1107 012e 54040000 		.4byte	.LASF27
 1108 0132 06       		.byte	0x6
 1109 0133 35       		.byte	0x35
 1110 0134 B8000000 		.4byte	0xb8
 1111 0138 03       		.uleb128 0x3
 1112 0139 0D040000 		.4byte	.LASF28
 1113 013d 07       		.byte	0x7
 1114 013e 2A       		.byte	0x2a
 1115 013f 43010000 		.4byte	0x143
 1116 0143 05       		.uleb128 0x5
 1117 0144 0D040000 		.4byte	.LASF28
 1118 0148 4C       		.byte	0x4c
 1119 0149 08       		.byte	0x8
 1120 014a 5E       		.byte	0x5e
 1121 014b 4C020000 		.4byte	0x24c
 1122 014f 06       		.uleb128 0x6
 1123 0150 F9030000 		.4byte	.LASF29
 1124 0154 08       		.byte	0x8
 1125 0155 5F       		.byte	0x5f
 1126 0156 6D020000 		.4byte	0x26d
 1127 015a 00       		.byte	0
 1128 015b 06       		.uleb128 0x6
 1129 015c 92030000 		.4byte	.LASF30
 1130 0160 08       		.byte	0x8
ARM GAS  /tmp/ccwSpLeL.s 			page 21


 1131 0161 61       		.byte	0x61
 1132 0162 6D020000 		.4byte	0x26d
 1133 0166 04       		.byte	0x4
 1134 0167 06       		.uleb128 0x6
 1135 0168 87000000 		.4byte	.LASF31
 1136 016c 08       		.byte	0x8
 1137 016d 63       		.byte	0x63
 1138 016e 0C010000 		.4byte	0x10c
 1139 0172 08       		.byte	0x8
 1140 0173 06       		.uleb128 0x6
 1141 0174 02050000 		.4byte	.LASF32
 1142 0178 08       		.byte	0x8
 1143 0179 64       		.byte	0x64
 1144 017a 32030000 		.4byte	0x332
 1145 017e 0C       		.byte	0xc
 1146 017f 06       		.uleb128 0x6
 1147 0180 2F010000 		.4byte	.LASF33
 1148 0184 08       		.byte	0x8
 1149 0185 66       		.byte	0x66
 1150 0186 6D020000 		.4byte	0x26d
 1151 018a 10       		.byte	0x10
 1152 018b 06       		.uleb128 0x6
 1153 018c 1C030000 		.4byte	.LASF34
 1154 0190 08       		.byte	0x8
 1155 0191 67       		.byte	0x67
 1156 0192 6D020000 		.4byte	0x26d
 1157 0196 14       		.byte	0x14
 1158 0197 06       		.uleb128 0x6
 1159 0198 D7040000 		.4byte	.LASF35
 1160 019c 08       		.byte	0x8
 1161 019d 6E       		.byte	0x6e
 1162 019e 32040000 		.4byte	0x432
 1163 01a2 18       		.byte	0x18
 1164 01a3 06       		.uleb128 0x6
 1165 01a4 68010000 		.4byte	.LASF36
 1166 01a8 08       		.byte	0x8
 1167 01a9 74       		.byte	0x74
 1168 01aa 44040000 		.4byte	0x444
 1169 01ae 1C       		.byte	0x1c
 1170 01af 06       		.uleb128 0x6
 1171 01b0 D9030000 		.4byte	.LASF37
 1172 01b4 08       		.byte	0x8
 1173 01b5 79       		.byte	0x79
 1174 01b6 EB000000 		.4byte	0xeb
 1175 01ba 20       		.byte	0x20
 1176 01bb 06       		.uleb128 0x6
 1177 01bc 05040000 		.4byte	.LASF38
 1178 01c0 08       		.byte	0x8
 1179 01c1 7D       		.byte	0x7d
 1180 01c2 E0000000 		.4byte	0xe0
 1181 01c6 21       		.byte	0x21
 1182 01c7 06       		.uleb128 0x6
 1183 01c8 9D040000 		.4byte	.LASF39
 1184 01cc 08       		.byte	0x8
 1185 01cd 82       		.byte	0x82
 1186 01ce F6000000 		.4byte	0xf6
 1187 01d2 22       		.byte	0x22
ARM GAS  /tmp/ccwSpLeL.s 			page 22


 1188 01d3 06       		.uleb128 0x6
 1189 01d4 E1030000 		.4byte	.LASF40
 1190 01d8 08       		.byte	0x8
 1191 01d9 88       		.byte	0x88
 1192 01da 01010000 		.4byte	0x101
 1193 01de 23       		.byte	0x23
 1194 01df 06       		.uleb128 0x6
 1195 01e0 7E040000 		.4byte	.LASF41
 1196 01e4 08       		.byte	0x8
 1197 01e5 8F       		.byte	0x8f
 1198 01e6 5A030000 		.4byte	0x35a
 1199 01ea 24       		.byte	0x24
 1200 01eb 07       		.uleb128 0x7
 1201 01ec 705F7500 		.ascii	"p_u\000"
 1202 01f0 08       		.byte	0x8
 1203 01f1 B4       		.byte	0xb4
 1204 01f2 FD030000 		.4byte	0x3fd
 1205 01f6 28       		.byte	0x28
 1206 01f7 06       		.uleb128 0x6
 1207 01f8 08050000 		.4byte	.LASF42
 1208 01fc 08       		.byte	0x8
 1209 01fd B9       		.byte	0xb9
 1210 01fe 93020000 		.4byte	0x293
 1211 0202 2C       		.byte	0x2c
 1212 0203 06       		.uleb128 0x6
 1213 0204 8C040000 		.4byte	.LASF43
 1214 0208 08       		.byte	0x8
 1215 0209 BF       		.byte	0xbf
 1216 020a 73020000 		.4byte	0x273
 1217 020e 30       		.byte	0x30
 1218 020f 06       		.uleb128 0x6
 1219 0210 09000000 		.4byte	.LASF44
 1220 0214 08       		.byte	0x8
 1221 0215 C3       		.byte	0xc3
 1222 0216 17010000 		.4byte	0x117
 1223 021a 38       		.byte	0x38
 1224 021b 06       		.uleb128 0x6
 1225 021c 14040000 		.4byte	.LASF45
 1226 0220 08       		.byte	0x8
 1227 0221 C9       		.byte	0xc9
 1228 0222 22010000 		.4byte	0x122
 1229 0226 3C       		.byte	0x3c
 1230 0227 06       		.uleb128 0x6
 1231 0228 C5030000 		.4byte	.LASF46
 1232 022c 08       		.byte	0x8
 1233 022d D0       		.byte	0xd0
 1234 022e 4A040000 		.4byte	0x44a
 1235 0232 40       		.byte	0x40
 1236 0233 06       		.uleb128 0x6
 1237 0234 5E040000 		.4byte	.LASF47
 1238 0238 08       		.byte	0x8
 1239 0239 D4       		.byte	0xd4
 1240 023a 0C010000 		.4byte	0x10c
 1241 023e 44       		.byte	0x44
 1242 023f 06       		.uleb128 0x6
 1243 0240 DC000000 		.4byte	.LASF48
 1244 0244 08       		.byte	0x8
ARM GAS  /tmp/ccwSpLeL.s 			page 23


 1245 0245 DA       		.byte	0xda
 1246 0246 A9020000 		.4byte	0x2a9
 1247 024a 48       		.byte	0x48
 1248 024b 00       		.byte	0
 1249 024c 08       		.uleb128 0x8
 1250 024d 08       		.byte	0x8
 1251 024e 07       		.byte	0x7
 1252 024f 61       		.byte	0x61
 1253 0250 6D020000 		.4byte	0x26d
 1254 0254 06       		.uleb128 0x6
 1255 0255 F9030000 		.4byte	.LASF29
 1256 0259 07       		.byte	0x7
 1257 025a 62       		.byte	0x62
 1258 025b 6D020000 		.4byte	0x26d
 1259 025f 00       		.byte	0
 1260 0260 06       		.uleb128 0x6
 1261 0261 92030000 		.4byte	.LASF30
 1262 0265 07       		.byte	0x7
 1263 0266 64       		.byte	0x64
 1264 0267 6D020000 		.4byte	0x26d
 1265 026b 04       		.byte	0x4
 1266 026c 00       		.byte	0
 1267 026d 09       		.uleb128 0x9
 1268 026e 04       		.byte	0x4
 1269 026f 38010000 		.4byte	0x138
 1270 0273 03       		.uleb128 0x3
 1271 0274 2A030000 		.4byte	.LASF49
 1272 0278 07       		.byte	0x7
 1273 0279 66       		.byte	0x66
 1274 027a 4C020000 		.4byte	0x24c
 1275 027e 08       		.uleb128 0x8
 1276 027f 04       		.byte	0x4
 1277 0280 07       		.byte	0x7
 1278 0281 6B       		.byte	0x6b
 1279 0282 93020000 		.4byte	0x293
 1280 0286 06       		.uleb128 0x6
 1281 0287 F9030000 		.4byte	.LASF29
 1282 028b 07       		.byte	0x7
 1283 028c 6D       		.byte	0x6d
 1284 028d 6D020000 		.4byte	0x26d
 1285 0291 00       		.byte	0
 1286 0292 00       		.byte	0
 1287 0293 03       		.uleb128 0x3
 1288 0294 E4010000 		.4byte	.LASF50
 1289 0298 07       		.byte	0x7
 1290 0299 70       		.byte	0x70
 1291 029a 7E020000 		.4byte	0x27e
 1292 029e 03       		.uleb128 0x3
 1293 029f 42010000 		.4byte	.LASF51
 1294 02a3 09       		.byte	0x9
 1295 02a4 E5       		.byte	0xe5
 1296 02a5 A9020000 		.4byte	0x2a9
 1297 02a9 0A       		.uleb128 0xa
 1298 02aa 04       		.byte	0x4
 1299 02ab 03       		.uleb128 0x3
 1300 02ac CD020000 		.4byte	.LASF52
 1301 02b0 09       		.byte	0x9
ARM GAS  /tmp/ccwSpLeL.s 			page 24


 1302 02b1 EB       		.byte	0xeb
 1303 02b2 C3000000 		.4byte	0xc3
 1304 02b6 0B       		.uleb128 0xb
 1305 02b7 85040000 		.4byte	.LASF53
 1306 02bb 24       		.byte	0x24
 1307 02bc 09       		.byte	0x9
 1308 02bd 0C01     		.2byte	0x10c
 1309 02bf 32030000 		.4byte	0x332
 1310 02c3 0C       		.uleb128 0xc
 1311 02c4 723400   		.ascii	"r4\000"
 1312 02c7 09       		.byte	0x9
 1313 02c8 1F01     		.2byte	0x11f
 1314 02ca 9E020000 		.4byte	0x29e
 1315 02ce 00       		.byte	0
 1316 02cf 0C       		.uleb128 0xc
 1317 02d0 723500   		.ascii	"r5\000"
 1318 02d3 09       		.byte	0x9
 1319 02d4 2001     		.2byte	0x120
 1320 02d6 9E020000 		.4byte	0x29e
 1321 02da 04       		.byte	0x4
 1322 02db 0C       		.uleb128 0xc
 1323 02dc 723600   		.ascii	"r6\000"
 1324 02df 09       		.byte	0x9
 1325 02e0 2101     		.2byte	0x121
 1326 02e2 9E020000 		.4byte	0x29e
 1327 02e6 08       		.byte	0x8
 1328 02e7 0C       		.uleb128 0xc
 1329 02e8 723700   		.ascii	"r7\000"
 1330 02eb 09       		.byte	0x9
 1331 02ec 2201     		.2byte	0x122
 1332 02ee 9E020000 		.4byte	0x29e
 1333 02f2 0C       		.byte	0xc
 1334 02f3 0C       		.uleb128 0xc
 1335 02f4 723800   		.ascii	"r8\000"
 1336 02f7 09       		.byte	0x9
 1337 02f8 2301     		.2byte	0x123
 1338 02fa 9E020000 		.4byte	0x29e
 1339 02fe 10       		.byte	0x10
 1340 02ff 0C       		.uleb128 0xc
 1341 0300 723900   		.ascii	"r9\000"
 1342 0303 09       		.byte	0x9
 1343 0304 2401     		.2byte	0x124
 1344 0306 9E020000 		.4byte	0x29e
 1345 030a 14       		.byte	0x14
 1346 030b 0C       		.uleb128 0xc
 1347 030c 72313000 		.ascii	"r10\000"
 1348 0310 09       		.byte	0x9
 1349 0311 2501     		.2byte	0x125
 1350 0313 9E020000 		.4byte	0x29e
 1351 0317 18       		.byte	0x18
 1352 0318 0C       		.uleb128 0xc
 1353 0319 72313100 		.ascii	"r11\000"
 1354 031d 09       		.byte	0x9
 1355 031e 2601     		.2byte	0x126
 1356 0320 9E020000 		.4byte	0x29e
 1357 0324 1C       		.byte	0x1c
 1358 0325 0C       		.uleb128 0xc
ARM GAS  /tmp/ccwSpLeL.s 			page 25


 1359 0326 6C7200   		.ascii	"lr\000"
 1360 0329 09       		.byte	0x9
 1361 032a 2701     		.2byte	0x127
 1362 032c 9E020000 		.4byte	0x29e
 1363 0330 20       		.byte	0x20
 1364 0331 00       		.byte	0
 1365 0332 0B       		.uleb128 0xb
 1366 0333 9D010000 		.4byte	.LASF54
 1367 0337 04       		.byte	0x4
 1368 0338 09       		.byte	0x9
 1369 0339 3101     		.2byte	0x131
 1370 033b 4D030000 		.4byte	0x34d
 1371 033f 0C       		.uleb128 0xc
 1372 0340 72313300 		.ascii	"r13\000"
 1373 0344 09       		.byte	0x9
 1374 0345 3201     		.2byte	0x132
 1375 0347 4D030000 		.4byte	0x34d
 1376 034b 00       		.byte	0
 1377 034c 00       		.byte	0
 1378 034d 09       		.uleb128 0x9
 1379 034e 04       		.byte	0x4
 1380 034f B6020000 		.4byte	0x2b6
 1381 0353 04       		.uleb128 0x4
 1382 0354 04       		.byte	0x4
 1383 0355 07       		.byte	0x7
 1384 0356 FA020000 		.4byte	.LASF55
 1385 035a 0D       		.uleb128 0xd
 1386 035b 2D010000 		.4byte	0x12d
 1387 035f 08       		.uleb128 0x8
 1388 0360 1C       		.byte	0x1c
 1389 0361 0A       		.byte	0xa
 1390 0362 5E       		.byte	0x5e
 1391 0363 B0030000 		.4byte	0x3b0
 1392 0367 06       		.uleb128 0x6
 1393 0368 28040000 		.4byte	.LASF56
 1394 036c 0A       		.byte	0xa
 1395 036d 5F       		.byte	0x5f
 1396 036e 73020000 		.4byte	0x273
 1397 0372 00       		.byte	0
 1398 0373 06       		.uleb128 0x6
 1399 0374 EB030000 		.4byte	.LASF57
 1400 0378 0A       		.byte	0xa
 1401 0379 60       		.byte	0x60
 1402 037a 0C010000 		.4byte	0x10c
 1403 037e 08       		.byte	0x8
 1404 037f 06       		.uleb128 0x6
 1405 0380 24030000 		.4byte	.LASF58
 1406 0384 0A       		.byte	0xa
 1407 0385 62       		.byte	0x62
 1408 0386 32030000 		.4byte	0x332
 1409 038a 0C       		.byte	0xc
 1410 038b 06       		.uleb128 0x6
 1411 038c C3010000 		.4byte	.LASF59
 1412 0390 0A       		.byte	0xa
 1413 0391 65       		.byte	0x65
 1414 0392 6D020000 		.4byte	0x26d
 1415 0396 10       		.byte	0x10
ARM GAS  /tmp/ccwSpLeL.s 			page 26


 1416 0397 06       		.uleb128 0x6
 1417 0398 46030000 		.4byte	.LASF60
 1418 039c 0A       		.byte	0xa
 1419 039d 66       		.byte	0x66
 1420 039e 6D020000 		.4byte	0x26d
 1421 03a2 14       		.byte	0x14
 1422 03a3 06       		.uleb128 0x6
 1423 03a4 3C030000 		.4byte	.LASF61
 1424 03a8 0A       		.byte	0xa
 1425 03a9 69       		.byte	0x69
 1426 03aa 6D020000 		.4byte	0x26d
 1427 03ae 18       		.byte	0x18
 1428 03af 00       		.byte	0
 1429 03b0 03       		.uleb128 0x3
 1430 03b1 A4040000 		.4byte	.LASF62
 1431 03b5 0A       		.byte	0xa
 1432 03b6 6B       		.byte	0x6b
 1433 03b7 5F030000 		.4byte	0x35f
 1434 03bb 05       		.uleb128 0x5
 1435 03bc BA020000 		.4byte	.LASF63
 1436 03c0 10       		.byte	0x10
 1437 03c1 0B       		.byte	0xb
 1438 03c2 2C       		.byte	0x2c
 1439 03c3 EC030000 		.4byte	0x3ec
 1440 03c7 06       		.uleb128 0x6
 1441 03c8 EB000000 		.4byte	.LASF64
 1442 03cc 0B       		.byte	0xb
 1443 03cd 2D       		.byte	0x2d
 1444 03ce 73020000 		.4byte	0x273
 1445 03d2 00       		.byte	0
 1446 03d3 06       		.uleb128 0x6
 1447 03d4 FA040000 		.4byte	.LASF65
 1448 03d8 0B       		.byte	0xb
 1449 03d9 2F       		.byte	0x2f
 1450 03da 6D020000 		.4byte	0x26d
 1451 03de 08       		.byte	0x8
 1452 03df 06       		.uleb128 0x6
 1453 03e0 4D040000 		.4byte	.LASF66
 1454 03e4 0B       		.byte	0xb
 1455 03e5 31       		.byte	0x31
 1456 03e6 EC030000 		.4byte	0x3ec
 1457 03ea 0C       		.byte	0xc
 1458 03eb 00       		.byte	0
 1459 03ec 09       		.uleb128 0x9
 1460 03ed 04       		.byte	0x4
 1461 03ee BB030000 		.4byte	0x3bb
 1462 03f2 03       		.uleb128 0x3
 1463 03f3 BA020000 		.4byte	.LASF63
 1464 03f7 0B       		.byte	0xb
 1465 03f8 33       		.byte	0x33
 1466 03f9 BB030000 		.4byte	0x3bb
 1467 03fd 0E       		.uleb128 0xe
 1468 03fe 04       		.byte	0x4
 1469 03ff 08       		.byte	0x8
 1470 0400 96       		.byte	0x96
 1471 0401 32040000 		.4byte	0x432
 1472 0405 0F       		.uleb128 0xf
ARM GAS  /tmp/ccwSpLeL.s 			page 27


 1473 0406 28000000 		.4byte	.LASF67
 1474 040a 08       		.byte	0x8
 1475 040b 9D       		.byte	0x9d
 1476 040c 17010000 		.4byte	0x117
 1477 0410 0F       		.uleb128 0xf
 1478 0411 7E000000 		.4byte	.LASF68
 1479 0415 08       		.byte	0x8
 1480 0416 A4       		.byte	0xa4
 1481 0417 17010000 		.4byte	0x117
 1482 041b 0F       		.uleb128 0xf
 1483 041c D0040000 		.4byte	.LASF69
 1484 0420 08       		.byte	0x8
 1485 0421 AB       		.byte	0xab
 1486 0422 A9020000 		.4byte	0x2a9
 1487 0426 0F       		.uleb128 0xf
 1488 0427 F2030000 		.4byte	.LASF70
 1489 042b 08       		.byte	0x8
 1490 042c B2       		.byte	0xb2
 1491 042d 22010000 		.4byte	0x122
 1492 0431 00       		.byte	0
 1493 0432 09       		.uleb128 0x9
 1494 0433 04       		.byte	0x4
 1495 0434 38040000 		.4byte	0x438
 1496 0438 10       		.uleb128 0x10
 1497 0439 3D040000 		.4byte	0x43d
 1498 043d 04       		.uleb128 0x4
 1499 043e 01       		.byte	0x1
 1500 043f 08       		.byte	0x8
 1501 0440 3C040000 		.4byte	.LASF71
 1502 0444 09       		.uleb128 0x9
 1503 0445 04       		.byte	0x4
 1504 0446 AB020000 		.4byte	0x2ab
 1505 044a 09       		.uleb128 0x9
 1506 044b 04       		.byte	0x4
 1507 044c F2030000 		.4byte	0x3f2
 1508 0450 03       		.uleb128 0x3
 1509 0451 C0020000 		.4byte	.LASF72
 1510 0455 0C       		.byte	0xc
 1511 0456 37       		.byte	0x37
 1512 0457 5B040000 		.4byte	0x45b
 1513 045b 05       		.uleb128 0x5
 1514 045c C0020000 		.4byte	.LASF72
 1515 0460 24       		.byte	0x24
 1516 0461 0C       		.byte	0xc
 1517 0462 45       		.byte	0x45
 1518 0463 C8040000 		.4byte	0x4c8
 1519 0467 06       		.uleb128 0x6
 1520 0468 8E000000 		.4byte	.LASF73
 1521 046c 0C       		.byte	0xc
 1522 046d 46       		.byte	0x46
 1523 046e 73020000 		.4byte	0x273
 1524 0472 00       		.byte	0
 1525 0473 06       		.uleb128 0x6
 1526 0474 03030000 		.4byte	.LASF74
 1527 0478 0C       		.byte	0xc
 1528 0479 47       		.byte	0x47
 1529 047a 2C000000 		.4byte	0x2c
ARM GAS  /tmp/ccwSpLeL.s 			page 28


 1530 047e 08       		.byte	0x8
 1531 047f 06       		.uleb128 0x6
 1532 0480 1E010000 		.4byte	.LASF75
 1533 0484 0C       		.byte	0xc
 1534 0485 48       		.byte	0x48
 1535 0486 EA040000 		.4byte	0x4ea
 1536 048a 0C       		.byte	0xc
 1537 048b 06       		.uleb128 0x6
 1538 048c 97040000 		.4byte	.LASF76
 1539 0490 0C       		.byte	0xc
 1540 0491 49       		.byte	0x49
 1541 0492 EA040000 		.4byte	0x4ea
 1542 0496 10       		.byte	0x10
 1543 0497 06       		.uleb128 0x6
 1544 0498 27010000 		.4byte	.LASF77
 1545 049c 0C       		.byte	0xc
 1546 049d 4B       		.byte	0x4b
 1547 049e EA040000 		.4byte	0x4ea
 1548 04a2 14       		.byte	0x14
 1549 04a3 06       		.uleb128 0x6
 1550 04a4 A1030000 		.4byte	.LASF78
 1551 04a8 0C       		.byte	0xc
 1552 04a9 4C       		.byte	0x4c
 1553 04aa EA040000 		.4byte	0x4ea
 1554 04ae 18       		.byte	0x18
 1555 04af 06       		.uleb128 0x6
 1556 04b0 AE040000 		.4byte	.LASF79
 1557 04b4 0C       		.byte	0xc
 1558 04b5 4D       		.byte	0x4d
 1559 04b6 C8040000 		.4byte	0x4c8
 1560 04ba 1C       		.byte	0x1c
 1561 04bb 06       		.uleb128 0x6
 1562 04bc F3040000 		.4byte	.LASF80
 1563 04c0 0C       		.byte	0xc
 1564 04c1 4E       		.byte	0x4e
 1565 04c2 A9020000 		.4byte	0x2a9
 1566 04c6 20       		.byte	0x20
 1567 04c7 00       		.byte	0
 1568 04c8 03       		.uleb128 0x3
 1569 04c9 88030000 		.4byte	.LASF81
 1570 04cd 0C       		.byte	0xc
 1571 04ce 3A       		.byte	0x3a
 1572 04cf D3040000 		.4byte	0x4d3
 1573 04d3 09       		.uleb128 0x9
 1574 04d4 04       		.byte	0x4
 1575 04d5 D9040000 		.4byte	0x4d9
 1576 04d9 11       		.uleb128 0x11
 1577 04da E4040000 		.4byte	0x4e4
 1578 04de 12       		.uleb128 0x12
 1579 04df E4040000 		.4byte	0x4e4
 1580 04e3 00       		.byte	0
 1581 04e4 09       		.uleb128 0x9
 1582 04e5 04       		.byte	0x4
 1583 04e6 50040000 		.4byte	0x450
 1584 04ea 09       		.uleb128 0x9
 1585 04eb 04       		.byte	0x4
 1586 04ec A2000000 		.4byte	0xa2
ARM GAS  /tmp/ccwSpLeL.s 			page 29


 1587 04f0 03       		.uleb128 0x3
 1588 04f1 C5040000 		.4byte	.LASF82
 1589 04f5 0C       		.byte	0xc
 1590 04f6 82       		.byte	0x82
 1591 04f7 50040000 		.4byte	0x450
 1592 04fb 03       		.uleb128 0x3
 1593 04fc 41000000 		.4byte	.LASF83
 1594 0500 0C       		.byte	0xc
 1595 0501 F5       		.byte	0xf5
 1596 0502 50040000 		.4byte	0x450
 1597 0506 09       		.uleb128 0x9
 1598 0507 04       		.byte	0x4
 1599 0508 0C050000 		.4byte	0x50c
 1600 050c 10       		.uleb128 0x10
 1601 050d A2000000 		.4byte	0xa2
 1602 0511 13       		.uleb128 0x13
 1603 0512 0F000000 		.4byte	.LASF107
 1604 0516 02       		.byte	0x2
 1605 0517 34       		.byte	0x34
 1606 0518 03       		.byte	0x3
 1607 0519 33050000 		.4byte	0x533
 1608 051d 14       		.uleb128 0x14
 1609 051e 747000   		.ascii	"tp\000"
 1610 0521 02       		.byte	0x2
 1611 0522 34       		.byte	0x34
 1612 0523 6D020000 		.4byte	0x26d
 1613 0527 14       		.uleb128 0x14
 1614 0528 74717000 		.ascii	"tqp\000"
 1615 052c 02       		.byte	0x2
 1616 052d 34       		.byte	0x34
 1617 052e 33050000 		.4byte	0x533
 1618 0532 00       		.byte	0
 1619 0533 09       		.uleb128 0x9
 1620 0534 04       		.byte	0x4
 1621 0535 73020000 		.4byte	0x273
 1622 0539 15       		.uleb128 0x15
 1623 053a 41040000 		.4byte	.LASF108
 1624 053e 02       		.byte	0x2
 1625 053f 3B       		.byte	0x3b
 1626 0540 6D020000 		.4byte	0x26d
 1627 0544 03       		.byte	0x3
 1628 0545 5F050000 		.4byte	0x55f
 1629 0549 14       		.uleb128 0x14
 1630 054a 74717000 		.ascii	"tqp\000"
 1631 054e 02       		.byte	0x2
 1632 054f 3B       		.byte	0x3b
 1633 0550 33050000 		.4byte	0x533
 1634 0554 16       		.uleb128 0x16
 1635 0555 747000   		.ascii	"tp\000"
 1636 0558 02       		.byte	0x2
 1637 0559 3C       		.byte	0x3c
 1638 055a 6D020000 		.4byte	0x26d
 1639 055e 00       		.byte	0
 1640 055f 17       		.uleb128 0x17
 1641 0560 FD000000 		.4byte	.LASF109
 1642 0564 01       		.byte	0x1
 1643 0565 46       		.byte	0x46
ARM GAS  /tmp/ccwSpLeL.s 			page 30


 1644 0566 17010000 		.4byte	0x117
 1645 056a 00000000 		.4byte	.LFB7
 1646 056e 28000000 		.4byte	.LFE7-.LFB7
 1647 0572 01       		.uleb128 0x1
 1648 0573 9C       		.byte	0x9c
 1649 0574 D2050000 		.4byte	0x5d2
 1650 0578 18       		.uleb128 0x18
 1651 0579 717000   		.ascii	"qp\000"
 1652 057c 01       		.byte	0x1
 1653 057d 46       		.byte	0x46
 1654 057e E4040000 		.4byte	0x4e4
 1655 0582 00000000 		.4byte	.LLST0
 1656 0586 19       		.uleb128 0x19
 1657 0587 37030000 		.4byte	.LASF84
 1658 058b 01       		.byte	0x1
 1659 058c 46       		.byte	0x46
 1660 058d 2D010000 		.4byte	0x12d
 1661 0591 3A000000 		.4byte	.LLST1
 1662 0595 1A       		.uleb128 0x1a
 1663 0596 11050000 		.4byte	0x511
 1664 059a 0A000000 		.4byte	.LBB12
 1665 059e 0A000000 		.4byte	.LBE12-.LBB12
 1666 05a2 01       		.byte	0x1
 1667 05a3 4B       		.byte	0x4b
 1668 05a4 BB050000 		.4byte	0x5bb
 1669 05a8 1B       		.uleb128 0x1b
 1670 05a9 27050000 		.4byte	0x527
 1671 05ad 66000000 		.4byte	.LLST2
 1672 05b1 1B       		.uleb128 0x1b
 1673 05b2 1D050000 		.4byte	0x51d
 1674 05b6 87000000 		.4byte	.LLST3
 1675 05ba 00       		.byte	0
 1676 05bb 1C       		.uleb128 0x1c
 1677 05bc 1A000000 		.4byte	.LVL3
 1678 05c0 BA0C0000 		.4byte	0xcba
 1679 05c4 1D       		.uleb128 0x1d
 1680 05c5 01       		.uleb128 0x1
 1681 05c6 51       		.byte	0x51
 1682 05c7 03       		.uleb128 0x3
 1683 05c8 F3       		.byte	0xf3
 1684 05c9 01       		.uleb128 0x1
 1685 05ca 51       		.byte	0x51
 1686 05cb 1D       		.uleb128 0x1d
 1687 05cc 01       		.uleb128 0x1
 1688 05cd 50       		.byte	0x50
 1689 05ce 01       		.uleb128 0x1
 1690 05cf 3D       		.byte	0x3d
 1691 05d0 00       		.byte	0
 1692 05d1 00       		.byte	0
 1693 05d2 1E       		.uleb128 0x1e
 1694 05d3 2F000000 		.4byte	.LASF88
 1695 05d7 01       		.byte	0x1
 1696 05d8 5F       		.byte	0x5f
 1697 05d9 00000000 		.4byte	.LFB8
 1698 05dd 20000000 		.4byte	.LFE8-.LFB8
 1699 05e1 01       		.uleb128 0x1
 1700 05e2 9C       		.byte	0x9c
ARM GAS  /tmp/ccwSpLeL.s 			page 31


 1701 05e3 2E060000 		.4byte	0x62e
 1702 05e7 1F       		.uleb128 0x1f
 1703 05e8 69717000 		.ascii	"iqp\000"
 1704 05ec 01       		.byte	0x1
 1705 05ed 5F       		.byte	0x5f
 1706 05ee 2E060000 		.4byte	0x62e
 1707 05f2 01       		.uleb128 0x1
 1708 05f3 50       		.byte	0x50
 1709 05f4 1F       		.uleb128 0x1f
 1710 05f5 627000   		.ascii	"bp\000"
 1711 05f8 01       		.byte	0x1
 1712 05f9 5F       		.byte	0x5f
 1713 05fa EA040000 		.4byte	0x4ea
 1714 05fe 01       		.uleb128 0x1
 1715 05ff 51       		.byte	0x51
 1716 0600 19       		.uleb128 0x19
 1717 0601 A5010000 		.4byte	.LASF85
 1718 0605 01       		.byte	0x1
 1719 0606 5F       		.byte	0x5f
 1720 0607 2C000000 		.4byte	0x2c
 1721 060b 9A000000 		.4byte	.LLST4
 1722 060f 19       		.uleb128 0x19
 1723 0610 00040000 		.4byte	.LASF86
 1724 0614 01       		.byte	0x1
 1725 0615 5F       		.byte	0x5f
 1726 0616 C8040000 		.4byte	0x4c8
 1727 061a BB000000 		.4byte	.LLST5
 1728 061e 19       		.uleb128 0x19
 1729 061f 4B010000 		.4byte	.LASF87
 1730 0623 01       		.byte	0x1
 1731 0624 60       		.byte	0x60
 1732 0625 A9020000 		.4byte	0x2a9
 1733 0629 DA000000 		.4byte	.LLST6
 1734 062d 00       		.byte	0
 1735 062e 09       		.uleb128 0x9
 1736 062f 04       		.byte	0x4
 1737 0630 F0040000 		.4byte	0x4f0
 1738 0634 1E       		.uleb128 0x1e
 1739 0635 80010000 		.4byte	.LASF89
 1740 0639 01       		.byte	0x1
 1741 063a 75       		.byte	0x75
 1742 063b 00000000 		.4byte	.LFB9
 1743 063f 2C000000 		.4byte	.LFE9-.LFB9
 1744 0643 01       		.uleb128 0x1
 1745 0644 9C       		.byte	0x9c
 1746 0645 9B060000 		.4byte	0x69b
 1747 0649 18       		.uleb128 0x18
 1748 064a 69717000 		.ascii	"iqp\000"
 1749 064e 01       		.byte	0x1
 1750 064f 75       		.byte	0x75
 1751 0650 2E060000 		.4byte	0x62e
 1752 0654 FA000000 		.4byte	.LLST7
 1753 0658 1A       		.uleb128 0x1a
 1754 0659 39050000 		.4byte	0x539
 1755 065d 14000000 		.4byte	.LBB14
 1756 0661 06000000 		.4byte	.LBE14-.LBB14
 1757 0665 01       		.byte	0x1
ARM GAS  /tmp/ccwSpLeL.s 			page 32


 1758 0666 7C       		.byte	0x7c
 1759 0667 88060000 		.4byte	0x688
 1760 066b 1B       		.uleb128 0x1b
 1761 066c 49050000 		.4byte	0x549
 1762 0670 18010000 		.4byte	.LLST8
 1763 0674 20       		.uleb128 0x20
 1764 0675 14000000 		.4byte	.LBB15
 1765 0679 06000000 		.4byte	.LBE15-.LBB15
 1766 067d 21       		.uleb128 0x21
 1767 067e 54050000 		.4byte	0x554
 1768 0682 2B010000 		.4byte	.LLST9
 1769 0686 00       		.byte	0
 1770 0687 00       		.byte	0
 1771 0688 22       		.uleb128 0x22
 1772 0689 08000000 		.4byte	.LVL11
 1773 068d D40C0000 		.4byte	0xcd4
 1774 0691 22       		.uleb128 0x22
 1775 0692 1E000000 		.4byte	.LVL13
 1776 0696 DB0C0000 		.4byte	0xcdb
 1777 069a 00       		.byte	0
 1778 069b 23       		.uleb128 0x23
 1779 069c 5F010000 		.4byte	.LASF90
 1780 06a0 01       		.byte	0x1
 1781 06a1 8C       		.byte	0x8c
 1782 06a2 17010000 		.4byte	0x117
 1783 06a6 00000000 		.4byte	.LFB10
 1784 06aa 5A000000 		.4byte	.LFE10-.LFB10
 1785 06ae 01       		.uleb128 0x1
 1786 06af 9C       		.byte	0x9c
 1787 06b0 13070000 		.4byte	0x713
 1788 06b4 18       		.uleb128 0x18
 1789 06b5 69717000 		.ascii	"iqp\000"
 1790 06b9 01       		.byte	0x1
 1791 06ba 8C       		.byte	0x8c
 1792 06bb 2E060000 		.4byte	0x62e
 1793 06bf 3E010000 		.4byte	.LLST10
 1794 06c3 18       		.uleb128 0x18
 1795 06c4 6200     		.ascii	"b\000"
 1796 06c6 01       		.byte	0x1
 1797 06c7 8C       		.byte	0x8c
 1798 06c8 A2000000 		.4byte	0xa2
 1799 06cc 5C010000 		.4byte	.LLST11
 1800 06d0 1A       		.uleb128 0x1a
 1801 06d1 39050000 		.4byte	0x539
 1802 06d5 3E000000 		.4byte	.LBB16
 1803 06d9 06000000 		.4byte	.LBE16-.LBB16
 1804 06dd 01       		.byte	0x1
 1805 06de 99       		.byte	0x99
 1806 06df 00070000 		.4byte	0x700
 1807 06e3 1B       		.uleb128 0x1b
 1808 06e4 49050000 		.4byte	0x549
 1809 06e8 7D010000 		.4byte	.LLST12
 1810 06ec 20       		.uleb128 0x20
 1811 06ed 3E000000 		.4byte	.LBB17
 1812 06f1 06000000 		.4byte	.LBE17-.LBB17
 1813 06f5 21       		.uleb128 0x21
 1814 06f6 54050000 		.4byte	0x554
ARM GAS  /tmp/ccwSpLeL.s 			page 33


 1815 06fa 90010000 		.4byte	.LLST13
 1816 06fe 00       		.byte	0
 1817 06ff 00       		.byte	0
 1818 0700 22       		.uleb128 0x22
 1819 0701 0A000000 		.4byte	.LVL16
 1820 0705 D40C0000 		.4byte	0xcd4
 1821 0709 22       		.uleb128 0x22
 1822 070a 48000000 		.4byte	.LVL18
 1823 070e DB0C0000 		.4byte	0xcdb
 1824 0712 00       		.byte	0
 1825 0713 23       		.uleb128 0x23
 1826 0714 12050000 		.4byte	.LASF91
 1827 0718 01       		.byte	0x1
 1828 0719 B2       		.byte	0xb2
 1829 071a 17010000 		.4byte	0x117
 1830 071e 00000000 		.4byte	.LFB11
 1831 0722 5E000000 		.4byte	.LFE11-.LFB11
 1832 0726 01       		.uleb128 0x1
 1833 0727 9C       		.byte	0x9c
 1834 0728 09080000 		.4byte	0x809
 1835 072c 18       		.uleb128 0x18
 1836 072d 69717000 		.ascii	"iqp\000"
 1837 0731 01       		.byte	0x1
 1838 0732 B2       		.byte	0xb2
 1839 0733 2E060000 		.4byte	0x62e
 1840 0737 A3010000 		.4byte	.LLST14
 1841 073b 19       		.uleb128 0x19
 1842 073c 37030000 		.4byte	.LASF84
 1843 0740 01       		.byte	0x1
 1844 0741 B2       		.byte	0xb2
 1845 0742 2D010000 		.4byte	0x12d
 1846 0746 C1010000 		.4byte	.LLST15
 1847 074a 24       		.uleb128 0x24
 1848 074b 6200     		.ascii	"b\000"
 1849 074d 01       		.byte	0x1
 1850 074e B3       		.byte	0xb3
 1851 074f A2000000 		.4byte	0xa2
 1852 0753 01       		.uleb128 0x1
 1853 0754 55       		.byte	0x55
 1854 0755 25       		.uleb128 0x25
 1855 0756 06000000 		.4byte	.LBB18
 1856 075a 06000000 		.4byte	.LBE18-.LBB18
 1857 075e 70070000 		.4byte	0x770
 1858 0762 24       		.uleb128 0x24
 1859 0763 746D7000 		.ascii	"tmp\000"
 1860 0767 01       		.byte	0x1
 1861 0768 B5       		.byte	0xb5
 1862 0769 B8000000 		.4byte	0xb8
 1863 076d 01       		.uleb128 0x1
 1864 076e 53       		.byte	0x53
 1865 076f 00       		.byte	0
 1866 0770 25       		.uleb128 0x25
 1867 0771 1A000000 		.4byte	.LBB19
 1868 0775 1A000000 		.4byte	.LBE19-.LBB19
 1869 0779 CB070000 		.4byte	0x7cb
 1870 077d 26       		.uleb128 0x26
 1871 077e 6D736700 		.ascii	"msg\000"
ARM GAS  /tmp/ccwSpLeL.s 			page 34


 1872 0782 01       		.byte	0x1
 1873 0783 BA       		.byte	0xba
 1874 0784 17010000 		.4byte	0x117
 1875 0788 DF010000 		.4byte	.LLST16
 1876 078c 25       		.uleb128 0x25
 1877 078d 2A000000 		.4byte	.LBB20
 1878 0791 06000000 		.4byte	.LBE20-.LBB20
 1879 0795 A7070000 		.4byte	0x7a7
 1880 0799 24       		.uleb128 0x24
 1881 079a 746D7000 		.ascii	"tmp\000"
 1882 079e 01       		.byte	0x1
 1883 079f BC       		.byte	0xbc
 1884 07a0 B8000000 		.4byte	0xb8
 1885 07a4 01       		.uleb128 0x1
 1886 07a5 53       		.byte	0x53
 1887 07a6 00       		.byte	0
 1888 07a7 27       		.uleb128 0x27
 1889 07a8 22000000 		.4byte	.LVL24
 1890 07ac 5F050000 		.4byte	0x55f
 1891 07b0 C1070000 		.4byte	0x7c1
 1892 07b4 1D       		.uleb128 0x1d
 1893 07b5 01       		.uleb128 0x1
 1894 07b6 51       		.byte	0x51
 1895 07b7 02       		.uleb128 0x2
 1896 07b8 76       		.byte	0x76
 1897 07b9 00       		.sleb128 0
 1898 07ba 1D       		.uleb128 0x1d
 1899 07bb 01       		.uleb128 0x1
 1900 07bc 50       		.byte	0x50
 1901 07bd 02       		.uleb128 0x2
 1902 07be 74       		.byte	0x74
 1903 07bf 00       		.sleb128 0
 1904 07c0 00       		.byte	0
 1905 07c1 22       		.uleb128 0x22
 1906 07c2 2A000000 		.4byte	.LVL25
 1907 07c6 F00C0000 		.4byte	0xcf0
 1908 07ca 00       		.byte	0
 1909 07cb 25       		.uleb128 0x25
 1910 07cc 54000000 		.4byte	.LBB21
 1911 07d0 06000000 		.4byte	.LBE21-.LBB21
 1912 07d4 E6070000 		.4byte	0x7e6
 1913 07d8 24       		.uleb128 0x24
 1914 07d9 746D7000 		.ascii	"tmp\000"
 1915 07dd 01       		.byte	0x1
 1916 07de C6       		.byte	0xc6
 1917 07df B8000000 		.4byte	0xb8
 1918 07e3 01       		.uleb128 0x1
 1919 07e4 53       		.byte	0x53
 1920 07e5 00       		.byte	0
 1921 07e6 22       		.uleb128 0x22
 1922 07e7 10000000 		.4byte	.LVL22
 1923 07eb F70C0000 		.4byte	0xcf7
 1924 07ef 28       		.uleb128 0x28
 1925 07f0 18000000 		.4byte	.LVL23
 1926 07f4 FF070000 		.4byte	0x7ff
 1927 07f8 1D       		.uleb128 0x1d
 1928 07f9 01       		.uleb128 0x1
ARM GAS  /tmp/ccwSpLeL.s 			page 35


 1929 07fa 50       		.byte	0x50
 1930 07fb 02       		.uleb128 0x2
 1931 07fc 74       		.byte	0x74
 1932 07fd 00       		.sleb128 0
 1933 07fe 00       		.byte	0
 1934 07ff 22       		.uleb128 0x22
 1935 0800 54000000 		.4byte	.LVL28
 1936 0804 F00C0000 		.4byte	0xcf0
 1937 0808 00       		.byte	0
 1938 0809 23       		.uleb128 0x23
 1939 080a 57000000 		.4byte	.LASF92
 1940 080e 01       		.byte	0x1
 1941 080f E2       		.byte	0xe2
 1942 0810 2C000000 		.4byte	0x2c
 1943 0814 00000000 		.4byte	.LFB12
 1944 0818 88000000 		.4byte	.LFE12-.LFB12
 1945 081c 01       		.uleb128 0x1
 1946 081d 9C       		.byte	0x9c
 1947 081e 30090000 		.4byte	0x930
 1948 0822 18       		.uleb128 0x18
 1949 0823 69717000 		.ascii	"iqp\000"
 1950 0827 01       		.byte	0x1
 1951 0828 E2       		.byte	0xe2
 1952 0829 2E060000 		.4byte	0x62e
 1953 082d FD010000 		.4byte	.LLST17
 1954 0831 18       		.uleb128 0x18
 1955 0832 627000   		.ascii	"bp\000"
 1956 0835 01       		.byte	0x1
 1957 0836 E2       		.byte	0xe2
 1958 0837 EA040000 		.4byte	0x4ea
 1959 083b 1B020000 		.4byte	.LLST18
 1960 083f 18       		.uleb128 0x18
 1961 0840 6E00     		.ascii	"n\000"
 1962 0842 01       		.byte	0x1
 1963 0843 E3       		.byte	0xe3
 1964 0844 2C000000 		.4byte	0x2c
 1965 0848 44020000 		.4byte	.LLST19
 1966 084c 19       		.uleb128 0x19
 1967 084d 37030000 		.4byte	.LASF84
 1968 0851 01       		.byte	0x1
 1969 0852 E3       		.byte	0xe3
 1970 0853 2D010000 		.4byte	0x12d
 1971 0857 7A020000 		.4byte	.LLST20
 1972 085b 24       		.uleb128 0x24
 1973 085c 6E667900 		.ascii	"nfy\000"
 1974 0860 01       		.byte	0x1
 1975 0861 E4       		.byte	0xe4
 1976 0862 C8040000 		.4byte	0x4c8
 1977 0866 01       		.uleb128 0x1
 1978 0867 57       		.byte	0x57
 1979 0868 26       		.uleb128 0x26
 1980 0869 7200     		.ascii	"r\000"
 1981 086b 01       		.byte	0x1
 1982 086c E5       		.byte	0xe5
 1983 086d 2C000000 		.4byte	0x2c
 1984 0871 98020000 		.4byte	.LLST21
 1985 0875 25       		.uleb128 0x25
ARM GAS  /tmp/ccwSpLeL.s 			page 36


 1986 0876 0E000000 		.4byte	.LBB22
 1987 087a 06000000 		.4byte	.LBE22-.LBB22
 1988 087e 90080000 		.4byte	0x890
 1989 0882 24       		.uleb128 0x24
 1990 0883 746D7000 		.ascii	"tmp\000"
 1991 0887 01       		.byte	0x1
 1992 0888 E9       		.byte	0xe9
 1993 0889 B8000000 		.4byte	0xb8
 1994 088d 01       		.uleb128 0x1
 1995 088e 53       		.byte	0x53
 1996 088f 00       		.byte	0
 1997 0890 25       		.uleb128 0x25
 1998 0891 32000000 		.4byte	.LBB23
 1999 0895 06000000 		.4byte	.LBE23-.LBB23
 2000 0899 AB080000 		.4byte	0x8ab
 2001 089d 24       		.uleb128 0x24
 2002 089e 746D7000 		.ascii	"tmp\000"
 2003 08a2 01       		.byte	0x1
 2004 08a3 F0       		.byte	0xf0
 2005 08a4 B8000000 		.4byte	0xb8
 2006 08a8 01       		.uleb128 0x1
 2007 08a9 53       		.byte	0x53
 2008 08aa 00       		.byte	0
 2009 08ab 25       		.uleb128 0x25
 2010 08ac 64000000 		.4byte	.LBB24
 2011 08b0 06000000 		.4byte	.LBE24-.LBB24
 2012 08b4 C6080000 		.4byte	0x8c6
 2013 08b8 24       		.uleb128 0x24
 2014 08b9 746D7000 		.ascii	"tmp\000"
 2015 08bd 01       		.byte	0x1
 2016 08be FA       		.byte	0xfa
 2017 08bf B8000000 		.4byte	0xb8
 2018 08c3 01       		.uleb128 0x1
 2019 08c4 53       		.byte	0x53
 2020 08c5 00       		.byte	0
 2021 08c6 25       		.uleb128 0x25
 2022 08c7 74000000 		.4byte	.LBB25
 2023 08cb 06000000 		.4byte	.LBE25-.LBB25
 2024 08cf E1080000 		.4byte	0x8e1
 2025 08d3 24       		.uleb128 0x24
 2026 08d4 746D7000 		.ascii	"tmp\000"
 2027 08d8 01       		.byte	0x1
 2028 08d9 FF       		.byte	0xff
 2029 08da B8000000 		.4byte	0xb8
 2030 08de 01       		.uleb128 0x1
 2031 08df 53       		.byte	0x53
 2032 08e0 00       		.byte	0
 2033 08e1 22       		.uleb128 0x22
 2034 08e2 18000000 		.4byte	.LVL32
 2035 08e6 F70C0000 		.4byte	0xcf7
 2036 08ea 28       		.uleb128 0x28
 2037 08eb 22000000 		.4byte	.LVL34
 2038 08ef FA080000 		.4byte	0x8fa
 2039 08f3 1D       		.uleb128 0x1d
 2040 08f4 01       		.uleb128 0x1
 2041 08f5 50       		.byte	0x50
 2042 08f6 02       		.uleb128 0x2
ARM GAS  /tmp/ccwSpLeL.s 			page 37


 2043 08f7 74       		.byte	0x74
 2044 08f8 00       		.sleb128 0
 2045 08f9 00       		.byte	0
 2046 08fa 27       		.uleb128 0x27
 2047 08fb 2C000000 		.4byte	.LVL35
 2048 08ff 5F050000 		.4byte	0x55f
 2049 0903 14090000 		.4byte	0x914
 2050 0907 1D       		.uleb128 0x1d
 2051 0908 01       		.uleb128 0x1
 2052 0909 51       		.byte	0x51
 2053 090a 02       		.uleb128 0x2
 2054 090b 76       		.byte	0x76
 2055 090c 00       		.sleb128 0
 2056 090d 1D       		.uleb128 0x1d
 2057 090e 01       		.uleb128 0x1
 2058 090f 50       		.byte	0x50
 2059 0910 02       		.uleb128 0x2
 2060 0911 74       		.byte	0x74
 2061 0912 00       		.sleb128 0
 2062 0913 00       		.byte	0
 2063 0914 22       		.uleb128 0x22
 2064 0915 32000000 		.4byte	.LVL36
 2065 0919 F00C0000 		.4byte	0xcf0
 2066 091d 22       		.uleb128 0x22
 2067 091e 64000000 		.4byte	.LVL38
 2068 0922 F00C0000 		.4byte	0xcf0
 2069 0926 22       		.uleb128 0x22
 2070 0927 7E000000 		.4byte	.LVL41
 2071 092b F70C0000 		.4byte	0xcf7
 2072 092f 00       		.byte	0
 2073 0930 29       		.uleb128 0x29
 2074 0931 00000000 		.4byte	.LASF93
 2075 0935 01       		.byte	0x1
 2076 0936 1301     		.2byte	0x113
 2077 0938 00000000 		.4byte	.LFB13
 2078 093c 18000000 		.4byte	.LFE13-.LFB13
 2079 0940 01       		.uleb128 0x1
 2080 0941 9C       		.byte	0x9c
 2081 0942 91090000 		.4byte	0x991
 2082 0946 2A       		.uleb128 0x2a
 2083 0947 6F717000 		.ascii	"oqp\000"
 2084 094b 01       		.byte	0x1
 2085 094c 1301     		.2byte	0x113
 2086 094e 91090000 		.4byte	0x991
 2087 0952 01       		.uleb128 0x1
 2088 0953 50       		.byte	0x50
 2089 0954 2A       		.uleb128 0x2a
 2090 0955 627000   		.ascii	"bp\000"
 2091 0958 01       		.byte	0x1
 2092 0959 1301     		.2byte	0x113
 2093 095b EA040000 		.4byte	0x4ea
 2094 095f 01       		.uleb128 0x1
 2095 0960 51       		.byte	0x51
 2096 0961 2B       		.uleb128 0x2b
 2097 0962 A5010000 		.4byte	.LASF85
 2098 0966 01       		.byte	0x1
 2099 0967 1301     		.2byte	0x113
ARM GAS  /tmp/ccwSpLeL.s 			page 38


 2100 0969 2C000000 		.4byte	0x2c
 2101 096d B7020000 		.4byte	.LLST22
 2102 0971 2B       		.uleb128 0x2b
 2103 0972 1C000000 		.4byte	.LASF94
 2104 0976 01       		.byte	0x1
 2105 0977 1301     		.2byte	0x113
 2106 0979 C8040000 		.4byte	0x4c8
 2107 097d D6020000 		.4byte	.LLST23
 2108 0981 2C       		.uleb128 0x2c
 2109 0982 4B010000 		.4byte	.LASF87
 2110 0986 01       		.byte	0x1
 2111 0987 1401     		.2byte	0x114
 2112 0989 A9020000 		.4byte	0x2a9
 2113 098d 02       		.uleb128 0x2
 2114 098e 91       		.byte	0x91
 2115 098f 00       		.sleb128 0
 2116 0990 00       		.byte	0
 2117 0991 09       		.uleb128 0x9
 2118 0992 04       		.byte	0x4
 2119 0993 FB040000 		.4byte	0x4fb
 2120 0997 29       		.uleb128 0x29
 2121 0998 73040000 		.4byte	.LASF95
 2122 099c 01       		.byte	0x1
 2123 099d 2901     		.2byte	0x129
 2124 099f 00000000 		.4byte	.LFB14
 2125 09a3 2E000000 		.4byte	.LFE14-.LFB14
 2126 09a7 01       		.uleb128 0x1
 2127 09a8 9C       		.byte	0x9c
 2128 09a9 010A0000 		.4byte	0xa01
 2129 09ad 2D       		.uleb128 0x2d
 2130 09ae 6F717000 		.ascii	"oqp\000"
 2131 09b2 01       		.byte	0x1
 2132 09b3 2901     		.2byte	0x129
 2133 09b5 91090000 		.4byte	0x991
 2134 09b9 F5020000 		.4byte	.LLST24
 2135 09bd 2E       		.uleb128 0x2e
 2136 09be 39050000 		.4byte	0x539
 2137 09c2 16000000 		.4byte	.LBB26
 2138 09c6 06000000 		.4byte	.LBE26-.LBB26
 2139 09ca 01       		.byte	0x1
 2140 09cb 3001     		.2byte	0x130
 2141 09cd EE090000 		.4byte	0x9ee
 2142 09d1 1B       		.uleb128 0x1b
 2143 09d2 49050000 		.4byte	0x549
 2144 09d6 13030000 		.4byte	.LLST25
 2145 09da 20       		.uleb128 0x20
 2146 09db 16000000 		.4byte	.LBB27
 2147 09df 06000000 		.4byte	.LBE27-.LBB27
 2148 09e3 21       		.uleb128 0x21
 2149 09e4 54050000 		.4byte	0x554
 2150 09e8 26030000 		.4byte	.LLST26
 2151 09ec 00       		.byte	0
 2152 09ed 00       		.byte	0
 2153 09ee 22       		.uleb128 0x22
 2154 09ef 08000000 		.4byte	.LVL47
 2155 09f3 D40C0000 		.4byte	0xcd4
 2156 09f7 22       		.uleb128 0x22
ARM GAS  /tmp/ccwSpLeL.s 			page 39


 2157 09f8 20000000 		.4byte	.LVL49
 2158 09fc DB0C0000 		.4byte	0xcdb
 2159 0a00 00       		.byte	0
 2160 0a01 2F       		.uleb128 0x2f
 2161 0a02 50010000 		.4byte	.LASF96
 2162 0a06 01       		.byte	0x1
 2163 0a07 4901     		.2byte	0x149
 2164 0a09 17010000 		.4byte	0x117
 2165 0a0d 00000000 		.4byte	.LFB15
 2166 0a11 62000000 		.4byte	.LFE15-.LFB15
 2167 0a15 01       		.uleb128 0x1
 2168 0a16 9C       		.byte	0x9c
 2169 0a17 010B0000 		.4byte	0xb01
 2170 0a1b 2D       		.uleb128 0x2d
 2171 0a1c 6F717000 		.ascii	"oqp\000"
 2172 0a20 01       		.byte	0x1
 2173 0a21 4901     		.2byte	0x149
 2174 0a23 91090000 		.4byte	0x991
 2175 0a27 39030000 		.4byte	.LLST27
 2176 0a2b 2D       		.uleb128 0x2d
 2177 0a2c 6200     		.ascii	"b\000"
 2178 0a2e 01       		.byte	0x1
 2179 0a2f 4901     		.2byte	0x149
 2180 0a31 A2000000 		.4byte	0xa2
 2181 0a35 57030000 		.4byte	.LLST28
 2182 0a39 2B       		.uleb128 0x2b
 2183 0a3a 37030000 		.4byte	.LASF84
 2184 0a3e 01       		.byte	0x1
 2185 0a3f 4901     		.2byte	0x149
 2186 0a41 2D010000 		.4byte	0x12d
 2187 0a45 78030000 		.4byte	.LLST29
 2188 0a49 25       		.uleb128 0x25
 2189 0a4a 08000000 		.4byte	.LBB28
 2190 0a4e 06000000 		.4byte	.LBE28-.LBB28
 2191 0a52 650A0000 		.4byte	0xa65
 2192 0a56 30       		.uleb128 0x30
 2193 0a57 746D7000 		.ascii	"tmp\000"
 2194 0a5b 01       		.byte	0x1
 2195 0a5c 4B01     		.2byte	0x14b
 2196 0a5e B8000000 		.4byte	0xb8
 2197 0a62 01       		.uleb128 0x1
 2198 0a63 53       		.byte	0x53
 2199 0a64 00       		.byte	0
 2200 0a65 25       		.uleb128 0x25
 2201 0a66 14000000 		.4byte	.LBB29
 2202 0a6a 1A000000 		.4byte	.LBE29-.LBB29
 2203 0a6e C20A0000 		.4byte	0xac2
 2204 0a72 31       		.uleb128 0x31
 2205 0a73 6D736700 		.ascii	"msg\000"
 2206 0a77 01       		.byte	0x1
 2207 0a78 4D01     		.2byte	0x14d
 2208 0a7a 17010000 		.4byte	0x117
 2209 0a7e 96030000 		.4byte	.LLST30
 2210 0a82 25       		.uleb128 0x25
 2211 0a83 24000000 		.4byte	.LBB30
 2212 0a87 06000000 		.4byte	.LBE30-.LBB30
 2213 0a8b 9E0A0000 		.4byte	0xa9e
ARM GAS  /tmp/ccwSpLeL.s 			page 40


 2214 0a8f 30       		.uleb128 0x30
 2215 0a90 746D7000 		.ascii	"tmp\000"
 2216 0a94 01       		.byte	0x1
 2217 0a95 5001     		.2byte	0x150
 2218 0a97 B8000000 		.4byte	0xb8
 2219 0a9b 01       		.uleb128 0x1
 2220 0a9c 53       		.byte	0x53
 2221 0a9d 00       		.byte	0
 2222 0a9e 27       		.uleb128 0x27
 2223 0a9f 1C000000 		.4byte	.LVL53
 2224 0aa3 5F050000 		.4byte	0x55f
 2225 0aa7 B80A0000 		.4byte	0xab8
 2226 0aab 1D       		.uleb128 0x1d
 2227 0aac 01       		.uleb128 0x1
 2228 0aad 51       		.byte	0x51
 2229 0aae 02       		.uleb128 0x2
 2230 0aaf 76       		.byte	0x76
 2231 0ab0 00       		.sleb128 0
 2232 0ab1 1D       		.uleb128 0x1d
 2233 0ab2 01       		.uleb128 0x1
 2234 0ab3 50       		.byte	0x50
 2235 0ab4 02       		.uleb128 0x2
 2236 0ab5 74       		.byte	0x74
 2237 0ab6 00       		.sleb128 0
 2238 0ab7 00       		.byte	0
 2239 0ab8 22       		.uleb128 0x22
 2240 0ab9 24000000 		.4byte	.LVL54
 2241 0abd F00C0000 		.4byte	0xcf0
 2242 0ac1 00       		.byte	0
 2243 0ac2 25       		.uleb128 0x25
 2244 0ac3 58000000 		.4byte	.LBB31
 2245 0ac7 06000000 		.4byte	.LBE31-.LBB31
 2246 0acb DE0A0000 		.4byte	0xade
 2247 0acf 30       		.uleb128 0x30
 2248 0ad0 746D7000 		.ascii	"tmp\000"
 2249 0ad4 01       		.byte	0x1
 2250 0ad5 5D01     		.2byte	0x15d
 2251 0ad7 B8000000 		.4byte	0xb8
 2252 0adb 01       		.uleb128 0x1
 2253 0adc 53       		.byte	0x53
 2254 0add 00       		.byte	0
 2255 0ade 22       		.uleb128 0x22
 2256 0adf 12000000 		.4byte	.LVL52
 2257 0ae3 F70C0000 		.4byte	0xcf7
 2258 0ae7 28       		.uleb128 0x28
 2259 0ae8 54000000 		.4byte	.LVL56
 2260 0aec F70A0000 		.4byte	0xaf7
 2261 0af0 1D       		.uleb128 0x1d
 2262 0af1 01       		.uleb128 0x1
 2263 0af2 50       		.byte	0x50
 2264 0af3 02       		.uleb128 0x2
 2265 0af4 74       		.byte	0x74
 2266 0af5 00       		.sleb128 0
 2267 0af6 00       		.byte	0
 2268 0af7 22       		.uleb128 0x22
 2269 0af8 58000000 		.4byte	.LVL57
 2270 0afc F00C0000 		.4byte	0xcf0
ARM GAS  /tmp/ccwSpLeL.s 			page 41


 2271 0b00 00       		.byte	0
 2272 0b01 2F       		.uleb128 0x2f
 2273 0b02 15010000 		.4byte	.LASF97
 2274 0b06 01       		.byte	0x1
 2275 0b07 6B01     		.2byte	0x16b
 2276 0b09 17010000 		.4byte	0x117
 2277 0b0d 00000000 		.4byte	.LFB16
 2278 0b11 52000000 		.4byte	.LFE16-.LFB16
 2279 0b15 01       		.uleb128 0x1
 2280 0b16 9C       		.byte	0x9c
 2281 0b17 7D0B0000 		.4byte	0xb7d
 2282 0b1b 2D       		.uleb128 0x2d
 2283 0b1c 6F717000 		.ascii	"oqp\000"
 2284 0b20 01       		.byte	0x1
 2285 0b21 6B01     		.2byte	0x16b
 2286 0b23 91090000 		.4byte	0x991
 2287 0b27 B4030000 		.4byte	.LLST31
 2288 0b2b 31       		.uleb128 0x31
 2289 0b2c 6200     		.ascii	"b\000"
 2290 0b2e 01       		.byte	0x1
 2291 0b2f 6C01     		.2byte	0x16c
 2292 0b31 A2000000 		.4byte	0xa2
 2293 0b35 D2030000 		.4byte	.LLST32
 2294 0b39 2E       		.uleb128 0x2e
 2295 0b3a 39050000 		.4byte	0x539
 2296 0b3e 3A000000 		.4byte	.LBB32
 2297 0b42 06000000 		.4byte	.LBE32-.LBB32
 2298 0b46 01       		.byte	0x1
 2299 0b47 7901     		.2byte	0x179
 2300 0b49 6A0B0000 		.4byte	0xb6a
 2301 0b4d 1B       		.uleb128 0x1b
 2302 0b4e 49050000 		.4byte	0x549
 2303 0b52 E5030000 		.4byte	.LLST33
 2304 0b56 20       		.uleb128 0x20
 2305 0b57 3A000000 		.4byte	.LBB33
 2306 0b5b 06000000 		.4byte	.LBE33-.LBB33
 2307 0b5f 21       		.uleb128 0x21
 2308 0b60 54050000 		.4byte	0x554
 2309 0b64 F8030000 		.4byte	.LLST34
 2310 0b68 00       		.byte	0
 2311 0b69 00       		.byte	0
 2312 0b6a 22       		.uleb128 0x22
 2313 0b6b 08000000 		.4byte	.LVL59
 2314 0b6f D40C0000 		.4byte	0xcd4
 2315 0b73 22       		.uleb128 0x22
 2316 0b74 44000000 		.4byte	.LVL62
 2317 0b78 DB0C0000 		.4byte	0xcdb
 2318 0b7c 00       		.byte	0
 2319 0b7d 2F       		.uleb128 0x2f
 2320 0b7e D8020000 		.4byte	.LASF98
 2321 0b82 01       		.byte	0x1
 2322 0b83 9601     		.2byte	0x196
 2323 0b85 2C000000 		.4byte	0x2c
 2324 0b89 00000000 		.4byte	.LFB17
 2325 0b8d 88000000 		.4byte	.LFE17-.LFB17
 2326 0b91 01       		.uleb128 0x1
 2327 0b92 9C       		.byte	0x9c
ARM GAS  /tmp/ccwSpLeL.s 			page 42


 2328 0b93 AF0C0000 		.4byte	0xcaf
 2329 0b97 2D       		.uleb128 0x2d
 2330 0b98 6F717000 		.ascii	"oqp\000"
 2331 0b9c 01       		.byte	0x1
 2332 0b9d 9601     		.2byte	0x196
 2333 0b9f 91090000 		.4byte	0x991
 2334 0ba3 0B040000 		.4byte	.LLST35
 2335 0ba7 2D       		.uleb128 0x2d
 2336 0ba8 627000   		.ascii	"bp\000"
 2337 0bab 01       		.byte	0x1
 2338 0bac 9601     		.2byte	0x196
 2339 0bae 06050000 		.4byte	0x506
 2340 0bb2 29040000 		.4byte	.LLST36
 2341 0bb6 2D       		.uleb128 0x2d
 2342 0bb7 6E00     		.ascii	"n\000"
 2343 0bb9 01       		.byte	0x1
 2344 0bba 9701     		.2byte	0x197
 2345 0bbc 2C000000 		.4byte	0x2c
 2346 0bc0 52040000 		.4byte	.LLST37
 2347 0bc4 2B       		.uleb128 0x2b
 2348 0bc5 37030000 		.4byte	.LASF84
 2349 0bc9 01       		.byte	0x1
 2350 0bca 9701     		.2byte	0x197
 2351 0bcc 2D010000 		.4byte	0x12d
 2352 0bd0 88040000 		.4byte	.LLST38
 2353 0bd4 30       		.uleb128 0x30
 2354 0bd5 6E667900 		.ascii	"nfy\000"
 2355 0bd9 01       		.byte	0x1
 2356 0bda 9801     		.2byte	0x198
 2357 0bdc C8040000 		.4byte	0x4c8
 2358 0be0 01       		.uleb128 0x1
 2359 0be1 59       		.byte	0x59
 2360 0be2 31       		.uleb128 0x31
 2361 0be3 7700     		.ascii	"w\000"
 2362 0be5 01       		.byte	0x1
 2363 0be6 9901     		.2byte	0x199
 2364 0be8 2C000000 		.4byte	0x2c
 2365 0bec A6040000 		.4byte	.LLST39
 2366 0bf0 25       		.uleb128 0x25
 2367 0bf1 10000000 		.4byte	.LBB34
 2368 0bf5 06000000 		.4byte	.LBE34-.LBB34
 2369 0bf9 0C0C0000 		.4byte	0xc0c
 2370 0bfd 30       		.uleb128 0x30
 2371 0bfe 746D7000 		.ascii	"tmp\000"
 2372 0c02 01       		.byte	0x1
 2373 0c03 9D01     		.2byte	0x19d
 2374 0c05 B8000000 		.4byte	0xb8
 2375 0c09 01       		.uleb128 0x1
 2376 0c0a 53       		.byte	0x53
 2377 0c0b 00       		.byte	0
 2378 0c0c 25       		.uleb128 0x25
 2379 0c0d 2E000000 		.4byte	.LBB35
 2380 0c11 06000000 		.4byte	.LBE35-.LBB35
 2381 0c15 280C0000 		.4byte	0xc28
 2382 0c19 30       		.uleb128 0x30
 2383 0c1a 746D7000 		.ascii	"tmp\000"
 2384 0c1e 01       		.byte	0x1
ARM GAS  /tmp/ccwSpLeL.s 			page 43


 2385 0c1f A101     		.2byte	0x1a1
 2386 0c21 B8000000 		.4byte	0xb8
 2387 0c25 01       		.uleb128 0x1
 2388 0c26 53       		.byte	0x53
 2389 0c27 00       		.byte	0
 2390 0c28 25       		.uleb128 0x25
 2391 0c29 66000000 		.4byte	.LBB36
 2392 0c2d 06000000 		.4byte	.LBE36-.LBB36
 2393 0c31 440C0000 		.4byte	0xc44
 2394 0c35 30       		.uleb128 0x30
 2395 0c36 746D7000 		.ascii	"tmp\000"
 2396 0c3a 01       		.byte	0x1
 2397 0c3b AD01     		.2byte	0x1ad
 2398 0c3d B8000000 		.4byte	0xb8
 2399 0c41 01       		.uleb128 0x1
 2400 0c42 53       		.byte	0x53
 2401 0c43 00       		.byte	0
 2402 0c44 25       		.uleb128 0x25
 2403 0c45 74000000 		.4byte	.LBB37
 2404 0c49 06000000 		.4byte	.LBE37-.LBB37
 2405 0c4d 600C0000 		.4byte	0xc60
 2406 0c51 30       		.uleb128 0x30
 2407 0c52 746D7000 		.ascii	"tmp\000"
 2408 0c56 01       		.byte	0x1
 2409 0c57 B101     		.2byte	0x1b1
 2410 0c59 B8000000 		.4byte	0xb8
 2411 0c5d 01       		.uleb128 0x1
 2412 0c5e 53       		.byte	0x53
 2413 0c5f 00       		.byte	0
 2414 0c60 22       		.uleb128 0x22
 2415 0c61 1A000000 		.4byte	.LVL68
 2416 0c65 F70C0000 		.4byte	0xcf7
 2417 0c69 27       		.uleb128 0x27
 2418 0c6a 28000000 		.4byte	.LVL70
 2419 0c6e 5F050000 		.4byte	0x55f
 2420 0c72 830C0000 		.4byte	0xc83
 2421 0c76 1D       		.uleb128 0x1d
 2422 0c77 01       		.uleb128 0x1
 2423 0c78 51       		.byte	0x51
 2424 0c79 02       		.uleb128 0x2
 2425 0c7a 7A       		.byte	0x7a
 2426 0c7b 00       		.sleb128 0
 2427 0c7c 1D       		.uleb128 0x1d
 2428 0c7d 01       		.uleb128 0x1
 2429 0c7e 50       		.byte	0x50
 2430 0c7f 02       		.uleb128 0x2
 2431 0c80 74       		.byte	0x74
 2432 0c81 00       		.sleb128 0
 2433 0c82 00       		.byte	0
 2434 0c83 22       		.uleb128 0x22
 2435 0c84 2E000000 		.4byte	.LVL71
 2436 0c88 F00C0000 		.4byte	0xcf0
 2437 0c8c 28       		.uleb128 0x28
 2438 0c8d 62000000 		.4byte	.LVL74
 2439 0c91 9C0C0000 		.4byte	0xc9c
 2440 0c95 1D       		.uleb128 0x1d
 2441 0c96 01       		.uleb128 0x1
ARM GAS  /tmp/ccwSpLeL.s 			page 44


 2442 0c97 50       		.byte	0x50
 2443 0c98 02       		.uleb128 0x2
 2444 0c99 74       		.byte	0x74
 2445 0c9a 00       		.sleb128 0
 2446 0c9b 00       		.byte	0
 2447 0c9c 22       		.uleb128 0x22
 2448 0c9d 66000000 		.4byte	.LVL75
 2449 0ca1 F00C0000 		.4byte	0xcf0
 2450 0ca5 22       		.uleb128 0x22
 2451 0ca6 7E000000 		.4byte	.LVL78
 2452 0caa F70C0000 		.4byte	0xcf7
 2453 0cae 00       		.byte	0
 2454 0caf 32       		.uleb128 0x32
 2455 0cb0 B7040000 		.4byte	.LASF110
 2456 0cb4 0A       		.byte	0xa
 2457 0cb5 6F       		.byte	0x6f
 2458 0cb6 B0030000 		.4byte	0x3b0
 2459 0cba 33       		.uleb128 0x33
 2460 0cbb DE040000 		.4byte	.LASF99
 2461 0cbf 0A       		.byte	0xa
 2462 0cc0 96       		.byte	0x96
 2463 0cc1 17010000 		.4byte	0x117
 2464 0cc5 D40C0000 		.4byte	0xcd4
 2465 0cc9 12       		.uleb128 0x12
 2466 0cca EB000000 		.4byte	0xeb
 2467 0cce 12       		.uleb128 0x12
 2468 0ccf 2D010000 		.4byte	0x12d
 2469 0cd3 00       		.byte	0
 2470 0cd4 34       		.uleb128 0x34
 2471 0cd5 CB010000 		.4byte	.LASF101
 2472 0cd9 0D       		.byte	0xd
 2473 0cda ED       		.byte	0xed
 2474 0cdb 33       		.uleb128 0x33
 2475 0cdc 30040000 		.4byte	.LASF100
 2476 0ce0 0A       		.byte	0xa
 2477 0ce1 90       		.byte	0x90
 2478 0ce2 6D020000 		.4byte	0x26d
 2479 0ce6 F00C0000 		.4byte	0xcf0
 2480 0cea 12       		.uleb128 0x12
 2481 0ceb 6D020000 		.4byte	0x26d
 2482 0cef 00       		.byte	0
 2483 0cf0 34       		.uleb128 0x34
 2484 0cf1 E9020000 		.4byte	.LASF102
 2485 0cf5 0D       		.byte	0xd
 2486 0cf6 E8       		.byte	0xe8
 2487 0cf7 34       		.uleb128 0x34
 2488 0cf8 0D030000 		.4byte	.LASF103
 2489 0cfc 0D       		.byte	0xd
 2490 0cfd E7       		.byte	0xe7
 2491 0cfe 00       		.byte	0
 2492              		.section	.debug_abbrev,"",%progbits
 2493              	.Ldebug_abbrev0:
 2494 0000 01       		.uleb128 0x1
 2495 0001 11       		.uleb128 0x11
 2496 0002 01       		.byte	0x1
 2497 0003 25       		.uleb128 0x25
 2498 0004 0E       		.uleb128 0xe
ARM GAS  /tmp/ccwSpLeL.s 			page 45


 2499 0005 13       		.uleb128 0x13
 2500 0006 0B       		.uleb128 0xb
 2501 0007 03       		.uleb128 0x3
 2502 0008 0E       		.uleb128 0xe
 2503 0009 1B       		.uleb128 0x1b
 2504 000a 0E       		.uleb128 0xe
 2505 000b 55       		.uleb128 0x55
 2506 000c 17       		.uleb128 0x17
 2507 000d 11       		.uleb128 0x11
 2508 000e 01       		.uleb128 0x1
 2509 000f 10       		.uleb128 0x10
 2510 0010 17       		.uleb128 0x17
 2511 0011 00       		.byte	0
 2512 0012 00       		.byte	0
 2513 0013 02       		.uleb128 0x2
 2514 0014 24       		.uleb128 0x24
 2515 0015 00       		.byte	0
 2516 0016 0B       		.uleb128 0xb
 2517 0017 0B       		.uleb128 0xb
 2518 0018 3E       		.uleb128 0x3e
 2519 0019 0B       		.uleb128 0xb
 2520 001a 03       		.uleb128 0x3
 2521 001b 08       		.uleb128 0x8
 2522 001c 00       		.byte	0
 2523 001d 00       		.byte	0
 2524 001e 03       		.uleb128 0x3
 2525 001f 16       		.uleb128 0x16
 2526 0020 00       		.byte	0
 2527 0021 03       		.uleb128 0x3
 2528 0022 0E       		.uleb128 0xe
 2529 0023 3A       		.uleb128 0x3a
 2530 0024 0B       		.uleb128 0xb
 2531 0025 3B       		.uleb128 0x3b
 2532 0026 0B       		.uleb128 0xb
 2533 0027 49       		.uleb128 0x49
 2534 0028 13       		.uleb128 0x13
 2535 0029 00       		.byte	0
 2536 002a 00       		.byte	0
 2537 002b 04       		.uleb128 0x4
 2538 002c 24       		.uleb128 0x24
 2539 002d 00       		.byte	0
 2540 002e 0B       		.uleb128 0xb
 2541 002f 0B       		.uleb128 0xb
 2542 0030 3E       		.uleb128 0x3e
 2543 0031 0B       		.uleb128 0xb
 2544 0032 03       		.uleb128 0x3
 2545 0033 0E       		.uleb128 0xe
 2546 0034 00       		.byte	0
 2547 0035 00       		.byte	0
 2548 0036 05       		.uleb128 0x5
 2549 0037 13       		.uleb128 0x13
 2550 0038 01       		.byte	0x1
 2551 0039 03       		.uleb128 0x3
 2552 003a 0E       		.uleb128 0xe
 2553 003b 0B       		.uleb128 0xb
 2554 003c 0B       		.uleb128 0xb
 2555 003d 3A       		.uleb128 0x3a
ARM GAS  /tmp/ccwSpLeL.s 			page 46


 2556 003e 0B       		.uleb128 0xb
 2557 003f 3B       		.uleb128 0x3b
 2558 0040 0B       		.uleb128 0xb
 2559 0041 01       		.uleb128 0x1
 2560 0042 13       		.uleb128 0x13
 2561 0043 00       		.byte	0
 2562 0044 00       		.byte	0
 2563 0045 06       		.uleb128 0x6
 2564 0046 0D       		.uleb128 0xd
 2565 0047 00       		.byte	0
 2566 0048 03       		.uleb128 0x3
 2567 0049 0E       		.uleb128 0xe
 2568 004a 3A       		.uleb128 0x3a
 2569 004b 0B       		.uleb128 0xb
 2570 004c 3B       		.uleb128 0x3b
 2571 004d 0B       		.uleb128 0xb
 2572 004e 49       		.uleb128 0x49
 2573 004f 13       		.uleb128 0x13
 2574 0050 38       		.uleb128 0x38
 2575 0051 0B       		.uleb128 0xb
 2576 0052 00       		.byte	0
 2577 0053 00       		.byte	0
 2578 0054 07       		.uleb128 0x7
 2579 0055 0D       		.uleb128 0xd
 2580 0056 00       		.byte	0
 2581 0057 03       		.uleb128 0x3
 2582 0058 08       		.uleb128 0x8
 2583 0059 3A       		.uleb128 0x3a
 2584 005a 0B       		.uleb128 0xb
 2585 005b 3B       		.uleb128 0x3b
 2586 005c 0B       		.uleb128 0xb
 2587 005d 49       		.uleb128 0x49
 2588 005e 13       		.uleb128 0x13
 2589 005f 38       		.uleb128 0x38
 2590 0060 0B       		.uleb128 0xb
 2591 0061 00       		.byte	0
 2592 0062 00       		.byte	0
 2593 0063 08       		.uleb128 0x8
 2594 0064 13       		.uleb128 0x13
 2595 0065 01       		.byte	0x1
 2596 0066 0B       		.uleb128 0xb
 2597 0067 0B       		.uleb128 0xb
 2598 0068 3A       		.uleb128 0x3a
 2599 0069 0B       		.uleb128 0xb
 2600 006a 3B       		.uleb128 0x3b
 2601 006b 0B       		.uleb128 0xb
 2602 006c 01       		.uleb128 0x1
 2603 006d 13       		.uleb128 0x13
 2604 006e 00       		.byte	0
 2605 006f 00       		.byte	0
 2606 0070 09       		.uleb128 0x9
 2607 0071 0F       		.uleb128 0xf
 2608 0072 00       		.byte	0
 2609 0073 0B       		.uleb128 0xb
 2610 0074 0B       		.uleb128 0xb
 2611 0075 49       		.uleb128 0x49
 2612 0076 13       		.uleb128 0x13
ARM GAS  /tmp/ccwSpLeL.s 			page 47


 2613 0077 00       		.byte	0
 2614 0078 00       		.byte	0
 2615 0079 0A       		.uleb128 0xa
 2616 007a 0F       		.uleb128 0xf
 2617 007b 00       		.byte	0
 2618 007c 0B       		.uleb128 0xb
 2619 007d 0B       		.uleb128 0xb
 2620 007e 00       		.byte	0
 2621 007f 00       		.byte	0
 2622 0080 0B       		.uleb128 0xb
 2623 0081 13       		.uleb128 0x13
 2624 0082 01       		.byte	0x1
 2625 0083 03       		.uleb128 0x3
 2626 0084 0E       		.uleb128 0xe
 2627 0085 0B       		.uleb128 0xb
 2628 0086 0B       		.uleb128 0xb
 2629 0087 3A       		.uleb128 0x3a
 2630 0088 0B       		.uleb128 0xb
 2631 0089 3B       		.uleb128 0x3b
 2632 008a 05       		.uleb128 0x5
 2633 008b 01       		.uleb128 0x1
 2634 008c 13       		.uleb128 0x13
 2635 008d 00       		.byte	0
 2636 008e 00       		.byte	0
 2637 008f 0C       		.uleb128 0xc
 2638 0090 0D       		.uleb128 0xd
 2639 0091 00       		.byte	0
 2640 0092 03       		.uleb128 0x3
 2641 0093 08       		.uleb128 0x8
 2642 0094 3A       		.uleb128 0x3a
 2643 0095 0B       		.uleb128 0xb
 2644 0096 3B       		.uleb128 0x3b
 2645 0097 05       		.uleb128 0x5
 2646 0098 49       		.uleb128 0x49
 2647 0099 13       		.uleb128 0x13
 2648 009a 38       		.uleb128 0x38
 2649 009b 0B       		.uleb128 0xb
 2650 009c 00       		.byte	0
 2651 009d 00       		.byte	0
 2652 009e 0D       		.uleb128 0xd
 2653 009f 35       		.uleb128 0x35
 2654 00a0 00       		.byte	0
 2655 00a1 49       		.uleb128 0x49
 2656 00a2 13       		.uleb128 0x13
 2657 00a3 00       		.byte	0
 2658 00a4 00       		.byte	0
 2659 00a5 0E       		.uleb128 0xe
 2660 00a6 17       		.uleb128 0x17
 2661 00a7 01       		.byte	0x1
 2662 00a8 0B       		.uleb128 0xb
 2663 00a9 0B       		.uleb128 0xb
 2664 00aa 3A       		.uleb128 0x3a
 2665 00ab 0B       		.uleb128 0xb
 2666 00ac 3B       		.uleb128 0x3b
 2667 00ad 0B       		.uleb128 0xb
 2668 00ae 01       		.uleb128 0x1
 2669 00af 13       		.uleb128 0x13
ARM GAS  /tmp/ccwSpLeL.s 			page 48


 2670 00b0 00       		.byte	0
 2671 00b1 00       		.byte	0
 2672 00b2 0F       		.uleb128 0xf
 2673 00b3 0D       		.uleb128 0xd
 2674 00b4 00       		.byte	0
 2675 00b5 03       		.uleb128 0x3
 2676 00b6 0E       		.uleb128 0xe
 2677 00b7 3A       		.uleb128 0x3a
 2678 00b8 0B       		.uleb128 0xb
 2679 00b9 3B       		.uleb128 0x3b
 2680 00ba 0B       		.uleb128 0xb
 2681 00bb 49       		.uleb128 0x49
 2682 00bc 13       		.uleb128 0x13
 2683 00bd 00       		.byte	0
 2684 00be 00       		.byte	0
 2685 00bf 10       		.uleb128 0x10
 2686 00c0 26       		.uleb128 0x26
 2687 00c1 00       		.byte	0
 2688 00c2 49       		.uleb128 0x49
 2689 00c3 13       		.uleb128 0x13
 2690 00c4 00       		.byte	0
 2691 00c5 00       		.byte	0
 2692 00c6 11       		.uleb128 0x11
 2693 00c7 15       		.uleb128 0x15
 2694 00c8 01       		.byte	0x1
 2695 00c9 27       		.uleb128 0x27
 2696 00ca 19       		.uleb128 0x19
 2697 00cb 01       		.uleb128 0x1
 2698 00cc 13       		.uleb128 0x13
 2699 00cd 00       		.byte	0
 2700 00ce 00       		.byte	0
 2701 00cf 12       		.uleb128 0x12
 2702 00d0 05       		.uleb128 0x5
 2703 00d1 00       		.byte	0
 2704 00d2 49       		.uleb128 0x49
 2705 00d3 13       		.uleb128 0x13
 2706 00d4 00       		.byte	0
 2707 00d5 00       		.byte	0
 2708 00d6 13       		.uleb128 0x13
 2709 00d7 2E       		.uleb128 0x2e
 2710 00d8 01       		.byte	0x1
 2711 00d9 03       		.uleb128 0x3
 2712 00da 0E       		.uleb128 0xe
 2713 00db 3A       		.uleb128 0x3a
 2714 00dc 0B       		.uleb128 0xb
 2715 00dd 3B       		.uleb128 0x3b
 2716 00de 0B       		.uleb128 0xb
 2717 00df 27       		.uleb128 0x27
 2718 00e0 19       		.uleb128 0x19
 2719 00e1 20       		.uleb128 0x20
 2720 00e2 0B       		.uleb128 0xb
 2721 00e3 01       		.uleb128 0x1
 2722 00e4 13       		.uleb128 0x13
 2723 00e5 00       		.byte	0
 2724 00e6 00       		.byte	0
 2725 00e7 14       		.uleb128 0x14
 2726 00e8 05       		.uleb128 0x5
ARM GAS  /tmp/ccwSpLeL.s 			page 49


 2727 00e9 00       		.byte	0
 2728 00ea 03       		.uleb128 0x3
 2729 00eb 08       		.uleb128 0x8
 2730 00ec 3A       		.uleb128 0x3a
 2731 00ed 0B       		.uleb128 0xb
 2732 00ee 3B       		.uleb128 0x3b
 2733 00ef 0B       		.uleb128 0xb
 2734 00f0 49       		.uleb128 0x49
 2735 00f1 13       		.uleb128 0x13
 2736 00f2 00       		.byte	0
 2737 00f3 00       		.byte	0
 2738 00f4 15       		.uleb128 0x15
 2739 00f5 2E       		.uleb128 0x2e
 2740 00f6 01       		.byte	0x1
 2741 00f7 03       		.uleb128 0x3
 2742 00f8 0E       		.uleb128 0xe
 2743 00f9 3A       		.uleb128 0x3a
 2744 00fa 0B       		.uleb128 0xb
 2745 00fb 3B       		.uleb128 0x3b
 2746 00fc 0B       		.uleb128 0xb
 2747 00fd 27       		.uleb128 0x27
 2748 00fe 19       		.uleb128 0x19
 2749 00ff 49       		.uleb128 0x49
 2750 0100 13       		.uleb128 0x13
 2751 0101 20       		.uleb128 0x20
 2752 0102 0B       		.uleb128 0xb
 2753 0103 01       		.uleb128 0x1
 2754 0104 13       		.uleb128 0x13
 2755 0105 00       		.byte	0
 2756 0106 00       		.byte	0
 2757 0107 16       		.uleb128 0x16
 2758 0108 34       		.uleb128 0x34
 2759 0109 00       		.byte	0
 2760 010a 03       		.uleb128 0x3
 2761 010b 08       		.uleb128 0x8
 2762 010c 3A       		.uleb128 0x3a
 2763 010d 0B       		.uleb128 0xb
 2764 010e 3B       		.uleb128 0x3b
 2765 010f 0B       		.uleb128 0xb
 2766 0110 49       		.uleb128 0x49
 2767 0111 13       		.uleb128 0x13
 2768 0112 00       		.byte	0
 2769 0113 00       		.byte	0
 2770 0114 17       		.uleb128 0x17
 2771 0115 2E       		.uleb128 0x2e
 2772 0116 01       		.byte	0x1
 2773 0117 03       		.uleb128 0x3
 2774 0118 0E       		.uleb128 0xe
 2775 0119 3A       		.uleb128 0x3a
 2776 011a 0B       		.uleb128 0xb
 2777 011b 3B       		.uleb128 0x3b
 2778 011c 0B       		.uleb128 0xb
 2779 011d 27       		.uleb128 0x27
 2780 011e 19       		.uleb128 0x19
 2781 011f 49       		.uleb128 0x49
 2782 0120 13       		.uleb128 0x13
 2783 0121 11       		.uleb128 0x11
ARM GAS  /tmp/ccwSpLeL.s 			page 50


 2784 0122 01       		.uleb128 0x1
 2785 0123 12       		.uleb128 0x12
 2786 0124 06       		.uleb128 0x6
 2787 0125 40       		.uleb128 0x40
 2788 0126 18       		.uleb128 0x18
 2789 0127 9742     		.uleb128 0x2117
 2790 0129 19       		.uleb128 0x19
 2791 012a 01       		.uleb128 0x1
 2792 012b 13       		.uleb128 0x13
 2793 012c 00       		.byte	0
 2794 012d 00       		.byte	0
 2795 012e 18       		.uleb128 0x18
 2796 012f 05       		.uleb128 0x5
 2797 0130 00       		.byte	0
 2798 0131 03       		.uleb128 0x3
 2799 0132 08       		.uleb128 0x8
 2800 0133 3A       		.uleb128 0x3a
 2801 0134 0B       		.uleb128 0xb
 2802 0135 3B       		.uleb128 0x3b
 2803 0136 0B       		.uleb128 0xb
 2804 0137 49       		.uleb128 0x49
 2805 0138 13       		.uleb128 0x13
 2806 0139 02       		.uleb128 0x2
 2807 013a 17       		.uleb128 0x17
 2808 013b 00       		.byte	0
 2809 013c 00       		.byte	0
 2810 013d 19       		.uleb128 0x19
 2811 013e 05       		.uleb128 0x5
 2812 013f 00       		.byte	0
 2813 0140 03       		.uleb128 0x3
 2814 0141 0E       		.uleb128 0xe
 2815 0142 3A       		.uleb128 0x3a
 2816 0143 0B       		.uleb128 0xb
 2817 0144 3B       		.uleb128 0x3b
 2818 0145 0B       		.uleb128 0xb
 2819 0146 49       		.uleb128 0x49
 2820 0147 13       		.uleb128 0x13
 2821 0148 02       		.uleb128 0x2
 2822 0149 17       		.uleb128 0x17
 2823 014a 00       		.byte	0
 2824 014b 00       		.byte	0
 2825 014c 1A       		.uleb128 0x1a
 2826 014d 1D       		.uleb128 0x1d
 2827 014e 01       		.byte	0x1
 2828 014f 31       		.uleb128 0x31
 2829 0150 13       		.uleb128 0x13
 2830 0151 11       		.uleb128 0x11
 2831 0152 01       		.uleb128 0x1
 2832 0153 12       		.uleb128 0x12
 2833 0154 06       		.uleb128 0x6
 2834 0155 58       		.uleb128 0x58
 2835 0156 0B       		.uleb128 0xb
 2836 0157 59       		.uleb128 0x59
 2837 0158 0B       		.uleb128 0xb
 2838 0159 01       		.uleb128 0x1
 2839 015a 13       		.uleb128 0x13
 2840 015b 00       		.byte	0
ARM GAS  /tmp/ccwSpLeL.s 			page 51


 2841 015c 00       		.byte	0
 2842 015d 1B       		.uleb128 0x1b
 2843 015e 05       		.uleb128 0x5
 2844 015f 00       		.byte	0
 2845 0160 31       		.uleb128 0x31
 2846 0161 13       		.uleb128 0x13
 2847 0162 02       		.uleb128 0x2
 2848 0163 17       		.uleb128 0x17
 2849 0164 00       		.byte	0
 2850 0165 00       		.byte	0
 2851 0166 1C       		.uleb128 0x1c
 2852 0167 898201   		.uleb128 0x4109
 2853 016a 01       		.byte	0x1
 2854 016b 11       		.uleb128 0x11
 2855 016c 01       		.uleb128 0x1
 2856 016d 31       		.uleb128 0x31
 2857 016e 13       		.uleb128 0x13
 2858 016f 00       		.byte	0
 2859 0170 00       		.byte	0
 2860 0171 1D       		.uleb128 0x1d
 2861 0172 8A8201   		.uleb128 0x410a
 2862 0175 00       		.byte	0
 2863 0176 02       		.uleb128 0x2
 2864 0177 18       		.uleb128 0x18
 2865 0178 9142     		.uleb128 0x2111
 2866 017a 18       		.uleb128 0x18
 2867 017b 00       		.byte	0
 2868 017c 00       		.byte	0
 2869 017d 1E       		.uleb128 0x1e
 2870 017e 2E       		.uleb128 0x2e
 2871 017f 01       		.byte	0x1
 2872 0180 3F       		.uleb128 0x3f
 2873 0181 19       		.uleb128 0x19
 2874 0182 03       		.uleb128 0x3
 2875 0183 0E       		.uleb128 0xe
 2876 0184 3A       		.uleb128 0x3a
 2877 0185 0B       		.uleb128 0xb
 2878 0186 3B       		.uleb128 0x3b
 2879 0187 0B       		.uleb128 0xb
 2880 0188 27       		.uleb128 0x27
 2881 0189 19       		.uleb128 0x19
 2882 018a 11       		.uleb128 0x11
 2883 018b 01       		.uleb128 0x1
 2884 018c 12       		.uleb128 0x12
 2885 018d 06       		.uleb128 0x6
 2886 018e 40       		.uleb128 0x40
 2887 018f 18       		.uleb128 0x18
 2888 0190 9742     		.uleb128 0x2117
 2889 0192 19       		.uleb128 0x19
 2890 0193 01       		.uleb128 0x1
 2891 0194 13       		.uleb128 0x13
 2892 0195 00       		.byte	0
 2893 0196 00       		.byte	0
 2894 0197 1F       		.uleb128 0x1f
 2895 0198 05       		.uleb128 0x5
 2896 0199 00       		.byte	0
 2897 019a 03       		.uleb128 0x3
ARM GAS  /tmp/ccwSpLeL.s 			page 52


 2898 019b 08       		.uleb128 0x8
 2899 019c 3A       		.uleb128 0x3a
 2900 019d 0B       		.uleb128 0xb
 2901 019e 3B       		.uleb128 0x3b
 2902 019f 0B       		.uleb128 0xb
 2903 01a0 49       		.uleb128 0x49
 2904 01a1 13       		.uleb128 0x13
 2905 01a2 02       		.uleb128 0x2
 2906 01a3 18       		.uleb128 0x18
 2907 01a4 00       		.byte	0
 2908 01a5 00       		.byte	0
 2909 01a6 20       		.uleb128 0x20
 2910 01a7 0B       		.uleb128 0xb
 2911 01a8 01       		.byte	0x1
 2912 01a9 11       		.uleb128 0x11
 2913 01aa 01       		.uleb128 0x1
 2914 01ab 12       		.uleb128 0x12
 2915 01ac 06       		.uleb128 0x6
 2916 01ad 00       		.byte	0
 2917 01ae 00       		.byte	0
 2918 01af 21       		.uleb128 0x21
 2919 01b0 34       		.uleb128 0x34
 2920 01b1 00       		.byte	0
 2921 01b2 31       		.uleb128 0x31
 2922 01b3 13       		.uleb128 0x13
 2923 01b4 02       		.uleb128 0x2
 2924 01b5 17       		.uleb128 0x17
 2925 01b6 00       		.byte	0
 2926 01b7 00       		.byte	0
 2927 01b8 22       		.uleb128 0x22
 2928 01b9 898201   		.uleb128 0x4109
 2929 01bc 00       		.byte	0
 2930 01bd 11       		.uleb128 0x11
 2931 01be 01       		.uleb128 0x1
 2932 01bf 31       		.uleb128 0x31
 2933 01c0 13       		.uleb128 0x13
 2934 01c1 00       		.byte	0
 2935 01c2 00       		.byte	0
 2936 01c3 23       		.uleb128 0x23
 2937 01c4 2E       		.uleb128 0x2e
 2938 01c5 01       		.byte	0x1
 2939 01c6 3F       		.uleb128 0x3f
 2940 01c7 19       		.uleb128 0x19
 2941 01c8 03       		.uleb128 0x3
 2942 01c9 0E       		.uleb128 0xe
 2943 01ca 3A       		.uleb128 0x3a
 2944 01cb 0B       		.uleb128 0xb
 2945 01cc 3B       		.uleb128 0x3b
 2946 01cd 0B       		.uleb128 0xb
 2947 01ce 27       		.uleb128 0x27
 2948 01cf 19       		.uleb128 0x19
 2949 01d0 49       		.uleb128 0x49
 2950 01d1 13       		.uleb128 0x13
 2951 01d2 11       		.uleb128 0x11
 2952 01d3 01       		.uleb128 0x1
 2953 01d4 12       		.uleb128 0x12
 2954 01d5 06       		.uleb128 0x6
ARM GAS  /tmp/ccwSpLeL.s 			page 53


 2955 01d6 40       		.uleb128 0x40
 2956 01d7 18       		.uleb128 0x18
 2957 01d8 9742     		.uleb128 0x2117
 2958 01da 19       		.uleb128 0x19
 2959 01db 01       		.uleb128 0x1
 2960 01dc 13       		.uleb128 0x13
 2961 01dd 00       		.byte	0
 2962 01de 00       		.byte	0
 2963 01df 24       		.uleb128 0x24
 2964 01e0 34       		.uleb128 0x34
 2965 01e1 00       		.byte	0
 2966 01e2 03       		.uleb128 0x3
 2967 01e3 08       		.uleb128 0x8
 2968 01e4 3A       		.uleb128 0x3a
 2969 01e5 0B       		.uleb128 0xb
 2970 01e6 3B       		.uleb128 0x3b
 2971 01e7 0B       		.uleb128 0xb
 2972 01e8 49       		.uleb128 0x49
 2973 01e9 13       		.uleb128 0x13
 2974 01ea 02       		.uleb128 0x2
 2975 01eb 18       		.uleb128 0x18
 2976 01ec 00       		.byte	0
 2977 01ed 00       		.byte	0
 2978 01ee 25       		.uleb128 0x25
 2979 01ef 0B       		.uleb128 0xb
 2980 01f0 01       		.byte	0x1
 2981 01f1 11       		.uleb128 0x11
 2982 01f2 01       		.uleb128 0x1
 2983 01f3 12       		.uleb128 0x12
 2984 01f4 06       		.uleb128 0x6
 2985 01f5 01       		.uleb128 0x1
 2986 01f6 13       		.uleb128 0x13
 2987 01f7 00       		.byte	0
 2988 01f8 00       		.byte	0
 2989 01f9 26       		.uleb128 0x26
 2990 01fa 34       		.uleb128 0x34
 2991 01fb 00       		.byte	0
 2992 01fc 03       		.uleb128 0x3
 2993 01fd 08       		.uleb128 0x8
 2994 01fe 3A       		.uleb128 0x3a
 2995 01ff 0B       		.uleb128 0xb
 2996 0200 3B       		.uleb128 0x3b
 2997 0201 0B       		.uleb128 0xb
 2998 0202 49       		.uleb128 0x49
 2999 0203 13       		.uleb128 0x13
 3000 0204 02       		.uleb128 0x2
 3001 0205 17       		.uleb128 0x17
 3002 0206 00       		.byte	0
 3003 0207 00       		.byte	0
 3004 0208 27       		.uleb128 0x27
 3005 0209 898201   		.uleb128 0x4109
 3006 020c 01       		.byte	0x1
 3007 020d 11       		.uleb128 0x11
 3008 020e 01       		.uleb128 0x1
 3009 020f 31       		.uleb128 0x31
 3010 0210 13       		.uleb128 0x13
 3011 0211 01       		.uleb128 0x1
ARM GAS  /tmp/ccwSpLeL.s 			page 54


 3012 0212 13       		.uleb128 0x13
 3013 0213 00       		.byte	0
 3014 0214 00       		.byte	0
 3015 0215 28       		.uleb128 0x28
 3016 0216 898201   		.uleb128 0x4109
 3017 0219 01       		.byte	0x1
 3018 021a 11       		.uleb128 0x11
 3019 021b 01       		.uleb128 0x1
 3020 021c 01       		.uleb128 0x1
 3021 021d 13       		.uleb128 0x13
 3022 021e 00       		.byte	0
 3023 021f 00       		.byte	0
 3024 0220 29       		.uleb128 0x29
 3025 0221 2E       		.uleb128 0x2e
 3026 0222 01       		.byte	0x1
 3027 0223 3F       		.uleb128 0x3f
 3028 0224 19       		.uleb128 0x19
 3029 0225 03       		.uleb128 0x3
 3030 0226 0E       		.uleb128 0xe
 3031 0227 3A       		.uleb128 0x3a
 3032 0228 0B       		.uleb128 0xb
 3033 0229 3B       		.uleb128 0x3b
 3034 022a 05       		.uleb128 0x5
 3035 022b 27       		.uleb128 0x27
 3036 022c 19       		.uleb128 0x19
 3037 022d 11       		.uleb128 0x11
 3038 022e 01       		.uleb128 0x1
 3039 022f 12       		.uleb128 0x12
 3040 0230 06       		.uleb128 0x6
 3041 0231 40       		.uleb128 0x40
 3042 0232 18       		.uleb128 0x18
 3043 0233 9742     		.uleb128 0x2117
 3044 0235 19       		.uleb128 0x19
 3045 0236 01       		.uleb128 0x1
 3046 0237 13       		.uleb128 0x13
 3047 0238 00       		.byte	0
 3048 0239 00       		.byte	0
 3049 023a 2A       		.uleb128 0x2a
 3050 023b 05       		.uleb128 0x5
 3051 023c 00       		.byte	0
 3052 023d 03       		.uleb128 0x3
 3053 023e 08       		.uleb128 0x8
 3054 023f 3A       		.uleb128 0x3a
 3055 0240 0B       		.uleb128 0xb
 3056 0241 3B       		.uleb128 0x3b
 3057 0242 05       		.uleb128 0x5
 3058 0243 49       		.uleb128 0x49
 3059 0244 13       		.uleb128 0x13
 3060 0245 02       		.uleb128 0x2
 3061 0246 18       		.uleb128 0x18
 3062 0247 00       		.byte	0
 3063 0248 00       		.byte	0
 3064 0249 2B       		.uleb128 0x2b
 3065 024a 05       		.uleb128 0x5
 3066 024b 00       		.byte	0
 3067 024c 03       		.uleb128 0x3
 3068 024d 0E       		.uleb128 0xe
ARM GAS  /tmp/ccwSpLeL.s 			page 55


 3069 024e 3A       		.uleb128 0x3a
 3070 024f 0B       		.uleb128 0xb
 3071 0250 3B       		.uleb128 0x3b
 3072 0251 05       		.uleb128 0x5
 3073 0252 49       		.uleb128 0x49
 3074 0253 13       		.uleb128 0x13
 3075 0254 02       		.uleb128 0x2
 3076 0255 17       		.uleb128 0x17
 3077 0256 00       		.byte	0
 3078 0257 00       		.byte	0
 3079 0258 2C       		.uleb128 0x2c
 3080 0259 05       		.uleb128 0x5
 3081 025a 00       		.byte	0
 3082 025b 03       		.uleb128 0x3
 3083 025c 0E       		.uleb128 0xe
 3084 025d 3A       		.uleb128 0x3a
 3085 025e 0B       		.uleb128 0xb
 3086 025f 3B       		.uleb128 0x3b
 3087 0260 05       		.uleb128 0x5
 3088 0261 49       		.uleb128 0x49
 3089 0262 13       		.uleb128 0x13
 3090 0263 02       		.uleb128 0x2
 3091 0264 18       		.uleb128 0x18
 3092 0265 00       		.byte	0
 3093 0266 00       		.byte	0
 3094 0267 2D       		.uleb128 0x2d
 3095 0268 05       		.uleb128 0x5
 3096 0269 00       		.byte	0
 3097 026a 03       		.uleb128 0x3
 3098 026b 08       		.uleb128 0x8
 3099 026c 3A       		.uleb128 0x3a
 3100 026d 0B       		.uleb128 0xb
 3101 026e 3B       		.uleb128 0x3b
 3102 026f 05       		.uleb128 0x5
 3103 0270 49       		.uleb128 0x49
 3104 0271 13       		.uleb128 0x13
 3105 0272 02       		.uleb128 0x2
 3106 0273 17       		.uleb128 0x17
 3107 0274 00       		.byte	0
 3108 0275 00       		.byte	0
 3109 0276 2E       		.uleb128 0x2e
 3110 0277 1D       		.uleb128 0x1d
 3111 0278 01       		.byte	0x1
 3112 0279 31       		.uleb128 0x31
 3113 027a 13       		.uleb128 0x13
 3114 027b 11       		.uleb128 0x11
 3115 027c 01       		.uleb128 0x1
 3116 027d 12       		.uleb128 0x12
 3117 027e 06       		.uleb128 0x6
 3118 027f 58       		.uleb128 0x58
 3119 0280 0B       		.uleb128 0xb
 3120 0281 59       		.uleb128 0x59
 3121 0282 05       		.uleb128 0x5
 3122 0283 01       		.uleb128 0x1
 3123 0284 13       		.uleb128 0x13
 3124 0285 00       		.byte	0
 3125 0286 00       		.byte	0
ARM GAS  /tmp/ccwSpLeL.s 			page 56


 3126 0287 2F       		.uleb128 0x2f
 3127 0288 2E       		.uleb128 0x2e
 3128 0289 01       		.byte	0x1
 3129 028a 3F       		.uleb128 0x3f
 3130 028b 19       		.uleb128 0x19
 3131 028c 03       		.uleb128 0x3
 3132 028d 0E       		.uleb128 0xe
 3133 028e 3A       		.uleb128 0x3a
 3134 028f 0B       		.uleb128 0xb
 3135 0290 3B       		.uleb128 0x3b
 3136 0291 05       		.uleb128 0x5
 3137 0292 27       		.uleb128 0x27
 3138 0293 19       		.uleb128 0x19
 3139 0294 49       		.uleb128 0x49
 3140 0295 13       		.uleb128 0x13
 3141 0296 11       		.uleb128 0x11
 3142 0297 01       		.uleb128 0x1
 3143 0298 12       		.uleb128 0x12
 3144 0299 06       		.uleb128 0x6
 3145 029a 40       		.uleb128 0x40
 3146 029b 18       		.uleb128 0x18
 3147 029c 9742     		.uleb128 0x2117
 3148 029e 19       		.uleb128 0x19
 3149 029f 01       		.uleb128 0x1
 3150 02a0 13       		.uleb128 0x13
 3151 02a1 00       		.byte	0
 3152 02a2 00       		.byte	0
 3153 02a3 30       		.uleb128 0x30
 3154 02a4 34       		.uleb128 0x34
 3155 02a5 00       		.byte	0
 3156 02a6 03       		.uleb128 0x3
 3157 02a7 08       		.uleb128 0x8
 3158 02a8 3A       		.uleb128 0x3a
 3159 02a9 0B       		.uleb128 0xb
 3160 02aa 3B       		.uleb128 0x3b
 3161 02ab 05       		.uleb128 0x5
 3162 02ac 49       		.uleb128 0x49
 3163 02ad 13       		.uleb128 0x13
 3164 02ae 02       		.uleb128 0x2
 3165 02af 18       		.uleb128 0x18
 3166 02b0 00       		.byte	0
 3167 02b1 00       		.byte	0
 3168 02b2 31       		.uleb128 0x31
 3169 02b3 34       		.uleb128 0x34
 3170 02b4 00       		.byte	0
 3171 02b5 03       		.uleb128 0x3
 3172 02b6 08       		.uleb128 0x8
 3173 02b7 3A       		.uleb128 0x3a
 3174 02b8 0B       		.uleb128 0xb
 3175 02b9 3B       		.uleb128 0x3b
 3176 02ba 05       		.uleb128 0x5
 3177 02bb 49       		.uleb128 0x49
 3178 02bc 13       		.uleb128 0x13
 3179 02bd 02       		.uleb128 0x2
 3180 02be 17       		.uleb128 0x17
 3181 02bf 00       		.byte	0
 3182 02c0 00       		.byte	0
ARM GAS  /tmp/ccwSpLeL.s 			page 57


 3183 02c1 32       		.uleb128 0x32
 3184 02c2 34       		.uleb128 0x34
 3185 02c3 00       		.byte	0
 3186 02c4 03       		.uleb128 0x3
 3187 02c5 0E       		.uleb128 0xe
 3188 02c6 3A       		.uleb128 0x3a
 3189 02c7 0B       		.uleb128 0xb
 3190 02c8 3B       		.uleb128 0x3b
 3191 02c9 0B       		.uleb128 0xb
 3192 02ca 49       		.uleb128 0x49
 3193 02cb 13       		.uleb128 0x13
 3194 02cc 3F       		.uleb128 0x3f
 3195 02cd 19       		.uleb128 0x19
 3196 02ce 3C       		.uleb128 0x3c
 3197 02cf 19       		.uleb128 0x19
 3198 02d0 00       		.byte	0
 3199 02d1 00       		.byte	0
 3200 02d2 33       		.uleb128 0x33
 3201 02d3 2E       		.uleb128 0x2e
 3202 02d4 01       		.byte	0x1
 3203 02d5 3F       		.uleb128 0x3f
 3204 02d6 19       		.uleb128 0x19
 3205 02d7 03       		.uleb128 0x3
 3206 02d8 0E       		.uleb128 0xe
 3207 02d9 3A       		.uleb128 0x3a
 3208 02da 0B       		.uleb128 0xb
 3209 02db 3B       		.uleb128 0x3b
 3210 02dc 0B       		.uleb128 0xb
 3211 02dd 27       		.uleb128 0x27
 3212 02de 19       		.uleb128 0x19
 3213 02df 49       		.uleb128 0x49
 3214 02e0 13       		.uleb128 0x13
 3215 02e1 3C       		.uleb128 0x3c
 3216 02e2 19       		.uleb128 0x19
 3217 02e3 01       		.uleb128 0x1
 3218 02e4 13       		.uleb128 0x13
 3219 02e5 00       		.byte	0
 3220 02e6 00       		.byte	0
 3221 02e7 34       		.uleb128 0x34
 3222 02e8 2E       		.uleb128 0x2e
 3223 02e9 00       		.byte	0
 3224 02ea 3F       		.uleb128 0x3f
 3225 02eb 19       		.uleb128 0x19
 3226 02ec 03       		.uleb128 0x3
 3227 02ed 0E       		.uleb128 0xe
 3228 02ee 3A       		.uleb128 0x3a
 3229 02ef 0B       		.uleb128 0xb
 3230 02f0 3B       		.uleb128 0x3b
 3231 02f1 0B       		.uleb128 0xb
 3232 02f2 27       		.uleb128 0x27
 3233 02f3 19       		.uleb128 0x19
 3234 02f4 3C       		.uleb128 0x3c
 3235 02f5 19       		.uleb128 0x19
 3236 02f6 00       		.byte	0
 3237 02f7 00       		.byte	0
 3238 02f8 00       		.byte	0
 3239              		.section	.debug_loc,"",%progbits
ARM GAS  /tmp/ccwSpLeL.s 			page 58


 3240              	.Ldebug_loc0:
 3241              	.LLST0:
 3242 0000 00000000 		.4byte	.LVL0
 3243 0004 16000000 		.4byte	.LVL2
 3244 0008 0100     		.2byte	0x1
 3245 000a 50       		.byte	0x50
 3246 000b 16000000 		.4byte	.LVL2
 3247 000f 1C000000 		.4byte	.LVL4
 3248 0013 0400     		.2byte	0x4
 3249 0015 F3       		.byte	0xf3
 3250 0016 01       		.uleb128 0x1
 3251 0017 50       		.byte	0x50
 3252 0018 9F       		.byte	0x9f
 3253 0019 1C000000 		.4byte	.LVL4
 3254 001d 20000000 		.4byte	.LVL5
 3255 0021 0100     		.2byte	0x1
 3256 0023 50       		.byte	0x50
 3257 0024 20000000 		.4byte	.LVL5
 3258 0028 28000000 		.4byte	.LFE7
 3259 002c 0400     		.2byte	0x4
 3260 002e F3       		.byte	0xf3
 3261 002f 01       		.uleb128 0x1
 3262 0030 50       		.byte	0x50
 3263 0031 9F       		.byte	0x9f
 3264 0032 00000000 		.4byte	0
 3265 0036 00000000 		.4byte	0
 3266              	.LLST1:
 3267 003a 00000000 		.4byte	.LVL0
 3268 003e 19000000 		.4byte	.LVL3-1
 3269 0042 0100     		.2byte	0x1
 3270 0044 51       		.byte	0x51
 3271 0045 19000000 		.4byte	.LVL3-1
 3272 0049 1C000000 		.4byte	.LVL4
 3273 004d 0400     		.2byte	0x4
 3274 004f F3       		.byte	0xf3
 3275 0050 01       		.uleb128 0x1
 3276 0051 51       		.byte	0x51
 3277 0052 9F       		.byte	0x9f
 3278 0053 1C000000 		.4byte	.LVL4
 3279 0057 28000000 		.4byte	.LFE7
 3280 005b 0100     		.2byte	0x1
 3281 005d 51       		.byte	0x51
 3282 005e 00000000 		.4byte	0
 3283 0062 00000000 		.4byte	0
 3284              	.LLST2:
 3285 0066 0A000000 		.4byte	.LVL1
 3286 006a 16000000 		.4byte	.LVL2
 3287 006e 0100     		.2byte	0x1
 3288 0070 50       		.byte	0x50
 3289 0071 16000000 		.4byte	.LVL2
 3290 0075 1C000000 		.4byte	.LVL4
 3291 0079 0400     		.2byte	0x4
 3292 007b F3       		.byte	0xf3
 3293 007c 01       		.uleb128 0x1
 3294 007d 50       		.byte	0x50
 3295 007e 9F       		.byte	0x9f
 3296 007f 00000000 		.4byte	0
ARM GAS  /tmp/ccwSpLeL.s 			page 59


 3297 0083 00000000 		.4byte	0
 3298              	.LLST3:
 3299 0087 0A000000 		.4byte	.LVL1
 3300 008b 19000000 		.4byte	.LVL3-1
 3301 008f 0100     		.2byte	0x1
 3302 0091 53       		.byte	0x53
 3303 0092 00000000 		.4byte	0
 3304 0096 00000000 		.4byte	0
 3305              	.LLST4:
 3306 009a 00000000 		.4byte	.LVL6
 3307 009e 12000000 		.4byte	.LVL7
 3308 00a2 0100     		.2byte	0x1
 3309 00a4 52       		.byte	0x52
 3310 00a5 12000000 		.4byte	.LVL7
 3311 00a9 20000000 		.4byte	.LFE8
 3312 00ad 0400     		.2byte	0x4
 3313 00af F3       		.byte	0xf3
 3314 00b0 01       		.uleb128 0x1
 3315 00b1 52       		.byte	0x52
 3316 00b2 9F       		.byte	0x9f
 3317 00b3 00000000 		.4byte	0
 3318 00b7 00000000 		.4byte	0
 3319              	.LLST5:
 3320 00bb 00000000 		.4byte	.LVL6
 3321 00bf 18000000 		.4byte	.LVL8
 3322 00c3 0100     		.2byte	0x1
 3323 00c5 53       		.byte	0x53
 3324 00c6 18000000 		.4byte	.LVL8
 3325 00ca 20000000 		.4byte	.LFE8
 3326 00ce 0200     		.2byte	0x2
 3327 00d0 70       		.byte	0x70
 3328 00d1 1C       		.sleb128 28
 3329 00d2 00000000 		.4byte	0
 3330 00d6 00000000 		.4byte	0
 3331              	.LLST6:
 3332 00da 00000000 		.4byte	.LVL6
 3333 00de 1E000000 		.4byte	.LVL9
 3334 00e2 0200     		.2byte	0x2
 3335 00e4 91       		.byte	0x91
 3336 00e5 00       		.sleb128 0
 3337 00e6 1E000000 		.4byte	.LVL9
 3338 00ea 20000000 		.4byte	.LFE8
 3339 00ee 0200     		.2byte	0x2
 3340 00f0 7D       		.byte	0x7d
 3341 00f1 00       		.sleb128 0
 3342 00f2 00000000 		.4byte	0
 3343 00f6 00000000 		.4byte	0
 3344              	.LLST7:
 3345 00fa 00000000 		.4byte	.LVL10
 3346 00fe 07000000 		.4byte	.LVL11-1
 3347 0102 0100     		.2byte	0x1
 3348 0104 50       		.byte	0x50
 3349 0105 07000000 		.4byte	.LVL11-1
 3350 0109 2C000000 		.4byte	.LFE9
 3351 010d 0100     		.2byte	0x1
 3352 010f 54       		.byte	0x54
 3353 0110 00000000 		.4byte	0
ARM GAS  /tmp/ccwSpLeL.s 			page 60


 3354 0114 00000000 		.4byte	0
 3355              	.LLST8:
 3356 0118 14000000 		.4byte	.LVL12
 3357 011c 24000000 		.4byte	.LVL14
 3358 0120 0100     		.2byte	0x1
 3359 0122 54       		.byte	0x54
 3360 0123 00000000 		.4byte	0
 3361 0127 00000000 		.4byte	0
 3362              	.LLST9:
 3363 012b 14000000 		.4byte	.LVL12
 3364 012f 1D000000 		.4byte	.LVL13-1
 3365 0133 0100     		.2byte	0x1
 3366 0135 50       		.byte	0x50
 3367 0136 00000000 		.4byte	0
 3368 013a 00000000 		.4byte	0
 3369              	.LLST10:
 3370 013e 00000000 		.4byte	.LVL15
 3371 0142 09000000 		.4byte	.LVL16-1
 3372 0146 0100     		.2byte	0x1
 3373 0148 50       		.byte	0x50
 3374 0149 09000000 		.4byte	.LVL16-1
 3375 014d 5A000000 		.4byte	.LFE10
 3376 0151 0100     		.2byte	0x1
 3377 0153 54       		.byte	0x54
 3378 0154 00000000 		.4byte	0
 3379 0158 00000000 		.4byte	0
 3380              	.LLST11:
 3381 015c 00000000 		.4byte	.LVL15
 3382 0160 09000000 		.4byte	.LVL16-1
 3383 0164 0100     		.2byte	0x1
 3384 0166 51       		.byte	0x51
 3385 0167 09000000 		.4byte	.LVL16-1
 3386 016b 5A000000 		.4byte	.LFE10
 3387 016f 0400     		.2byte	0x4
 3388 0171 F3       		.byte	0xf3
 3389 0172 01       		.uleb128 0x1
 3390 0173 51       		.byte	0x51
 3391 0174 9F       		.byte	0x9f
 3392 0175 00000000 		.4byte	0
 3393 0179 00000000 		.4byte	0
 3394              	.LLST12:
 3395 017d 3E000000 		.4byte	.LVL17
 3396 0181 50000000 		.4byte	.LVL19
 3397 0185 0100     		.2byte	0x1
 3398 0187 54       		.byte	0x54
 3399 0188 00000000 		.4byte	0
 3400 018c 00000000 		.4byte	0
 3401              	.LLST13:
 3402 0190 3E000000 		.4byte	.LVL17
 3403 0194 47000000 		.4byte	.LVL18-1
 3404 0198 0100     		.2byte	0x1
 3405 019a 50       		.byte	0x50
 3406 019b 00000000 		.4byte	0
 3407 019f 00000000 		.4byte	0
 3408              	.LLST14:
 3409 01a3 00000000 		.4byte	.LVL21
 3410 01a7 0F000000 		.4byte	.LVL22-1
ARM GAS  /tmp/ccwSpLeL.s 			page 61


 3411 01ab 0100     		.2byte	0x1
 3412 01ad 50       		.byte	0x50
 3413 01ae 0F000000 		.4byte	.LVL22-1
 3414 01b2 5E000000 		.4byte	.LFE11
 3415 01b6 0100     		.2byte	0x1
 3416 01b8 54       		.byte	0x54
 3417 01b9 00000000 		.4byte	0
 3418 01bd 00000000 		.4byte	0
 3419              	.LLST15:
 3420 01c1 00000000 		.4byte	.LVL21
 3421 01c5 0F000000 		.4byte	.LVL22-1
 3422 01c9 0100     		.2byte	0x1
 3423 01cb 51       		.byte	0x51
 3424 01cc 0F000000 		.4byte	.LVL22-1
 3425 01d0 5E000000 		.4byte	.LFE11
 3426 01d4 0100     		.2byte	0x1
 3427 01d6 56       		.byte	0x56
 3428 01d7 00000000 		.4byte	0
 3429 01db 00000000 		.4byte	0
 3430              	.LLST16:
 3431 01df 22000000 		.4byte	.LVL24
 3432 01e3 29000000 		.4byte	.LVL25-1
 3433 01e7 0100     		.2byte	0x1
 3434 01e9 50       		.byte	0x50
 3435 01ea 29000000 		.4byte	.LVL25-1
 3436 01ee 34000000 		.4byte	.LVL26
 3437 01f2 0100     		.2byte	0x1
 3438 01f4 55       		.byte	0x55
 3439 01f5 00000000 		.4byte	0
 3440 01f9 00000000 		.4byte	0
 3441              	.LLST17:
 3442 01fd 00000000 		.4byte	.LVL29
 3443 0201 17000000 		.4byte	.LVL32-1
 3444 0205 0100     		.2byte	0x1
 3445 0207 50       		.byte	0x50
 3446 0208 17000000 		.4byte	.LVL32-1
 3447 020c 88000000 		.4byte	.LFE12
 3448 0210 0100     		.2byte	0x1
 3449 0212 54       		.byte	0x54
 3450 0213 00000000 		.4byte	0
 3451 0217 00000000 		.4byte	0
 3452              	.LLST18:
 3453 021b 00000000 		.4byte	.LVL29
 3454 021f 17000000 		.4byte	.LVL32-1
 3455 0223 0100     		.2byte	0x1
 3456 0225 51       		.byte	0x51
 3457 0226 17000000 		.4byte	.LVL32-1
 3458 022a 48000000 		.4byte	.LVL37
 3459 022e 0100     		.2byte	0x1
 3460 0230 5A       		.byte	0x5a
 3461 0231 48000000 		.4byte	.LVL37
 3462 0235 82000000 		.4byte	.LVL42
 3463 0239 0100     		.2byte	0x1
 3464 023b 55       		.byte	0x55
 3465 023c 00000000 		.4byte	0
 3466 0240 00000000 		.4byte	0
 3467              	.LLST19:
ARM GAS  /tmp/ccwSpLeL.s 			page 62


 3468 0244 00000000 		.4byte	.LVL29
 3469 0248 17000000 		.4byte	.LVL32-1
 3470 024c 0100     		.2byte	0x1
 3471 024e 52       		.byte	0x52
 3472 024f 17000000 		.4byte	.LVL32-1
 3473 0253 6E000000 		.4byte	.LVL39
 3474 0257 0100     		.2byte	0x1
 3475 0259 59       		.byte	0x59
 3476 025a 6E000000 		.4byte	.LVL39
 3477 025e 72000000 		.4byte	.LVL40
 3478 0262 0300     		.2byte	0x3
 3479 0264 79       		.byte	0x79
 3480 0265 7F       		.sleb128 -1
 3481 0266 9F       		.byte	0x9f
 3482 0267 72000000 		.4byte	.LVL40
 3483 026b 88000000 		.4byte	.LFE12
 3484 026f 0100     		.2byte	0x1
 3485 0271 59       		.byte	0x59
 3486 0272 00000000 		.4byte	0
 3487 0276 00000000 		.4byte	0
 3488              	.LLST20:
 3489 027a 00000000 		.4byte	.LVL29
 3490 027e 10000000 		.4byte	.LVL31
 3491 0282 0100     		.2byte	0x1
 3492 0284 53       		.byte	0x53
 3493 0285 10000000 		.4byte	.LVL31
 3494 0289 88000000 		.4byte	.LFE12
 3495 028d 0100     		.2byte	0x1
 3496 028f 56       		.byte	0x56
 3497 0290 00000000 		.4byte	0
 3498 0294 00000000 		.4byte	0
 3499              	.LLST21:
 3500 0298 0E000000 		.4byte	.LVL30
 3501 029c 1C000000 		.4byte	.LVL33
 3502 02a0 0200     		.2byte	0x2
 3503 02a2 30       		.byte	0x30
 3504 02a3 9F       		.byte	0x9f
 3505 02a4 1C000000 		.4byte	.LVL33
 3506 02a8 88000000 		.4byte	.LFE12
 3507 02ac 0100     		.2byte	0x1
 3508 02ae 58       		.byte	0x58
 3509 02af 00000000 		.4byte	0
 3510 02b3 00000000 		.4byte	0
 3511              	.LLST22:
 3512 02b7 00000000 		.4byte	.LVL43
 3513 02bb 0E000000 		.4byte	.LVL44
 3514 02bf 0100     		.2byte	0x1
 3515 02c1 52       		.byte	0x52
 3516 02c2 0E000000 		.4byte	.LVL44
 3517 02c6 18000000 		.4byte	.LFE13
 3518 02ca 0200     		.2byte	0x2
 3519 02cc 70       		.byte	0x70
 3520 02cd 08       		.sleb128 8
 3521 02ce 00000000 		.4byte	0
 3522 02d2 00000000 		.4byte	0
 3523              	.LLST23:
 3524 02d6 00000000 		.4byte	.LVL43
ARM GAS  /tmp/ccwSpLeL.s 			page 63


 3525 02da 14000000 		.4byte	.LVL45
 3526 02de 0100     		.2byte	0x1
 3527 02e0 53       		.byte	0x53
 3528 02e1 14000000 		.4byte	.LVL45
 3529 02e5 18000000 		.4byte	.LFE13
 3530 02e9 0200     		.2byte	0x2
 3531 02eb 70       		.byte	0x70
 3532 02ec 1C       		.sleb128 28
 3533 02ed 00000000 		.4byte	0
 3534 02f1 00000000 		.4byte	0
 3535              	.LLST24:
 3536 02f5 00000000 		.4byte	.LVL46
 3537 02f9 07000000 		.4byte	.LVL47-1
 3538 02fd 0100     		.2byte	0x1
 3539 02ff 50       		.byte	0x50
 3540 0300 07000000 		.4byte	.LVL47-1
 3541 0304 2E000000 		.4byte	.LFE14
 3542 0308 0100     		.2byte	0x1
 3543 030a 54       		.byte	0x54
 3544 030b 00000000 		.4byte	0
 3545 030f 00000000 		.4byte	0
 3546              	.LLST25:
 3547 0313 16000000 		.4byte	.LVL48
 3548 0317 26000000 		.4byte	.LVL50
 3549 031b 0100     		.2byte	0x1
 3550 031d 54       		.byte	0x54
 3551 031e 00000000 		.4byte	0
 3552 0322 00000000 		.4byte	0
 3553              	.LLST26:
 3554 0326 16000000 		.4byte	.LVL48
 3555 032a 1F000000 		.4byte	.LVL49-1
 3556 032e 0100     		.2byte	0x1
 3557 0330 50       		.byte	0x50
 3558 0331 00000000 		.4byte	0
 3559 0335 00000000 		.4byte	0
 3560              	.LLST27:
 3561 0339 00000000 		.4byte	.LVL51
 3562 033d 11000000 		.4byte	.LVL52-1
 3563 0341 0100     		.2byte	0x1
 3564 0343 50       		.byte	0x50
 3565 0344 11000000 		.4byte	.LVL52-1
 3566 0348 62000000 		.4byte	.LFE15
 3567 034c 0100     		.2byte	0x1
 3568 034e 54       		.byte	0x54
 3569 034f 00000000 		.4byte	0
 3570 0353 00000000 		.4byte	0
 3571              	.LLST28:
 3572 0357 00000000 		.4byte	.LVL51
 3573 035b 11000000 		.4byte	.LVL52-1
 3574 035f 0100     		.2byte	0x1
 3575 0361 51       		.byte	0x51
 3576 0362 11000000 		.4byte	.LVL52-1
 3577 0366 62000000 		.4byte	.LFE15
 3578 036a 0400     		.2byte	0x4
 3579 036c F3       		.byte	0xf3
 3580 036d 01       		.uleb128 0x1
 3581 036e 51       		.byte	0x51
ARM GAS  /tmp/ccwSpLeL.s 			page 64


 3582 036f 9F       		.byte	0x9f
 3583 0370 00000000 		.4byte	0
 3584 0374 00000000 		.4byte	0
 3585              	.LLST29:
 3586 0378 00000000 		.4byte	.LVL51
 3587 037c 11000000 		.4byte	.LVL52-1
 3588 0380 0100     		.2byte	0x1
 3589 0382 52       		.byte	0x52
 3590 0383 11000000 		.4byte	.LVL52-1
 3591 0387 62000000 		.4byte	.LFE15
 3592 038b 0100     		.2byte	0x1
 3593 038d 56       		.byte	0x56
 3594 038e 00000000 		.4byte	0
 3595 0392 00000000 		.4byte	0
 3596              	.LLST30:
 3597 0396 1C000000 		.4byte	.LVL53
 3598 039a 23000000 		.4byte	.LVL54-1
 3599 039e 0100     		.2byte	0x1
 3600 03a0 50       		.byte	0x50
 3601 03a1 23000000 		.4byte	.LVL54-1
 3602 03a5 2E000000 		.4byte	.LVL55
 3603 03a9 0100     		.2byte	0x1
 3604 03ab 55       		.byte	0x55
 3605 03ac 00000000 		.4byte	0
 3606 03b0 00000000 		.4byte	0
 3607              	.LLST31:
 3608 03b4 00000000 		.4byte	.LVL58
 3609 03b8 07000000 		.4byte	.LVL59-1
 3610 03bc 0100     		.2byte	0x1
 3611 03be 50       		.byte	0x50
 3612 03bf 07000000 		.4byte	.LVL59-1
 3613 03c3 52000000 		.4byte	.LFE16
 3614 03c7 0100     		.2byte	0x1
 3615 03c9 54       		.byte	0x54
 3616 03ca 00000000 		.4byte	0
 3617 03ce 00000000 		.4byte	0
 3618              	.LLST32:
 3619 03d2 2A000000 		.4byte	.LVL60
 3620 03d6 4C000000 		.4byte	.LVL64
 3621 03da 0100     		.2byte	0x1
 3622 03dc 55       		.byte	0x55
 3623 03dd 00000000 		.4byte	0
 3624 03e1 00000000 		.4byte	0
 3625              	.LLST33:
 3626 03e5 3A000000 		.4byte	.LVL61
 3627 03e9 48000000 		.4byte	.LVL63
 3628 03ed 0100     		.2byte	0x1
 3629 03ef 54       		.byte	0x54
 3630 03f0 00000000 		.4byte	0
 3631 03f4 00000000 		.4byte	0
 3632              	.LLST34:
 3633 03f8 3A000000 		.4byte	.LVL61
 3634 03fc 43000000 		.4byte	.LVL62-1
 3635 0400 0100     		.2byte	0x1
 3636 0402 50       		.byte	0x50
 3637 0403 00000000 		.4byte	0
 3638 0407 00000000 		.4byte	0
ARM GAS  /tmp/ccwSpLeL.s 			page 65


 3639              	.LLST35:
 3640 040b 00000000 		.4byte	.LVL65
 3641 040f 19000000 		.4byte	.LVL68-1
 3642 0413 0100     		.2byte	0x1
 3643 0415 50       		.byte	0x50
 3644 0416 19000000 		.4byte	.LVL68-1
 3645 041a 88000000 		.4byte	.LFE17
 3646 041e 0100     		.2byte	0x1
 3647 0420 54       		.byte	0x54
 3648 0421 00000000 		.4byte	0
 3649 0425 00000000 		.4byte	0
 3650              	.LLST36:
 3651 0429 00000000 		.4byte	.LVL65
 3652 042d 19000000 		.4byte	.LVL68-1
 3653 0431 0100     		.2byte	0x1
 3654 0433 51       		.byte	0x51
 3655 0434 19000000 		.4byte	.LVL68-1
 3656 0438 48000000 		.4byte	.LVL73
 3657 043c 0100     		.2byte	0x1
 3658 043e 57       		.byte	0x57
 3659 043f 48000000 		.4byte	.LVL73
 3660 0443 82000000 		.4byte	.LVL79
 3661 0447 0100     		.2byte	0x1
 3662 0449 55       		.byte	0x55
 3663 044a 00000000 		.4byte	0
 3664 044e 00000000 		.4byte	0
 3665              	.LLST37:
 3666 0452 00000000 		.4byte	.LVL65
 3667 0456 19000000 		.4byte	.LVL68-1
 3668 045a 0100     		.2byte	0x1
 3669 045c 52       		.byte	0x52
 3670 045d 19000000 		.4byte	.LVL68-1
 3671 0461 70000000 		.4byte	.LVL76
 3672 0465 0100     		.2byte	0x1
 3673 0467 56       		.byte	0x56
 3674 0468 70000000 		.4byte	.LVL76
 3675 046c 72000000 		.4byte	.LVL77
 3676 0470 0300     		.2byte	0x3
 3677 0472 76       		.byte	0x76
 3678 0473 7F       		.sleb128 -1
 3679 0474 9F       		.byte	0x9f
 3680 0475 72000000 		.4byte	.LVL77
 3681 0479 88000000 		.4byte	.LFE17
 3682 047d 0100     		.2byte	0x1
 3683 047f 56       		.byte	0x56
 3684 0480 00000000 		.4byte	0
 3685 0484 00000000 		.4byte	0
 3686              	.LLST38:
 3687 0488 00000000 		.4byte	.LVL65
 3688 048c 12000000 		.4byte	.LVL67
 3689 0490 0100     		.2byte	0x1
 3690 0492 53       		.byte	0x53
 3691 0493 12000000 		.4byte	.LVL67
 3692 0497 88000000 		.4byte	.LFE17
 3693 049b 0100     		.2byte	0x1
 3694 049d 5A       		.byte	0x5a
 3695 049e 00000000 		.4byte	0
ARM GAS  /tmp/ccwSpLeL.s 			page 66


 3696 04a2 00000000 		.4byte	0
 3697              	.LLST39:
 3698 04a6 10000000 		.4byte	.LVL66
 3699 04aa 20000000 		.4byte	.LVL69
 3700 04ae 0200     		.2byte	0x2
 3701 04b0 30       		.byte	0x30
 3702 04b1 9F       		.byte	0x9f
 3703 04b2 20000000 		.4byte	.LVL69
 3704 04b6 88000000 		.4byte	.LFE17
 3705 04ba 0100     		.2byte	0x1
 3706 04bc 58       		.byte	0x58
 3707 04bd 00000000 		.4byte	0
 3708 04c1 00000000 		.4byte	0
 3709              		.section	.debug_aranges,"",%progbits
 3710 0000 6C000000 		.4byte	0x6c
 3711 0004 0200     		.2byte	0x2
 3712 0006 00000000 		.4byte	.Ldebug_info0
 3713 000a 04       		.byte	0x4
 3714 000b 00       		.byte	0
 3715 000c 0000     		.2byte	0
 3716 000e 0000     		.2byte	0
 3717 0010 00000000 		.4byte	.LFB7
 3718 0014 28000000 		.4byte	.LFE7-.LFB7
 3719 0018 00000000 		.4byte	.LFB8
 3720 001c 20000000 		.4byte	.LFE8-.LFB8
 3721 0020 00000000 		.4byte	.LFB9
 3722 0024 2C000000 		.4byte	.LFE9-.LFB9
 3723 0028 00000000 		.4byte	.LFB10
 3724 002c 5A000000 		.4byte	.LFE10-.LFB10
 3725 0030 00000000 		.4byte	.LFB11
 3726 0034 5E000000 		.4byte	.LFE11-.LFB11
 3727 0038 00000000 		.4byte	.LFB12
 3728 003c 88000000 		.4byte	.LFE12-.LFB12
 3729 0040 00000000 		.4byte	.LFB13
 3730 0044 18000000 		.4byte	.LFE13-.LFB13
 3731 0048 00000000 		.4byte	.LFB14
 3732 004c 2E000000 		.4byte	.LFE14-.LFB14
 3733 0050 00000000 		.4byte	.LFB15
 3734 0054 62000000 		.4byte	.LFE15-.LFB15
 3735 0058 00000000 		.4byte	.LFB16
 3736 005c 52000000 		.4byte	.LFE16-.LFB16
 3737 0060 00000000 		.4byte	.LFB17
 3738 0064 88000000 		.4byte	.LFE17-.LFB17
 3739 0068 00000000 		.4byte	0
 3740 006c 00000000 		.4byte	0
 3741              		.section	.debug_ranges,"",%progbits
 3742              	.Ldebug_ranges0:
 3743 0000 00000000 		.4byte	.LFB7
 3744 0004 28000000 		.4byte	.LFE7
 3745 0008 00000000 		.4byte	.LFB8
 3746 000c 20000000 		.4byte	.LFE8
 3747 0010 00000000 		.4byte	.LFB9
 3748 0014 2C000000 		.4byte	.LFE9
 3749 0018 00000000 		.4byte	.LFB10
 3750 001c 5A000000 		.4byte	.LFE10
 3751 0020 00000000 		.4byte	.LFB11
 3752 0024 5E000000 		.4byte	.LFE11
ARM GAS  /tmp/ccwSpLeL.s 			page 67


 3753 0028 00000000 		.4byte	.LFB12
 3754 002c 88000000 		.4byte	.LFE12
 3755 0030 00000000 		.4byte	.LFB13
 3756 0034 18000000 		.4byte	.LFE13
 3757 0038 00000000 		.4byte	.LFB14
 3758 003c 2E000000 		.4byte	.LFE14
 3759 0040 00000000 		.4byte	.LFB15
 3760 0044 62000000 		.4byte	.LFE15
 3761 0048 00000000 		.4byte	.LFB16
 3762 004c 52000000 		.4byte	.LFE16
 3763 0050 00000000 		.4byte	.LFB17
 3764 0054 88000000 		.4byte	.LFE17
 3765 0058 00000000 		.4byte	0
 3766 005c 00000000 		.4byte	0
 3767              		.section	.debug_line,"",%progbits
 3768              	.Ldebug_line0:
 3769 0000 27030000 		.section	.debug_str,"MS",%progbits,1
 3769      02009401 
 3769      00000201 
 3769      FB0E0D00 
 3769      01010101 
 3770              	.LASF93:
 3771 0000 63684F51 		.ascii	"chOQInit\000"
 3771      496E6974 
 3771      00
 3772              	.LASF44:
 3773 0009 705F6D73 		.ascii	"p_msg\000"
 3773      6700
 3774              	.LASF107:
 3775 000f 71756575 		.ascii	"queue_insert\000"
 3775      655F696E 
 3775      73657274 
 3775      00
 3776              	.LASF94:
 3777 001c 6F6E6679 		.ascii	"onfy\000"
 3777      00
 3778              	.LASF2:
 3779 0021 73697A65 		.ascii	"size_t\000"
 3779      5F7400
 3780              	.LASF67:
 3781 0028 7264796D 		.ascii	"rdymsg\000"
 3781      736700
 3782              	.LASF88:
 3783 002f 63684951 		.ascii	"chIQInit\000"
 3783      496E6974 
 3783      00
 3784              	.LASF17:
 3785 0038 75696E74 		.ascii	"uint64_t\000"
 3785      36345F74 
 3785      00
 3786              	.LASF83:
 3787 0041 4F757470 		.ascii	"OutputQueue\000"
 3787      75745175 
 3787      65756500 
 3788              	.LASF3:
 3789 004d 5F5F7569 		.ascii	"__uint8_t\000"
 3789      6E74385F 
ARM GAS  /tmp/ccwSpLeL.s 			page 68


 3789      7400
 3790              	.LASF92:
 3791 0057 63684951 		.ascii	"chIQReadTimeout\000"
 3791      52656164 
 3791      54696D65 
 3791      6F757400 
 3792              	.LASF13:
 3793 0067 6C6F6E67 		.ascii	"long long unsigned int\000"
 3793      206C6F6E 
 3793      6720756E 
 3793      7369676E 
 3793      65642069 
 3794              	.LASF68:
 3795 007e 65786974 		.ascii	"exitcode\000"
 3795      636F6465 
 3795      00
 3796              	.LASF31:
 3797 0087 705F7072 		.ascii	"p_prio\000"
 3797      696F00
 3798              	.LASF73:
 3799 008e 715F7761 		.ascii	"q_waiting\000"
 3799      6974696E 
 3799      6700
 3800              	.LASF11:
 3801 0098 6C6F6E67 		.ascii	"long long int\000"
 3801      206C6F6E 
 3801      6720696E 
 3801      7400
 3802              	.LASF1:
 3803 00a6 7369676E 		.ascii	"signed char\000"
 3803      65642063 
 3803      68617200 
 3804              	.LASF105:
 3805 00b2 2E2E2F2E 		.ascii	"../../ChibiOS-RT/os/kernel/src/chqueues.c\000"
 3805      2E2F4368 
 3805      6962694F 
 3805      532D5254 
 3805      2F6F732F 
 3806              	.LASF48:
 3807 00dc 705F6D70 		.ascii	"p_mpool\000"
 3807      6F6F6C00 
 3808              	.LASF18:
 3809 00e4 626F6F6C 		.ascii	"bool_t\000"
 3809      5F7400
 3810              	.LASF64:
 3811 00eb 6D5F7175 		.ascii	"m_queue\000"
 3811      65756500 
 3812              	.LASF23:
 3813 00f3 74736C69 		.ascii	"tslices_t\000"
 3813      6365735F 
 3813      7400
 3814              	.LASF109:
 3815 00fd 71776169 		.ascii	"qwait\000"
 3815      7400
 3816              	.LASF8:
 3817 0103 6C6F6E67 		.ascii	"long int\000"
 3817      20696E74 
ARM GAS  /tmp/ccwSpLeL.s 			page 69


 3817      00
 3818              	.LASF21:
 3819 010c 74737461 		.ascii	"tstate_t\000"
 3819      74655F74 
 3819      00
 3820              	.LASF97:
 3821 0115 63684F51 		.ascii	"chOQGetI\000"
 3821      47657449 
 3821      00
 3822              	.LASF75:
 3823 011e 715F6275 		.ascii	"q_buffer\000"
 3823      66666572 
 3823      00
 3824              	.LASF77:
 3825 0127 715F7772 		.ascii	"q_wrptr\000"
 3825      70747200 
 3826              	.LASF33:
 3827 012f 705F6E65 		.ascii	"p_newer\000"
 3827      77657200 
 3828              	.LASF9:
 3829 0137 5F5F7569 		.ascii	"__uint32_t\000"
 3829      6E743332 
 3829      5F7400
 3830              	.LASF51:
 3831 0142 72656761 		.ascii	"regarm_t\000"
 3831      726D5F74 
 3831      00
 3832              	.LASF87:
 3833 014b 6C696E6B 		.ascii	"link\000"
 3833      00
 3834              	.LASF96:
 3835 0150 63684F51 		.ascii	"chOQPutTimeout\000"
 3835      50757454 
 3835      696D656F 
 3835      757400
 3836              	.LASF90:
 3837 015f 63684951 		.ascii	"chIQPutI\000"
 3837      50757449 
 3837      00
 3838              	.LASF36:
 3839 0168 705F7374 		.ascii	"p_stklimit\000"
 3839      6B6C696D 
 3839      697400
 3840              	.LASF0:
 3841 0173 756E7369 		.ascii	"unsigned int\000"
 3841      676E6564 
 3841      20696E74 
 3841      00
 3842              	.LASF89:
 3843 0180 63684951 		.ascii	"chIQResetI\000"
 3843      52657365 
 3843      744900
 3844              	.LASF10:
 3845 018b 6C6F6E67 		.ascii	"long unsigned int\000"
 3845      20756E73 
 3845      69676E65 
 3845      6420696E 
ARM GAS  /tmp/ccwSpLeL.s 			page 70


 3845      7400
 3846              	.LASF54:
 3847 019d 636F6E74 		.ascii	"context\000"
 3847      65787400 
 3848              	.LASF85:
 3849 01a5 73697A65 		.ascii	"size\000"
 3849      00
 3850              	.LASF6:
 3851 01aa 73686F72 		.ascii	"short unsigned int\000"
 3851      7420756E 
 3851      7369676E 
 3851      65642069 
 3851      6E7400
 3852              	.LASF25:
 3853 01bd 6D73675F 		.ascii	"msg_t\000"
 3853      7400
 3854              	.LASF59:
 3855 01c3 725F6E65 		.ascii	"r_newer\000"
 3855      77657200 
 3856              	.LASF101:
 3857 01cb 63684462 		.ascii	"chDbgCheckClassI\000"
 3857      67436865 
 3857      636B436C 
 3857      61737349 
 3857      00
 3858              	.LASF20:
 3859 01dc 746D6F64 		.ascii	"tmode_t\000"
 3859      655F7400 
 3860              	.LASF50:
 3861 01e4 54687265 		.ascii	"ThreadsList\000"
 3861      6164734C 
 3861      69737400 
 3862              	.LASF26:
 3863 01f0 6576656E 		.ascii	"eventmask_t\000"
 3863      746D6173 
 3863      6B5F7400 
 3864              	.LASF104:
 3865 01fc 474E5520 		.ascii	"GNU C 4.9.2 20150128 (prerelease) -mcpu=cortex-m4 -"
 3865      4320342E 
 3865      392E3220 
 3865      32303135 
 3865      30313238 
 3866 022f 6D6E6F2D 		.ascii	"mno-thumb-interwork -mthumb -ggdb -Og -std=gnu99 -f"
 3866      7468756D 
 3866      622D696E 
 3866      74657277 
 3866      6F726B20 
 3867 0262 6F6D6974 		.ascii	"omit-frame-pointer -falign-functions=16 -ffunction-"
 3867      2D667261 
 3867      6D652D70 
 3867      6F696E74 
 3867      6572202D 
 3868 0295 73656374 		.ascii	"sections -fdata-sections -fno-common\000"
 3868      696F6E73 
 3868      202D6664 
 3868      6174612D 
 3868      73656374 
ARM GAS  /tmp/ccwSpLeL.s 			page 71


 3869              	.LASF63:
 3870 02ba 4D757465 		.ascii	"Mutex\000"
 3870      7800
 3871              	.LASF72:
 3872 02c0 47656E65 		.ascii	"GenericQueue\000"
 3872      72696351 
 3872      75657565 
 3872      00
 3873              	.LASF52:
 3874 02cd 73746B61 		.ascii	"stkalign_t\000"
 3874      6C69676E 
 3874      5F7400
 3875              	.LASF98:
 3876 02d8 63684F51 		.ascii	"chOQWriteTimeout\000"
 3876      57726974 
 3876      6554696D 
 3876      656F7574 
 3876      00
 3877              	.LASF102:
 3878 02e9 6462675F 		.ascii	"dbg_check_unlock\000"
 3878      63686563 
 3878      6B5F756E 
 3878      6C6F636B 
 3878      00
 3879              	.LASF55:
 3880 02fa 73697A65 		.ascii	"sizetype\000"
 3880      74797065 
 3880      00
 3881              	.LASF74:
 3882 0303 715F636F 		.ascii	"q_counter\000"
 3882      756E7465 
 3882      7200
 3883              	.LASF103:
 3884 030d 6462675F 		.ascii	"dbg_check_lock\000"
 3884      63686563 
 3884      6B5F6C6F 
 3884      636B00
 3885              	.LASF34:
 3886 031c 705F6F6C 		.ascii	"p_older\000"
 3886      64657200 
 3887              	.LASF58:
 3888 0324 725F6374 		.ascii	"r_ctx\000"
 3888      7800
 3889              	.LASF49:
 3890 032a 54687265 		.ascii	"ThreadsQueue\000"
 3890      61647351 
 3890      75657565 
 3890      00
 3891              	.LASF84:
 3892 0337 74696D65 		.ascii	"time\000"
 3892      00
 3893              	.LASF61:
 3894 033c 725F6375 		.ascii	"r_current\000"
 3894      7272656E 
 3894      7400
 3895              	.LASF60:
 3896 0346 725F6F6C 		.ascii	"r_older\000"
ARM GAS  /tmp/ccwSpLeL.s 			page 72


 3896      64657200 
 3897              	.LASF12:
 3898 034e 5F5F7569 		.ascii	"__uint64_t\000"
 3898      6E743634 
 3898      5F7400
 3899              	.LASF22:
 3900 0359 74726566 		.ascii	"trefs_t\000"
 3900      735F7400 
 3901              	.LASF106:
 3902 0361 2F686F6D 		.ascii	"/home/seth/marionette-firmware/src/CAN\000"
 3902      652F7365 
 3902      74682F6D 
 3902      6172696F 
 3902      6E657474 
 3903              	.LASF81:
 3904 0388 716E6F74 		.ascii	"qnotify_t\000"
 3904      6966795F 
 3904      7400
 3905              	.LASF30:
 3906 0392 705F7072 		.ascii	"p_prev\000"
 3906      657600
 3907              	.LASF24:
 3908 0399 74707269 		.ascii	"tprio_t\000"
 3908      6F5F7400 
 3909              	.LASF78:
 3910 03a1 715F7264 		.ascii	"q_rdptr\000"
 3910      70747200 
 3911              	.LASF19:
 3912 03a9 5F426F6F 		.ascii	"_Bool\000"
 3912      6C00
 3913              	.LASF15:
 3914 03af 696E7433 		.ascii	"int32_t\000"
 3914      325F7400 
 3915              	.LASF4:
 3916 03b7 756E7369 		.ascii	"unsigned char\000"
 3916      676E6564 
 3916      20636861 
 3916      7200
 3917              	.LASF46:
 3918 03c5 705F6D74 		.ascii	"p_mtxlist\000"
 3918      786C6973 
 3918      7400
 3919              	.LASF5:
 3920 03cf 73686F72 		.ascii	"short int\000"
 3920      7420696E 
 3920      7400
 3921              	.LASF37:
 3922 03d9 705F7374 		.ascii	"p_state\000"
 3922      61746500 
 3923              	.LASF40:
 3924 03e1 705F7072 		.ascii	"p_preempt\000"
 3924      65656D70 
 3924      7400
 3925              	.LASF57:
 3926 03eb 725F7072 		.ascii	"r_prio\000"
 3926      696F00
 3927              	.LASF70:
ARM GAS  /tmp/ccwSpLeL.s 			page 73


 3928 03f2 65776D61 		.ascii	"ewmask\000"
 3928      736B00
 3929              	.LASF29:
 3930 03f9 705F6E65 		.ascii	"p_next\000"
 3930      787400
 3931              	.LASF86:
 3932 0400 696E6679 		.ascii	"infy\000"
 3932      00
 3933              	.LASF38:
 3934 0405 705F666C 		.ascii	"p_flags\000"
 3934      61677300 
 3935              	.LASF28:
 3936 040d 54687265 		.ascii	"Thread\000"
 3936      616400
 3937              	.LASF45:
 3938 0414 705F6570 		.ascii	"p_epending\000"
 3938      656E6469 
 3938      6E6700
 3939              	.LASF16:
 3940 041f 75696E74 		.ascii	"uint32_t\000"
 3940      33325F74 
 3940      00
 3941              	.LASF56:
 3942 0428 725F7175 		.ascii	"r_queue\000"
 3942      65756500 
 3943              	.LASF100:
 3944 0430 63685363 		.ascii	"chSchReadyI\000"
 3944      68526561 
 3944      64794900 
 3945              	.LASF71:
 3946 043c 63686172 		.ascii	"char\000"
 3946      00
 3947              	.LASF108:
 3948 0441 6669666F 		.ascii	"fifo_remove\000"
 3948      5F72656D 
 3948      6F766500 
 3949              	.LASF66:
 3950 044d 6D5F6E65 		.ascii	"m_next\000"
 3950      787400
 3951              	.LASF27:
 3952 0454 73797374 		.ascii	"systime_t\000"
 3952      696D655F 
 3952      7400
 3953              	.LASF47:
 3954 045e 705F7265 		.ascii	"p_realprio\000"
 3954      616C7072 
 3954      696F00
 3955              	.LASF7:
 3956 0469 5F5F696E 		.ascii	"__int32_t\000"
 3956      7433325F 
 3956      7400
 3957              	.LASF95:
 3958 0473 63684F51 		.ascii	"chOQResetI\000"
 3958      52657365 
 3958      744900
 3959              	.LASF41:
 3960 047e 705F7469 		.ascii	"p_time\000"
ARM GAS  /tmp/ccwSpLeL.s 			page 74


 3960      6D6500
 3961              	.LASF53:
 3962 0485 696E7463 		.ascii	"intctx\000"
 3962      747800
 3963              	.LASF43:
 3964 048c 705F6D73 		.ascii	"p_msgqueue\000"
 3964      67717565 
 3964      756500
 3965              	.LASF76:
 3966 0497 715F746F 		.ascii	"q_top\000"
 3966      7000
 3967              	.LASF39:
 3968 049d 705F7265 		.ascii	"p_refs\000"
 3968      667300
 3969              	.LASF62:
 3970 04a4 52656164 		.ascii	"ReadyList\000"
 3970      794C6973 
 3970      7400
 3971              	.LASF79:
 3972 04ae 715F6E6F 		.ascii	"q_notify\000"
 3972      74696679 
 3972      00
 3973              	.LASF110:
 3974 04b7 726C6973 		.ascii	"rlist\000"
 3974      7400
 3975              	.LASF14:
 3976 04bd 75696E74 		.ascii	"uint8_t\000"
 3976      385F7400 
 3977              	.LASF82:
 3978 04c5 496E7075 		.ascii	"InputQueue\000"
 3978      74517565 
 3978      756500
 3979              	.LASF69:
 3980 04d0 77746F62 		.ascii	"wtobjp\000"
 3980      6A7000
 3981              	.LASF35:
 3982 04d7 705F6E61 		.ascii	"p_name\000"
 3982      6D6500
 3983              	.LASF99:
 3984 04de 63685363 		.ascii	"chSchGoSleepTimeoutS\000"
 3984      68476F53 
 3984      6C656570 
 3984      54696D65 
 3984      6F757453 
 3985              	.LASF80:
 3986 04f3 715F6C69 		.ascii	"q_link\000"
 3986      6E6B00
 3987              	.LASF65:
 3988 04fa 6D5F6F77 		.ascii	"m_owner\000"
 3988      6E657200 
 3989              	.LASF32:
 3990 0502 705F6374 		.ascii	"p_ctx\000"
 3990      7800
 3991              	.LASF42:
 3992 0508 705F7761 		.ascii	"p_waiting\000"
 3992      6974696E 
 3992      6700
ARM GAS  /tmp/ccwSpLeL.s 			page 75


 3993              	.LASF91:
 3994 0512 63684951 		.ascii	"chIQGetTimeout\000"
 3994      47657454 
 3994      696D656F 
 3994      757400
 3995              		.ident	"GCC: (Arch Repository) 4.9.2 20150128 (prerelease)"
ARM GAS  /tmp/ccwSpLeL.s 			page 76


DEFINED SYMBOLS
                            *ABS*:0000000000000000 chqueues.c
     /tmp/ccwSpLeL.s:19     .text.qwait:0000000000000000 $t
     /tmp/ccwSpLeL.s:24     .text.qwait:0000000000000000 qwait
     /tmp/ccwSpLeL.s:75     .text.qwait:0000000000000024 $d
     /tmp/ccwSpLeL.s:80     .text.chIQInit:0000000000000000 $t
     /tmp/ccwSpLeL.s:86     .text.chIQInit:0000000000000000 chIQInit
     /tmp/ccwSpLeL.s:127    .text.chIQResetI:0000000000000000 $t
     /tmp/ccwSpLeL.s:133    .text.chIQResetI:0000000000000000 chIQResetI
     /tmp/ccwSpLeL.s:184    .text.chIQPutI:0000000000000000 $t
     /tmp/ccwSpLeL.s:190    .text.chIQPutI:0000000000000000 chIQPutI
     /tmp/ccwSpLeL.s:279    .text.chIQGetTimeout:0000000000000000 $t
     /tmp/ccwSpLeL.s:285    .text.chIQGetTimeout:0000000000000000 chIQGetTimeout
     /tmp/ccwSpLeL.s:382    .text.chIQReadTimeout:0000000000000000 $t
     /tmp/ccwSpLeL.s:388    .text.chIQReadTimeout:0000000000000000 chIQReadTimeout
     /tmp/ccwSpLeL.s:518    .text.chOQInit:0000000000000000 $t
     /tmp/ccwSpLeL.s:524    .text.chOQInit:0000000000000000 chOQInit
     /tmp/ccwSpLeL.s:556    .text.chOQResetI:0000000000000000 $t
     /tmp/ccwSpLeL.s:562    .text.chOQResetI:0000000000000000 chOQResetI
     /tmp/ccwSpLeL.s:614    .text.chOQPutTimeout:0000000000000000 $t
     /tmp/ccwSpLeL.s:620    .text.chOQPutTimeout:0000000000000000 chOQPutTimeout
     /tmp/ccwSpLeL.s:722    .text.chOQGetI:0000000000000000 $t
     /tmp/ccwSpLeL.s:728    .text.chOQGetI:0000000000000000 chOQGetI
     /tmp/ccwSpLeL.s:813    .text.chOQWriteTimeout:0000000000000000 $t
     /tmp/ccwSpLeL.s:819    .text.chOQWriteTimeout:0000000000000000 chOQWriteTimeout
                     .debug_frame:0000000000000010 $d
     /tmp/ccwSpLeL.s:79     .text.qwait:0000000000000028 $t

UNDEFINED SYMBOLS
chSchGoSleepTimeoutS
rlist
chDbgCheckClassI
chSchReadyI
dbg_check_lock
dbg_check_unlock
