ARM GAS  /tmp/ccruVO3b.s 			page 1


   1              		.syntax unified
   2              		.cpu cortex-m4
   3              		.fpu softvfp
   4              		.eabi_attribute 20, 1
   5              		.eabi_attribute 21, 1
   6              		.eabi_attribute 23, 3
   7              		.eabi_attribute 24, 1
   8              		.eabi_attribute 25, 1
   9              		.eabi_attribute 26, 1
  10              		.eabi_attribute 30, 1
  11              		.eabi_attribute 34, 1
  12              		.eabi_attribute 18, 4
  13              		.thumb
  14              		.file	"chregistry.c"
  15              		.text
  16              	.Ltext0:
  17              		.cfi_sections	.debug_frame
  18              		.section	.text.chRegFirstThread,"ax",%progbits
  19              		.align	2
  20              		.p2align 4,,15
  21              		.global	chRegFirstThread
  22              		.thumb
  23              		.thumb_func
  24              		.type	chRegFirstThread, %function
  25              	chRegFirstThread:
  26              	.LFB7:
  27              		.file 1 "../../ChibiOS-RT/os/kernel/src/chregistry.c"
  28              		.loc 1 117 0
  29              		.cfi_startproc
  30              		@ args = 0, pretend = 0, frame = 0
  31              		@ frame_needed = 0, uses_anonymous_args = 0
  32 0000 10B5     		push	{r4, lr}
  33              		.cfi_def_cfa_offset 8
  34              		.cfi_offset 4, -8
  35              		.cfi_offset 14, -4
  36              	.LBB2:
  37              		.loc 1 120 0
  38 0002 2023     		movs	r3, #32
  39              	@ 120 "../../ChibiOS-RT/os/kernel/src/chregistry.c" 1
  40 0004 83F31188 		msr     BASEPRI, r3
  41              	@ 0 "" 2
  42              		.thumb
  43              	.LBE2:
  44 0008 FFF7FEFF 		bl	dbg_check_lock
  45              	.LVL0:
  46              		.loc 1 121 0
  47 000c 064B     		ldr	r3, .L3
  48 000e 1C69     		ldr	r4, [r3, #16]
  49              	.LVL1:
  50              		.loc 1 123 0
  51 0010 94F82230 		ldrb	r3, [r4, #34]	@ zero_extendqisi2
  52 0014 0133     		adds	r3, r3, #1
  53 0016 84F82230 		strb	r3, [r4, #34]
  54              		.loc 1 125 0
  55 001a FFF7FEFF 		bl	dbg_check_unlock
  56              	.LVL2:
  57              	.LBB3:
ARM GAS  /tmp/ccruVO3b.s 			page 2


  58 001e 0023     		movs	r3, #0
  59              	@ 125 "../../ChibiOS-RT/os/kernel/src/chregistry.c" 1
  60 0020 83F31188 		msr     BASEPRI, r3
  61              	@ 0 "" 2
  62              		.thumb
  63              	.LBE3:
  64              		.loc 1 127 0
  65 0024 2046     		mov	r0, r4
  66 0026 10BD     		pop	{r4, pc}
  67              	.LVL3:
  68              	.L4:
  69              		.align	2
  70              	.L3:
  71 0028 00000000 		.word	rlist
  72              		.cfi_endproc
  73              	.LFE7:
  74              		.size	chRegFirstThread, .-chRegFirstThread
  75 002c AFF30080 		.section	.text.chRegNextThread,"ax",%progbits
  76              		.align	2
  77              		.p2align 4,,15
  78              		.global	chRegNextThread
  79              		.thumb
  80              		.thumb_func
  81              		.type	chRegNextThread, %function
  82              	chRegNextThread:
  83              	.LFB8:
  84              		.loc 1 140 0
  85              		.cfi_startproc
  86              		@ args = 0, pretend = 0, frame = 0
  87              		@ frame_needed = 0, uses_anonymous_args = 0
  88              	.LVL4:
  89 0000 38B5     		push	{r3, r4, r5, lr}
  90              		.cfi_def_cfa_offset 16
  91              		.cfi_offset 3, -16
  92              		.cfi_offset 4, -12
  93              		.cfi_offset 5, -8
  94              		.cfi_offset 14, -4
  95 0002 0546     		mov	r5, r0
  96              	.LBB4:
  97              		.loc 1 143 0
  98 0004 2023     		movs	r3, #32
  99              	@ 143 "../../ChibiOS-RT/os/kernel/src/chregistry.c" 1
 100 0006 83F31188 		msr     BASEPRI, r3
 101              	@ 0 "" 2
 102              		.thumb
 103              	.LBE4:
 104 000a FFF7FEFF 		bl	dbg_check_lock
 105              	.LVL5:
 106              		.loc 1 144 0
 107 000e 2C69     		ldr	r4, [r5, #16]
 108              	.LVL6:
 109              		.loc 1 145 0
 110 0010 0D4B     		ldr	r3, .L10
 111 0012 9C42     		cmp	r4, r3
 112 0014 0CD0     		beq	.L8
 113              		.loc 1 149 0
 114 0016 94F82230 		ldrb	r3, [r4, #34]	@ zero_extendqisi2
ARM GAS  /tmp/ccruVO3b.s 			page 3


 115 001a FF2B     		cmp	r3, #255
 116 001c 02D1     		bne	.L7
 117              		.loc 1 149 0 is_stmt 0 discriminator 1
 118 001e 0B48     		ldr	r0, .L10+4
 119 0020 FFF7FEFF 		bl	chDbgPanic
 120              	.LVL7:
 121              	.L7:
 122              		.loc 1 151 0 is_stmt 1
 123 0024 94F82230 		ldrb	r3, [r4, #34]	@ zero_extendqisi2
 124 0028 0133     		adds	r3, r3, #1
 125 002a 84F82230 		strb	r3, [r4, #34]
 126 002e 00E0     		b	.L6
 127              	.L8:
 128              		.loc 1 146 0
 129 0030 0024     		movs	r4, #0
 130              	.LVL8:
 131              	.L6:
 132              		.loc 1 154 0
 133 0032 FFF7FEFF 		bl	dbg_check_unlock
 134              	.LVL9:
 135              	.LBB5:
 136 0036 0023     		movs	r3, #0
 137              	@ 154 "../../ChibiOS-RT/os/kernel/src/chregistry.c" 1
 138 0038 83F31188 		msr     BASEPRI, r3
 139              	@ 0 "" 2
 140              		.thumb
 141              	.LBE5:
 142              		.loc 1 156 0
 143 003c 2846     		mov	r0, r5
 144 003e FFF7FEFF 		bl	chThdRelease
 145              	.LVL10:
 146              		.loc 1 159 0
 147 0042 2046     		mov	r0, r4
 148 0044 38BD     		pop	{r3, r4, r5, pc}
 149              	.LVL11:
 150              	.L11:
 151 0046 00BF     		.align	2
 152              	.L10:
 153 0048 00000000 		.word	rlist
 154 004c 00000000 		.word	.LC0
 155              		.cfi_endproc
 156              	.LFE8:
 157              		.size	chRegNextThread, .-chRegNextThread
 158              		.global	ch_debug
 159              		.section	.rodata.ch_debug,"a",%progbits
 160              		.align	2
 161              		.type	ch_debug, %object
 162              		.size	ch_debug, 22
 163              	ch_debug:
 164 0000 6D61696E 		.ascii	"main"
 165 0004 00       		.byte	0
 166 0005 16       		.byte	22
 167 0006 8811     		.short	4488
 168 0008 04       		.byte	4
 169 0009 04       		.byte	4
 170 000a 4C       		.byte	76
 171 000b 08       		.byte	8
ARM GAS  /tmp/ccruVO3b.s 			page 4


 172 000c 0C       		.byte	12
 173 000d 10       		.byte	16
 174 000e 14       		.byte	20
 175 000f 18       		.byte	24
 176 0010 1C       		.byte	28
 177 0011 20       		.byte	32
 178 0012 21       		.byte	33
 179 0013 22       		.byte	34
 180 0014 23       		.byte	35
 181 0015 24       		.byte	36
 182 0016 0000     		.section	.rodata.str1.4,"aMS",%progbits,1
 183              		.align	2
 184              	.LC0:
 185 0000 63685265 		.ascii	"chRegNextThread(), #1\000"
 185      674E6578 
 185      74546872 
 185      65616428 
 185      292C2023 
 186 0016 0000     		.text
 187              	.Letext0:
 188              		.file 2 "/usr/lib/gcc/arm-none-eabi/4.9.2/include/stddef.h"
 189              		.file 3 "/usr/arm-none-eabi/include/machine/_default_types.h"
 190              		.file 4 "/usr/arm-none-eabi/include/stdint.h"
 191              		.file 5 "../../ChibiOS-RT/os/ports/GCC/ARMCMx/chtypes.h"
 192              		.file 6 "../../ChibiOS-RT/os/kernel/include/chlists.h"
 193              		.file 7 "../../ChibiOS-RT/os/kernel/include/chthreads.h"
 194              		.file 8 "../../ChibiOS-RT/os/ports/GCC/ARMCMx/chcore_v7m.h"
 195              		.file 9 "../../ChibiOS-RT/os/kernel/include/chschd.h"
 196              		.file 10 "../../ChibiOS-RT/os/kernel/include/chmtx.h"
 197              		.file 11 "../../ChibiOS-RT/os/kernel/include/chregistry.h"
 198              		.file 12 "../../ChibiOS-RT/os/kernel/include/chdebug.h"
 199              		.file 13 "../../ChibiOS-RT/os/kernel/include/chdynamic.h"