ARM GAS  /tmp/ccymjCKA.s 			page 1


   1              		.syntax unified
   2              		.cpu cortex-m4
   3              		.fpu softvfp
   4              		.eabi_attribute 20, 1
   5              		.eabi_attribute 21, 1
   6              		.eabi_attribute 23, 3
   7              		.eabi_attribute 24, 1
   8              		.eabi_attribute 25, 1
   9              		.eabi_attribute 26, 1
  10              		.eabi_attribute 30, 1
  11              		.eabi_attribute 34, 1
  12              		.eabi_attribute 18, 4
  13              		.thumb
  14              		.file	"chschd.c"
  15              		.text
  16              	.Ltext0:
  17              		.cfi_sections	.debug_frame
  18              		.section	.text._scheduler_init,"ax",%progbits
  19              		.align	2
  20              		.p2align 4,,15
  21              		.global	_scheduler_init
  22              		.thumb
  23              		.thumb_func
  24              		.type	_scheduler_init, %function
  25              	_scheduler_init:
  26              	.LFB7:
  27              		.file 1 "../../ChibiOS-RT/os/kernel/src/chschd.c"
  28              		.loc 1 55 0
  29              		.cfi_startproc
  30              		@ args = 0, pretend = 0, frame = 0
  31              		@ frame_needed = 0, uses_anonymous_args = 0
  32              		@ link register save eliminated.
  33              		.loc 1 57 0
  34 0000 034B     		ldr	r3, .L2
  35 0002 5B60     		str	r3, [r3, #4]
  36 0004 1B60     		str	r3, [r3]
  37              		.loc 1 58 0
  38 0006 0022     		movs	r2, #0
  39 0008 9A60     		str	r2, [r3, #8]
  40              		.loc 1 60 0
  41 000a 5B61     		str	r3, [r3, #20]
  42 000c 1B61     		str	r3, [r3, #16]
  43 000e 7047     		bx	lr
  44              	.L3:
  45              		.align	2
  46              	.L2:
  47 0010 00000000 		.word	.LANCHOR0
  48              		.cfi_endproc
  49              	.LFE7:
  50              		.size	_scheduler_init, .-_scheduler_init
  51 0014 AFF30080 		.section	.text.chSchReadyI,"ax",%progbits
  51      AFF30080 
  51      AFF30080 
  52              		.align	2
  53              		.p2align 4,,15
  54              		.global	chSchReadyI
  55              		.thumb
ARM GAS  /tmp/ccymjCKA.s 			page 2


  56              		.thumb_func
  57              		.type	chSchReadyI, %function
  58              	chSchReadyI:
  59              	.LFB8:
  60              		.loc 1 81 0
  61              		.cfi_startproc
  62              		@ args = 0, pretend = 0, frame = 0
  63              		@ frame_needed = 0, uses_anonymous_args = 0
  64              	.LVL0:
  65 0000 10B5     		push	{r4, lr}
  66              		.cfi_def_cfa_offset 8
  67              		.cfi_offset 4, -8
  68              		.cfi_offset 14, -4
  69 0002 0446     		mov	r4, r0
  70              		.loc 1 84 0
  71 0004 FFF7FEFF 		bl	chDbgCheckClassI
  72              	.LVL1:
  73              		.loc 1 87 0
  74 0008 94F82030 		ldrb	r3, [r4, #32]	@ zero_extendqisi2
  75 000c 0BB1     		cbz	r3, .L5
  76              		.loc 1 87 0 is_stmt 0 discriminator 2
  77 000e 0E2B     		cmp	r3, #14
  78 0010 02D1     		bne	.L6
  79              	.L5:
  80              		.loc 1 87 0 discriminator 3
  81 0012 0948     		ldr	r0, .L9
  82 0014 FFF7FEFF 		bl	chDbgPanic
  83              	.LVL2:
  84              	.L6:
  85              		.loc 1 92 0 is_stmt 1
  86 0018 0023     		movs	r3, #0
  87 001a 84F82030 		strb	r3, [r4, #32]
  88              	.LVL3:
  89              		.loc 1 93 0
  90 001e 074B     		ldr	r3, .L9+4
  91              	.LVL4:
  92              	.L7:
  93              		.loc 1 95 0 discriminator 1
  94 0020 1B68     		ldr	r3, [r3]
  95              	.LVL5:
  96              		.loc 1 96 0 discriminator 1
  97 0022 9968     		ldr	r1, [r3, #8]
  98 0024 A268     		ldr	r2, [r4, #8]
  99 0026 9142     		cmp	r1, r2
 100 0028 FAD2     		bcs	.L7
 101              		.loc 1 98 0
 102 002a 2360     		str	r3, [r4]
 103              		.loc 1 99 0
 104 002c 5A68     		ldr	r2, [r3, #4]
 105 002e 6260     		str	r2, [r4, #4]
 106              		.loc 1 100 0
 107 0030 5C60     		str	r4, [r3, #4]
 108 0032 1460     		str	r4, [r2]
 109              		.loc 1 102 0
 110 0034 2046     		mov	r0, r4
 111 0036 10BD     		pop	{r4, pc}
 112              	.LVL6:
ARM GAS  /tmp/ccymjCKA.s 			page 3


 113              	.L10:
 114              		.align	2
 115              	.L9:
 116 0038 00000000 		.word	.LC0
 117 003c 00000000 		.word	.LANCHOR0
 118              		.cfi_endproc
 119              	.LFE8:
 120              		.size	chSchReadyI, .-chSchReadyI
 121              		.section	.text.wakeup,"ax",%progbits
 122              		.align	2
 123              		.p2align 4,,15
 124              		.thumb
 125              		.thumb_func
 126              		.type	wakeup, %function
 127              	wakeup:
 128              	.LFB10:
 129              		.loc 1 136 0
 130              		.cfi_startproc
 131              		@ args = 0, pretend = 0, frame = 0
 132              		@ frame_needed = 0, uses_anonymous_args = 0
 133              	.LVL7:
 134 0000 10B5     		push	{r4, lr}
 135              		.cfi_def_cfa_offset 8
 136              		.cfi_offset 4, -8
 137              		.cfi_offset 14, -4
 138 0002 0446     		mov	r4, r0
 139              	.LVL8:
 140              	.LBB16:
 141              		.loc 1 139 0
 142 0004 2023     		movs	r3, #32
 143              	@ 139 "../../ChibiOS-RT/os/kernel/src/chschd.c" 1
 144 0006 83F31188 		msr     BASEPRI, r3
 145              	@ 0 "" 2
 146              		.thumb
 147              	.LBE16:
 148 000a FFF7FEFF 		bl	dbg_check_lock_from_isr
 149              	.LVL9:
 150              		.loc 1 140 0
 151 000e 94F82030 		ldrb	r3, [r4, #32]	@ zero_extendqisi2
 152 0012 0D2B     		cmp	r3, #13
 153 0014 18D8     		bhi	.L12
 154 0016 DFE803F0 		tbb	[pc, r3]
 155              	.L14:
 156 001a 07       		.byte	(.L13-.L14)/2
 157 001b 17       		.byte	(.L12-.L14)/2
 158 001c 17       		.byte	(.L12-.L14)/2
 159 001d 0D       		.byte	(.L15-.L14)/2
 160 001e 17       		.byte	(.L12-.L14)/2
 161 001f 11       		.byte	(.L16-.L14)/2
 162 0020 17       		.byte	(.L12-.L14)/2
 163 0021 17       		.byte	(.L12-.L14)/2
 164 0022 17       		.byte	(.L12-.L14)/2
 165 0023 17       		.byte	(.L12-.L14)/2
 166 0024 17       		.byte	(.L12-.L14)/2
 167 0025 17       		.byte	(.L12-.L14)/2
 168 0026 17       		.byte	(.L12-.L14)/2
 169 0027 11       		.byte	(.L16-.L14)/2
ARM GAS  /tmp/ccymjCKA.s 			page 4


 170              		.p2align 1
 171              	.L13:
 172              		.loc 1 144 0
 173 0028 FFF7FEFF 		bl	dbg_check_unlock_from_isr
 174              	.LVL10:
 175              	.LBB17:
 176 002c 0023     		movs	r3, #0
 177              	@ 144 "../../ChibiOS-RT/os/kernel/src/chschd.c" 1
 178 002e 83F31188 		msr     BASEPRI, r3
 179              	@ 0 "" 2
 180              		.thumb
 181              	.LBE17:
 182              		.loc 1 145 0
 183 0032 10BD     		pop	{r4, pc}
 184              	.LVL11:
 185              	.L15:
 186              		.loc 1 150 0
 187 0034 A26A     		ldr	r2, [r4, #40]
 188 0036 9368     		ldr	r3, [r2, #8]
 189 0038 0133     		adds	r3, r3, #1
 190 003a 9360     		str	r3, [r2, #8]
 191              	.L16:
 192              	.LVL12:
 193              	.LBB18:
 194              	.LBB19:
 195              		.file 2 "../../ChibiOS-RT/os/kernel/include/chinline.h"
 196              		.loc 2 75 0
 197 003c 6368     		ldr	r3, [r4, #4]
 198 003e 2268     		ldr	r2, [r4]
 199 0040 1A60     		str	r2, [r3]
 200              		.loc 2 76 0
 201 0042 2368     		ldr	r3, [r4]
 202 0044 6268     		ldr	r2, [r4, #4]
 203 0046 5A60     		str	r2, [r3, #4]
 204              	.LVL13:
 205              	.L12:
 206              	.LBE19:
 207              	.LBE18:
 208              		.loc 1 163 0
 209 0048 4FF0FF33 		mov	r3, #-1
 210 004c A362     		str	r3, [r4, #40]
 211              		.loc 1 164 0
 212 004e 2046     		mov	r0, r4
 213 0050 FFF7FEFF 		bl	chSchReadyI
 214              	.LVL14:
 215              		.loc 1 165 0
 216 0054 FFF7FEFF 		bl	dbg_check_unlock_from_isr
 217              	.LVL15:
 218              	.LBB20:
 219 0058 0023     		movs	r3, #0
 220              	@ 165 "../../ChibiOS-RT/os/kernel/src/chschd.c" 1
 221 005a 83F31188 		msr     BASEPRI, r3
 222              	@ 0 "" 2
 223              		.thumb
 224 005e 10BD     		pop	{r4, pc}
 225              	.LBE20:
 226              		.cfi_endproc
ARM GAS  /tmp/ccymjCKA.s 			page 5


 227              	.LFE10:
 228              		.size	wakeup, .-wakeup
 229              		.section	.text.chSchGoSleepS,"ax",%progbits
 230              		.align	2
 231              		.p2align 4,,15
 232              		.global	chSchGoSleepS
 233              		.thumb
 234              		.thumb_func
 235              		.type	chSchGoSleepS, %function
 236              	chSchGoSleepS:
 237              	.LFB9:
 238              		.loc 1 115 0
 239              		.cfi_startproc
 240              		@ args = 0, pretend = 0, frame = 0
 241              		@ frame_needed = 0, uses_anonymous_args = 0
 242              	.LVL16:
 243 0000 38B5     		push	{r3, r4, r5, lr}
 244              		.cfi_def_cfa_offset 16
 245              		.cfi_offset 3, -16
 246              		.cfi_offset 4, -12
 247              		.cfi_offset 5, -8
 248              		.cfi_offset 14, -4
 249 0002 0546     		mov	r5, r0
 250              		.loc 1 118 0
 251 0004 FFF7FEFF 		bl	chDbgCheckClassS
 252              	.LVL17:
 253              		.loc 1 120 0
 254 0008 0E4B     		ldr	r3, .L22
 255 000a 9C69     		ldr	r4, [r3, #24]
 256              	.LVL18:
 257 000c 84F82050 		strb	r5, [r4, #32]
 258              		.loc 1 124 0
 259 0010 1422     		movs	r2, #20
 260 0012 84F82320 		strb	r2, [r4, #35]
 261              	.LVL19:
 262              	.LBB21:
 263              	.LBB22:
 264              		.loc 2 60 0
 265 0016 1A68     		ldr	r2, [r3]
 266              	.LVL20:
 267              		.loc 2 62 0
 268 0018 1168     		ldr	r1, [r2]
 269 001a 1960     		str	r1, [r3]
 270 001c 4B60     		str	r3, [r1, #4]
 271              	.LBE22:
 272              	.LBE21:
 273              		.loc 1 126 0
 274 001e 9A61     		str	r2, [r3, #24]
 275              		.loc 1 127 0
 276 0020 0123     		movs	r3, #1
 277 0022 82F82030 		strb	r3, [r2, #32]
 278              	.LBB23:
 279              		.loc 1 128 0
 280 0026 ADF12402 		sub	r2, sp, #36
 281              	.LVL21:
 282 002a E369     		ldr	r3, [r4, #28]
 283 002c 9A42     		cmp	r2, r3
ARM GAS  /tmp/ccymjCKA.s 			page 6


 284 002e 02D2     		bcs	.L20
 285              		.loc 1 128 0 is_stmt 0 discriminator 1
 286 0030 0548     		ldr	r0, .L22+4
 287 0032 FFF7FEFF 		bl	chDbgPanic
 288              	.LVL22:
 289              	.L20:
 290              		.loc 1 128 0 discriminator 3
 291 0036 034B     		ldr	r3, .L22
 292 0038 9869     		ldr	r0, [r3, #24]
 293 003a 2146     		mov	r1, r4
 294 003c FFF7FEFF 		bl	_port_switch
 295              	.LVL23:
 296 0040 38BD     		pop	{r3, r4, r5, pc}
 297              	.LVL24:
 298              	.L23:
 299 0042 00BF     		.align	2
 300              	.L22:
 301 0044 00000000 		.word	.LANCHOR0
 302 0048 14000000 		.word	.LC1
 303              	.LBE23:
 304              		.cfi_endproc
 305              	.LFE9:
 306              		.size	chSchGoSleepS, .-chSchGoSleepS
 307 004c AFF30080 		.section	.text.chSchGoSleepTimeoutS,"ax",%progbits
 308              		.align	2
 309              		.p2align 4,,15
 310              		.global	chSchGoSleepTimeoutS
 311              		.thumb
 312              		.thumb_func
 313              		.type	chSchGoSleepTimeoutS, %function
 314              	chSchGoSleepTimeoutS:
 315              	.LFB11:
 316              		.loc 1 189 0 is_stmt 1
 317              		.cfi_startproc
 318              		@ args = 0, pretend = 0, frame = 24
 319              		@ frame_needed = 0, uses_anonymous_args = 0
 320              	.LVL25:
 321 0000 30B5     		push	{r4, r5, lr}
 322              		.cfi_def_cfa_offset 12
 323              		.cfi_offset 4, -12
 324              		.cfi_offset 5, -8
 325              		.cfi_offset 14, -4
 326 0002 87B0     		sub	sp, sp, #28
 327              		.cfi_def_cfa_offset 40
 328 0004 0546     		mov	r5, r0
 329 0006 0C46     		mov	r4, r1
 330              		.loc 1 191 0
 331 0008 FFF7FEFF 		bl	chDbgCheckClassS
 332              	.LVL26:
 333              		.loc 1 193 0
 334 000c B4F1FF3F 		cmp	r4, #-1
 335 0010 0FD0     		beq	.L25
 336              	.LBB24:
 337              		.loc 1 196 0
 338 0012 01A8     		add	r0, sp, #4
 339 0014 2146     		mov	r1, r4
 340 0016 0B4A     		ldr	r2, .L29
ARM GAS  /tmp/ccymjCKA.s 			page 7


 341 0018 0B4B     		ldr	r3, .L29+4
 342 001a 9B69     		ldr	r3, [r3, #24]
 343 001c FFF7FEFF 		bl	chVTSetI
 344              	.LVL27:
 345              		.loc 1 197 0
 346 0020 2846     		mov	r0, r5
 347 0022 FFF7FEFF 		bl	chSchGoSleepS
 348              	.LVL28:
 349              		.loc 1 198 0
 350 0026 049B     		ldr	r3, [sp, #16]
 351 0028 33B1     		cbz	r3, .L27
 352              		.loc 1 199 0
 353 002a 01A8     		add	r0, sp, #4
 354 002c FFF7FEFF 		bl	chVTResetI
 355              	.LVL29:
 356 0030 02E0     		b	.L27
 357              	.L25:
 358              	.LBE24:
 359              		.loc 1 202 0
 360 0032 2846     		mov	r0, r5
 361 0034 FFF7FEFF 		bl	chSchGoSleepS
 362              	.LVL30:
 363              	.L27:
 364              		.loc 1 203 0
 365 0038 034B     		ldr	r3, .L29+4
 366 003a 9B69     		ldr	r3, [r3, #24]
 367              		.loc 1 204 0
 368 003c 986A     		ldr	r0, [r3, #40]
 369 003e 07B0     		add	sp, sp, #28
 370              		.cfi_def_cfa_offset 12
 371              		@ sp needed
 372 0040 30BD     		pop	{r4, r5, pc}
 373              	.LVL31:
 374              	.L30:
 375 0042 00BF     		.align	2
 376              	.L29:
 377 0044 00000000 		.word	wakeup
 378 0048 00000000 		.word	.LANCHOR0
 379              		.cfi_endproc
 380              	.LFE11:
 381              		.size	chSchGoSleepTimeoutS, .-chSchGoSleepTimeoutS
 382 004c AFF30080 		.section	.text.chSchWakeupS,"ax",%progbits
 383              		.align	2
 384              		.p2align 4,,15
 385              		.global	chSchWakeupS
 386              		.thumb
 387              		.thumb_func
 388              		.type	chSchWakeupS, %function
 389              	chSchWakeupS:
 390              	.LFB12:
 391              		.loc 1 225 0
 392              		.cfi_startproc
 393              		@ args = 0, pretend = 0, frame = 0
 394              		@ frame_needed = 0, uses_anonymous_args = 0
 395              	.LVL32:
 396 0000 38B5     		push	{r3, r4, r5, lr}
 397              		.cfi_def_cfa_offset 16
ARM GAS  /tmp/ccymjCKA.s 			page 8


 398              		.cfi_offset 3, -16
 399              		.cfi_offset 4, -12
 400              		.cfi_offset 5, -8
 401              		.cfi_offset 14, -4
 402 0002 0446     		mov	r4, r0
 403 0004 0D46     		mov	r5, r1
 404              		.loc 1 227 0
 405 0006 FFF7FEFF 		bl	chDbgCheckClassS
 406              	.LVL33:
 407              		.loc 1 229 0
 408 000a A562     		str	r5, [r4, #40]
 409              		.loc 1 234 0
 410 000c A268     		ldr	r2, [r4, #8]
 411 000e 0F4B     		ldr	r3, .L36
 412 0010 9869     		ldr	r0, [r3, #24]
 413 0012 8368     		ldr	r3, [r0, #8]
 414 0014 9A42     		cmp	r2, r3
 415 0016 03D8     		bhi	.L32
 416              		.loc 1 235 0
 417 0018 2046     		mov	r0, r4
 418 001a FFF7FEFF 		bl	chSchReadyI
 419              	.LVL34:
 420 001e 38BD     		pop	{r3, r4, r5, pc}
 421              	.LVL35:
 422              	.L32:
 423              	.LBB25:
 424              		.loc 1 237 0
 425 0020 FFF7FEFF 		bl	chSchReadyI
 426              	.LVL36:
 427 0024 0546     		mov	r5, r0
 428              	.LVL37:
 429              		.loc 1 238 0
 430 0026 094B     		ldr	r3, .L36
 431 0028 9C61     		str	r4, [r3, #24]
 432              		.loc 1 239 0
 433 002a 0123     		movs	r3, #1
 434 002c 84F82030 		strb	r3, [r4, #32]
 435              	.LBB26:
 436              		.loc 1 240 0
 437 0030 ADF12402 		sub	r2, sp, #36
 438 0034 C369     		ldr	r3, [r0, #28]
 439 0036 9A42     		cmp	r2, r3
 440 0038 02D2     		bcs	.L34
 441              		.loc 1 240 0 is_stmt 0 discriminator 1
 442 003a 0548     		ldr	r0, .L36+4
 443              	.LVL38:
 444 003c FFF7FEFF 		bl	chDbgPanic
 445              	.LVL39:
 446              	.L34:
 447              		.loc 1 240 0 discriminator 3
 448 0040 2046     		mov	r0, r4
 449 0042 2946     		mov	r1, r5
 450 0044 FFF7FEFF 		bl	_port_switch
 451              	.LVL40:
 452 0048 38BD     		pop	{r3, r4, r5, pc}
 453              	.LVL41:
 454              	.L37:
ARM GAS  /tmp/ccymjCKA.s 			page 9


 455 004a 00BF     		.align	2
 456              	.L36:
 457 004c 00000000 		.word	.LANCHOR0
 458 0050 14000000 		.word	.LC1
 459              	.LBE26:
 460              	.LBE25:
 461              		.cfi_endproc
 462              	.LFE12:
 463              		.size	chSchWakeupS, .-chSchWakeupS
 464 0054 AFF30080 		.section	.text.chSchDoRescheduleBehind,"ax",%progbits
 464      AFF30080 
 464      AFF30080 
 465              		.align	2
 466              		.p2align 4,,15
 467              		.global	chSchDoRescheduleBehind
 468              		.thumb
 469              		.thumb_func
 470              		.type	chSchDoRescheduleBehind, %function
 471              	chSchDoRescheduleBehind:
 472              	.LFB14:
 473              		.loc 1 304 0 is_stmt 1
 474              		.cfi_startproc
 475              		@ args = 0, pretend = 0, frame = 0
 476              		@ frame_needed = 0, uses_anonymous_args = 0
 477 0000 10B5     		push	{r4, lr}
 478              		.cfi_def_cfa_offset 8
 479              		.cfi_offset 4, -8
 480              		.cfi_offset 14, -4
 481              		.loc 1 307 0
 482 0002 0F4B     		ldr	r3, .L41
 483 0004 9C69     		ldr	r4, [r3, #24]
 484              	.LVL42:
 485              	.LBB27:
 486              	.LBB28:
 487              		.loc 2 60 0
 488 0006 1A68     		ldr	r2, [r3]
 489              	.LVL43:
 490              		.loc 2 62 0
 491 0008 1168     		ldr	r1, [r2]
 492 000a 1960     		str	r1, [r3]
 493 000c 4B60     		str	r3, [r1, #4]
 494              	.LBE28:
 495              	.LBE27:
 496              		.loc 1 309 0
 497 000e 9A61     		str	r2, [r3, #24]
 498              		.loc 1 310 0
 499 0010 0123     		movs	r3, #1
 500 0012 82F82030 		strb	r3, [r2, #32]
 501              		.loc 1 312 0
 502 0016 1423     		movs	r3, #20
 503 0018 84F82330 		strb	r3, [r4, #35]
 504              		.loc 1 314 0
 505 001c 2046     		mov	r0, r4
 506 001e FFF7FEFF 		bl	chSchReadyI
 507              	.LVL44:
 508              	.LBB29:
 509              		.loc 1 315 0
ARM GAS  /tmp/ccymjCKA.s 			page 10


 510 0022 ADF12402 		sub	r2, sp, #36
 511 0026 E369     		ldr	r3, [r4, #28]
 512 0028 9A42     		cmp	r2, r3
 513 002a 02D2     		bcs	.L39
 514              		.loc 1 315 0 is_stmt 0 discriminator 1
 515 002c 0548     		ldr	r0, .L41+4
 516 002e FFF7FEFF 		bl	chDbgPanic
 517              	.LVL45:
 518              	.L39:
 519              		.loc 1 315 0 discriminator 3
 520 0032 034B     		ldr	r3, .L41
 521 0034 9869     		ldr	r0, [r3, #24]
 522 0036 2146     		mov	r1, r4
 523 0038 FFF7FEFF 		bl	_port_switch
 524              	.LVL46:
 525 003c 10BD     		pop	{r4, pc}
 526              	.LVL47:
 527              	.L42:
 528 003e 00BF     		.align	2
 529              	.L41:
 530 0040 00000000 		.word	.LANCHOR0
 531 0044 14000000 		.word	.LC1
 532              	.LBE29:
 533              		.cfi_endproc
 534              	.LFE14:
 535              		.size	chSchDoRescheduleBehind, .-chSchDoRescheduleBehind
 536 0048 AFF30080 		.section	.text.chSchDoRescheduleAhead,"ax",%progbits
 536      AFF30080 
 537              		.align	2
 538              		.p2align 4,,15
 539              		.global	chSchDoRescheduleAhead
 540              		.thumb
 541              		.thumb_func
 542              		.type	chSchDoRescheduleAhead, %function
 543              	chSchDoRescheduleAhead:
 544              	.LFB15:
 545              		.loc 1 329 0 is_stmt 1
 546              		.cfi_startproc
 547              		@ args = 0, pretend = 0, frame = 0
 548              		@ frame_needed = 0, uses_anonymous_args = 0
 549 0000 10B5     		push	{r4, lr}
 550              		.cfi_def_cfa_offset 8
 551              		.cfi_offset 4, -8
 552              		.cfi_offset 14, -4
 553              		.loc 1 332 0
 554 0002 124B     		ldr	r3, .L47
 555 0004 9C69     		ldr	r4, [r3, #24]
 556              	.LVL48:
 557              	.LBB30:
 558              	.LBB31:
 559              		.loc 2 60 0
 560 0006 1A68     		ldr	r2, [r3]
 561              	.LVL49:
 562              		.loc 2 62 0
 563 0008 1168     		ldr	r1, [r2]
 564 000a 1960     		str	r1, [r3]
 565 000c 4B60     		str	r3, [r1, #4]
ARM GAS  /tmp/ccymjCKA.s 			page 11


 566              	.LBE31:
 567              	.LBE30:
 568              		.loc 1 334 0
 569 000e 9A61     		str	r2, [r3, #24]
 570              		.loc 1 335 0
 571 0010 0121     		movs	r1, #1
 572 0012 82F82010 		strb	r1, [r2, #32]
 573              		.loc 1 337 0
 574 0016 0022     		movs	r2, #0
 575              	.LVL50:
 576 0018 84F82020 		strb	r2, [r4, #32]
 577              	.LVL51:
 578              	.L44:
 579              		.loc 1 340 0 discriminator 1
 580 001c 1B68     		ldr	r3, [r3]
 581              	.LVL52:
 582              		.loc 1 341 0 discriminator 1
 583 001e 9868     		ldr	r0, [r3, #8]
 584 0020 A268     		ldr	r2, [r4, #8]
 585 0022 9042     		cmp	r0, r2
 586 0024 FAD8     		bhi	.L44
 587              		.loc 1 343 0
 588 0026 2360     		str	r3, [r4]
 589              	.LVL53:
 590              		.loc 1 344 0
 591 0028 5A68     		ldr	r2, [r3, #4]
 592 002a 6260     		str	r2, [r4, #4]
 593              		.loc 1 345 0
 594 002c 5C60     		str	r4, [r3, #4]
 595 002e 1460     		str	r4, [r2]
 596              	.LBB32:
 597              		.loc 1 347 0
 598 0030 ADF12402 		sub	r2, sp, #36
 599 0034 E369     		ldr	r3, [r4, #28]
 600              	.LVL54:
 601 0036 9A42     		cmp	r2, r3
 602 0038 02D2     		bcs	.L45
 603              		.loc 1 347 0 is_stmt 0 discriminator 1
 604 003a 0548     		ldr	r0, .L47+4
 605 003c FFF7FEFF 		bl	chDbgPanic
 606              	.LVL55:
 607              	.L45:
 608              		.loc 1 347 0 discriminator 3
 609 0040 024B     		ldr	r3, .L47
 610 0042 9869     		ldr	r0, [r3, #24]
 611 0044 2146     		mov	r1, r4
 612 0046 FFF7FEFF 		bl	_port_switch
 613              	.LVL56:
 614 004a 10BD     		pop	{r4, pc}
 615              	.LVL57:
 616              	.L48:
 617              		.align	2
 618              	.L47:
 619 004c 00000000 		.word	.LANCHOR0
 620 0050 14000000 		.word	.LC1
 621              	.LBE32:
 622              		.cfi_endproc
ARM GAS  /tmp/ccymjCKA.s 			page 12


 623              	.LFE15:
 624              		.size	chSchDoRescheduleAhead, .-chSchDoRescheduleAhead
 625 0054 AFF30080 		.section	.text.chSchRescheduleS,"ax",%progbits
 625      AFF30080 
 625      AFF30080 
 626              		.align	2
 627              		.p2align 4,,15
 628              		.global	chSchRescheduleS
 629              		.thumb
 630              		.thumb_func
 631              		.type	chSchRescheduleS, %function
 632              	chSchRescheduleS:
 633              	.LFB13:
 634              		.loc 1 253 0 is_stmt 1
 635              		.cfi_startproc
 636              		@ args = 0, pretend = 0, frame = 0
 637              		@ frame_needed = 0, uses_anonymous_args = 0
 638 0000 08B5     		push	{r3, lr}
 639              		.cfi_def_cfa_offset 8
 640              		.cfi_offset 3, -8
 641              		.cfi_offset 14, -4
 642              		.loc 1 255 0
 643 0002 FFF7FEFF 		bl	chDbgCheckClassS
 644              	.LVL58:
 645              		.loc 1 257 0
 646 0006 054B     		ldr	r3, .L52
 647 0008 1A68     		ldr	r2, [r3]
 648 000a 9268     		ldr	r2, [r2, #8]
 649 000c 9B69     		ldr	r3, [r3, #24]
 650 000e 9B68     		ldr	r3, [r3, #8]
 651 0010 9A42     		cmp	r2, r3
 652 0012 01D9     		bls	.L49
 653              		.loc 1 258 0
 654 0014 FFF7FEFF 		bl	chSchDoRescheduleAhead
 655              	.LVL59:
 656              	.L49:
 657 0018 08BD     		pop	{r3, pc}
 658              	.L53:
 659 001a 00BF     		.align	2
 660              	.L52:
 661 001c 00000000 		.word	.LANCHOR0
 662              		.cfi_endproc
 663              	.LFE13:
 664              		.size	chSchRescheduleS, .-chSchRescheduleS
 665              		.section	.text.chSchDoReschedule,"ax",%progbits
 666              		.align	2
 667              		.p2align 4,,15
 668              		.global	chSchDoReschedule
 669              		.thumb
 670              		.thumb_func
 671              		.type	chSchDoReschedule, %function
 672              	chSchDoReschedule:
 673              	.LFB16:
 674              		.loc 1 362 0
 675              		.cfi_startproc
 676              		@ args = 0, pretend = 0, frame = 0
 677              		@ frame_needed = 0, uses_anonymous_args = 0
ARM GAS  /tmp/ccymjCKA.s 			page 13


 678 0000 08B5     		push	{r3, lr}
 679              		.cfi_def_cfa_offset 8
 680              		.cfi_offset 3, -8
 681              		.cfi_offset 14, -4
 682              		.loc 1 367 0
 683 0002 054B     		ldr	r3, .L58
 684 0004 9B69     		ldr	r3, [r3, #24]
 685 0006 93F82330 		ldrb	r3, [r3, #35]	@ zero_extendqisi2
 686 000a 13B9     		cbnz	r3, .L55
 687              		.loc 1 370 0
 688 000c FFF7FEFF 		bl	chSchDoRescheduleBehind
 689              	.LVL60:
 690 0010 08BD     		pop	{r3, pc}
 691              	.L55:
 692              		.loc 1 375 0
 693 0012 FFF7FEFF 		bl	chSchDoRescheduleAhead
 694              	.LVL61:
 695 0016 08BD     		pop	{r3, pc}
 696              	.L59:
 697              		.align	2
 698              	.L58:
 699 0018 00000000 		.word	.LANCHOR0
 700              		.cfi_endproc
 701              	.LFE16:
 702              		.size	chSchDoReschedule, .-chSchDoReschedule
 703              		.global	rlist
 704 001c AFF30080 		.section	.rodata.str1.4,"aMS",%progbits,1
 705              		.align	2
 706              	.LC0:
 707 0000 63685363 		.ascii	"chSchReadyI(), #1\000"
 707      68526561 
 707      64794928 
 707      292C2023 
 707      3100
 708 0012 0000     		.space	2
 709              	.LC1:
 710 0014 73746163 		.ascii	"stack overflow\000"
 710      6B206F76 
 710      6572666C 
 710      6F7700
 711 0023 00       		.section	.bss.rlist,"aw",%nobits
 712              		.align	2
 713              		.set	.LANCHOR0,. + 0
 714              		.type	rlist, %object
 715              		.size	rlist, 28
 716              	rlist:
 717 0000 00000000 		.space	28
 717      00000000 
 717      00000000 
 717      00000000 
 717      00000000 
 718              		.text
 719              	.Letext0:
 720              		.file 3 "/usr/arm-none-eabi/include/machine/_default_types.h"
 721              		.file 4 "/usr/arm-none-eabi/include/stdint.h"
 722              		.file 5 "../../ChibiOS-RT/os/ports/GCC/ARMCMx/chtypes.h"
 723              		.file 6 "../../ChibiOS-RT/os/kernel/include/chlists.h"
ARM GAS  /tmp/ccymjCKA.s 			page 14


 724              		.file 7 "../../ChibiOS-RT/os/kernel/include/chthreads.h"
 725              		.file 8 "../../ChibiOS-RT/os/ports/GCC/ARMCMx/chcore_v7m.h"
 726              		.file 9 "../../ChibiOS-RT/os/kernel/include/chvt.h"
 727              		.file 10 "../../ChibiOS-RT/os/kernel/include/chschd.h"
 728              		.file 11 "../../ChibiOS-RT/os/kernel/include/chsem.h"
 729              		.file 12 "../../ChibiOS-RT/os/kernel/include/chmtx.h"
 730              		.file 13 "../../ChibiOS-RT/os/kernel/include/chdebug.h"