ARM GAS  /tmp/cc6ihcEi.s 			page 1


   1              		.syntax unified
   2              		.cpu cortex-m4
   3              		.fpu softvfp
   4              		.eabi_attribute 20, 1
   5              		.eabi_attribute 21, 1
   6              		.eabi_attribute 23, 3
   7              		.eabi_attribute 24, 1
   8              		.eabi_attribute 25, 1
   9              		.eabi_attribute 26, 1
  10              		.eabi_attribute 30, 1
  11              		.eabi_attribute 34, 1
  12              		.eabi_attribute 18, 4
  13              		.thumb
  14              		.file	"chsem.c"
  15              		.text
  16              	.Ltext0:
  17              		.cfi_sections	.debug_frame
  18              		.section	.text.chSemInit,"ax",%progbits
  19              		.align	2
  20              		.p2align 4,,15
  21              		.global	chSemInit
  22              		.thumb
  23              		.thumb_func
  24              		.type	chSemInit, %function
  25              	chSemInit:
  26              	.LFB7:
  27              		.file 1 "../../ChibiOS-RT/os/kernel/src/chsem.c"
  28              		.loc 1 86 0
  29              		.cfi_startproc
  30              		@ args = 0, pretend = 0, frame = 0
  31              		@ frame_needed = 0, uses_anonymous_args = 0
  32              		@ link register save eliminated.
  33              	.LVL0:
  34              		.loc 1 90 0
  35 0000 4060     		str	r0, [r0, #4]
  36 0002 0060     		str	r0, [r0]
  37              		.loc 1 91 0
  38 0004 8160     		str	r1, [r0, #8]
  39 0006 7047     		bx	lr
  40              		.cfi_endproc
  41              	.LFE7:
  42              		.size	chSemInit, .-chSemInit
  43 0008 AFF30080 		.section	.text.chSemResetI,"ax",%progbits
  43      AFF30080 
  44              		.align	2
  45              		.p2align 4,,15
  46              		.global	chSemResetI
  47              		.thumb
  48              		.thumb_func
  49              		.type	chSemResetI, %function
  50              	chSemResetI:
  51              	.LFB9:
  52              		.loc 1 136 0
  53              		.cfi_startproc
  54              		@ args = 0, pretend = 0, frame = 0
  55              		@ frame_needed = 0, uses_anonymous_args = 0
  56              	.LVL1:
ARM GAS  /tmp/cc6ihcEi.s 			page 2


  57 0000 70B5     		push	{r4, r5, r6, lr}
  58              		.cfi_def_cfa_offset 16
  59              		.cfi_offset 4, -16
  60              		.cfi_offset 5, -12
  61              		.cfi_offset 6, -8
  62              		.cfi_offset 14, -4
  63 0002 0446     		mov	r4, r0
  64 0004 0E46     		mov	r6, r1
  65              		.loc 1 139 0
  66 0006 FFF7FEFF 		bl	chDbgCheckClassI
  67              	.LVL2:
  68              		.loc 1 141 0
  69 000a A368     		ldr	r3, [r4, #8]
  70 000c 002B     		cmp	r3, #0
  71 000e 02DB     		blt	.L3
  72              		.loc 1 141 0 is_stmt 0 discriminator 2
  73 0010 2268     		ldr	r2, [r4]
  74 0012 A242     		cmp	r2, r4
  75 0014 07D0     		beq	.L4
  76              	.L3:
  77              		.loc 1 141 0 discriminator 3
  78 0016 002B     		cmp	r3, #0
  79 0018 02DA     		bge	.L5
  80              		.loc 1 141 0 discriminator 5
  81 001a 2368     		ldr	r3, [r4]
  82 001c A342     		cmp	r3, r4
  83 001e 02D1     		bne	.L4
  84              	.L5:
  85              		.loc 1 141 0 discriminator 6
  86 0020 0948     		ldr	r0, .L9
  87 0022 FFF7FEFF 		bl	chDbgPanic
  88              	.LVL3:
  89              	.L4:
  90              		.loc 1 146 0 is_stmt 1
  91 0026 A568     		ldr	r5, [r4, #8]
  92              	.LVL4:
  93              		.loc 1 147 0
  94 0028 A660     		str	r6, [r4, #8]
  95              		.loc 1 148 0
  96 002a 08E0     		b	.L6
  97              	.L7:
  98              	.LVL5:
  99              	.LBB24:
 100              	.LBB25:
 101              		.file 2 "../../ChibiOS-RT/os/kernel/include/chinline.h"
 102              		.loc 2 67 0
 103 002c 6068     		ldr	r0, [r4, #4]
 104              	.LVL6:
 105              		.loc 2 69 0
 106 002e 4368     		ldr	r3, [r0, #4]
 107 0030 6360     		str	r3, [r4, #4]
 108 0032 1C60     		str	r4, [r3]
 109              	.LBE25:
 110              	.LBE24:
 111              		.loc 1 149 0
 112 0034 FFF7FEFF 		bl	chSchReadyI
 113              	.LVL7:
ARM GAS  /tmp/cc6ihcEi.s 			page 3


 114 0038 6FF00103 		mvn	r3, #1
 115 003c 8362     		str	r3, [r0, #40]
 116              	.LVL8:
 117              	.L6:
 118              		.loc 1 148 0
 119 003e 0135     		adds	r5, r5, #1
 120              	.LVL9:
 121 0040 002D     		cmp	r5, #0
 122 0042 F3DD     		ble	.L7
 123              		.loc 1 150 0
 124 0044 70BD     		pop	{r4, r5, r6, pc}
 125              	.LVL10:
 126              	.L10:
 127 0046 00BF     		.align	2
 128              	.L9:
 129 0048 00000000 		.word	.LC0
 130              		.cfi_endproc
 131              	.LFE9:
 132              		.size	chSemResetI, .-chSemResetI
 133 004c AFF30080 		.section	.text.chSemReset,"ax",%progbits
 134              		.align	2
 135              		.p2align 4,,15
 136              		.global	chSemReset
 137              		.thumb
 138              		.thumb_func
 139              		.type	chSemReset, %function
 140              	chSemReset:
 141              	.LFB8:
 142              		.loc 1 109 0
 143              		.cfi_startproc
 144              		@ args = 0, pretend = 0, frame = 0
 145              		@ frame_needed = 0, uses_anonymous_args = 0
 146              	.LVL11:
 147 0000 38B5     		push	{r3, r4, r5, lr}
 148              		.cfi_def_cfa_offset 16
 149              		.cfi_offset 3, -16
 150              		.cfi_offset 4, -12
 151              		.cfi_offset 5, -8
 152              		.cfi_offset 14, -4
 153 0002 0546     		mov	r5, r0
 154 0004 0C46     		mov	r4, r1
 155              	.LBB26:
 156              		.loc 1 111 0
 157 0006 2023     		movs	r3, #32
 158              	@ 111 "../../ChibiOS-RT/os/kernel/src/chsem.c" 1
 159 0008 83F31188 		msr     BASEPRI, r3
 160              	@ 0 "" 2
 161              		.thumb
 162              	.LBE26:
 163 000c FFF7FEFF 		bl	dbg_check_lock
 164              	.LVL12:
 165              		.loc 1 112 0
 166 0010 2846     		mov	r0, r5
 167 0012 2146     		mov	r1, r4
 168 0014 FFF7FEFF 		bl	chSemResetI
 169              	.LVL13:
 170              		.loc 1 113 0
ARM GAS  /tmp/cc6ihcEi.s 			page 4


 171 0018 FFF7FEFF 		bl	chSchRescheduleS
 172              	.LVL14:
 173              		.loc 1 114 0
 174 001c FFF7FEFF 		bl	dbg_check_unlock
 175              	.LVL15:
 176              	.LBB27:
 177 0020 0023     		movs	r3, #0
 178              	@ 114 "../../ChibiOS-RT/os/kernel/src/chsem.c" 1
 179 0022 83F31188 		msr     BASEPRI, r3
 180              	@ 0 "" 2
 181              		.thumb
 182 0026 38BD     		pop	{r3, r4, r5, pc}
 183              	.LBE27:
 184              		.cfi_endproc
 185              	.LFE8:
 186              		.size	chSemReset, .-chSemReset
 187              		.section	.text.chSemWaitS,"ax",%progbits
 188              		.align	2
 189              		.p2align 4,,15
 190              		.global	chSemWaitS
 191              		.thumb
 192              		.thumb_func
 193              		.type	chSemWaitS, %function
 194              	chSemWaitS:
 195              	.LFB11:
 196              		.loc 1 185 0
 197              		.cfi_startproc
 198              		@ args = 0, pretend = 0, frame = 0
 199              		@ frame_needed = 0, uses_anonymous_args = 0
 200              	.LVL16:
 201 0000 38B5     		push	{r3, r4, r5, lr}
 202              		.cfi_def_cfa_offset 16
 203              		.cfi_offset 3, -16
 204              		.cfi_offset 4, -12
 205              		.cfi_offset 5, -8
 206              		.cfi_offset 14, -4
 207 0002 0446     		mov	r4, r0
 208              		.loc 1 187 0
 209 0004 FFF7FEFF 		bl	chDbgCheckClassS
 210              	.LVL17:
 211              		.loc 1 189 0
 212 0008 A368     		ldr	r3, [r4, #8]
 213 000a 002B     		cmp	r3, #0
 214 000c 02DB     		blt	.L14
 215              		.loc 1 189 0 is_stmt 0 discriminator 2
 216 000e 2268     		ldr	r2, [r4]
 217 0010 A242     		cmp	r2, r4
 218 0012 07D0     		beq	.L15
 219              	.L14:
 220              		.loc 1 189 0 discriminator 3
 221 0014 002B     		cmp	r3, #0
 222 0016 02DA     		bge	.L16
 223              		.loc 1 189 0 discriminator 5
 224 0018 2368     		ldr	r3, [r4]
 225 001a A342     		cmp	r3, r4
 226 001c 02D1     		bne	.L15
 227              	.L16:
ARM GAS  /tmp/cc6ihcEi.s 			page 5


 228              		.loc 1 189 0 discriminator 6
 229 001e 0C48     		ldr	r0, .L20
 230 0020 FFF7FEFF 		bl	chDbgPanic
 231              	.LVL18:
 232              	.L15:
 233              		.loc 1 194 0 is_stmt 1
 234 0024 A368     		ldr	r3, [r4, #8]
 235 0026 013B     		subs	r3, r3, #1
 236 0028 A360     		str	r3, [r4, #8]
 237 002a 002B     		cmp	r3, #0
 238 002c 0DDA     		bge	.L18
 239              		.loc 1 195 0
 240 002e 094D     		ldr	r5, .L20+4
 241 0030 AB69     		ldr	r3, [r5, #24]
 242 0032 9C62     		str	r4, [r3, #40]
 243              	.LVL19:
 244              	.LBB28:
 245              	.LBB29:
 246              		.loc 2 54 0
 247 0034 1C60     		str	r4, [r3]
 248              		.loc 2 55 0
 249 0036 6268     		ldr	r2, [r4, #4]
 250 0038 5A60     		str	r2, [r3, #4]
 251              		.loc 2 56 0
 252 003a 6360     		str	r3, [r4, #4]
 253              	.LVL20:
 254 003c 1360     		str	r3, [r2]
 255              	.LBE29:
 256              	.LBE28:
 257              		.loc 1 197 0
 258 003e 0320     		movs	r0, #3
 259 0040 FFF7FEFF 		bl	chSchGoSleepS
 260              	.LVL21:
 261              		.loc 1 198 0
 262 0044 AB69     		ldr	r3, [r5, #24]
 263 0046 986A     		ldr	r0, [r3, #40]
 264 0048 38BD     		pop	{r3, r4, r5, pc}
 265              	.LVL22:
 266              	.L18:
 267              		.loc 1 200 0
 268 004a 0020     		movs	r0, #0
 269              		.loc 1 201 0
 270 004c 38BD     		pop	{r3, r4, r5, pc}
 271              	.LVL23:
 272              	.L21:
 273 004e 00BF     		.align	2
 274              	.L20:
 275 0050 14000000 		.word	.LC1
 276 0054 00000000 		.word	rlist
 277              		.cfi_endproc
 278              	.LFE11:
 279              		.size	chSemWaitS, .-chSemWaitS
 280 0058 AFF30080 		.section	.text.chSemWait,"ax",%progbits
 280      AFF30080 
 281              		.align	2
 282              		.p2align 4,,15
 283              		.global	chSemWait
ARM GAS  /tmp/cc6ihcEi.s 			page 6


 284              		.thumb
 285              		.thumb_func
 286              		.type	chSemWait, %function
 287              	chSemWait:
 288              	.LFB10:
 289              		.loc 1 164 0
 290              		.cfi_startproc
 291              		@ args = 0, pretend = 0, frame = 0
 292              		@ frame_needed = 0, uses_anonymous_args = 0
 293              	.LVL24:
 294 0000 10B5     		push	{r4, lr}
 295              		.cfi_def_cfa_offset 8
 296              		.cfi_offset 4, -8
 297              		.cfi_offset 14, -4
 298 0002 0446     		mov	r4, r0
 299              	.LBB30:
 300              		.loc 1 167 0
 301 0004 2023     		movs	r3, #32
 302              	@ 167 "../../ChibiOS-RT/os/kernel/src/chsem.c" 1
 303 0006 83F31188 		msr     BASEPRI, r3
 304              	@ 0 "" 2
 305              		.thumb
 306              	.LBE30:
 307 000a FFF7FEFF 		bl	dbg_check_lock
 308              	.LVL25:
 309              		.loc 1 168 0
 310 000e 2046     		mov	r0, r4
 311 0010 FFF7FEFF 		bl	chSemWaitS
 312              	.LVL26:
 313 0014 0446     		mov	r4, r0
 314              	.LVL27:
 315              		.loc 1 169 0
 316 0016 FFF7FEFF 		bl	dbg_check_unlock
 317              	.LVL28:
 318              	.LBB31:
 319 001a 0023     		movs	r3, #0
 320              	@ 169 "../../ChibiOS-RT/os/kernel/src/chsem.c" 1
 321 001c 83F31188 		msr     BASEPRI, r3
 322              	@ 0 "" 2
 323              		.thumb
 324              	.LBE31:
 325              		.loc 1 171 0
 326 0020 2046     		mov	r0, r4
 327 0022 10BD     		pop	{r4, pc}
 328              		.cfi_endproc
 329              	.LFE10:
 330              		.size	chSemWait, .-chSemWait
 331 0024 AFF30080 		.section	.text.chSemWaitTimeoutS,"ax",%progbits
 331      AFF30080 
 331      AFF30080 
 332              		.align	2
 333              		.p2align 4,,15
 334              		.global	chSemWaitTimeoutS
 335              		.thumb
 336              		.thumb_func
 337              		.type	chSemWaitTimeoutS, %function
 338              	chSemWaitTimeoutS:
ARM GAS  /tmp/cc6ihcEi.s 			page 7


 339              	.LFB13:
 340              		.loc 1 250 0
 341              		.cfi_startproc
 342              		@ args = 0, pretend = 0, frame = 0
 343              		@ frame_needed = 0, uses_anonymous_args = 0
 344              	.LVL29:
 345 0000 38B5     		push	{r3, r4, r5, lr}
 346              		.cfi_def_cfa_offset 16
 347              		.cfi_offset 3, -16
 348              		.cfi_offset 4, -12
 349              		.cfi_offset 5, -8
 350              		.cfi_offset 14, -4
 351 0002 0446     		mov	r4, r0
 352 0004 0D46     		mov	r5, r1
 353              		.loc 1 252 0
 354 0006 FFF7FEFF 		bl	chDbgCheckClassS
 355              	.LVL30:
 356              		.loc 1 254 0
 357 000a A368     		ldr	r3, [r4, #8]
 358 000c 002B     		cmp	r3, #0
 359 000e 02DB     		blt	.L25
 360              		.loc 1 254 0 is_stmt 0 discriminator 2
 361 0010 2268     		ldr	r2, [r4]
 362 0012 A242     		cmp	r2, r4
 363 0014 07D0     		beq	.L26
 364              	.L25:
 365              		.loc 1 254 0 discriminator 3
 366 0016 002B     		cmp	r3, #0
 367 0018 02DA     		bge	.L27
 368              		.loc 1 254 0 discriminator 5
 369 001a 2368     		ldr	r3, [r4]
 370 001c A342     		cmp	r3, r4
 371 001e 02D1     		bne	.L26
 372              	.L27:
 373              		.loc 1 254 0 discriminator 6
 374 0020 0D48     		ldr	r0, .L32
 375 0022 FFF7FEFF 		bl	chDbgPanic
 376              	.LVL31:
 377              	.L26:
 378              		.loc 1 259 0 is_stmt 1
 379 0026 A268     		ldr	r2, [r4, #8]
 380 0028 531E     		subs	r3, r2, #1
 381 002a A360     		str	r3, [r4, #8]
 382 002c 002B     		cmp	r3, #0
 383 002e 11DA     		bge	.L30
 384              		.loc 1 260 0
 385 0030 1DB9     		cbnz	r5, .L29
 386              		.loc 1 261 0
 387 0032 A260     		str	r2, [r4, #8]
 388              		.loc 1 262 0
 389 0034 4FF0FF30 		mov	r0, #-1
 390 0038 38BD     		pop	{r3, r4, r5, pc}
 391              	.LVL32:
 392              	.L29:
 393              		.loc 1 264 0
 394 003a 084B     		ldr	r3, .L32+4
 395 003c 9B69     		ldr	r3, [r3, #24]
ARM GAS  /tmp/cc6ihcEi.s 			page 8


 396 003e 9C62     		str	r4, [r3, #40]
 397              	.LVL33:
 398              	.LBB32:
 399              	.LBB33:
 400              		.loc 2 54 0
 401 0040 1C60     		str	r4, [r3]
 402              		.loc 2 55 0
 403 0042 6268     		ldr	r2, [r4, #4]
 404 0044 5A60     		str	r2, [r3, #4]
 405              		.loc 2 56 0
 406 0046 6360     		str	r3, [r4, #4]
 407              	.LVL34:
 408 0048 1360     		str	r3, [r2]
 409              	.LBE33:
 410              	.LBE32:
 411              		.loc 1 266 0
 412 004a 0320     		movs	r0, #3
 413 004c 2946     		mov	r1, r5
 414 004e FFF7FEFF 		bl	chSchGoSleepTimeoutS
 415              	.LVL35:
 416 0052 38BD     		pop	{r3, r4, r5, pc}
 417              	.LVL36:
 418              	.L30:
 419              		.loc 1 268 0
 420 0054 0020     		movs	r0, #0
 421              		.loc 1 269 0
 422 0056 38BD     		pop	{r3, r4, r5, pc}
 423              	.LVL37:
 424              	.L33:
 425              		.align	2
 426              	.L32:
 427 0058 28000000 		.word	.LC2
 428 005c 00000000 		.word	rlist
 429              		.cfi_endproc
 430              	.LFE13:
 431              		.size	chSemWaitTimeoutS, .-chSemWaitTimeoutS
 432              		.section	.text.chSemWaitTimeout,"ax",%progbits
 433              		.align	2
 434              		.p2align 4,,15
 435              		.global	chSemWaitTimeout
 436              		.thumb
 437              		.thumb_func
 438              		.type	chSemWaitTimeout, %function
 439              	chSemWaitTimeout:
 440              	.LFB12:
 441              		.loc 1 222 0
 442              		.cfi_startproc
 443              		@ args = 0, pretend = 0, frame = 0
 444              		@ frame_needed = 0, uses_anonymous_args = 0
 445              	.LVL38:
 446 0000 38B5     		push	{r3, r4, r5, lr}
 447              		.cfi_def_cfa_offset 16
 448              		.cfi_offset 3, -16
 449              		.cfi_offset 4, -12
 450              		.cfi_offset 5, -8
 451              		.cfi_offset 14, -4
 452 0002 0546     		mov	r5, r0
ARM GAS  /tmp/cc6ihcEi.s 			page 9


 453 0004 0C46     		mov	r4, r1
 454              	.LBB34:
 455              		.loc 1 225 0
 456 0006 2023     		movs	r3, #32
 457              	@ 225 "../../ChibiOS-RT/os/kernel/src/chsem.c" 1
 458 0008 83F31188 		msr     BASEPRI, r3
 459              	@ 0 "" 2
 460              		.thumb
 461              	.LBE34:
 462 000c FFF7FEFF 		bl	dbg_check_lock
 463              	.LVL39:
 464              		.loc 1 226 0
 465 0010 2846     		mov	r0, r5
 466 0012 2146     		mov	r1, r4
 467 0014 FFF7FEFF 		bl	chSemWaitTimeoutS
 468              	.LVL40:
 469 0018 0446     		mov	r4, r0
 470              	.LVL41:
 471              		.loc 1 227 0
 472 001a FFF7FEFF 		bl	dbg_check_unlock
 473              	.LVL42:
 474              	.LBB35:
 475 001e 0023     		movs	r3, #0
 476              	@ 227 "../../ChibiOS-RT/os/kernel/src/chsem.c" 1
 477 0020 83F31188 		msr     BASEPRI, r3
 478              	@ 0 "" 2
 479              		.thumb
 480              	.LBE35:
 481              		.loc 1 229 0
 482 0024 2046     		mov	r0, r4
 483 0026 38BD     		pop	{r3, r4, r5, pc}
 484              		.cfi_endproc
 485              	.LFE12:
 486              		.size	chSemWaitTimeout, .-chSemWaitTimeout
 487 0028 AFF30080 		.section	.text.chSemSignal,"ax",%progbits
 487      AFF30080 
 488              		.align	2
 489              		.p2align 4,,15
 490              		.global	chSemSignal
 491              		.thumb
 492              		.thumb_func
 493              		.type	chSemSignal, %function
 494              	chSemSignal:
 495              	.LFB14:
 496              		.loc 1 278 0
 497              		.cfi_startproc
 498              		@ args = 0, pretend = 0, frame = 0
 499              		@ frame_needed = 0, uses_anonymous_args = 0
 500              	.LVL43:
 501 0000 10B5     		push	{r4, lr}
 502              		.cfi_def_cfa_offset 8
 503              		.cfi_offset 4, -8
 504              		.cfi_offset 14, -4
 505 0002 0446     		mov	r4, r0
 506              		.loc 1 281 0
 507 0004 8368     		ldr	r3, [r0, #8]
 508 0006 002B     		cmp	r3, #0
ARM GAS  /tmp/cc6ihcEi.s 			page 10


 509 0008 02DB     		blt	.L37
 510              		.loc 1 281 0 is_stmt 0 discriminator 2
 511 000a 0268     		ldr	r2, [r0]
 512 000c 8242     		cmp	r2, r0
 513 000e 07D0     		beq	.L38
 514              	.L37:
 515              		.loc 1 281 0 discriminator 3
 516 0010 002B     		cmp	r3, #0
 517 0012 02DA     		bge	.L39
 518              		.loc 1 281 0 discriminator 5
 519 0014 2368     		ldr	r3, [r4]
 520 0016 A342     		cmp	r3, r4
 521 0018 02D1     		bne	.L38
 522              	.L39:
 523              		.loc 1 281 0 discriminator 6
 524 001a 0D48     		ldr	r0, .L42
 525              	.LVL44:
 526 001c FFF7FEFF 		bl	chDbgPanic
 527              	.LVL45:
 528              	.L38:
 529              	.LBB36:
 530              		.loc 1 286 0 is_stmt 1
 531 0020 2023     		movs	r3, #32
 532              	@ 286 "../../ChibiOS-RT/os/kernel/src/chsem.c" 1
 533 0022 83F31188 		msr     BASEPRI, r3
 534              	@ 0 "" 2
 535              		.thumb
 536              	.LBE36:
 537 0026 FFF7FEFF 		bl	dbg_check_lock
 538              	.LVL46:
 539              		.loc 1 287 0
 540 002a A368     		ldr	r3, [r4, #8]
 541 002c 0133     		adds	r3, r3, #1
 542 002e A360     		str	r3, [r4, #8]
 543 0030 002B     		cmp	r3, #0
 544 0032 06DC     		bgt	.L40
 545              	.LVL47:
 546              	.LBB37:
 547              	.LBB38:
 548              		.loc 2 60 0
 549 0034 2068     		ldr	r0, [r4]
 550              	.LVL48:
 551              		.loc 2 62 0
 552 0036 0368     		ldr	r3, [r0]
 553 0038 2360     		str	r3, [r4]
 554 003a 5C60     		str	r4, [r3, #4]
 555              	.LBE38:
 556              	.LBE37:
 557              		.loc 1 288 0
 558 003c 0021     		movs	r1, #0
 559 003e FFF7FEFF 		bl	chSchWakeupS
 560              	.LVL49:
 561              	.L40:
 562              		.loc 1 289 0
 563 0042 FFF7FEFF 		bl	dbg_check_unlock
 564              	.LVL50:
 565              	.LBB39:
ARM GAS  /tmp/cc6ihcEi.s 			page 11


 566 0046 0023     		movs	r3, #0
 567              	@ 289 "../../ChibiOS-RT/os/kernel/src/chsem.c" 1
 568 0048 83F31188 		msr     BASEPRI, r3
 569              	@ 0 "" 2
 570              		.thumb
 571 004c 10BD     		pop	{r4, pc}
 572              	.LVL51:
 573              	.L43:
 574 004e 00BF     		.align	2
 575              	.L42:
 576 0050 40000000 		.word	.LC3
 577              	.LBE39:
 578              		.cfi_endproc
 579              	.LFE14:
 580              		.size	chSemSignal, .-chSemSignal
 581 0054 AFF30080 		.section	.text.chSemSignalI,"ax",%progbits
 581      AFF30080 
 581      AFF30080 
 582              		.align	2
 583              		.p2align 4,,15
 584              		.global	chSemSignalI
 585              		.thumb
 586              		.thumb_func
 587              		.type	chSemSignalI, %function
 588              	chSemSignalI:
 589              	.LFB15:
 590              		.loc 1 303 0
 591              		.cfi_startproc
 592              		@ args = 0, pretend = 0, frame = 0
 593              		@ frame_needed = 0, uses_anonymous_args = 0
 594              	.LVL52:
 595 0000 10B5     		push	{r4, lr}
 596              		.cfi_def_cfa_offset 8
 597              		.cfi_offset 4, -8
 598              		.cfi_offset 14, -4
 599 0002 0446     		mov	r4, r0
 600              		.loc 1 305 0
 601 0004 FFF7FEFF 		bl	chDbgCheckClassI
 602              	.LVL53:
 603              		.loc 1 307 0
 604 0008 A368     		ldr	r3, [r4, #8]
 605 000a 002B     		cmp	r3, #0
 606 000c 02DB     		blt	.L45
 607              		.loc 1 307 0 is_stmt 0 discriminator 2
 608 000e 2268     		ldr	r2, [r4]
 609 0010 A242     		cmp	r2, r4
 610 0012 07D0     		beq	.L46
 611              	.L45:
 612              		.loc 1 307 0 discriminator 3
 613 0014 002B     		cmp	r3, #0
 614 0016 02DA     		bge	.L47
 615              		.loc 1 307 0 discriminator 5
 616 0018 2368     		ldr	r3, [r4]
 617 001a A342     		cmp	r3, r4
 618 001c 02D1     		bne	.L46
 619              	.L47:
 620              		.loc 1 307 0 discriminator 6
ARM GAS  /tmp/cc6ihcEi.s 			page 12


 621 001e 0848     		ldr	r0, .L50
 622 0020 FFF7FEFF 		bl	chDbgPanic
 623              	.LVL54:
 624              	.L46:
 625              		.loc 1 312 0 is_stmt 1
 626 0024 A368     		ldr	r3, [r4, #8]
 627 0026 0133     		adds	r3, r3, #1
 628 0028 A360     		str	r3, [r4, #8]
 629 002a 002B     		cmp	r3, #0
 630 002c 07DC     		bgt	.L44
 631              	.LVL55:
 632              	.LBB40:
 633              	.LBB41:
 634              	.LBB42:
 635              		.loc 2 60 0
 636 002e 2068     		ldr	r0, [r4]
 637              	.LVL56:
 638              		.loc 2 62 0
 639 0030 0368     		ldr	r3, [r0]
 640 0032 2360     		str	r3, [r4]
 641 0034 5C60     		str	r4, [r3, #4]
 642              	.LBE42:
 643              	.LBE41:
 644              		.loc 1 316 0
 645 0036 0023     		movs	r3, #0
 646 0038 8362     		str	r3, [r0, #40]
 647              		.loc 1 317 0
 648 003a FFF7FEFF 		bl	chSchReadyI
 649              	.LVL57:
 650              	.L44:
 651 003e 10BD     		pop	{r4, pc}
 652              	.LVL58:
 653              	.L51:
 654              		.align	2
 655              	.L50:
 656 0040 54000000 		.word	.LC4
 657              	.LBE40:
 658              		.cfi_endproc
 659              	.LFE15:
 660              		.size	chSemSignalI, .-chSemSignalI
 661 0044 AFF30080 		.section	.text.chSemAddCounterI,"ax",%progbits
 661      AFF30080 
 661      AFF30080 
 662              		.align	2
 663              		.p2align 4,,15
 664              		.global	chSemAddCounterI
 665              		.thumb
 666              		.thumb_func
 667              		.type	chSemAddCounterI, %function
 668              	chSemAddCounterI:
 669              	.LFB16:
 670              		.loc 1 334 0
 671              		.cfi_startproc
 672              		@ args = 0, pretend = 0, frame = 0
 673              		@ frame_needed = 0, uses_anonymous_args = 0
 674              	.LVL59:
 675 0000 38B5     		push	{r3, r4, r5, lr}
ARM GAS  /tmp/cc6ihcEi.s 			page 13


 676              		.cfi_def_cfa_offset 16
 677              		.cfi_offset 3, -16
 678              		.cfi_offset 4, -12
 679              		.cfi_offset 5, -8
 680              		.cfi_offset 14, -4
 681 0002 0546     		mov	r5, r0
 682 0004 0C46     		mov	r4, r1
 683              		.loc 1 336 0
 684 0006 FFF7FEFF 		bl	chDbgCheckClassI
 685              	.LVL60:
 686              		.loc 1 338 0
 687 000a AB68     		ldr	r3, [r5, #8]
 688 000c 002B     		cmp	r3, #0
 689 000e 02DB     		blt	.L53
 690              		.loc 1 338 0 is_stmt 0 discriminator 2
 691 0010 2A68     		ldr	r2, [r5]
 692 0012 AA42     		cmp	r2, r5
 693 0014 16D0     		beq	.L56
 694              	.L53:
 695              		.loc 1 338 0 discriminator 3
 696 0016 002B     		cmp	r3, #0
 697 0018 02DA     		bge	.L55
 698              		.loc 1 338 0 discriminator 5
 699 001a 2B68     		ldr	r3, [r5]
 700 001c AB42     		cmp	r3, r5
 701 001e 11D1     		bne	.L56
 702              	.L55:
 703              		.loc 1 338 0 discriminator 6
 704 0020 0A48     		ldr	r0, .L60
 705 0022 FFF7FEFF 		bl	chDbgPanic
 706              	.LVL61:
 707 0026 0DE0     		b	.L56
 708              	.L58:
 709              		.loc 1 344 0 is_stmt 1
 710 0028 AB68     		ldr	r3, [r5, #8]
 711 002a 0133     		adds	r3, r3, #1
 712 002c AB60     		str	r3, [r5, #8]
 713 002e 002B     		cmp	r3, #0
 714 0030 07DC     		bgt	.L57
 715              	.LVL62:
 716              	.LBB43:
 717              	.LBB44:
 718              		.loc 2 60 0
 719 0032 2868     		ldr	r0, [r5]
 720              	.LVL63:
 721              		.loc 2 62 0
 722 0034 0368     		ldr	r3, [r0]
 723 0036 2B60     		str	r3, [r5]
 724 0038 5D60     		str	r5, [r3, #4]
 725              	.LBE44:
 726              	.LBE43:
 727              		.loc 1 345 0
 728 003a FFF7FEFF 		bl	chSchReadyI
 729              	.LVL64:
 730 003e 0023     		movs	r3, #0
 731 0040 8362     		str	r3, [r0, #40]
 732              	.LVL65:
ARM GAS  /tmp/cc6ihcEi.s 			page 14


 733              	.L57:
 734              		.loc 1 346 0
 735 0042 013C     		subs	r4, r4, #1
 736              	.LVL66:
 737              	.L56:
 738              		.loc 1 343 0
 739 0044 002C     		cmp	r4, #0
 740 0046 EFDC     		bgt	.L58
 741              		.loc 1 348 0
 742 0048 38BD     		pop	{r3, r4, r5, pc}
 743              	.LVL67:
 744              	.L61:
 745 004a 00BF     		.align	2
 746              	.L60:
 747 004c 68000000 		.word	.LC5
 748              		.cfi_endproc
 749              	.LFE16:
 750              		.size	chSemAddCounterI, .-chSemAddCounterI
 751              		.section	.text.chSemSignalWait,"ax",%progbits
 752              		.align	2
 753              		.p2align 4,,15
 754              		.global	chSemSignalWait
 755              		.thumb
 756              		.thumb_func
 757              		.type	chSemSignalWait, %function
 758              	chSemSignalWait:
 759              	.LFB17:
 760              		.loc 1 366 0
 761              		.cfi_startproc
 762              		@ args = 0, pretend = 0, frame = 0
 763              		@ frame_needed = 0, uses_anonymous_args = 0
 764              	.LVL68:
 765 0000 38B5     		push	{r3, r4, r5, lr}
 766              		.cfi_def_cfa_offset 16
 767              		.cfi_offset 3, -16
 768              		.cfi_offset 4, -12
 769              		.cfi_offset 5, -8
 770              		.cfi_offset 14, -4
 771 0002 0546     		mov	r5, r0
 772 0004 0C46     		mov	r4, r1
 773              		.loc 1 370 0
 774 0006 8368     		ldr	r3, [r0, #8]
 775 0008 002B     		cmp	r3, #0
 776 000a 02DB     		blt	.L63
 777              		.loc 1 370 0 is_stmt 0 discriminator 2
 778 000c 0268     		ldr	r2, [r0]
 779 000e 8242     		cmp	r2, r0
 780 0010 07D0     		beq	.L64
 781              	.L63:
 782              		.loc 1 370 0 discriminator 3
 783 0012 002B     		cmp	r3, #0
 784 0014 02DA     		bge	.L65
 785              		.loc 1 370 0 discriminator 5
 786 0016 2B68     		ldr	r3, [r5]
 787 0018 AB42     		cmp	r3, r5
 788 001a 02D1     		bne	.L64
 789              	.L65:
ARM GAS  /tmp/cc6ihcEi.s 			page 15


 790              		.loc 1 370 0 discriminator 6
 791 001c 1F48     		ldr	r0, .L73
 792              	.LVL69:
 793 001e FFF7FEFF 		bl	chDbgPanic
 794              	.LVL70:
 795              	.L64:
 796              		.loc 1 374 0 is_stmt 1
 797 0022 A368     		ldr	r3, [r4, #8]
 798 0024 002B     		cmp	r3, #0
 799 0026 02DB     		blt	.L66
 800              		.loc 1 374 0 is_stmt 0 discriminator 2
 801 0028 2268     		ldr	r2, [r4]
 802 002a A242     		cmp	r2, r4
 803 002c 07D0     		beq	.L67
 804              	.L66:
 805              		.loc 1 374 0 discriminator 3
 806 002e 002B     		cmp	r3, #0
 807 0030 02DA     		bge	.L68
 808              		.loc 1 374 0 discriminator 5
 809 0032 2368     		ldr	r3, [r4]
 810 0034 A342     		cmp	r3, r4
 811 0036 02D1     		bne	.L67
 812              	.L68:
 813              		.loc 1 374 0 discriminator 6
 814 0038 1948     		ldr	r0, .L73+4
 815 003a FFF7FEFF 		bl	chDbgPanic
 816              	.LVL71:
 817              	.L67:
 818              	.LBB45:
 819              		.loc 1 379 0 is_stmt 1
 820 003e 2023     		movs	r3, #32
 821              	@ 379 "../../ChibiOS-RT/os/kernel/src/chsem.c" 1
 822 0040 83F31188 		msr     BASEPRI, r3
 823              	@ 0 "" 2
 824              		.thumb
 825              	.LBE45:
 826 0044 FFF7FEFF 		bl	dbg_check_lock
 827              	.LVL72:
 828              		.loc 1 380 0
 829 0048 AB68     		ldr	r3, [r5, #8]
 830 004a 0133     		adds	r3, r3, #1
 831 004c AB60     		str	r3, [r5, #8]
 832 004e 002B     		cmp	r3, #0
 833 0050 07DC     		bgt	.L69
 834              	.LVL73:
 835              	.LBB46:
 836              	.LBB47:
 837              		.loc 2 60 0
 838 0052 2868     		ldr	r0, [r5]
 839              	.LVL74:
 840              		.loc 2 62 0
 841 0054 0368     		ldr	r3, [r0]
 842 0056 2B60     		str	r3, [r5]
 843 0058 5D60     		str	r5, [r3, #4]
 844              	.LBE47:
 845              	.LBE46:
 846              		.loc 1 381 0
ARM GAS  /tmp/cc6ihcEi.s 			page 16


 847 005a FFF7FEFF 		bl	chSchReadyI
 848              	.LVL75:
 849 005e 0023     		movs	r3, #0
 850 0060 8362     		str	r3, [r0, #40]
 851              	.LVL76:
 852              	.L69:
 853              		.loc 1 382 0
 854 0062 A368     		ldr	r3, [r4, #8]
 855 0064 013B     		subs	r3, r3, #1
 856 0066 A360     		str	r3, [r4, #8]
 857 0068 002B     		cmp	r3, #0
 858 006a 0CDA     		bge	.L70
 859              	.LBB48:
 860              		.loc 1 383 0
 861 006c 0D4B     		ldr	r3, .L73+8
 862 006e 9D69     		ldr	r5, [r3, #24]
 863              	.LVL77:
 864              	.LBB49:
 865              	.LBB50:
 866              		.loc 2 54 0
 867 0070 2C60     		str	r4, [r5]
 868              		.loc 2 55 0
 869 0072 6368     		ldr	r3, [r4, #4]
 870 0074 6B60     		str	r3, [r5, #4]
 871              		.loc 2 56 0
 872 0076 6560     		str	r5, [r4, #4]
 873 0078 1D60     		str	r5, [r3]
 874              	.LBE50:
 875              	.LBE49:
 876              		.loc 1 385 0
 877 007a AC62     		str	r4, [r5, #40]
 878              		.loc 1 386 0
 879 007c 0320     		movs	r0, #3
 880 007e FFF7FEFF 		bl	chSchGoSleepS
 881              	.LVL78:
 882              		.loc 1 387 0
 883 0082 AC6A     		ldr	r4, [r5, #40]
 884              	.LVL79:
 885              	.LBE48:
 886 0084 02E0     		b	.L71
 887              	.LVL80:
 888              	.L70:
 889              		.loc 1 390 0
 890 0086 FFF7FEFF 		bl	chSchRescheduleS
 891              	.LVL81:
 892              		.loc 1 391 0
 893 008a 0024     		movs	r4, #0
 894              	.LVL82:
 895              	.L71:
 896              		.loc 1 393 0
 897 008c FFF7FEFF 		bl	dbg_check_unlock
 898              	.LVL83:
 899              	.LBB51:
 900 0090 0023     		movs	r3, #0
 901              	@ 393 "../../ChibiOS-RT/os/kernel/src/chsem.c" 1
 902 0092 83F31188 		msr     BASEPRI, r3
 903              	@ 0 "" 2
ARM GAS  /tmp/cc6ihcEi.s 			page 17


 904              		.thumb
 905              	.LBE51:
 906              		.loc 1 395 0
 907 0096 2046     		mov	r0, r4
 908 0098 38BD     		pop	{r3, r4, r5, pc}
 909              	.LVL84:
 910              	.L74:
 911 009a 00BF     		.align	2
 912              	.L73:
 913 009c 80000000 		.word	.LC6
 914 00a0 98000000 		.word	.LC7
 915 00a4 00000000 		.word	rlist
 916              		.cfi_endproc
 917              	.LFE17:
 918              		.size	chSemSignalWait, .-chSemSignalWait
 919 00a8 AFF30080 		.section	.rodata.str1.4,"aMS",%progbits,1
 919      AFF30080 
 920              		.align	2
 921              	.LC0:
 922 0000 63685365 		.ascii	"chSemResetI(), #1\000"
 922      6D526573 
 922      65744928 
 922      292C2023 
 922      3100
 923 0012 0000     		.space	2
 924              	.LC1:
 925 0014 63685365 		.ascii	"chSemWaitS(), #1\000"
 925      6D576169 
 925      74532829 
 925      2C202331 
 925      00
 926 0025 000000   		.space	3
 927              	.LC2:
 928 0028 63685365 		.ascii	"chSemWaitTimeoutS(), #1\000"
 928      6D576169 
 928      7454696D 
 928      656F7574 
 928      5328292C 
 929              	.LC3:
 930 0040 63685365 		.ascii	"chSemSignal(), #1\000"
 930      6D536967 
 930      6E616C28 
 930      292C2023 
 930      3100
 931 0052 0000     		.space	2
 932              	.LC4:
 933 0054 63685365 		.ascii	"chSemSignalI(), #1\000"
 933      6D536967 
 933      6E616C49 
 933      28292C20 
 933      233100
 934 0067 00       		.space	1
 935              	.LC5:
 936 0068 63685365 		.ascii	"chSemAddCounterI(), #1\000"
 936      6D416464 
 936      436F756E 
 936      74657249 
ARM GAS  /tmp/cc6ihcEi.s 			page 18


 936      28292C20 
 937 007f 00       		.space	1
 938              	.LC6:
 939 0080 63685365 		.ascii	"chSemSignalWait(), #1\000"
 939      6D536967 
 939      6E616C57 
 939      61697428 
 939      292C2023 
 940 0096 0000     		.space	2
 941              	.LC7:
 942 0098 63685365 		.ascii	"chSemSignalWait(), #2\000"
 942      6D536967 
 942      6E616C57 
 942      61697428 
 942      292C2023 
 943 00ae 0000     		.text
 944              	.Letext0:
 945              		.file 3 "/usr/arm-none-eabi/include/machine/_default_types.h"
 946              		.file 4 "/usr/arm-none-eabi/include/stdint.h"
 947              		.file 5 "../../ChibiOS-RT/os/ports/GCC/ARMCMx/chtypes.h"
 948              		.file 6 "../../ChibiOS-RT/os/kernel/include/chlists.h"
 949              		.file 7 "../../ChibiOS-RT/os/kernel/include/chthreads.h"
 950              		.file 8 "../../ChibiOS-RT/os/ports/GCC/ARMCMx/chcore_v7m.h"
 951              		.file 9 "../../ChibiOS-RT/os/kernel/include/chschd.h"
 952              		.file 10 "../../ChibiOS-RT/os/kernel/include/chsem.h"
 953              		.file 11 "../../ChibiOS-RT/os/kernel/include/chmtx.h"
 954              		.file 12 "../../ChibiOS-RT/os/kernel/include/chdebug.h"