ARM GAS  /tmp/ccqxuRSn.s 			page 1


   1              		.syntax unified
   2              		.cpu cortex-m4
   3              		.fpu softvfp
   4              		.eabi_attribute 20, 1
   5              		.eabi_attribute 21, 1
   6              		.eabi_attribute 23, 3
   7              		.eabi_attribute 24, 1
   8              		.eabi_attribute 25, 1
   9              		.eabi_attribute 26, 1
  10              		.eabi_attribute 30, 1
  11              		.eabi_attribute 34, 1
  12              		.eabi_attribute 18, 4
  13              		.thumb
  14              		.file	"chsys.c"
  15              		.text
  16              	.Ltext0:
  17              		.cfi_sections	.debug_frame
  18              		.section	.text._idle_thread,"ax",%progbits
  19              		.align	2
  20              		.p2align 4,,15
  21              		.global	_idle_thread
  22              		.thumb
  23              		.thumb_func
  24              		.type	_idle_thread, %function
  25              	_idle_thread:
  26              	.LFB7:
  27              		.file 1 "../../ChibiOS-RT/os/kernel/src/chsys.c"
  28              		.loc 1 61 0
  29              		.cfi_startproc
  30              		@ Volatile: function does not return.
  31              		@ args = 0, pretend = 0, frame = 0
  32              		@ frame_needed = 0, uses_anonymous_args = 0
  33              		@ link register save eliminated.
  34              	.LVL0:
  35              		.loc 1 64 0
  36 0000 024B     		ldr	r3, .L3
  37 0002 9B69     		ldr	r3, [r3, #24]
  38 0004 024A     		ldr	r2, .L3+4
  39 0006 9A61     		str	r2, [r3, #24]
  40              	.L2:
  41              		.loc 1 68 0 discriminator 1
  42 0008 FEE7     		b	.L2
  43              	.L4:
  44 000a 00BF     		.align	2
  45              	.L3:
  46 000c 00000000 		.word	rlist
  47 0010 00000000 		.word	.LC0
  48              		.cfi_endproc
  49              	.LFE7:
  50              		.size	_idle_thread, .-_idle_thread
  51 0014 AFF30080 		.section	.text.chSysInit,"ax",%progbits
  51      AFF30080 
  51      AFF30080 
  52              		.align	2
  53              		.p2align 4,,15
  54              		.global	chSysInit
  55              		.thumb
ARM GAS  /tmp/ccqxuRSn.s 			page 2


  56              		.thumb_func
  57              		.type	chSysInit, %function
  58              	chSysInit:
  59              	.LFB8:
  60              		.loc 1 84 0
  61              		.cfi_startproc
  62              		@ args = 0, pretend = 0, frame = 0
  63              		@ frame_needed = 0, uses_anonymous_args = 0
  64 0000 30B5     		push	{r4, r5, lr}
  65              		.cfi_def_cfa_offset 12
  66              		.cfi_offset 4, -12
  67              		.cfi_offset 5, -8
  68              		.cfi_offset 14, -4
  69 0002 83B0     		sub	sp, sp, #12
  70              		.cfi_def_cfa_offset 24
  71              		.loc 1 90 0
  72 0004 FFF7FEFF 		bl	_port_init
  73              	.LVL1:
  74              		.loc 1 91 0
  75 0008 FFF7FEFF 		bl	_scheduler_init
  76              	.LVL2:
  77              		.loc 1 92 0
  78 000c FFF7FEFF 		bl	_vt_init
  79              	.LVL3:
  80              		.loc 1 94 0
  81 0010 FFF7FEFF 		bl	_core_init
  82              	.LVL4:
  83              		.loc 1 97 0
  84 0014 FFF7FEFF 		bl	_heap_init
  85              	.LVL5:
  86              		.loc 1 104 0
  87 0018 0E48     		ldr	r0, .L7
  88 001a 4021     		movs	r1, #64
  89 001c FFF7FEFF 		bl	_thread_init
  90              	.LVL6:
  91 0020 0D4D     		ldr	r5, .L7+4
  92 0022 A861     		str	r0, [r5, #24]
  93              		.loc 1 105 0
  94 0024 0124     		movs	r4, #1
  95 0026 80F82040 		strb	r4, [r0, #32]
  96              		.loc 1 109 0
  97 002a 0C4B     		ldr	r3, .L7+8
  98 002c C361     		str	r3, [r0, #28]
  99              		.loc 1 111 0
 100 002e FFF7FEFF 		bl	dbg_check_enable
 101              	.LVL7:
 102              	.LBB2:
 103 0032 0023     		movs	r3, #0
 104              	@ 111 "../../ChibiOS-RT/os/kernel/src/chsys.c" 1
 105 0034 83F31188 		msr     BASEPRI, r3                    
 106 0038 62B6     		cpsie   i
 107              	@ 0 "" 2
 108              		.thumb
 109              	.LBE2:
 110              		.loc 1 115 0
 111 003a AA69     		ldr	r2, [r5, #24]
 112 003c 0849     		ldr	r1, .L7+12
ARM GAS  /tmp/ccqxuRSn.s 			page 3


 113 003e 9161     		str	r1, [r2, #24]
 114              		.loc 1 121 0
 115 0040 0093     		str	r3, [sp]
 116 0042 0848     		ldr	r0, .L7+16
 117 0044 E021     		movs	r1, #224
 118 0046 2246     		mov	r2, r4
 119 0048 074B     		ldr	r3, .L7+20
 120 004a FFF7FEFF 		bl	chThdCreateStatic
 121              	.LVL8:
 122              		.loc 1 124 0
 123 004e 03B0     		add	sp, sp, #12
 124              		.cfi_def_cfa_offset 12
 125              		@ sp needed
 126 0050 30BD     		pop	{r4, r5, pc}
 127              	.L8:
 128 0052 00BF     		.align	2
 129              	.L7:
 130 0054 00000000 		.word	.LANCHOR0
 131 0058 00000000 		.word	rlist
 132 005c 00000000 		.word	__main_thread_stack_base__
 133 0060 00000000 		.word	ch_debug
 134 0064 00000000 		.word	.LANCHOR1
 135 0068 00000000 		.word	_idle_thread
 136              		.cfi_endproc
 137              	.LFE8:
 138              		.size	chSysInit, .-chSysInit
 139 006c AFF30080 		.section	.text.chSysTimerHandlerI,"ax",%progbits
 140              		.align	2
 141              		.p2align 4,,15
 142              		.global	chSysTimerHandlerI
 143              		.thumb
 144              		.thumb_func
 145              		.type	chSysTimerHandlerI, %function
 146              	chSysTimerHandlerI:
 147              	.LFB9:
 148              		.loc 1 137 0
 149              		.cfi_startproc
 150              		@ args = 0, pretend = 0, frame = 0
 151              		@ frame_needed = 0, uses_anonymous_args = 0
 152 0000 70B5     		push	{r4, r5, r6, lr}
 153              		.cfi_def_cfa_offset 16
 154              		.cfi_offset 4, -16
 155              		.cfi_offset 5, -12
 156              		.cfi_offset 6, -8
 157              		.cfi_offset 14, -4
 158              		.loc 1 139 0
 159 0002 FFF7FEFF 		bl	chDbgCheckClassI
 160              	.LVL9:
 161              		.loc 1 143 0
 162 0006 184B     		ldr	r3, .L15
 163 0008 9B69     		ldr	r3, [r3, #24]
 164 000a 93F82320 		ldrb	r2, [r3, #35]	@ zero_extendqisi2
 165 000e 12B1     		cbz	r2, .L10
 166              		.loc 1 145 0
 167 0010 013A     		subs	r2, r2, #1
 168 0012 83F82320 		strb	r2, [r3, #35]
 169              	.L10:
ARM GAS  /tmp/ccqxuRSn.s 			page 4


 170              		.loc 1 148 0
 171 0016 5A6A     		ldr	r2, [r3, #36]
 172 0018 0132     		adds	r2, r2, #1
 173 001a 5A62     		str	r2, [r3, #36]
 174              		.loc 1 150 0
 175 001c 134B     		ldr	r3, .L15+4
 176 001e DA68     		ldr	r2, [r3, #12]
 177 0020 0132     		adds	r2, r2, #1
 178 0022 DA60     		str	r2, [r3, #12]
 179 0024 1A68     		ldr	r2, [r3]
 180 0026 9A42     		cmp	r2, r3
 181 0028 1CD0     		beq	.L9
 182              	.LBB3:
 183              		.loc 1 150 0 is_stmt 0 discriminator 1
 184 002a 9368     		ldr	r3, [r2, #8]
 185 002c 013B     		subs	r3, r3, #1
 186 002e 9360     		str	r3, [r2, #8]
 187 0030 13E0     		b	.L12
 188              	.LVL10:
 189              	.L13:
 190              	.LBB4:
 191              		.loc 1 150 0 discriminator 4
 192 0032 E668     		ldr	r6, [r4, #12]
 193              	.LVL11:
 194 0034 0025     		movs	r5, #0
 195 0036 E560     		str	r5, [r4, #12]
 196 0038 2268     		ldr	r2, [r4]
 197 003a 0C4B     		ldr	r3, .L15+4
 198 003c 5360     		str	r3, [r2, #4]
 199 003e 2268     		ldr	r2, [r4]
 200 0040 1A60     		str	r2, [r3]
 201 0042 FFF7FEFF 		bl	dbg_check_unlock_from_isr
 202              	.LVL12:
 203              	.LBB5:
 204 0046 2B46     		mov	r3, r5
 205              	@ 150 "../../ChibiOS-RT/os/kernel/src/chsys.c" 1
 206 0048 83F31188 		msr     BASEPRI, r3
 207              	@ 0 "" 2
 208              		.thumb
 209              	.LBE5:
 210 004c 2069     		ldr	r0, [r4, #16]
 211 004e B047     		blx	r6
 212              	.LVL13:
 213              	.LBB6:
 214 0050 2023     		movs	r3, #32
 215              	@ 150 "../../ChibiOS-RT/os/kernel/src/chsys.c" 1
 216 0052 83F31188 		msr     BASEPRI, r3
 217              	@ 0 "" 2
 218              		.thumb
 219              	.LBE6:
 220 0056 FFF7FEFF 		bl	dbg_check_lock_from_isr
 221              	.LVL14:
 222              	.L12:
 223              	.LBE4:
 224              		.loc 1 150 0 discriminator 2
 225 005a 044B     		ldr	r3, .L15+4
 226 005c 1C68     		ldr	r4, [r3]
ARM GAS  /tmp/ccqxuRSn.s 			page 5


 227              	.LVL15:
 228 005e A368     		ldr	r3, [r4, #8]
 229 0060 002B     		cmp	r3, #0
 230 0062 E6D0     		beq	.L13
 231              	.LVL16:
 232              	.L9:
 233 0064 70BD     		pop	{r4, r5, r6, pc}
 234              	.L16:
 235 0066 00BF     		.align	2
 236              	.L15:
 237 0068 00000000 		.word	rlist
 238 006c 00000000 		.word	vtlist
 239              	.LBE3:
 240              		.cfi_endproc
 241              	.LFE9:
 242              		.size	chSysTimerHandlerI, .-chSysTimerHandlerI
 243              		.global	_idle_thread_wa
 244              		.section	.rodata.str1.4,"aMS",%progbits,1
 245              		.align	2
 246              	.LC0:
 247 0000 69646C65 		.ascii	"idle\000"
 247      00
 248 0005 000000   		.section	.bss.mainthread.4793,"aw",%nobits
 249              		.align	2
 250              		.set	.LANCHOR0,. + 0
 251              		.type	mainthread.4793, %object
 252              		.size	mainthread.4793, 76
 253              	mainthread.4793:
 254 0000 00000000 		.space	76
 254      00000000 
 254      00000000 
 254      00000000 
 254      00000000 
 255              		.section	.bss._idle_thread_wa,"aw",%nobits
 256              		.align	3
 257              		.set	.LANCHOR1,. + 0
 258              		.type	_idle_thread_wa, %object
 259              		.size	_idle_thread_wa, 224
 260              	_idle_thread_wa:
 261 0000 00000000 		.space	224
 261      00000000 
 261      00000000 
 261      00000000 
 261      00000000 
 262              		.text
 263              	.Letext0:
 264              		.file 2 "/usr/lib/gcc/arm-none-eabi/4.9.2/include/stddef.h"
 265              		.file 3 "/usr/arm-none-eabi/include/machine/_default_types.h"
 266              		.file 4 "/usr/arm-none-eabi/include/stdint.h"
 267              		.file 5 "../../ChibiOS-RT/os/ports/GCC/ARMCMx/chtypes.h"
 268              		.file 6 "../../ChibiOS-RT/os/kernel/include/chlists.h"
 269              		.file 7 "../../ChibiOS-RT/os/kernel/include/chthreads.h"
 270              		.file 8 "../../ChibiOS-RT/os/ports/GCC/ARMCMx/chcore_v7m.h"
 271              		.file 9 "../../ChibiOS-RT/os/kernel/include/chvt.h"
 272              		.file 10 "../../ChibiOS-RT/os/kernel/include/chschd.h"
 273              		.file 11 "../../ChibiOS-RT/os/kernel/include/chmtx.h"
 274              		.file 12 "../../ChibiOS-RT/os/kernel/include/chregistry.h"
ARM GAS  /tmp/ccqxuRSn.s 			page 6


 275              		.file 13 "../../ChibiOS-RT/os/kernel/include/chmemcore.h"
 276              		.file 14 "../../ChibiOS-RT/os/kernel/include/chheap.h"
 277              		.file 15 "../../ChibiOS-RT/os/kernel/include/chdebug.h"