ARM GAS  /tmp/cc6JZsN5.s 			page 1


   1              		.syntax unified
   2              		.cpu cortex-m4
   3              		.fpu softvfp
   4              		.eabi_attribute 20, 1
   5              		.eabi_attribute 21, 1
   6              		.eabi_attribute 23, 3
   7              		.eabi_attribute 24, 1
   8              		.eabi_attribute 25, 1
   9              		.eabi_attribute 26, 1
  10              		.eabi_attribute 30, 1
  11              		.eabi_attribute 34, 1
  12              		.eabi_attribute 18, 4
  13              		.thumb
  14              		.file	"chthreads.c"
  15              		.text
  16              	.Ltext0:
  17              		.cfi_sections	.debug_frame
  18              		.section	.text._thread_init,"ax",%progbits
  19              		.align	2
  20              		.p2align 4,,15
  21              		.global	_thread_init
  22              		.thumb
  23              		.thumb_func
  24              		.type	_thread_init, %function
  25              	_thread_init:
  26              	.LFB7:
  27              		.file 1 "../../ChibiOS-RT/os/kernel/src/chthreads.c"
  28              		.loc 1 76 0
  29              		.cfi_startproc
  30              		@ args = 0, pretend = 0, frame = 0
  31              		@ frame_needed = 0, uses_anonymous_args = 0
  32              		@ link register save eliminated.
  33              	.LVL0:
  34 0000 10B4     		push	{r4}
  35              		.cfi_def_cfa_offset 4
  36              		.cfi_offset 4, -4
  37              		.loc 1 78 0
  38 0002 8160     		str	r1, [r0, #8]
  39              		.loc 1 79 0
  40 0004 0222     		movs	r2, #2
  41 0006 80F82020 		strb	r2, [r0, #32]
  42              		.loc 1 80 0
  43 000a 0022     		movs	r2, #0
  44 000c 80F82120 		strb	r2, [r0, #33]
  45              		.loc 1 82 0
  46 0010 1424     		movs	r4, #20
  47 0012 80F82340 		strb	r4, [r0, #35]
  48              		.loc 1 85 0
  49 0016 4164     		str	r1, [r0, #68]
  50              		.loc 1 86 0
  51 0018 0264     		str	r2, [r0, #64]
  52              		.loc 1 89 0
  53 001a C263     		str	r2, [r0, #60]
  54              		.loc 1 92 0
  55 001c 4262     		str	r2, [r0, #36]
  56              		.loc 1 95 0
  57 001e 0121     		movs	r1, #1
ARM GAS  /tmp/cc6JZsN5.s 			page 2


  58              	.LVL1:
  59 0020 80F82210 		strb	r1, [r0, #34]
  60              		.loc 1 98 0
  61 0024 8261     		str	r2, [r0, #24]
  62              		.loc 1 99 0
  63 0026 094A     		ldr	r2, .L3
  64 0028 0261     		str	r2, [r0, #16]
  65 002a 5169     		ldr	r1, [r2, #20]
  66 002c 4161     		str	r1, [r0, #20]
  67 002e 5061     		str	r0, [r2, #20]
  68              	.LVL2:
  69 0030 0861     		str	r0, [r1, #16]
  70              	.LVL3:
  71              		.loc 1 102 0
  72 0032 00F12C02 		add	r2, r0, #44
  73 0036 C262     		str	r2, [r0, #44]
  74              		.loc 1 105 0
  75 0038 00F13002 		add	r2, r0, #48
  76 003c 4263     		str	r2, [r0, #52]
  77 003e 0263     		str	r2, [r0, #48]
  78              		.loc 1 108 0
  79 0040 00F14C02 		add	r2, r0, #76
  80 0044 C261     		str	r2, [r0, #28]
  81              		.loc 1 114 0
  82 0046 5DF8044B 		ldr	r4, [sp], #4
  83              		.cfi_restore 4
  84              		.cfi_def_cfa_offset 0
  85 004a 7047     		bx	lr
  86              	.L4:
  87              		.align	2
  88              	.L3:
  89 004c 00000000 		.word	rlist
  90              		.cfi_endproc
  91              	.LFE7:
  92              		.size	_thread_init, .-_thread_init
  93              		.section	.text.chThdCreateI,"ax",%progbits
  94              		.align	2
  95              		.p2align 4,,15
  96              		.global	chThdCreateI
  97              		.thumb
  98              		.thumb_func
  99              		.type	chThdCreateI, %function
 100              	chThdCreateI:
 101              	.LFB8:
 102              		.loc 1 158 0
 103              		.cfi_startproc
 104              		@ args = 4, pretend = 0, frame = 0
 105              		@ frame_needed = 0, uses_anonymous_args = 0
 106              	.LVL4:
 107 0000 F8B5     		push	{r3, r4, r5, r6, r7, lr}
 108              		.cfi_def_cfa_offset 24
 109              		.cfi_offset 3, -24
 110              		.cfi_offset 4, -20
 111              		.cfi_offset 5, -16
 112              		.cfi_offset 6, -12
 113              		.cfi_offset 7, -8
 114              		.cfi_offset 14, -4
ARM GAS  /tmp/cc6JZsN5.s 			page 3


 115 0002 0446     		mov	r4, r0
 116 0004 0D46     		mov	r5, r1
 117 0006 1646     		mov	r6, r2
 118 0008 1F46     		mov	r7, r3
 119              	.LVL5:
 120              		.loc 1 162 0
 121 000a FFF7FEFF 		bl	chDbgCheckClassI
 122              	.LVL6:
 123              		.loc 1 167 0
 124 000e A5F12400 		sub	r0, r5, #36
 125 0012 2318     		adds	r3, r4, r0
 126 0014 E360     		str	r3, [r4, #12]
 127 0016 2750     		str	r7, [r4, r0]
 128 0018 E368     		ldr	r3, [r4, #12]
 129 001a 069A     		ldr	r2, [sp, #24]
 130 001c 5A60     		str	r2, [r3, #4]
 131 001e E368     		ldr	r3, [r4, #12]
 132 0020 034A     		ldr	r2, .L7
 133 0022 1A62     		str	r2, [r3, #32]
 134              		.loc 1 168 0
 135 0024 2046     		mov	r0, r4
 136 0026 3146     		mov	r1, r6
 137 0028 FFF7FEFF 		bl	_thread_init
 138              	.LVL7:
 139              		.loc 1 169 0
 140 002c F8BD     		pop	{r3, r4, r5, r6, r7, pc}
 141              	.LVL8:
 142              	.L8:
 143 002e 00BF     		.align	2
 144              	.L7:
 145 0030 00000000 		.word	_port_thread_start
 146              		.cfi_endproc
 147              	.LFE8:
 148              		.size	chThdCreateI, .-chThdCreateI
 149 0034 AFF30080 		.section	.text.chThdCreateStatic,"ax",%progbits
 149      AFF30080 
 149      AFF30080 
 150              		.align	2
 151              		.p2align 4,,15
 152              		.global	chThdCreateStatic
 153              		.thumb
 154              		.thumb_func
 155              		.type	chThdCreateStatic, %function
 156              	chThdCreateStatic:
 157              	.LFB9:
 158              		.loc 1 188 0
 159              		.cfi_startproc
 160              		@ args = 4, pretend = 0, frame = 0
 161              		@ frame_needed = 0, uses_anonymous_args = 0
 162              	.LVL9:
 163 0000 F0B5     		push	{r4, r5, r6, r7, lr}
 164              		.cfi_def_cfa_offset 20
 165              		.cfi_offset 4, -20
 166              		.cfi_offset 5, -16
 167              		.cfi_offset 6, -12
 168              		.cfi_offset 7, -8
 169              		.cfi_offset 14, -4
ARM GAS  /tmp/cc6JZsN5.s 			page 4


 170 0002 83B0     		sub	sp, sp, #12
 171              		.cfi_def_cfa_offset 32
 172 0004 0746     		mov	r7, r0
 173 0006 0E46     		mov	r6, r1
 174 0008 1546     		mov	r5, r2
 175 000a 1C46     		mov	r4, r3
 176              	.LBB8:
 177              		.loc 1 199 0
 178 000c 2023     		movs	r3, #32
 179              	.LVL10:
 180              	@ 199 "../../ChibiOS-RT/os/kernel/src/chthreads.c" 1
 181 000e 83F31188 		msr     BASEPRI, r3
 182              	@ 0 "" 2
 183              		.thumb
 184              	.LBE8:
 185 0012 FFF7FEFF 		bl	dbg_check_lock
 186              	.LVL11:
 187              		.loc 1 200 0
 188 0016 089B     		ldr	r3, [sp, #32]
 189 0018 0093     		str	r3, [sp]
 190 001a 3846     		mov	r0, r7
 191 001c 3146     		mov	r1, r6
 192 001e 2A46     		mov	r2, r5
 193 0020 2346     		mov	r3, r4
 194 0022 FFF7FEFF 		bl	chThdCreateI
 195              	.LVL12:
 196 0026 0446     		mov	r4, r0
 197              	.LVL13:
 198 0028 0021     		movs	r1, #0
 199 002a FFF7FEFF 		bl	chSchWakeupS
 200              	.LVL14:
 201              		.loc 1 201 0
 202 002e FFF7FEFF 		bl	dbg_check_unlock
 203              	.LVL15:
 204              	.LBB9:
 205 0032 0023     		movs	r3, #0
 206              	@ 201 "../../ChibiOS-RT/os/kernel/src/chthreads.c" 1
 207 0034 83F31188 		msr     BASEPRI, r3
 208              	@ 0 "" 2
 209              		.thumb
 210              	.LBE9:
 211              		.loc 1 203 0
 212 0038 2046     		mov	r0, r4
 213 003a 03B0     		add	sp, sp, #12
 214              		.cfi_def_cfa_offset 20
 215              		@ sp needed
 216 003c F0BD     		pop	{r4, r5, r6, r7, pc}
 217              		.cfi_endproc
 218              	.LFE9:
 219              		.size	chThdCreateStatic, .-chThdCreateStatic
 220 003e 00BF     		.section	.text.chThdSetPriority,"ax",%progbits
 221              		.align	2
 222              		.p2align 4,,15
 223              		.global	chThdSetPriority
 224              		.thumb
 225              		.thumb_func
 226              		.type	chThdSetPriority, %function
ARM GAS  /tmp/cc6JZsN5.s 			page 5


 227              	chThdSetPriority:
 228              	.LFB10:
 229              		.loc 1 217 0
 230              		.cfi_startproc
 231              		@ args = 0, pretend = 0, frame = 0
 232              		@ frame_needed = 0, uses_anonymous_args = 0
 233              	.LVL16:
 234 0000 38B5     		push	{r3, r4, r5, lr}
 235              		.cfi_def_cfa_offset 16
 236              		.cfi_offset 3, -16
 237              		.cfi_offset 4, -12
 238              		.cfi_offset 5, -8
 239              		.cfi_offset 14, -4
 240 0002 0446     		mov	r4, r0
 241              	.LBB10:
 242              		.loc 1 222 0
 243 0004 2023     		movs	r3, #32
 244              	@ 222 "../../ChibiOS-RT/os/kernel/src/chthreads.c" 1
 245 0006 83F31188 		msr     BASEPRI, r3
 246              	@ 0 "" 2
 247              		.thumb
 248              	.LBE10:
 249 000a FFF7FEFF 		bl	dbg_check_lock
 250              	.LVL17:
 251              		.loc 1 224 0
 252 000e 0A4B     		ldr	r3, .L15
 253 0010 9B69     		ldr	r3, [r3, #24]
 254 0012 5D6C     		ldr	r5, [r3, #68]
 255              	.LVL18:
 256              		.loc 1 225 0
 257 0014 9A68     		ldr	r2, [r3, #8]
 258 0016 9542     		cmp	r5, r2
 259 0018 01D0     		beq	.L12
 260              		.loc 1 225 0 is_stmt 0 discriminator 1
 261 001a A242     		cmp	r2, r4
 262 001c 00D2     		bcs	.L13
 263              	.L12:
 264              		.loc 1 226 0 is_stmt 1
 265 001e 9C60     		str	r4, [r3, #8]
 266              	.L13:
 267              		.loc 1 227 0
 268 0020 054B     		ldr	r3, .L15
 269 0022 9B69     		ldr	r3, [r3, #24]
 270 0024 5C64     		str	r4, [r3, #68]
 271              		.loc 1 232 0
 272 0026 FFF7FEFF 		bl	chSchRescheduleS
 273              	.LVL19:
 274              		.loc 1 233 0
 275 002a FFF7FEFF 		bl	dbg_check_unlock
 276              	.LVL20:
 277              	.LBB11:
 278 002e 0023     		movs	r3, #0
 279              	@ 233 "../../ChibiOS-RT/os/kernel/src/chthreads.c" 1
 280 0030 83F31188 		msr     BASEPRI, r3
 281              	@ 0 "" 2
 282              		.thumb
 283              	.LBE11:
ARM GAS  /tmp/cc6JZsN5.s 			page 6


 284              		.loc 1 235 0
 285 0034 2846     		mov	r0, r5
 286 0036 38BD     		pop	{r3, r4, r5, pc}
 287              	.LVL21:
 288              	.L16:
 289              		.align	2
 290              	.L15:
 291 0038 00000000 		.word	rlist
 292              		.cfi_endproc
 293              	.LFE10:
 294              		.size	chThdSetPriority, .-chThdSetPriority
 295 003c AFF30080 		.section	.text.chThdResume,"ax",%progbits
 296              		.align	2
 297              		.p2align 4,,15
 298              		.global	chThdResume
 299              		.thumb
 300              		.thumb_func
 301              		.type	chThdResume, %function
 302              	chThdResume:
 303              	.LFB11:
 304              		.loc 1 250 0
 305              		.cfi_startproc
 306              		@ args = 0, pretend = 0, frame = 0
 307              		@ frame_needed = 0, uses_anonymous_args = 0
 308              	.LVL22:
 309 0000 10B5     		push	{r4, lr}
 310              		.cfi_def_cfa_offset 8
 311              		.cfi_offset 4, -8
 312              		.cfi_offset 14, -4
 313 0002 0446     		mov	r4, r0
 314              	.LBB12:
 315              		.loc 1 252 0
 316 0004 2023     		movs	r3, #32
 317              	@ 252 "../../ChibiOS-RT/os/kernel/src/chthreads.c" 1
 318 0006 83F31188 		msr     BASEPRI, r3
 319              	@ 0 "" 2
 320              		.thumb
 321              	.LBE12:
 322 000a FFF7FEFF 		bl	dbg_check_lock
 323              	.LVL23:
 324              		.loc 1 253 0
 325 000e 94F82030 		ldrb	r3, [r4, #32]	@ zero_extendqisi2
 326 0012 022B     		cmp	r3, #2
 327 0014 02D0     		beq	.L18
 328              		.loc 1 253 0 is_stmt 0 discriminator 1
 329 0016 0748     		ldr	r0, .L20
 330 0018 FFF7FEFF 		bl	chDbgPanic
 331              	.LVL24:
 332              	.L18:
 333              		.loc 1 256 0 is_stmt 1
 334 001c 2046     		mov	r0, r4
 335 001e 0021     		movs	r1, #0
 336 0020 FFF7FEFF 		bl	chSchWakeupS
 337              	.LVL25:
 338              		.loc 1 257 0
 339 0024 FFF7FEFF 		bl	dbg_check_unlock
 340              	.LVL26:
ARM GAS  /tmp/cc6JZsN5.s 			page 7


 341              	.LBB13:
 342 0028 0023     		movs	r3, #0
 343              	@ 257 "../../ChibiOS-RT/os/kernel/src/chthreads.c" 1
 344 002a 83F31188 		msr     BASEPRI, r3
 345              	@ 0 "" 2
 346              		.thumb
 347              	.LBE13:
 348              		.loc 1 259 0
 349 002e 2046     		mov	r0, r4
 350 0030 10BD     		pop	{r4, pc}
 351              	.LVL27:
 352              	.L21:
 353 0032 00BF     		.align	2
 354              	.L20:
 355 0034 00000000 		.word	.LC0
 356              		.cfi_endproc
 357              	.LFE11:
 358              		.size	chThdResume, .-chThdResume
 359 0038 AFF30080 		.section	.text.chThdTerminate,"ax",%progbits
 359      AFF30080 
 360              		.align	2
 361              		.p2align 4,,15
 362              		.global	chThdTerminate
 363              		.thumb
 364              		.thumb_func
 365              		.type	chThdTerminate, %function
 366              	chThdTerminate:
 367              	.LFB12:
 368              		.loc 1 273 0
 369              		.cfi_startproc
 370              		@ args = 0, pretend = 0, frame = 0
 371              		@ frame_needed = 0, uses_anonymous_args = 0
 372              	.LVL28:
 373 0000 10B5     		push	{r4, lr}
 374              		.cfi_def_cfa_offset 8
 375              		.cfi_offset 4, -8
 376              		.cfi_offset 14, -4
 377 0002 0446     		mov	r4, r0
 378              	.LBB14:
 379              		.loc 1 275 0
 380 0004 2023     		movs	r3, #32
 381              	@ 275 "../../ChibiOS-RT/os/kernel/src/chthreads.c" 1
 382 0006 83F31188 		msr     BASEPRI, r3
 383              	@ 0 "" 2
 384              		.thumb
 385              	.LBE14:
 386 000a FFF7FEFF 		bl	dbg_check_lock
 387              	.LVL29:
 388              		.loc 1 276 0
 389 000e 94F82130 		ldrb	r3, [r4, #33]	@ zero_extendqisi2
 390 0012 43F00403 		orr	r3, r3, #4
 391 0016 84F82130 		strb	r3, [r4, #33]
 392              		.loc 1 277 0
 393 001a FFF7FEFF 		bl	dbg_check_unlock
 394              	.LVL30:
 395              	.LBB15:
 396 001e 0023     		movs	r3, #0
ARM GAS  /tmp/cc6JZsN5.s 			page 8


 397              	@ 277 "../../ChibiOS-RT/os/kernel/src/chthreads.c" 1
 398 0020 83F31188 		msr     BASEPRI, r3
 399              	@ 0 "" 2
 400              		.thumb
 401 0024 10BD     		pop	{r4, pc}
 402              	.LBE15:
 403              		.cfi_endproc
 404              	.LFE12:
 405              		.size	chThdTerminate, .-chThdTerminate
 406 0026 00BFAFF3 		.section	.text.chThdSleep,"ax",%progbits
 406      0080AFF3 
 406      0080
 407              		.align	2
 408              		.p2align 4,,15
 409              		.global	chThdSleep
 410              		.thumb
 411              		.thumb_func
 412              		.type	chThdSleep, %function
 413              	chThdSleep:
 414              	.LFB13:
 415              		.loc 1 292 0
 416              		.cfi_startproc
 417              		@ args = 0, pretend = 0, frame = 0
 418              		@ frame_needed = 0, uses_anonymous_args = 0
 419              	.LVL31:
 420 0000 10B5     		push	{r4, lr}
 421              		.cfi_def_cfa_offset 8
 422              		.cfi_offset 4, -8
 423              		.cfi_offset 14, -4
 424 0002 0446     		mov	r4, r0
 425              	.LBB16:
 426              		.loc 1 296 0
 427 0004 2023     		movs	r3, #32
 428              	@ 296 "../../ChibiOS-RT/os/kernel/src/chthreads.c" 1
 429 0006 83F31188 		msr     BASEPRI, r3
 430              	@ 0 "" 2
 431              		.thumb
 432              	.LBE16:
 433 000a FFF7FEFF 		bl	dbg_check_lock
 434              	.LVL32:
 435              		.loc 1 297 0
 436 000e 0620     		movs	r0, #6
 437 0010 2146     		mov	r1, r4
 438 0012 FFF7FEFF 		bl	chSchGoSleepTimeoutS
 439              	.LVL33:
 440              		.loc 1 298 0
 441 0016 FFF7FEFF 		bl	dbg_check_unlock
 442              	.LVL34:
 443              	.LBB17:
 444 001a 0023     		movs	r3, #0
 445              	@ 298 "../../ChibiOS-RT/os/kernel/src/chthreads.c" 1
 446 001c 83F31188 		msr     BASEPRI, r3
 447              	@ 0 "" 2
 448              		.thumb
 449 0020 10BD     		pop	{r4, pc}
 450              	.LBE17:
 451              		.cfi_endproc
ARM GAS  /tmp/cc6JZsN5.s 			page 9


 452              	.LFE13:
 453              		.size	chThdSleep, .-chThdSleep
 454 0022 00BFAFF3 		.section	.text.chThdSleepUntil,"ax",%progbits
 454      0080AFF3 
 454      0080AFF3 
 454      0080
 455              		.align	2
 456              		.p2align 4,,15
 457              		.global	chThdSleepUntil
 458              		.thumb
 459              		.thumb_func
 460              		.type	chThdSleepUntil, %function
 461              	chThdSleepUntil:
 462              	.LFB14:
 463              		.loc 1 309 0
 464              		.cfi_startproc
 465              		@ args = 0, pretend = 0, frame = 0
 466              		@ frame_needed = 0, uses_anonymous_args = 0
 467              	.LVL35:
 468 0000 10B5     		push	{r4, lr}
 469              		.cfi_def_cfa_offset 8
 470              		.cfi_offset 4, -8
 471              		.cfi_offset 14, -4
 472 0002 0446     		mov	r4, r0
 473              	.LBB18:
 474              		.loc 1 311 0
 475 0004 2023     		movs	r3, #32
 476              	@ 311 "../../ChibiOS-RT/os/kernel/src/chthreads.c" 1
 477 0006 83F31188 		msr     BASEPRI, r3
 478              	@ 0 "" 2
 479              		.thumb
 480              	.LBE18:
 481 000a FFF7FEFF 		bl	dbg_check_lock
 482              	.LVL36:
 483              		.loc 1 312 0
 484 000e 064B     		ldr	r3, .L29
 485 0010 D968     		ldr	r1, [r3, #12]
 486              	.LVL37:
 487 0012 611A     		subs	r1, r4, r1
 488              	.LVL38:
 489 0014 02D0     		beq	.L27
 490              		.loc 1 313 0
 491 0016 0620     		movs	r0, #6
 492 0018 FFF7FEFF 		bl	chSchGoSleepTimeoutS
 493              	.LVL39:
 494              	.L27:
 495              		.loc 1 314 0
 496 001c FFF7FEFF 		bl	dbg_check_unlock
 497              	.LVL40:
 498              	.LBB19:
 499 0020 0023     		movs	r3, #0
 500              	@ 314 "../../ChibiOS-RT/os/kernel/src/chthreads.c" 1
 501 0022 83F31188 		msr     BASEPRI, r3
 502              	@ 0 "" 2
 503              		.thumb
 504 0026 10BD     		pop	{r4, pc}
 505              	.L30:
ARM GAS  /tmp/cc6JZsN5.s 			page 10


 506              		.align	2
 507              	.L29:
 508 0028 00000000 		.word	vtlist
 509              	.LBE19:
 510              		.cfi_endproc
 511              	.LFE14:
 512              		.size	chThdSleepUntil, .-chThdSleepUntil
 513 002c AFF30080 		.section	.text.chThdYield,"ax",%progbits
 514              		.align	2
 515              		.p2align 4,,15
 516              		.global	chThdYield
 517              		.thumb
 518              		.thumb_func
 519              		.type	chThdYield, %function
 520              	chThdYield:
 521              	.LFB15:
 522              		.loc 1 324 0
 523              		.cfi_startproc
 524              		@ args = 0, pretend = 0, frame = 0
 525              		@ frame_needed = 0, uses_anonymous_args = 0
 526 0000 08B5     		push	{r3, lr}
 527              		.cfi_def_cfa_offset 8
 528              		.cfi_offset 3, -8
 529              		.cfi_offset 14, -4
 530              	.LBB20:
 531              		.loc 1 326 0
 532 0002 2023     		movs	r3, #32
 533              	@ 326 "../../ChibiOS-RT/os/kernel/src/chthreads.c" 1
 534 0004 83F31188 		msr     BASEPRI, r3
 535              	@ 0 "" 2
 536              		.thumb
 537              	.LBE20:
 538 0008 FFF7FEFF 		bl	dbg_check_lock
 539              	.LVL41:
 540              		.loc 1 327 0
 541 000c 074B     		ldr	r3, .L34
 542 000e 1A68     		ldr	r2, [r3]
 543 0010 9268     		ldr	r2, [r2, #8]
 544 0012 9B69     		ldr	r3, [r3, #24]
 545 0014 9B68     		ldr	r3, [r3, #8]
 546 0016 9A42     		cmp	r2, r3
 547 0018 01D3     		bcc	.L32
 548              		.loc 1 327 0 is_stmt 0 discriminator 1
 549 001a FFF7FEFF 		bl	chSchDoRescheduleBehind
 550              	.LVL42:
 551              	.L32:
 552              		.loc 1 328 0 is_stmt 1
 553 001e FFF7FEFF 		bl	dbg_check_unlock
 554              	.LVL43:
 555              	.LBB21:
 556 0022 0023     		movs	r3, #0
 557              	@ 328 "../../ChibiOS-RT/os/kernel/src/chthreads.c" 1
 558 0024 83F31188 		msr     BASEPRI, r3
 559              	@ 0 "" 2
 560              		.thumb
 561 0028 08BD     		pop	{r3, pc}
 562              	.L35:
ARM GAS  /tmp/cc6JZsN5.s 			page 11


 563 002a 00BF     		.align	2
 564              	.L34:
 565 002c 00000000 		.word	rlist
 566              	.LBE21:
 567              		.cfi_endproc
 568              	.LFE15:
 569              		.size	chThdYield, .-chThdYield
 570              		.section	.text.chThdExitS,"ax",%progbits
 571              		.align	2
 572              		.p2align 4,,15
 573              		.global	chThdExitS
 574              		.thumb
 575              		.thumb_func
 576              		.type	chThdExitS, %function
 577              	chThdExitS:
 578              	.LFB17:
 579              		.loc 1 366 0
 580              		.cfi_startproc
 581              		@ args = 0, pretend = 0, frame = 0
 582              		@ frame_needed = 0, uses_anonymous_args = 0
 583              	.LVL44:
 584 0000 10B5     		push	{r4, lr}
 585              		.cfi_def_cfa_offset 8
 586              		.cfi_offset 4, -8
 587              		.cfi_offset 14, -4
 588              		.loc 1 367 0
 589 0002 0F4B     		ldr	r3, .L41
 590 0004 9C69     		ldr	r4, [r3, #24]
 591              	.LVL45:
 592              		.loc 1 369 0
 593 0006 A062     		str	r0, [r4, #40]
 594              		.loc 1 374 0
 595 0008 03E0     		b	.L37
 596              	.LVL46:
 597              	.L38:
 598              	.LBB22:
 599              	.LBB23:
 600              		.file 2 "../../ChibiOS-RT/os/kernel/include/chinline.h"
 601              		.loc 2 89 0
 602 000a 0368     		ldr	r3, [r0]
 603 000c E362     		str	r3, [r4, #44]
 604              	.LBE23:
 605              	.LBE22:
 606              		.loc 1 375 0
 607 000e FFF7FEFF 		bl	chSchReadyI
 608              	.LVL47:
 609              	.L37:
 610              		.loc 1 374 0
 611 0012 2346     		mov	r3, r4
 612 0014 53F82C0F 		ldr	r0, [r3, #44]!
 613 0018 9842     		cmp	r0, r3
 614 001a F6D1     		bne	.L38
 615              		.loc 1 380 0
 616 001c 94F82130 		ldrb	r3, [r4, #33]	@ zero_extendqisi2
 617 0020 13F0030F 		tst	r3, #3
 618 0024 05D1     		bne	.L39
 619              		.loc 1 381 0
ARM GAS  /tmp/cc6JZsN5.s 			page 12


 620 0026 6369     		ldr	r3, [r4, #20]
 621 0028 2269     		ldr	r2, [r4, #16]
 622 002a 1A61     		str	r2, [r3, #16]
 623 002c 2369     		ldr	r3, [r4, #16]
 624 002e 6269     		ldr	r2, [r4, #20]
 625 0030 5A61     		str	r2, [r3, #20]
 626              	.L39:
 627              		.loc 1 383 0
 628 0032 0E20     		movs	r0, #14
 629 0034 FFF7FEFF 		bl	chSchGoSleepS
 630              	.LVL48:
 631              		.loc 1 385 0
 632 0038 0248     		ldr	r0, .L41+4
 633 003a FFF7FEFF 		bl	chDbgPanic
 634              	.LVL49:
 635 003e 10BD     		pop	{r4, pc}
 636              	.LVL50:
 637              	.L42:
 638              		.align	2
 639              	.L41:
 640 0040 00000000 		.word	rlist
 641 0044 14000000 		.word	.LC1
 642              		.cfi_endproc
 643              	.LFE17:
 644              		.size	chThdExitS, .-chThdExitS
 645 0048 AFF30080 		.section	.text.chThdExit,"ax",%progbits
 645      AFF30080 
 646              		.align	2
 647              		.p2align 4,,15
 648              		.global	chThdExit
 649              		.thumb
 650              		.thumb_func
 651              		.type	chThdExit, %function
 652              	chThdExit:
 653              	.LFB16:
 654              		.loc 1 345 0
 655              		.cfi_startproc
 656              		@ args = 0, pretend = 0, frame = 0
 657              		@ frame_needed = 0, uses_anonymous_args = 0
 658              	.LVL51:
 659 0000 10B5     		push	{r4, lr}
 660              		.cfi_def_cfa_offset 8
 661              		.cfi_offset 4, -8
 662              		.cfi_offset 14, -4
 663 0002 0446     		mov	r4, r0
 664              	.LBB24:
 665              		.loc 1 347 0
 666 0004 2023     		movs	r3, #32
 667              	@ 347 "../../ChibiOS-RT/os/kernel/src/chthreads.c" 1
 668 0006 83F31188 		msr     BASEPRI, r3
 669              	@ 0 "" 2
 670              		.thumb
 671              	.LBE24:
 672 000a FFF7FEFF 		bl	dbg_check_lock
 673              	.LVL52:
 674              		.loc 1 348 0
 675 000e 2046     		mov	r0, r4
ARM GAS  /tmp/cc6JZsN5.s 			page 13


 676 0010 FFF7FEFF 		bl	chThdExitS
 677              	.LVL53:
 678 0014 10BD     		pop	{r4, pc}
 679              		.cfi_endproc
 680              	.LFE16:
 681              		.size	chThdExit, .-chThdExit
 682 0016 00BFAFF3 		.section	.text.chThdWait,"ax",%progbits
 682      0080AFF3 
 682      0080
 683              		.align	2
 684              		.p2align 4,,15
 685              		.global	chThdWait
 686              		.thumb
 687              		.thumb_func
 688              		.type	chThdWait, %function
 689              	chThdWait:
 690              	.LFB18:
 691              		.loc 1 420 0
 692              		.cfi_startproc
 693              		@ args = 0, pretend = 0, frame = 0
 694              		@ frame_needed = 0, uses_anonymous_args = 0
 695              	.LVL54:
 696 0000 38B5     		push	{r3, r4, r5, lr}
 697              		.cfi_def_cfa_offset 16
 698              		.cfi_offset 3, -16
 699              		.cfi_offset 4, -12
 700              		.cfi_offset 5, -8
 701              		.cfi_offset 14, -4
 702 0002 0446     		mov	r4, r0
 703              	.LBB25:
 704              		.loc 1 425 0
 705 0004 2023     		movs	r3, #32
 706              	@ 425 "../../ChibiOS-RT/os/kernel/src/chthreads.c" 1
 707 0006 83F31188 		msr     BASEPRI, r3
 708              	@ 0 "" 2
 709              		.thumb
 710              	.LBE25:
 711 000a FFF7FEFF 		bl	dbg_check_lock
 712              	.LVL55:
 713              		.loc 1 426 0
 714 000e 124B     		ldr	r3, .L50
 715 0010 9B69     		ldr	r3, [r3, #24]
 716 0012 A342     		cmp	r3, r4
 717 0014 02D1     		bne	.L46
 718              		.loc 1 426 0 is_stmt 0 discriminator 1
 719 0016 1148     		ldr	r0, .L50+4
 720 0018 FFF7FEFF 		bl	chDbgPanic
 721              	.LVL56:
 722              	.L46:
 723              		.loc 1 428 0 is_stmt 1
 724 001c 94F82230 		ldrb	r3, [r4, #34]	@ zero_extendqisi2
 725 0020 13B9     		cbnz	r3, .L47
 726              		.loc 1 428 0 is_stmt 0 discriminator 1
 727 0022 0F48     		ldr	r0, .L50+8
 728 0024 FFF7FEFF 		bl	chDbgPanic
 729              	.LVL57:
 730              	.L47:
ARM GAS  /tmp/cc6JZsN5.s 			page 14


 731              		.loc 1 430 0 is_stmt 1
 732 0028 94F82030 		ldrb	r3, [r4, #32]	@ zero_extendqisi2
 733 002c 0E2B     		cmp	r3, #14
 734 002e 07D0     		beq	.L48
 735              		.loc 1 431 0
 736 0030 094B     		ldr	r3, .L50
 737 0032 9B69     		ldr	r3, [r3, #24]
 738              	.LVL58:
 739              	.LBB26:
 740              	.LBB27:
 741              		.loc 2 82 0
 742 0034 E26A     		ldr	r2, [r4, #44]
 743 0036 1A60     		str	r2, [r3]
 744              		.loc 2 83 0
 745 0038 E362     		str	r3, [r4, #44]
 746              	.LBE27:
 747              	.LBE26:
 748              		.loc 1 432 0
 749 003a 0720     		movs	r0, #7
 750 003c FFF7FEFF 		bl	chSchGoSleepS
 751              	.LVL59:
 752              	.L48:
 753              		.loc 1 434 0
 754 0040 A56A     		ldr	r5, [r4, #40]
 755              	.LVL60:
 756              		.loc 1 435 0
 757 0042 FFF7FEFF 		bl	dbg_check_unlock
 758              	.LVL61:
 759              	.LBB28:
 760 0046 0023     		movs	r3, #0
 761              	@ 435 "../../ChibiOS-RT/os/kernel/src/chthreads.c" 1
 762 0048 83F31188 		msr     BASEPRI, r3
 763              	@ 0 "" 2
 764              		.thumb
 765              	.LBE28:
 766              		.loc 1 437 0
 767 004c 2046     		mov	r0, r4
 768 004e FFF7FEFF 		bl	chThdRelease
 769              	.LVL62:
 770              		.loc 1 440 0
 771 0052 2846     		mov	r0, r5
 772 0054 38BD     		pop	{r3, r4, r5, pc}
 773              	.LVL63:
 774              	.L51:
 775 0056 00BF     		.align	2
 776              	.L50:
 777 0058 00000000 		.word	rlist
 778 005c 28000000 		.word	.LC2
 779 0060 38000000 		.word	.LC3
 780              		.cfi_endproc
 781              	.LFE18:
 782              		.size	chThdWait, .-chThdWait
 783 0064 AFF30080 		.section	.rodata.str1.4,"aMS",%progbits,1
 783      AFF30080 
 783      AFF30080 
 784              		.align	2
 785              	.LC0:
ARM GAS  /tmp/cc6JZsN5.s 			page 15


 786 0000 63685468 		.ascii	"chThdResume(), #1\000"
 786      64526573 
 786      756D6528 
 786      292C2023 
 786      3100
 787 0012 0000     		.space	2
 788              	.LC1:
 789 0014 63685468 		.ascii	"chThdExitS(), #1\000"
 789      64457869 
 789      74532829 
 789      2C202331 
 789      00
 790 0025 000000   		.space	3
 791              	.LC2:
 792 0028 63685468 		.ascii	"chThdWait(), #1\000"
 792      64576169 
 792      7428292C 
 792      20233100 
 793              	.LC3:
 794 0038 63685468 		.ascii	"chThdWait(), #2\000"
 794      64576169 
 794      7428292C 
 794      20233200 
 795              		.text
 796              	.Letext0:
 797              		.file 3 "/usr/lib/gcc/arm-none-eabi/4.9.2/include/stddef.h"
 798              		.file 4 "/usr/arm-none-eabi/include/machine/_default_types.h"
 799              		.file 5 "/usr/arm-none-eabi/include/stdint.h"
 800              		.file 6 "../../ChibiOS-RT/os/ports/GCC/ARMCMx/chtypes.h"
 801              		.file 7 "../../ChibiOS-RT/os/kernel/include/chlists.h"
 802              		.file 8 "../../ChibiOS-RT/os/kernel/include/chthreads.h"
 803              		.file 9 "../../ChibiOS-RT/os/ports/GCC/ARMCMx/chcore_v7m.h"
 804              		.file 10 "../../ChibiOS-RT/os/kernel/include/chvt.h"
 805              		.file 11 "../../ChibiOS-RT/os/kernel/include/chschd.h"
 806              		.file 12 "../../ChibiOS-RT/os/kernel/include/chmtx.h"
 807              		.file 13 "../../ChibiOS-RT/os/kernel/include/chdebug.h"
 808              		.file 14 "../../ChibiOS-RT/os/kernel/include/chdynamic.h"