ARM GAS  /tmp/ccTFkwNU.s 			page 1


   1              		.syntax unified
   2              		.cpu cortex-m4
   3              		.fpu softvfp
   4              		.eabi_attribute 20, 1
   5              		.eabi_attribute 21, 1
   6              		.eabi_attribute 23, 3
   7              		.eabi_attribute 24, 1
   8              		.eabi_attribute 25, 1
   9              		.eabi_attribute 26, 1
  10              		.eabi_attribute 30, 1
  11              		.eabi_attribute 34, 1
  12              		.eabi_attribute 18, 4
  13              		.thumb
  14              		.file	"chvt.c"
  15              		.text
  16              	.Ltext0:
  17              		.cfi_sections	.debug_frame
  18              		.section	.text._vt_init,"ax",%progbits
  19              		.align	2
  20              		.p2align 4,,15
  21              		.global	_vt_init
  22              		.thumb
  23              		.thumb_func
  24              		.type	_vt_init, %function
  25              	_vt_init:
  26              	.LFB7:
  27              		.file 1 "../../ChibiOS-RT/os/kernel/src/chvt.c"
  28              		.loc 1 50 0
  29              		.cfi_startproc
  30              		@ args = 0, pretend = 0, frame = 0
  31              		@ frame_needed = 0, uses_anonymous_args = 0
  32              		@ link register save eliminated.
  33              		.loc 1 52 0
  34 0000 044B     		ldr	r3, .L2
  35 0002 5B60     		str	r3, [r3, #4]
  36 0004 1B60     		str	r3, [r3]
  37              		.loc 1 53 0
  38 0006 4FF0FF32 		mov	r2, #-1
  39 000a 9A60     		str	r2, [r3, #8]
  40              		.loc 1 54 0
  41 000c 0022     		movs	r2, #0
  42 000e DA60     		str	r2, [r3, #12]
  43 0010 7047     		bx	lr
  44              	.L3:
  45 0012 00BF     		.align	2
  46              	.L2:
  47 0014 00000000 		.word	.LANCHOR0
  48              		.cfi_endproc
  49              	.LFE7:
  50              		.size	_vt_init, .-_vt_init
  51 0018 AFF30080 		.section	.text.chVTSetI,"ax",%progbits
  51      AFF30080 
  52              		.align	2
  53              		.p2align 4,,15
  54              		.global	chVTSetI
  55              		.thumb
  56              		.thumb_func
ARM GAS  /tmp/ccTFkwNU.s 			page 2


  57              		.type	chVTSetI, %function
  58              	chVTSetI:
  59              	.LFB8:
  60              		.loc 1 76 0
  61              		.cfi_startproc
  62              		@ args = 0, pretend = 0, frame = 0
  63              		@ frame_needed = 0, uses_anonymous_args = 0
  64              	.LVL0:
  65 0000 F8B5     		push	{r3, r4, r5, r6, r7, lr}
  66              		.cfi_def_cfa_offset 24
  67              		.cfi_offset 3, -24
  68              		.cfi_offset 4, -20
  69              		.cfi_offset 5, -16
  70              		.cfi_offset 6, -12
  71              		.cfi_offset 7, -8
  72              		.cfi_offset 14, -4
  73 0002 0546     		mov	r5, r0
  74 0004 0C46     		mov	r4, r1
  75 0006 1646     		mov	r6, r2
  76 0008 1F46     		mov	r7, r3
  77              		.loc 1 79 0
  78 000a FFF7FEFF 		bl	chDbgCheckClassI
  79              	.LVL1:
  80              		.loc 1 83 0
  81 000e 2F61     		str	r7, [r5, #16]
  82              		.loc 1 84 0
  83 0010 EE60     		str	r6, [r5, #12]
  84              		.loc 1 85 0
  85 0012 0A4B     		ldr	r3, .L9
  86 0014 1B68     		ldr	r3, [r3]
  87              	.LVL2:
  88              		.loc 1 86 0
  89 0016 01E0     		b	.L5
  90              	.L6:
  91              		.loc 1 87 0
  92 0018 A41A     		subs	r4, r4, r2
  93              	.LVL3:
  94              		.loc 1 88 0
  95 001a 1B68     		ldr	r3, [r3]
  96              	.LVL4:
  97              	.L5:
  98              		.loc 1 86 0
  99 001c 9A68     		ldr	r2, [r3, #8]
 100 001e A242     		cmp	r2, r4
 101 0020 FAD3     		bcc	.L6
 102              		.loc 1 91 0
 103 0022 2B60     		str	r3, [r5]
 104 0024 5A68     		ldr	r2, [r3, #4]
 105 0026 6A60     		str	r2, [r5, #4]
 106              		.loc 1 92 0
 107 0028 5D60     		str	r5, [r3, #4]
 108 002a 1560     		str	r5, [r2]
 109              		.loc 1 93 0
 110 002c AC60     		str	r4, [r5, #8]
 111              		.loc 1 94 0
 112 002e 034A     		ldr	r2, .L9
 113 0030 9342     		cmp	r3, r2
ARM GAS  /tmp/ccTFkwNU.s 			page 3


 114 0032 02D0     		beq	.L4
 115              		.loc 1 95 0
 116 0034 9A68     		ldr	r2, [r3, #8]
 117 0036 141B     		subs	r4, r2, r4
 118              	.LVL5:
 119 0038 9C60     		str	r4, [r3, #8]
 120              	.LVL6:
 121              	.L4:
 122 003a F8BD     		pop	{r3, r4, r5, r6, r7, pc}
 123              	.LVL7:
 124              	.L10:
 125              		.align	2
 126              	.L9:
 127 003c 00000000 		.word	.LANCHOR0
 128              		.cfi_endproc
 129              	.LFE8:
 130              		.size	chVTSetI, .-chVTSetI
 131              		.section	.text.chVTResetI,"ax",%progbits
 132              		.align	2
 133              		.p2align 4,,15
 134              		.global	chVTResetI
 135              		.thumb
 136              		.thumb_func
 137              		.type	chVTResetI, %function
 138              	chVTResetI:
 139              	.LFB9:
 140              		.loc 1 106 0
 141              		.cfi_startproc
 142              		@ args = 0, pretend = 0, frame = 0
 143              		@ frame_needed = 0, uses_anonymous_args = 0
 144              	.LVL8:
 145 0000 10B5     		push	{r4, lr}
 146              		.cfi_def_cfa_offset 8
 147              		.cfi_offset 4, -8
 148              		.cfi_offset 14, -4
 149 0002 0446     		mov	r4, r0
 150              		.loc 1 108 0
 151 0004 FFF7FEFF 		bl	chDbgCheckClassI
 152              	.LVL9:
 153              		.loc 1 110 0
 154 0008 E368     		ldr	r3, [r4, #12]
 155 000a 13B9     		cbnz	r3, .L12
 156              		.loc 1 110 0 is_stmt 0 discriminator 1
 157 000c 0948     		ldr	r0, .L15
 158 000e FFF7FEFF 		bl	chDbgPanic
 159              	.LVL10:
 160              	.L12:
 161              		.loc 1 114 0 is_stmt 1
 162 0012 2368     		ldr	r3, [r4]
 163 0014 084A     		ldr	r2, .L15+4
 164 0016 9342     		cmp	r3, r2
 165 0018 03D0     		beq	.L13
 166              		.loc 1 115 0
 167 001a A268     		ldr	r2, [r4, #8]
 168 001c 9968     		ldr	r1, [r3, #8]
 169 001e 0A44     		add	r2, r2, r1
 170 0020 9A60     		str	r2, [r3, #8]
ARM GAS  /tmp/ccTFkwNU.s 			page 4


 171              	.L13:
 172              		.loc 1 116 0
 173 0022 6368     		ldr	r3, [r4, #4]
 174 0024 2268     		ldr	r2, [r4]
 175 0026 1A60     		str	r2, [r3]
 176              		.loc 1 117 0
 177 0028 2368     		ldr	r3, [r4]
 178 002a 6268     		ldr	r2, [r4, #4]
 179 002c 5A60     		str	r2, [r3, #4]
 180              		.loc 1 118 0
 181 002e 0023     		movs	r3, #0
 182 0030 E360     		str	r3, [r4, #12]
 183 0032 10BD     		pop	{r4, pc}
 184              	.LVL11:
 185              	.L16:
 186              		.align	2
 187              	.L15:
 188 0034 00000000 		.word	.LC0
 189 0038 00000000 		.word	.LANCHOR0
 190              		.cfi_endproc
 191              	.LFE9:
 192              		.size	chVTResetI, .-chVTResetI
 193              		.global	vtlist
 194 003c AFF30080 		.section	.bss.vtlist,"aw",%nobits
 195              		.align	2
 196              		.set	.LANCHOR0,. + 0
 197              		.type	vtlist, %object
 198              		.size	vtlist, 16
 199              	vtlist:
 200 0000 00000000 		.space	16
 200      00000000 
 200      00000000 
 200      00000000 
 201              		.section	.rodata.str1.4,"aMS",%progbits,1
 202              		.align	2
 203              	.LC0:
 204 0000 63685654 		.ascii	"chVTResetI(), #1\000"
 204      52657365 
 204      74492829 
 204      2C202331 
 204      00
 205 0011 000000   		.text
 206              	.Letext0:
 207              		.file 2 "/usr/arm-none-eabi/include/machine/_default_types.h"
 208              		.file 3 "/usr/arm-none-eabi/include/stdint.h"
 209              		.file 4 "../../ChibiOS-RT/os/ports/GCC/ARMCMx/chtypes.h"
 210              		.file 5 "../../ChibiOS-RT/os/kernel/include/chvt.h"
 211              		.file 6 "../../ChibiOS-RT/os/kernel/include/chdebug.h"