ARM GAS  /tmp/ccqAV3MI.s 			page 1


   1              		.syntax unified
   2              		.cpu cortex-m4
   3              		.fpu softvfp
   4              		.eabi_attribute 20, 1
   5              		.eabi_attribute 21, 1
   6              		.eabi_attribute 23, 3
   7              		.eabi_attribute 24, 1
   8              		.eabi_attribute 25, 1
   9              		.eabi_attribute 26, 1
  10              		.eabi_attribute 30, 1
  11              		.eabi_attribute 34, 1
  12              		.eabi_attribute 18, 4
  13              		.thumb
  14              		.file	"crt0.c"
  15              		.text
  16              	.Ltext0:
  17              		.cfi_sections	.debug_frame
  18              		.section	.text.__early_init,"ax",%progbits
  19              		.align	2
  20              		.p2align 4,,15
  21              		.weak	__early_init
  22              		.thumb
  23              		.thumb_func
  24              		.type	__early_init, %function
  25              	__early_init:
  26              	.LFB0:
  27              		.file 1 "../../ChibiOS-RT/os/ports/GCC/ARMCMx/crt0.c"
  28              		.loc 1 234 0
  29              		.cfi_startproc
  30              		@ args = 0, pretend = 0, frame = 0
  31              		@ frame_needed = 0, uses_anonymous_args = 0
  32              		@ link register save eliminated.
  33 0000 7047     		bx	lr
  34              		.cfi_endproc
  35              	.LFE0:
  36              		.size	__early_init, .-__early_init
  37 0002 00BFAFF3 		.section	.text.__late_init,"ax",%progbits
  37      0080AFF3 
  37      0080AFF3 
  37      0080
  38              		.align	2
  39              		.p2align 4,,15
  40              		.weak	__late_init
  41              		.thumb
  42              		.thumb_func
  43              		.type	__late_init, %function
  44              	__late_init:
  45              	.LFB1:
  46              		.loc 1 246 0
  47              		.cfi_startproc
  48              		@ args = 0, pretend = 0, frame = 0
  49              		@ frame_needed = 0, uses_anonymous_args = 0
  50              		@ link register save eliminated.
  51 0000 7047     		bx	lr
  52              		.cfi_endproc
  53              	.LFE1:
  54              		.size	__late_init, .-__late_init
ARM GAS  /tmp/ccqAV3MI.s 			page 2


  55 0002 00BFAFF3 		.section	.text._default_exit,"ax",%progbits
  55      0080AFF3 
  55      0080AFF3 
  55      0080
  56              		.align	2
  57              		.p2align 4,,15
  58              		.weak	_default_exit
  59              		.thumb
  60              		.thumb_func
  61              		.type	_default_exit, %function
  62              	_default_exit:
  63              	.LFB2:
  64              		.loc 1 257 0
  65              		.cfi_startproc
  66              		@ Naked Function: prologue and epilogue provided by programmer.
  67              		@ args = 0, pretend = 0, frame = 0
  68              		@ frame_needed = 0, uses_anonymous_args = 0
  69              	.L4:
  70              		.loc 1 259 0 discriminator 1
  71 0000 FEE7     		b	.L4
  72              		.cfi_endproc
  73              	.LFE2:
  74              		.size	_default_exit, .-_default_exit
  75 0002 00BFAFF3 		.section	.text.ResetHandler,"ax",%progbits
  75      0080AFF3 
  75      0080AFF3 
  75      0080
  76              		.align	2
  77              		.p2align 4,,15
  78              		.global	ResetHandler
  79              		.thumb
  80              		.thumb_func
  81              		.type	ResetHandler, %function
  82              	ResetHandler:
  83              	.LFB3:
  84              		.loc 1 268 0
  85              		.cfi_startproc
  86              		@ Naked Function: prologue and epilogue provided by programmer.
  87              		@ args = 0, pretend = 0, frame = 0
  88              		@ frame_needed = 0, uses_anonymous_args = 0
  89              		.loc 1 274 0
  90              	@ 274 "../../ChibiOS-RT/os/ports/GCC/ARMCMx/crt0.c" 1
  91 0000 72B6     		cpsid   i
  92              	@ 0 "" 2
  93              		.loc 1 275 0
  94              		.thumb
  95 0002 224B     		ldr	r3, .L18
  96              	.LVL0:
  97              		.loc 1 276 0
  98              	@ 276 "../../ChibiOS-RT/os/ports/GCC/ARMCMx/crt0.c" 1
  99 0004 83F30988 		msr     PSP, r3
 100              	@ 0 "" 2
 101              	.LVL1:
 102              		.loc 1 296 0
 103              		.thumb
 104 0008 0223     		movs	r3, #2
 105              	@ 296 "../../ChibiOS-RT/os/ports/GCC/ARMCMx/crt0.c" 1
ARM GAS  /tmp/ccqAV3MI.s 			page 3


 106 000a 83F31488 		msr     CONTROL, r3
 107              	@ 0 "" 2
 108              		.loc 1 297 0
 109              	@ 297 "../../ChibiOS-RT/os/ports/GCC/ARMCMx/crt0.c" 1
 110 000e BFF36F8F 		isb
 111              	@ 0 "" 2
 112              	.LVL2:
 113              		.thumb
 114              	.LBB2:
 115              		.loc 1 301 0
 116 0012 1F4B     		ldr	r3, .L18+4
 117 0014 03E0     		b	.L6
 118              	.LVL3:
 119              	.L7:
 120              		.loc 1 301 0 is_stmt 0 discriminator 3
 121 0016 4FF05532 		mov	r2, #1431655765
 122 001a 1A60     		str	r2, [r3]
 123 001c 0433     		adds	r3, r3, #4
 124              	.LVL4:
 125              	.L6:
 126              		.loc 1 301 0 discriminator 1
 127 001e 1D4A     		ldr	r2, .L18+8
 128 0020 9342     		cmp	r3, r2
 129 0022 F8D3     		bcc	.L7
 130 0024 1C4B     		ldr	r3, .L18+12
 131              	.LVL5:
 132 0026 03E0     		b	.L8
 133              	.LVL6:
 134              	.L9:
 135              	.LBE2:
 136              	.LBB3:
 137              		.loc 1 304 0 is_stmt 1 discriminator 3
 138 0028 4FF05532 		mov	r2, #1431655765
 139 002c 1A60     		str	r2, [r3]
 140 002e 0433     		adds	r3, r3, #4
 141              	.LVL7:
 142              	.L8:
 143              		.loc 1 304 0 is_stmt 0 discriminator 1
 144 0030 164A     		ldr	r2, .L18
 145 0032 9342     		cmp	r3, r2
 146 0034 F8D3     		bcc	.L9
 147              	.LBE3:
 148              		.loc 1 310 0 is_stmt 1
 149 0036 FFF7FEFF 		bl	__early_init
 150              	.LVL8:
 151              	.LBB4:
 152              		.loc 1 318 0
 153 003a 184B     		ldr	r3, .L18+16
 154              		.loc 1 317 0
 155 003c 184A     		ldr	r2, .L18+20
 156              		.loc 1 319 0
 157 003e 03E0     		b	.L10
 158              	.LVL9:
 159              	.L11:
 160              		.loc 1 320 0
 161 0040 1168     		ldr	r1, [r2]
 162 0042 1960     		str	r1, [r3]
ARM GAS  /tmp/ccqAV3MI.s 			page 4


 163 0044 0433     		adds	r3, r3, #4
 164              	.LVL10:
 165 0046 0432     		adds	r2, r2, #4
 166              	.LVL11:
 167              	.L10:
 168              		.loc 1 319 0
 169 0048 1649     		ldr	r1, .L18+24
 170 004a 8B42     		cmp	r3, r1
 171 004c F8D3     		bcc	.L11
 172 004e 164B     		ldr	r3, .L18+28
 173              	.LVL12:
 174 0050 02E0     		b	.L12
 175              	.LVL13:
 176              	.L13:
 177              	.LBE4:
 178              	.LBB5:
 179              		.loc 1 326 0 discriminator 3
 180 0052 0022     		movs	r2, #0
 181 0054 1A60     		str	r2, [r3]
 182 0056 0433     		adds	r3, r3, #4
 183              	.LVL14:
 184              	.L12:
 185              		.loc 1 326 0 is_stmt 0 discriminator 1
 186 0058 144A     		ldr	r2, .L18+32
 187 005a 9342     		cmp	r3, r2
 188 005c F9D3     		bcc	.L13
 189              	.LBE5:
 190              		.loc 1 330 0 is_stmt 1
 191 005e FFF7FEFF 		bl	__late_init
 192              	.LVL15:
 193              	.LBB6:
 194              		.loc 1 335 0
 195 0062 134C     		ldr	r4, .L18+36
 196              		.loc 1 336 0
 197 0064 02E0     		b	.L14
 198              	.LVL16:
 199              	.L15:
 200              		.loc 1 337 0
 201 0066 54F8043B 		ldr	r3, [r4], #4
 202              	.LVL17:
 203 006a 9847     		blx	r3
 204              	.LVL18:
 205              	.L14:
 206              		.loc 1 336 0
 207 006c 114B     		ldr	r3, .L18+40
 208 006e 9C42     		cmp	r4, r3
 209 0070 F9D3     		bcc	.L15
 210              	.LBE6:
 211              		.loc 1 344 0
 212 0072 FFF7FEFF 		bl	main
 213              	.LVL19:
 214              	.LBB7:
 215              		.loc 1 349 0
 216 0076 104C     		ldr	r4, .L18+44
 217              	.LVL20:
 218              		.loc 1 350 0
 219 0078 02E0     		b	.L16
ARM GAS  /tmp/ccqAV3MI.s 			page 5


 220              	.LVL21:
 221              	.L17:
 222              		.loc 1 351 0
 223 007a 54F8043B 		ldr	r3, [r4], #4
 224              	.LVL22:
 225 007e 9847     		blx	r3
 226              	.LVL23:
 227              	.L16:
 228              		.loc 1 350 0
 229 0080 0E4B     		ldr	r3, .L18+48
 230 0082 9C42     		cmp	r4, r3
 231 0084 F9D3     		bcc	.L17
 232              	.LBE7:
 233              		.loc 1 358 0
 234 0086 FFF7FEFF 		bl	_default_exit
 235              	.LVL24:
 236              		.loc 1 359 0
 237              	.L19:
 238 008a 00BF     		.align	2
 239              	.L18:
 240 008c 00000000 		.word	__process_stack_end__
 241 0090 00000000 		.word	__main_stack_base__
 242 0094 00000000 		.word	__main_stack_end__
 243 0098 00000000 		.word	__process_stack_base__
 244 009c 00000000 		.word	_data
 245 00a0 00000000 		.word	_textdata
 246 00a4 00000000 		.word	_edata
 247 00a8 00000000 		.word	_bss_start
 248 00ac 00000000 		.word	_bss_end
 249 00b0 00000000 		.word	__init_array_start
 250 00b4 00000000 		.word	__init_array_end
 251 00b8 00000000 		.word	__fini_array_start
 252 00bc 00000000 		.word	__fini_array_end
 253              		.cfi_endproc
 254              	.LFE3:
 255              		.size	ResetHandler, .-ResetHandler
 256              		.text
 257              	.Letext0:
 258              		.file 2 "/usr/arm-none-eabi/include/machine/_default_types.h"
 259              		.file 3 "/usr/arm-none-eabi/include/stdint.h"