ARM GAS  /tmp/ccy6D4eS.s 			page 1


   1              		.syntax unified
   2              		.cpu cortex-m4
   3              		.fpu softvfp
   4              		.eabi_attribute 20, 1
   5              		.eabi_attribute 21, 1
   6              		.eabi_attribute 23, 3
   7              		.eabi_attribute 24, 1
   8              		.eabi_attribute 25, 1
   9              		.eabi_attribute 26, 1
  10              		.eabi_attribute 30, 1
  11              		.eabi_attribute 34, 1
  12              		.eabi_attribute 18, 4
  13              		.thumb
  14              		.file	"hal.c"
  15              		.text
  16              	.Ltext0:
  17              		.cfi_sections	.debug_frame
  18              		.section	.text.halInit,"ax",%progbits
  19              		.align	2
  20              		.p2align 4,,15
  21              		.global	halInit
  22              		.thumb
  23              		.thumb_func
  24              		.type	halInit, %function
  25              	halInit:
  26              	.LFB118:
  27              		.file 1 "../../ChibiOS-RT/os/hal/src/hal.c"
  28              		.loc 1 68 0
  29              		.cfi_startproc
  30              		@ args = 0, pretend = 0, frame = 0
  31              		@ frame_needed = 0, uses_anonymous_args = 0
  32 0000 08B5     		push	{r3, lr}
  33              		.cfi_def_cfa_offset 8
  34              		.cfi_offset 3, -8
  35              		.cfi_offset 14, -4
  36              		.loc 1 70 0
  37 0002 FFF7FEFF 		bl	hal_lld_init
  38              	.LVL0:
  39              		.loc 1 73 0
  40 0006 FFF7FEFF 		bl	tmInit
  41              	.LVL1:
  42              		.loc 1 76 0
  43 000a 0448     		ldr	r0, .L3
  44 000c FFF7FEFF 		bl	_pal_lld_init
  45              	.LVL2:
  46              		.loc 1 82 0
  47 0010 FFF7FEFF 		bl	canInit
  48              	.LVL3:
  49              		.loc 1 127 0
  50 0014 FFF7FEFF 		bl	boardInit
  51              	.LVL4:
  52 0018 08BD     		pop	{r3, pc}
  53              	.L4:
  54 001a 00BF     		.align	2
  55              	.L3:
  56 001c 00000000 		.word	pal_default_config
  57              		.cfi_endproc
ARM GAS  /tmp/ccy6D4eS.s 			page 2


  58              	.LFE118:
  59              		.size	halInit, .-halInit
  60              		.section	.text.halIsCounterWithin,"ax",%progbits
  61              		.align	2
  62              		.p2align 4,,15
  63              		.global	halIsCounterWithin
  64              		.thumb
  65              		.thumb_func
  66              		.type	halIsCounterWithin, %function
  67              	halIsCounterWithin:
  68              	.LFB119:
  69              		.loc 1 174 0
  70              		.cfi_startproc
  71              		@ args = 0, pretend = 0, frame = 0
  72              		@ frame_needed = 0, uses_anonymous_args = 0
  73              		@ link register save eliminated.
  74              	.LVL5:
  75              		.loc 1 175 0
  76 0000 0B4B     		ldr	r3, .L14
  77 0002 5B68     		ldr	r3, [r3, #4]
  78              	.LVL6:
  79              		.loc 1 177 0
  80 0004 8142     		cmp	r1, r0
  81 0006 09D9     		bls	.L6
  82              		.loc 1 177 0 is_stmt 0 discriminator 1
  83 0008 8342     		cmp	r3, r0
  84 000a 03D3     		bcc	.L10
  85              		.loc 1 177 0 discriminator 2
  86 000c 8B42     		cmp	r3, r1
  87 000e 03D3     		bcc	.L11
  88              		.loc 1 177 0
  89 0010 0020     		movs	r0, #0
  90              	.LVL7:
  91 0012 7047     		bx	lr
  92              	.LVL8:
  93              	.L10:
  94 0014 0020     		movs	r0, #0
  95              	.LVL9:
  96 0016 7047     		bx	lr
  97              	.LVL10:
  98              	.L11:
  99 0018 0120     		movs	r0, #1
 100              	.LVL11:
 101 001a 7047     		bx	lr
 102              	.LVL12:
 103              	.L6:
 104              		.loc 1 178 0 is_stmt 1
 105 001c 8342     		cmp	r3, r0
 106 001e 03D2     		bcs	.L12
 107              		.loc 1 178 0 is_stmt 0 discriminator 2
 108 0020 8B42     		cmp	r3, r1
 109 0022 03D2     		bcs	.L13
 110              		.loc 1 178 0
 111 0024 0120     		movs	r0, #1
 112              	.LVL13:
 113 0026 7047     		bx	lr
 114              	.LVL14:
ARM GAS  /tmp/ccy6D4eS.s 			page 3


 115              	.L12:
 116 0028 0120     		movs	r0, #1
 117              	.LVL15:
 118 002a 7047     		bx	lr
 119              	.LVL16:
 120              	.L13:
 121 002c 0020     		movs	r0, #0
 122              	.LVL17:
 123              		.loc 1 179 0 is_stmt 1
 124 002e 7047     		bx	lr
 125              	.L15:
 126              		.align	2
 127              	.L14:
 128 0030 001000E0 		.word	-536866816
 129              		.cfi_endproc
 130              	.LFE119:
 131              		.size	halIsCounterWithin, .-halIsCounterWithin
 132 0034 AFF30080 		.section	.text.halPolledDelay,"ax",%progbits
 132      AFF30080 
 132      AFF30080 
 133              		.align	2
 134              		.p2align 4,,15
 135              		.global	halPolledDelay
 136              		.thumb
 137              		.thumb_func
 138              		.type	halPolledDelay, %function
 139              	halPolledDelay:
 140              	.LFB120:
 141              		.loc 1 193 0
 142              		.cfi_startproc
 143              		@ args = 0, pretend = 0, frame = 0
 144              		@ frame_needed = 0, uses_anonymous_args = 0
 145              	.LVL18:
 146 0000 38B5     		push	{r3, r4, r5, lr}
 147              		.cfi_def_cfa_offset 16
 148              		.cfi_offset 3, -16
 149              		.cfi_offset 4, -12
 150              		.cfi_offset 5, -8
 151              		.cfi_offset 14, -4
 152              		.loc 1 194 0
 153 0002 054B     		ldr	r3, .L19
 154 0004 5C68     		ldr	r4, [r3, #4]
 155              	.LVL19:
 156              		.loc 1 195 0
 157 0006 2518     		adds	r5, r4, r0
 158              	.LVL20:
 159              	.L17:
 160              		.loc 1 196 0 discriminator 1
 161 0008 2046     		mov	r0, r4
 162 000a 2946     		mov	r1, r5
 163 000c FFF7FEFF 		bl	halIsCounterWithin
 164              	.LVL21:
 165 0010 0028     		cmp	r0, #0
 166 0012 F9D1     		bne	.L17
 167              		.loc 1 198 0
 168 0014 38BD     		pop	{r3, r4, r5, pc}
 169              	.LVL22:
ARM GAS  /tmp/ccy6D4eS.s 			page 4


 170              	.L20:
 171 0016 00BF     		.align	2
 172              	.L19:
 173 0018 001000E0 		.word	-536866816
 174              		.cfi_endproc
 175              	.LFE120:
 176              		.size	halPolledDelay, .-halPolledDelay
 177 001c AFF30080 		.text
 178              	.Letext0:
 179              		.file 2 "/usr/arm-none-eabi/include/machine/_default_types.h"
 180              		.file 3 "/usr/arm-none-eabi/include/stdint.h"
 181              		.file 4 "../../ChibiOS-RT/os/ports/GCC/ARMCMx/chtypes.h"
 182              		.file 5 "../../ChibiOS-RT/os/ports/common/ARMCMx/nvic.h"
 183              		.file 6 "../../ChibiOS-RT/os/hal/platforms/STM32F4xx/hal_lld.h"
 184              		.file 7 "../../ChibiOS-RT/os/hal/platforms/STM32/GPIOv2/pal_lld.h"
 185              		.file 8 "../../ChibiOS-RT/os/ports/common/ARMCMx/CMSIS/include/core_cm4.h"
 186              		.file 9 "../../ChibiOS-RT/os/hal/include/tm.h"
 187              		.file 10 "../../ChibiOS-RT/os/hal/include/can.h"
 188              		.file 11 "../boards/WAVESHARE_CORE407I/board.h"