ARM GAS  /tmp/ccWmB7T3.s 			page 1


   1              		.syntax unified
   2              		.cpu cortex-m4
   3              		.fpu softvfp
   4              		.eabi_attribute 20, 1
   5              		.eabi_attribute 21, 1
   6              		.eabi_attribute 23, 3
   7              		.eabi_attribute 24, 1
   8              		.eabi_attribute 25, 1
   9              		.eabi_attribute 26, 1
  10              		.eabi_attribute 30, 1
  11              		.eabi_attribute 34, 1
  12              		.eabi_attribute 18, 4
  13              		.thumb
  14              		.file	"hal_lld.c"
  15              		.text
  16              	.Ltext0:
  17              		.cfi_sections	.debug_frame
  18              		.section	.text.hal_lld_backup_domain_init,"ax",%progbits
  19              		.align	2
  20              		.p2align 4,,15
  21              		.thumb
  22              		.thumb_func
  23              		.type	hal_lld_backup_domain_init, %function
  24              	hal_lld_backup_domain_init:
  25              	.LFB118:
  26              		.file 1 "../../ChibiOS-RT/os/hal/platforms/STM32F4xx/hal_lld.c"
  27              		.loc 1 51 0
  28              		.cfi_startproc
  29              		@ args = 0, pretend = 0, frame = 0
  30              		@ frame_needed = 0, uses_anonymous_args = 0
  31              		@ link register save eliminated.
  32              		.loc 1 54 0
  33 0000 0B4A     		ldr	r2, .L3
  34 0002 1368     		ldr	r3, [r2]
  35 0004 43F48073 		orr	r3, r3, #256
  36 0008 1360     		str	r3, [r2]
  37              		.loc 1 57 0
  38 000a 0A4B     		ldr	r3, .L3+4
  39 000c 1B6F     		ldr	r3, [r3, #112]
  40 000e 03F44073 		and	r3, r3, #768
  41 0012 B3F5007F 		cmp	r3, #512
  42 0016 05D0     		beq	.L2
  43              		.loc 1 59 0
  44 0018 064B     		ldr	r3, .L3+4
  45 001a 4FF48032 		mov	r2, #65536
  46 001e 1A67     		str	r2, [r3, #112]
  47              		.loc 1 60 0
  48 0020 0022     		movs	r2, #0
  49 0022 1A67     		str	r2, [r3, #112]
  50              	.L2:
  51              		.loc 1 94 0
  52 0024 024A     		ldr	r2, .L3
  53 0026 5368     		ldr	r3, [r2, #4]
  54 0028 23F40073 		bic	r3, r3, #512
  55 002c 5360     		str	r3, [r2, #4]
  56 002e 7047     		bx	lr
  57              	.L4:
ARM GAS  /tmp/ccWmB7T3.s 			page 2


  58              		.align	2
  59              	.L3:
  60 0030 00700040 		.word	1073770496
  61 0034 00380240 		.word	1073887232
  62              		.cfi_endproc
  63              	.LFE118:
  64              		.size	hal_lld_backup_domain_init, .-hal_lld_backup_domain_init
  65 0038 AFF30080 		.section	.text.hal_lld_init,"ax",%progbits
  65      AFF30080 
  66              		.align	2
  67              		.p2align 4,,15
  68              		.global	hal_lld_init
  69              		.thumb
  70              		.thumb_func
  71              		.type	hal_lld_init, %function
  72              	hal_lld_init:
  73              	.LFB119:
  74              		.loc 1 111 0
  75              		.cfi_startproc
  76              		@ args = 0, pretend = 0, frame = 0
  77              		@ frame_needed = 0, uses_anonymous_args = 0
  78 0000 08B5     		push	{r3, lr}
  79              		.cfi_def_cfa_offset 8
  80              		.cfi_offset 3, -8
  81              		.cfi_offset 14, -4
  82              		.loc 1 115 0
  83 0002 154B     		ldr	r3, .L7
  84 0004 1A69     		ldr	r2, [r3, #16]
  85 0006 4FF0FF31 		mov	r1, #-1
  86 000a 1961     		str	r1, [r3, #16]
  87 000c 0022     		movs	r2, #0
  88 000e 1A61     		str	r2, [r3, #16]
  89              		.loc 1 116 0
  90 0010 5869     		ldr	r0, [r3, #20]
  91 0012 5961     		str	r1, [r3, #20]
  92 0014 5A61     		str	r2, [r3, #20]
  93              		.loc 1 117 0
  94 0016 186A     		ldr	r0, [r3, #32]
  95 0018 60F08050 		orn	r0, r0, #268435456
  96 001c 1862     		str	r0, [r3, #32]
  97 001e 1A62     		str	r2, [r3, #32]
  98              		.loc 1 118 0
  99 0020 586A     		ldr	r0, [r3, #36]
 100 0022 5962     		str	r1, [r3, #36]
 101 0024 5A62     		str	r2, [r3, #36]
 102              		.loc 1 121 0
 103 0026 0D49     		ldr	r1, .L7+4
 104 0028 0D48     		ldr	r0, .L7+8
 105 002a 4860     		str	r0, [r1, #4]
 106              		.loc 1 122 0
 107 002c 8A60     		str	r2, [r1, #8]
 108              		.loc 1 123 0
 109 002e 0722     		movs	r2, #7
 110 0030 0A60     		str	r2, [r1]
 111              		.loc 1 128 0
 112 0032 01F55E61 		add	r1, r1, #3552
 113 0036 CA68     		ldr	r2, [r1, #12]
ARM GAS  /tmp/ccWmB7T3.s 			page 3


 114 0038 42F08072 		orr	r2, r2, #16777216
 115 003c CA60     		str	r2, [r1, #12]
 116              		.loc 1 129 0
 117 003e 0949     		ldr	r1, .L7+12
 118 0040 0A68     		ldr	r2, [r1]
 119 0042 42F00102 		orr	r2, r2, #1
 120 0046 0A60     		str	r2, [r1]
 121              		.loc 1 132 0
 122 0048 1A6C     		ldr	r2, [r3, #64]
 123 004a 42F08052 		orr	r2, r2, #268435456
 124 004e 1A64     		str	r2, [r3, #64]
 125              		.loc 1 135 0
 126 0050 FFF7FEFF 		bl	hal_lld_backup_domain_init
 127              	.LVL0:
 128 0054 08BD     		pop	{r3, pc}
 129              	.L8:
 130 0056 00BF     		.align	2
 131              	.L7:
 132 0058 00380240 		.word	1073887232
 133 005c 10E000E0 		.word	-536813552
 134 0060 3F900200 		.word	167999
 135 0064 001000E0 		.word	-536866816
 136              		.cfi_endproc
 137              	.LFE119:
 138              		.size	hal_lld_init, .-hal_lld_init
 139 0068 AFF30080 		.section	.text.stm32_clock_init,"ax",%progbits
 139      AFF30080 
 140              		.align	2
 141              		.p2align 4,,15
 142              		.global	stm32_clock_init
 143              		.thumb
 144              		.thumb_func
 145              		.type	stm32_clock_init, %function
 146              	stm32_clock_init:
 147              	.LFB120:
 148              		.loc 1 154 0
 149              		.cfi_startproc
 150              		@ args = 0, pretend = 0, frame = 0
 151              		@ frame_needed = 0, uses_anonymous_args = 0
 152              		@ link register save eliminated.
 153              		.loc 1 158 0
 154 0000 314B     		ldr	r3, .L17
 155 0002 4FF08052 		mov	r2, #268435456
 156 0006 1A64     		str	r2, [r3, #64]
 157              		.loc 1 162 0
 158 0008 4FF44041 		mov	r1, #49152
 159 000c 2F4A     		ldr	r2, .L17+4
 160 000e 1160     		str	r1, [r2]
 161              		.loc 1 169 0
 162 0010 1A68     		ldr	r2, [r3]
 163 0012 42F00102 		orr	r2, r2, #1
 164 0016 1A60     		str	r2, [r3]
 165              	.L10:
 166              		.loc 1 170 0 discriminator 1
 167 0018 2B4B     		ldr	r3, .L17
 168 001a 1B68     		ldr	r3, [r3]
 169 001c 13F0020F 		tst	r3, #2
ARM GAS  /tmp/ccWmB7T3.s 			page 4


 170 0020 FAD0     		beq	.L10
 171              		.loc 1 176 0
 172 0022 294B     		ldr	r3, .L17
 173 0024 9A68     		ldr	r2, [r3, #8]
 174 0026 22F00302 		bic	r2, r2, #3
 175 002a 9A60     		str	r2, [r3, #8]
 176              		.loc 1 177 0
 177 002c 9A68     		ldr	r2, [r3, #8]
 178 002e 9A60     		str	r2, [r3, #8]
 179              	.L11:
 180              		.loc 1 178 0 discriminator 1
 181 0030 254B     		ldr	r3, .L17
 182 0032 9B68     		ldr	r3, [r3, #8]
 183 0034 13F00C0F 		tst	r3, #12
 184 0038 FAD1     		bne	.L11
 185              		.loc 1 182 0
 186 003a 234B     		ldr	r3, .L17
 187 003c 1A68     		ldr	r2, [r3]
 188 003e 02F0F902 		and	r2, r2, #249
 189 0042 1A60     		str	r2, [r3]
 190              		.loc 1 183 0
 191 0044 0022     		movs	r2, #0
 192 0046 9A60     		str	r2, [r3, #8]
 193              		.loc 1 192 0
 194 0048 1A68     		ldr	r2, [r3]
 195 004a 42F48032 		orr	r2, r2, #65536
 196 004e 1A60     		str	r2, [r3]
 197              	.L12:
 198              		.loc 1 194 0 discriminator 1
 199 0050 1D4B     		ldr	r3, .L17
 200 0052 1B68     		ldr	r3, [r3]
 201 0054 13F4003F 		tst	r3, #131072
 202 0058 FAD0     		beq	.L12
 203              		.loc 1 200 0
 204 005a 1B4A     		ldr	r2, .L17
 205 005c 536F     		ldr	r3, [r2, #116]
 206 005e 43F00103 		orr	r3, r3, #1
 207 0062 5367     		str	r3, [r2, #116]
 208              	.L13:
 209              		.loc 1 201 0 discriminator 1
 210 0064 184B     		ldr	r3, .L17
 211 0066 5B6F     		ldr	r3, [r3, #116]
 212 0068 13F0020F 		tst	r3, #2
 213 006c FAD0     		beq	.L13
 214              		.loc 1 207 0
 215 006e 164B     		ldr	r3, .L17
 216 0070 174A     		ldr	r2, .L17+8
 217 0072 5A60     		str	r2, [r3, #4]
 218              		.loc 1 209 0
 219 0074 1A68     		ldr	r2, [r3]
 220 0076 42F08072 		orr	r2, r2, #16777216
 221 007a 1A60     		str	r2, [r3]
 222              	.L14:
 223              		.loc 1 213 0 discriminator 1
 224 007c 134B     		ldr	r3, .L17+4
 225 007e 5B68     		ldr	r3, [r3, #4]
 226 0080 13F4804F 		tst	r3, #16384
ARM GAS  /tmp/ccWmB7T3.s 			page 5


 227 0084 FAD0     		beq	.L14
 228              	.L15:
 229              		.loc 1 229 0 discriminator 1
 230 0086 104B     		ldr	r3, .L17
 231 0088 1B68     		ldr	r3, [r3]
 232 008a 13F0007F 		tst	r3, #33554432
 233 008e FAD0     		beq	.L15
 234              		.loc 1 244 0
 235 0090 0D4B     		ldr	r3, .L17
 236 0092 104A     		ldr	r2, .L17+12
 237 0094 9A60     		str	r2, [r3, #8]
 238              		.loc 1 257 0
 239 0096 40F20571 		movw	r1, #1797
 240 009a 0F4A     		ldr	r2, .L17+16
 241 009c 1160     		str	r1, [r2]
 242              		.loc 1 263 0
 243 009e 9A68     		ldr	r2, [r3, #8]
 244 00a0 42F00202 		orr	r2, r2, #2
 245 00a4 9A60     		str	r2, [r3, #8]
 246              	.L16:
 247              		.loc 1 264 0 discriminator 1
 248 00a6 084B     		ldr	r3, .L17
 249 00a8 9B68     		ldr	r3, [r3, #8]
 250 00aa 03F00C03 		and	r3, r3, #12
 251 00ae 082B     		cmp	r3, #8
 252 00b0 F9D1     		bne	.L16
 253              		.loc 1 271 0
 254 00b2 054B     		ldr	r3, .L17
 255 00b4 5A6C     		ldr	r2, [r3, #68]
 256 00b6 42F48042 		orr	r2, r2, #16384
 257 00ba 5A64     		str	r2, [r3, #68]
 258 00bc 5A6E     		ldr	r2, [r3, #100]
 259 00be 42F48042 		orr	r2, r2, #16384
 260 00c2 5A66     		str	r2, [r3, #100]
 261 00c4 7047     		bx	lr
 262              	.L18:
 263 00c6 00BF     		.align	2
 264              	.L17:
 265 00c8 00380240 		.word	1073887232
 266 00cc 00700040 		.word	1073770496
 267 00d0 08544007 		.word	121656328
 268 00d4 00940838 		.word	940086272
 269 00d8 003C0240 		.word	1073888256
 270              		.cfi_endproc
 271              	.LFE120:
 272              		.size	stm32_clock_init, .-stm32_clock_init
 273 00dc AFF30080 		.text
 274              	.Letext0:
 275              		.file 2 "/usr/arm-none-eabi/include/machine/_default_types.h"
 276              		.file 3 "/usr/arm-none-eabi/include/stdint.h"
 277              		.file 4 "../../ChibiOS-RT/os/ports/common/ARMCMx/nvic.h"
 278              		.file 5 "../../ChibiOS-RT/os/ports/common/ARMCMx/CMSIS/include/core_cm4.h"
 279              		.file 6 "../../ChibiOS-RT/os/hal/platforms/STM32F4xx/stm32f4xx.h"