ARM GAS  /tmp/ccD25wWi.s 			page 1


   1              		.syntax unified
   2              		.cpu cortex-m4
   3              		.fpu softvfp
   4              		.eabi_attribute 20, 1
   5              		.eabi_attribute 21, 1
   6              		.eabi_attribute 23, 3
   7              		.eabi_attribute 24, 1
   8              		.eabi_attribute 25, 1
   9              		.eabi_attribute 26, 1
  10              		.eabi_attribute 30, 1
  11              		.eabi_attribute 34, 1
  12              		.eabi_attribute 18, 4
  13              		.thumb
  14              		.file	"main.c"
  15              		.text
  16              	.Ltext0:
  17              		.cfi_sections	.debug_frame
  18              		.section	.text.can_tx,"ax",%progbits
  19              		.align	2
  20              		.p2align 4,,15
  21              		.thumb
  22              		.thumb_func
  23              		.type	can_tx, %function
  24              	can_tx:
  25              	.LFB119:
  26              		.file 1 "main.c"
  27              		.loc 1 69 0
  28              		.cfi_startproc
  29              		@ args = 0, pretend = 0, frame = 16
  30              		@ frame_needed = 0, uses_anonymous_args = 0
  31              	.LVL0:
  32 0000 00B5     		push	{lr}
  33              		.cfi_def_cfa_offset 4
  34              		.cfi_offset 14, -4
  35 0002 85B0     		sub	sp, sp, #20
  36              		.cfi_def_cfa_offset 24
  37              		.loc 1 73 0
  38 0004 1C4B     		ldr	r3, .L5
  39 0006 9B69     		ldr	r3, [r3, #24]
  40 0008 1C4A     		ldr	r2, .L5+4
  41 000a 9A61     		str	r2, [r3, #24]
  42              		.loc 1 74 0
  43 000c 9DF80030 		ldrb	r3, [sp]	@ zero_extendqisi2
  44              		.loc 1 75 0
  45 0010 019A     		ldr	r2, [sp, #4]
  46 0012 1B49     		ldr	r1, .L5+8
  47 0014 61F31C02 		bfi	r2, r1, #0, #29
  48 0018 0192     		str	r2, [sp, #4]
  49              		.loc 1 76 0
  50 001a 43F02003 		orr	r3, r3, #32
  51              		.loc 1 77 0
  52 001e 03F0EF03 		and	r3, r3, #239
  53 0022 0822     		movs	r2, #8
  54 0024 62F30303 		bfi	r3, r2, #0, #4
  55 0028 8DF80030 		strb	r3, [sp]
  56              		.loc 1 78 0
  57 002c 154B     		ldr	r3, .L5+12
ARM GAS  /tmp/ccD25wWi.s 			page 2


  58 002e 0293     		str	r3, [sp, #8]
  59              		.loc 1 79 0
  60 0030 4FF0FF13 		mov	r3, #16711935
  61 0034 0393     		str	r3, [sp, #12]
  62              		.loc 1 81 0
  63 0036 14E0     		b	.L2
  64              	.LVL1:
  65              	.L3:
  66              		.loc 1 82 0
  67 0038 1348     		ldr	r0, .L5+16
  68 003a 0021     		movs	r1, #0
  69 003c 6A46     		mov	r2, sp
  70 003e 6423     		movs	r3, #100
  71 0040 FFF7FEFF 		bl	canTransmit
  72              	.LVL2:
  73              		.loc 1 83 0
  74 0044 1148     		ldr	r0, .L5+20
  75 0046 0021     		movs	r1, #0
  76 0048 6A46     		mov	r2, sp
  77 004a 6423     		movs	r3, #100
  78 004c FFF7FEFF 		bl	canTransmit
  79              	.LVL3:
  80              		.loc 1 84 0
  81 0050 0F4A     		ldr	r2, .L5+24
  82 0052 5369     		ldr	r3, [r2, #20]
  83 0054 83F00803 		eor	r3, r3, #8
  84 0058 5361     		str	r3, [r2, #20]
  85              		.loc 1 85 0
  86 005a 4FF4FA70 		mov	r0, #500
  87 005e FFF7FEFF 		bl	chThdSleep
  88              	.LVL4:
  89              	.L2:
  90              		.loc 1 81 0
  91 0062 054B     		ldr	r3, .L5
  92 0064 9B69     		ldr	r3, [r3, #24]
  93 0066 93F82130 		ldrb	r3, [r3, #33]	@ zero_extendqisi2
  94 006a 13F0040F 		tst	r3, #4
  95 006e E3D0     		beq	.L3
  96              		.loc 1 88 0
  97 0070 0020     		movs	r0, #0
  98 0072 05B0     		add	sp, sp, #20
  99              		.cfi_def_cfa_offset 4
 100              		@ sp needed
 101 0074 5DF804FB 		ldr	pc, [sp], #4
 102              	.L6:
 103              		.align	2
 104              	.L5:
 105 0078 00000000 		.word	rlist
 106 007c 00000000 		.word	.LC0
 107 0080 67452301 		.word	19088743
 108 0084 AA55AA55 		.word	1437226410
 109 0088 00000000 		.word	CAND1
 110 008c 00000000 		.word	CAND2
 111 0090 001C0240 		.word	1073880064
 112              		.cfi_endproc
 113              	.LFE119:
 114              		.size	can_tx, .-can_tx
ARM GAS  /tmp/ccD25wWi.s 			page 3


 115 0094 AFF30080 		.section	.text.can_rx,"ax",%progbits
 115      AFF30080 
 115      AFF30080 
 116              		.align	2
 117              		.p2align 4,,15
 118              		.thumb
 119              		.thumb_func
 120              		.type	can_rx, %function
 121              	can_rx:
 122              	.LFB118:
 123              		.loc 1 44 0
 124              		.cfi_startproc
 125              		@ args = 0, pretend = 0, frame = 40
 126              		@ frame_needed = 0, uses_anonymous_args = 0
 127              	.LVL5:
 128 0000 10B5     		push	{r4, lr}
 129              		.cfi_def_cfa_offset 8
 130              		.cfi_offset 4, -8
 131              		.cfi_offset 14, -4
 132 0002 8AB0     		sub	sp, sp, #40
 133              		.cfi_def_cfa_offset 48
 134 0004 0446     		mov	r4, r0
 135              	.LVL6:
 136              		.loc 1 50 0
 137 0006 174B     		ldr	r3, .L14
 138 0008 9B69     		ldr	r3, [r3, #24]
 139 000a 174A     		ldr	r2, .L14+4
 140 000c 9A61     		str	r2, [r3, #24]
 141              		.loc 1 51 0
 142 000e 0068     		ldr	r0, [r0]
 143              	.LVL7:
 144 0010 2030     		adds	r0, r0, #32
 145 0012 06A9     		add	r1, sp, #24
 146 0014 0122     		movs	r2, #1
 147 0016 FFF7FEFF 		bl	chEvtRegisterMask
 148              	.LVL8:
 149              		.loc 1 52 0
 150 001a 15E0     		b	.L8
 151              	.L12:
 152              		.loc 1 53 0
 153 001c 4FF0FF30 		mov	r0, #-1
 154 0020 6421     		movs	r1, #100
 155 0022 FFF7FEFF 		bl	chEvtWaitAnyTimeout
 156              	.LVL9:
 157 0026 78B1     		cbz	r0, .L8
 158 0028 06E0     		b	.L10
 159              	.L11:
 160              		.loc 1 58 0
 161 002a 104A     		ldr	r2, .L14+8
 162 002c 5169     		ldr	r1, [r2, #20]
 163 002e 6068     		ldr	r0, [r4, #4]
 164 0030 0123     		movs	r3, #1
 165 0032 8340     		lsls	r3, r3, r0
 166 0034 4B40     		eors	r3, r3, r1
 167 0036 5361     		str	r3, [r2, #20]
 168              	.L10:
 169              		.loc 1 55 0
ARM GAS  /tmp/ccD25wWi.s 			page 4


 170 0038 2068     		ldr	r0, [r4]
 171 003a 0021     		movs	r1, #0
 172 003c 01AA     		add	r2, sp, #4
 173 003e 0B46     		mov	r3, r1
 174 0040 FFF7FEFF 		bl	canReceive
 175              	.LVL10:
 176 0044 0028     		cmp	r0, #0
 177 0046 F0D0     		beq	.L11
 178              	.L8:
 179              		.loc 1 52 0
 180 0048 064B     		ldr	r3, .L14
 181 004a 9B69     		ldr	r3, [r3, #24]
 182 004c 93F82130 		ldrb	r3, [r3, #33]	@ zero_extendqisi2
 183 0050 13F0040F 		tst	r3, #4
 184 0054 E2D0     		beq	.L12
 185              		.loc 1 61 0
 186 0056 0648     		ldr	r0, .L14+12
 187 0058 06A9     		add	r1, sp, #24
 188 005a FFF7FEFF 		bl	chEvtUnregister
 189              	.LVL11:
 190              		.loc 1 63 0
 191 005e 0020     		movs	r0, #0
 192 0060 0AB0     		add	sp, sp, #40
 193              		.cfi_def_cfa_offset 8
 194              		@ sp needed
 195 0062 10BD     		pop	{r4, pc}
 196              	.LVL12:
 197              	.L15:
 198              		.align	2
 199              	.L14:
 200 0064 00000000 		.word	rlist
 201 0068 0C000000 		.word	.LC1
 202 006c 001C0240 		.word	1073880064
 203 0070 20000000 		.word	CAND1+32
 204              		.cfi_endproc
 205              	.LFE118:
 206              		.size	can_rx, .-can_rx
 207 0074 AFF30080 		.section	.text.main,"ax",%progbits
 207      AFF30080 
 207      AFF30080 
 208              		.align	2
 209              		.p2align 4,,15
 210              		.global	main
 211              		.thumb
 212              		.thumb_func
 213              		.type	main, %function
 214              	main:
 215              	.LFB120:
 216              		.loc 1 93 0
 217              		.cfi_startproc
 218              		@ Volatile: function does not return.
 219              		@ args = 0, pretend = 0, frame = 0
 220              		@ frame_needed = 0, uses_anonymous_args = 0
 221 0000 00B5     		push	{lr}
 222              		.cfi_def_cfa_offset 4
 223              		.cfi_offset 14, -4
 224 0002 83B0     		sub	sp, sp, #12
ARM GAS  /tmp/ccD25wWi.s 			page 5


 225              		.cfi_def_cfa_offset 16
 226              		.loc 1 102 0
 227 0004 FFF7FEFF 		bl	halInit
 228              	.LVL13:
 229              		.loc 1 103 0
 230 0008 FFF7FEFF 		bl	chSysInit
 231              	.LVL14:
 232              		.loc 1 104 0
 233 000c 304C     		ldr	r4, .L19
 234 000e 2046     		mov	r0, r4
 235 0010 4021     		movs	r1, #64
 236 0012 40F28242 		movw	r2, #1154
 237 0016 FFF7FEFF 		bl	_pal_lld_setgroupmode
 238              	.LVL15:
 239              		.loc 1 105 0
 240 001a 2046     		mov	r0, r4
 241 001c 2021     		movs	r1, #32
 242 001e 40F28242 		movw	r2, #1154
 243 0022 FFF7FEFF 		bl	_pal_lld_setgroupmode
 244              	.LVL16:
 245              		.loc 1 106 0
 246 0026 2B4D     		ldr	r5, .L19+4
 247 0028 2846     		mov	r0, r5
 248 002a 4FF40071 		mov	r1, #512
 249 002e 40F28242 		movw	r2, #1154
 250 0032 FFF7FEFF 		bl	_pal_lld_setgroupmode
 251              	.LVL17:
 252              		.loc 1 107 0
 253 0036 04F5C054 		add	r4, r4, #6144
 254 003a 2046     		mov	r0, r4
 255 003c 4FF40051 		mov	r1, #8192
 256 0040 40F28242 		movw	r2, #1154
 257 0044 FFF7FEFF 		bl	_pal_lld_setgroupmode
 258              	.LVL18:
 259              		.loc 1 108 0
 260 0048 2046     		mov	r0, r4
 261 004a 0421     		movs	r1, #4
 262 004c 0122     		movs	r2, #1
 263 004e FFF7FEFF 		bl	_pal_lld_setgroupmode
 264              	.LVL19:
 265              		.loc 1 109 0
 266 0052 2046     		mov	r0, r4
 267 0054 0821     		movs	r1, #8
 268 0056 0122     		movs	r2, #1
 269 0058 FFF7FEFF 		bl	_pal_lld_setgroupmode
 270              	.LVL20:
 271              		.loc 1 114 0
 272 005c 1E4C     		ldr	r4, .L19+8
 273 005e 1F48     		ldr	r0, .L19+12
 274 0060 2146     		mov	r1, r4
 275 0062 FFF7FEFF 		bl	canStart
 276              	.LVL21:
 277              		.loc 1 115 0
 278 0066 1E48     		ldr	r0, .L19+16
 279 0068 2146     		mov	r1, r4
 280 006a FFF7FEFF 		bl	canStart
 281              	.LVL22:
ARM GAS  /tmp/ccD25wWi.s 			page 6


 282              		.loc 1 120 0
 283 006e 1D4C     		ldr	r4, .L19+20
 284 0070 1D4B     		ldr	r3, .L19+24
 285 0072 0093     		str	r3, [sp]
 286 0074 1D48     		ldr	r0, .L19+28
 287 0076 4FF4E871 		mov	r1, #464
 288 007a 4722     		movs	r2, #71
 289 007c 2346     		mov	r3, r4
 290 007e FFF7FEFF 		bl	chThdCreateStatic
 291              	.LVL23:
 292              		.loc 1 122 0
 293 0082 1B4B     		ldr	r3, .L19+32
 294 0084 0093     		str	r3, [sp]
 295 0086 1B48     		ldr	r0, .L19+36
 296 0088 4FF4E871 		mov	r1, #464
 297 008c 4722     		movs	r2, #71
 298 008e 2346     		mov	r3, r4
 299 0090 FFF7FEFF 		bl	chThdCreateStatic
 300              	.LVL24:
 301              		.loc 1 124 0
 302 0094 0023     		movs	r3, #0
 303 0096 0093     		str	r3, [sp]
 304 0098 1748     		ldr	r0, .L19+40
 305 009a 4FF4E871 		mov	r1, #464
 306 009e 4722     		movs	r2, #71
 307 00a0 164B     		ldr	r3, .L19+44
 308 00a2 FFF7FEFF 		bl	chThdCreateStatic
 309              	.LVL25:
 310              		.loc 1 130 0
 311 00a6 2846     		mov	r0, r5
 312 00a8 4FF48061 		mov	r1, #1024
 313 00ac 0122     		movs	r2, #1
 314 00ae FFF7FEFF 		bl	_pal_lld_setgroupmode
 315              	.LVL26:
 316              	.L17:
 317              		.loc 1 132 0 discriminator 1
 318 00b2 084C     		ldr	r4, .L19+4
 319 00b4 4FF48065 		mov	r5, #1024
 320 00b8 2583     		strh	r5, [r4, #24]	@ movhi
 321              		.loc 1 133 0 discriminator 1
 322 00ba 4FF4FA70 		mov	r0, #500
 323 00be FFF7FEFF 		bl	chThdSleep
 324              	.LVL27:
 325              		.loc 1 134 0 discriminator 1
 326 00c2 6583     		strh	r5, [r4, #26]	@ movhi
 327              		.loc 1 135 0 discriminator 1
 328 00c4 4FF4FA70 		mov	r0, #500
 329 00c8 FFF7FEFF 		bl	chThdSleep
 330              	.LVL28:
 331              		.loc 1 136 0 discriminator 1
 332 00cc F1E7     		b	.L17
 333              	.L20:
 334 00ce 00BF     		.align	2
 335              	.L19:
 336 00d0 00040240 		.word	1073873920
 337 00d4 00200240 		.word	1073881088
 338 00d8 00000000 		.word	.LANCHOR0
ARM GAS  /tmp/ccD25wWi.s 			page 7


 339 00dc 00000000 		.word	CAND1
 340 00e0 00000000 		.word	CAND2
 341 00e4 00000000 		.word	can_rx
 342 00e8 00000000 		.word	.LANCHOR2
 343 00ec 00000000 		.word	.LANCHOR1
 344 00f0 00000000 		.word	.LANCHOR4
 345 00f4 00000000 		.word	.LANCHOR3
 346 00f8 00000000 		.word	.LANCHOR5
 347 00fc 00000000 		.word	can_tx
 348              		.cfi_endproc
 349              	.LFE120:
 350              		.size	main, .-main
 351              		.section	.bss.can_rx2_wa,"aw",%nobits
 352              		.align	3
 353              		.set	.LANCHOR3,. + 0
 354              		.type	can_rx2_wa, %object
 355              		.size	can_rx2_wa, 464
 356              	can_rx2_wa:
 357 0000 00000000 		.space	464
 357      00000000 
 357      00000000 
 357      00000000 
 357      00000000 
 358              		.section	.rodata.cancfg,"a",%progbits
 359              		.align	2
 360              		.set	.LANCHOR0,. + 0
 361              		.type	cancfg, %object
 362              		.size	cancfg, 8
 363              	cancfg:
 364 0000 64000000 		.word	100
 365 0004 06001840 		.word	1075314694
 366              		.section	.bss.can_tx_wa,"aw",%nobits
 367              		.align	3
 368              		.set	.LANCHOR5,. + 0
 369              		.type	can_tx_wa, %object
 370              		.size	can_tx_wa, 464
 371              	can_tx_wa:
 372 0000 00000000 		.space	464
 372      00000000 
 372      00000000 
 372      00000000 
 372      00000000 
 373              		.section	.rodata.can1,"a",%progbits
 374              		.align	2
 375              		.set	.LANCHOR2,. + 0
 376              		.type	can1, %object
 377              		.size	can1, 8
 378              	can1:
 379 0000 00000000 		.word	CAND1
 380 0004 02000000 		.word	2
 381              		.section	.rodata.str1.4,"aMS",%progbits,1
 382              		.align	2
 383              	.LC0:
 384 0000 7472616E 		.ascii	"transmitter\000"
 384      736D6974 
 384      74657200 
 385              	.LC1:
ARM GAS  /tmp/ccD25wWi.s 			page 8


 386 000c 72656365 		.ascii	"receiver\000"
 386      69766572 
 386      00
 387 0015 000000   		.section	.rodata.can2,"a",%progbits
 388              		.align	2
 389              		.set	.LANCHOR4,. + 0
 390              		.type	can2, %object
 391              		.size	can2, 8
 392              	can2:
 393 0000 00000000 		.word	CAND2
 394 0004 03000000 		.word	3
 395              		.section	.bss.can_rx1_wa,"aw",%nobits
 396              		.align	3
 397              		.set	.LANCHOR1,. + 0
 398              		.type	can_rx1_wa, %object
 399              		.size	can_rx1_wa, 464
 400              	can_rx1_wa:
 401 0000 00000000 		.space	464
 401      00000000 
 401      00000000 
 401      00000000 
 401      00000000 
 402              		.text
 403              	.Letext0:
 404              		.file 2 "/usr/lib/gcc/arm-none-eabi/4.9.2/include/stddef.h"
 405              		.file 3 "/usr/arm-none-eabi/include/machine/_default_types.h"
 406              		.file 4 "/usr/arm-none-eabi/include/stdint.h"
 407              		.file 5 "../../ChibiOS-RT/os/ports/GCC/ARMCMx/chtypes.h"
 408              		.file 6 "../../ChibiOS-RT/os/kernel/include/chlists.h"
 409              		.file 7 "../../ChibiOS-RT/os/kernel/include/chthreads.h"
 410              		.file 8 "../../ChibiOS-RT/os/ports/GCC/ARMCMx/chcore_v7m.h"
 411              		.file 9 "../../ChibiOS-RT/os/kernel/include/chschd.h"
 412              		.file 10 "../../ChibiOS-RT/os/kernel/include/chsem.h"
 413              		.file 11 "../../ChibiOS-RT/os/kernel/include/chmtx.h"
 414              		.file 12 "../../ChibiOS-RT/os/kernel/include/chevents.h"
 415              		.file 13 "../../ChibiOS-RT/os/hal/platforms/STM32F4xx/stm32f4xx.h"
 416              		.file 14 "../../ChibiOS-RT/os/hal/platforms/STM32/GPIOv2/pal_lld.h"
 417              		.file 15 "../../ChibiOS-RT/os/hal/include/can.h"
 418              		.file 16 "../../ChibiOS-RT/os/hal/platforms/STM32/can_lld.h"
 419              		.file 17 "../../ChibiOS-RT/os/ports/common/ARMCMx/CMSIS/include/core_cm4.h"
 420              		.file 18 "../../ChibiOS-RT/os/hal/include/hal.h"
 421              		.file 19 "../../ChibiOS-RT/os/kernel/include/chsys.h"
 422              		.section	.debug_info,"",%progbits
 423              	.Ldebug_info0:
 424 0000 BB100000 		.4byte	0x10bb
 425 0004 0400     		.2byte	0x4
 426 0006 00000000 		.4byte	.Ldebug_abbrev0
 427 000a 04       		.byte	0x4
 428 000b 01       		.uleb128 0x1
 429 000c D7020000 		.4byte	.LASF175
 430 0010 01       		.byte	0x1
 431 0011 A0020000 		.4byte	.LASF176
 432 0015 0E000000 		.4byte	.LASF177
 433 0019 00000000 		.4byte	.Ldebug_ranges0+0
 434 001d 00000000 		.4byte	0
 435 0021 00000000 		.4byte	.Ldebug_line0
 436 0025 02       		.uleb128 0x2
ARM GAS  /tmp/ccD25wWi.s 			page 9


 437 0026 04       		.byte	0x4
 438 0027 05       		.byte	0x5
 439 0028 696E7400 		.ascii	"int\000"
 440 002c 03       		.uleb128 0x3
 441 002d 35000000 		.4byte	.LASF2
 442 0031 02       		.byte	0x2
 443 0032 D4       		.byte	0xd4
 444 0033 37000000 		.4byte	0x37
 445 0037 04       		.uleb128 0x4
 446 0038 04       		.byte	0x4
 447 0039 07       		.byte	0x7
 448 003a D5010000 		.4byte	.LASF0
 449 003e 04       		.uleb128 0x4
 450 003f 01       		.byte	0x1
 451 0040 06       		.byte	0x6
 452 0041 DA000000 		.4byte	.LASF1
 453 0045 03       		.uleb128 0x3
 454 0046 5E000000 		.4byte	.LASF3
 455 004a 03       		.byte	0x3
 456 004b 1D       		.byte	0x1d
 457 004c 50000000 		.4byte	0x50
 458 0050 04       		.uleb128 0x4
 459 0051 01       		.byte	0x1
 460 0052 08       		.byte	0x8
 461 0053 2B050000 		.4byte	.LASF4
 462 0057 04       		.uleb128 0x4
 463 0058 02       		.byte	0x2
 464 0059 05       		.byte	0x5
 465 005a 72050000 		.4byte	.LASF5
 466 005e 03       		.uleb128 0x3
 467 005f 2A060000 		.4byte	.LASF6
 468 0063 03       		.byte	0x3
 469 0064 2B       		.byte	0x2b
 470 0065 69000000 		.4byte	0x69
 471 0069 04       		.uleb128 0x4
 472 006a 02       		.byte	0x2
 473 006b 07       		.byte	0x7
 474 006c 3D020000 		.4byte	.LASF7
 475 0070 03       		.uleb128 0x3
 476 0071 56060000 		.4byte	.LASF8
 477 0075 03       		.byte	0x3
 478 0076 3F       		.byte	0x3f
 479 0077 7B000000 		.4byte	0x7b
 480 007b 04       		.uleb128 0x4
 481 007c 04       		.byte	0x4
 482 007d 05       		.byte	0x5
 483 007e 2D010000 		.4byte	.LASF9
 484 0082 03       		.uleb128 0x3
 485 0083 60060000 		.4byte	.LASF10
 486 0087 03       		.byte	0x3
 487 0088 41       		.byte	0x41
 488 0089 8D000000 		.4byte	0x8d
 489 008d 04       		.uleb128 0x4
 490 008e 04       		.byte	0x4
 491 008f 07       		.byte	0x7
 492 0090 01060000 		.4byte	.LASF11
 493 0094 04       		.uleb128 0x4
ARM GAS  /tmp/ccD25wWi.s 			page 10


 494 0095 08       		.byte	0x8
 495 0096 05       		.byte	0x5
 496 0097 CC000000 		.4byte	.LASF12
 497 009b 03       		.uleb128 0x3
 498 009c A8040000 		.4byte	.LASF13
 499 00a0 03       		.byte	0x3
 500 00a1 5B       		.byte	0x5b
 501 00a2 A6000000 		.4byte	0xa6
 502 00a6 04       		.uleb128 0x4
 503 00a7 08       		.byte	0x8
 504 00a8 07       		.byte	0x7
 505 00a9 80000000 		.4byte	.LASF14
 506 00ad 03       		.uleb128 0x3
 507 00ae 00070000 		.4byte	.LASF15
 508 00b2 04       		.byte	0x4
 509 00b3 15       		.byte	0x15
 510 00b4 45000000 		.4byte	0x45
 511 00b8 03       		.uleb128 0x3
 512 00b9 E2010000 		.4byte	.LASF16
 513 00bd 04       		.byte	0x4
 514 00be 21       		.byte	0x21
 515 00bf 5E000000 		.4byte	0x5e
 516 00c3 03       		.uleb128 0x3
 517 00c4 23050000 		.4byte	.LASF17
 518 00c8 04       		.byte	0x4
 519 00c9 2C       		.byte	0x2c
 520 00ca 70000000 		.4byte	0x70
 521 00ce 03       		.uleb128 0x3
 522 00cf E2050000 		.4byte	.LASF18
 523 00d3 04       		.byte	0x4
 524 00d4 2D       		.byte	0x2d
 525 00d5 82000000 		.4byte	0x82
 526 00d9 03       		.uleb128 0x3
 527 00da 4E000000 		.4byte	.LASF19
 528 00de 04       		.byte	0x4
 529 00df 39       		.byte	0x39
 530 00e0 9B000000 		.4byte	0x9b
 531 00e4 04       		.uleb128 0x4
 532 00e5 01       		.byte	0x1
 533 00e6 02       		.byte	0x2
 534 00e7 1D050000 		.4byte	.LASF20
 535 00eb 03       		.uleb128 0x3
 536 00ec A7020000 		.4byte	.LASF21
 537 00f0 05       		.byte	0x5
 538 00f1 2C       		.byte	0x2c
 539 00f2 AD000000 		.4byte	0xad
 540 00f6 03       		.uleb128 0x3
 541 00f7 36010000 		.4byte	.LASF22
 542 00fb 05       		.byte	0x5
 543 00fc 2D       		.byte	0x2d
 544 00fd AD000000 		.4byte	0xad
 545 0101 03       		.uleb128 0x3
 546 0102 C9040000 		.4byte	.LASF23
 547 0106 05       		.byte	0x5
 548 0107 2E       		.byte	0x2e
 549 0108 AD000000 		.4byte	0xad
 550 010c 03       		.uleb128 0x3
ARM GAS  /tmp/ccD25wWi.s 			page 11


 551 010d 18010000 		.4byte	.LASF24
 552 0111 05       		.byte	0x5
 553 0112 2F       		.byte	0x2f
 554 0113 AD000000 		.4byte	0xad
 555 0117 03       		.uleb128 0x3
 556 0118 0A050000 		.4byte	.LASF25
 557 011c 05       		.byte	0x5
 558 011d 30       		.byte	0x30
 559 011e CE000000 		.4byte	0xce
 560 0122 03       		.uleb128 0x3
 561 0123 82020000 		.4byte	.LASF26
 562 0127 05       		.byte	0x5
 563 0128 31       		.byte	0x31
 564 0129 C3000000 		.4byte	0xc3
 565 012d 03       		.uleb128 0x3
 566 012e CB020000 		.4byte	.LASF27
 567 0132 05       		.byte	0x5
 568 0133 33       		.byte	0x33
 569 0134 CE000000 		.4byte	0xce
 570 0138 03       		.uleb128 0x3
 571 0139 D2030000 		.4byte	.LASF28
 572 013d 05       		.byte	0x5
 573 013e 34       		.byte	0x34
 574 013f CE000000 		.4byte	0xce
 575 0143 03       		.uleb128 0x3
 576 0144 41060000 		.4byte	.LASF29
 577 0148 05       		.byte	0x5
 578 0149 35       		.byte	0x35
 579 014a CE000000 		.4byte	0xce
 580 014e 03       		.uleb128 0x3
 581 014f C4010000 		.4byte	.LASF30
 582 0153 05       		.byte	0x5
 583 0154 36       		.byte	0x36
 584 0155 C3000000 		.4byte	0xc3
 585 0159 03       		.uleb128 0x3
 586 015a B0050000 		.4byte	.LASF31
 587 015e 06       		.byte	0x6
 588 015f 2A       		.byte	0x2a
 589 0160 64010000 		.4byte	0x164
 590 0164 05       		.uleb128 0x5
 591 0165 B0050000 		.4byte	.LASF31
 592 0169 4C       		.byte	0x4c
 593 016a 07       		.byte	0x7
 594 016b 5E       		.byte	0x5e
 595 016c 6D020000 		.4byte	0x26d
 596 0170 06       		.uleb128 0x6
 597 0171 9C050000 		.4byte	.LASF32
 598 0175 07       		.byte	0x7
 599 0176 5F       		.byte	0x5f
 600 0177 8E020000 		.4byte	0x28e
 601 017b 00       		.byte	0
 602 017c 06       		.uleb128 0x6
 603 017d 03050000 		.4byte	.LASF33
 604 0181 07       		.byte	0x7
 605 0182 61       		.byte	0x61
 606 0183 8E020000 		.4byte	0x28e
 607 0187 04       		.byte	0x4
ARM GAS  /tmp/ccD25wWi.s 			page 12


 608 0188 06       		.uleb128 0x6
 609 0189 1E040000 		.4byte	.LASF34
 610 018d 07       		.byte	0x7
 611 018e 63       		.byte	0x63
 612 018f 17010000 		.4byte	0x117
 613 0193 08       		.byte	0x8
 614 0194 06       		.uleb128 0x6
 615 0195 54070000 		.4byte	.LASF35
 616 0199 07       		.byte	0x7
 617 019a 64       		.byte	0x64
 618 019b 53030000 		.4byte	0x353
 619 019f 0C       		.byte	0xc
 620 01a0 06       		.uleb128 0x6
 621 01a1 6D010000 		.4byte	.LASF36
 622 01a5 07       		.byte	0x7
 623 01a6 66       		.byte	0x66
 624 01a7 8E020000 		.4byte	0x28e
 625 01ab 10       		.byte	0x10
 626 01ac 06       		.uleb128 0x6
 627 01ad 3C040000 		.4byte	.LASF37
 628 01b1 07       		.byte	0x7
 629 01b2 67       		.byte	0x67
 630 01b3 8E020000 		.4byte	0x28e
 631 01b7 14       		.byte	0x14
 632 01b8 06       		.uleb128 0x6
 633 01b9 C9060000 		.4byte	.LASF38
 634 01bd 07       		.byte	0x7
 635 01be 6E       		.byte	0x6e
 636 01bf FA040000 		.4byte	0x4fa
 637 01c3 18       		.byte	0x18
 638 01c4 06       		.uleb128 0x6
 639 01c5 CA010000 		.4byte	.LASF39
 640 01c9 07       		.byte	0x7
 641 01ca 74       		.byte	0x74
 642 01cb 0C050000 		.4byte	0x50c
 643 01cf 1C       		.byte	0x1c
 644 01d0 06       		.uleb128 0x6
 645 01d1 7C050000 		.4byte	.LASF40
 646 01d5 07       		.byte	0x7
 647 01d6 79       		.byte	0x79
 648 01d7 F6000000 		.4byte	0xf6
 649 01db 20       		.byte	0x20
 650 01dc 06       		.uleb128 0x6
 651 01dd A3050000 		.4byte	.LASF41
 652 01e1 07       		.byte	0x7
 653 01e2 7D       		.byte	0x7d
 654 01e3 EB000000 		.4byte	0xeb
 655 01e7 21       		.byte	0x21
 656 01e8 06       		.uleb128 0x6
 657 01e9 5A010000 		.4byte	.LASF42
 658 01ed 07       		.byte	0x7
 659 01ee 82       		.byte	0x82
 660 01ef 01010000 		.4byte	0x101
 661 01f3 22       		.byte	0x22
 662 01f4 06       		.uleb128 0x6
 663 01f5 84050000 		.4byte	.LASF43
 664 01f9 07       		.byte	0x7
ARM GAS  /tmp/ccD25wWi.s 			page 13


 665 01fa 88       		.byte	0x88
 666 01fb 0C010000 		.4byte	0x10c
 667 01ff 23       		.byte	0x23
 668 0200 06       		.uleb128 0x6
 669 0201 66010000 		.4byte	.LASF44
 670 0205 07       		.byte	0x7
 671 0206 8F       		.byte	0x8f
 672 0207 80030000 		.4byte	0x380
 673 020b 24       		.byte	0x24
 674 020c 07       		.uleb128 0x7
 675 020d 705F7500 		.ascii	"p_u\000"
 676 0211 07       		.byte	0x7
 677 0212 B4       		.byte	0xb4
 678 0213 C5040000 		.4byte	0x4c5
 679 0217 28       		.byte	0x28
 680 0218 06       		.uleb128 0x6
 681 0219 5A070000 		.4byte	.LASF45
 682 021d 07       		.byte	0x7
 683 021e B9       		.byte	0xb9
 684 021f B4020000 		.4byte	0x2b4
 685 0223 2C       		.byte	0x2c
 686 0224 06       		.uleb128 0x6
 687 0225 02020000 		.4byte	.LASF46
 688 0229 07       		.byte	0x7
 689 022a BF       		.byte	0xbf
 690 022b 94020000 		.4byte	0x294
 691 022f 30       		.byte	0x30
 692 0230 06       		.uleb128 0x6
 693 0231 31070000 		.4byte	.LASF47
 694 0235 07       		.byte	0x7
 695 0236 C3       		.byte	0xc3
 696 0237 22010000 		.4byte	0x122
 697 023b 38       		.byte	0x38
 698 023c 06       		.uleb128 0x6
 699 023d C8050000 		.4byte	.LASF48
 700 0241 07       		.byte	0x7
 701 0242 C9       		.byte	0xc9
 702 0243 2D010000 		.4byte	0x12d
 703 0247 3C       		.byte	0x3c
 704 0248 06       		.uleb128 0x6
 705 0249 68050000 		.4byte	.LASF49
 706 024d 07       		.byte	0x7
 707 024e D0       		.byte	0xd0
 708 024f 12050000 		.4byte	0x512
 709 0253 40       		.byte	0x40
 710 0254 06       		.uleb128 0x6
 711 0255 4B060000 		.4byte	.LASF50
 712 0259 07       		.byte	0x7
 713 025a D4       		.byte	0xd4
 714 025b 17010000 		.4byte	0x117
 715 025f 44       		.byte	0x44
 716 0260 06       		.uleb128 0x6
 717 0261 02010000 		.4byte	.LASF51
 718 0265 07       		.byte	0x7
 719 0266 DA       		.byte	0xda
 720 0267 CA020000 		.4byte	0x2ca
 721 026b 48       		.byte	0x48
ARM GAS  /tmp/ccD25wWi.s 			page 14


 722 026c 00       		.byte	0
 723 026d 08       		.uleb128 0x8
 724 026e 08       		.byte	0x8
 725 026f 06       		.byte	0x6
 726 0270 61       		.byte	0x61
 727 0271 8E020000 		.4byte	0x28e
 728 0275 06       		.uleb128 0x6
 729 0276 9C050000 		.4byte	.LASF32
 730 027a 06       		.byte	0x6
 731 027b 62       		.byte	0x62
 732 027c 8E020000 		.4byte	0x28e
 733 0280 00       		.byte	0
 734 0281 06       		.uleb128 0x6
 735 0282 03050000 		.4byte	.LASF33
 736 0286 06       		.byte	0x6
 737 0287 64       		.byte	0x64
 738 0288 8E020000 		.4byte	0x28e
 739 028c 04       		.byte	0x4
 740 028d 00       		.byte	0
 741 028e 09       		.uleb128 0x9
 742 028f 04       		.byte	0x4
 743 0290 59010000 		.4byte	0x159
 744 0294 03       		.uleb128 0x3
 745 0295 C5030000 		.4byte	.LASF52
 746 0299 06       		.byte	0x6
 747 029a 66       		.byte	0x66
 748 029b 6D020000 		.4byte	0x26d
 749 029f 08       		.uleb128 0x8
 750 02a0 04       		.byte	0x4
 751 02a1 06       		.byte	0x6
 752 02a2 6B       		.byte	0x6b
 753 02a3 B4020000 		.4byte	0x2b4
 754 02a7 06       		.uleb128 0x6
 755 02a8 9C050000 		.4byte	.LASF32
 756 02ac 06       		.byte	0x6
 757 02ad 6D       		.byte	0x6d
 758 02ae 8E020000 		.4byte	0x28e
 759 02b2 00       		.byte	0
 760 02b3 00       		.byte	0
 761 02b4 03       		.uleb128 0x3
 762 02b5 AF020000 		.4byte	.LASF53
 763 02b9 06       		.byte	0x6
 764 02ba 70       		.byte	0x70
 765 02bb 9F020000 		.4byte	0x29f
 766 02bf 03       		.uleb128 0x3
 767 02c0 A5010000 		.4byte	.LASF54
 768 02c4 08       		.byte	0x8
 769 02c5 E5       		.byte	0xe5
 770 02c6 CA020000 		.4byte	0x2ca
 771 02ca 0A       		.uleb128 0xa
 772 02cb 04       		.byte	0x4
 773 02cc 03       		.uleb128 0x3
 774 02cd A2030000 		.4byte	.LASF55
 775 02d1 08       		.byte	0x8
 776 02d2 EB       		.byte	0xeb
 777 02d3 D9000000 		.4byte	0xd9
 778 02d7 0B       		.uleb128 0xb
ARM GAS  /tmp/ccD25wWi.s 			page 15


 779 02d8 A1060000 		.4byte	.LASF56
 780 02dc 24       		.byte	0x24
 781 02dd 08       		.byte	0x8
 782 02de 0C01     		.2byte	0x10c
 783 02e0 53030000 		.4byte	0x353
 784 02e4 0C       		.uleb128 0xc
 785 02e5 723400   		.ascii	"r4\000"
 786 02e8 08       		.byte	0x8
 787 02e9 1F01     		.2byte	0x11f
 788 02eb BF020000 		.4byte	0x2bf
 789 02ef 00       		.byte	0
 790 02f0 0C       		.uleb128 0xc
 791 02f1 723500   		.ascii	"r5\000"
 792 02f4 08       		.byte	0x8
 793 02f5 2001     		.2byte	0x120
 794 02f7 BF020000 		.4byte	0x2bf
 795 02fb 04       		.byte	0x4
 796 02fc 0C       		.uleb128 0xc
 797 02fd 723600   		.ascii	"r6\000"
 798 0300 08       		.byte	0x8
 799 0301 2101     		.2byte	0x121
 800 0303 BF020000 		.4byte	0x2bf
 801 0307 08       		.byte	0x8
 802 0308 0C       		.uleb128 0xc
 803 0309 723700   		.ascii	"r7\000"
 804 030c 08       		.byte	0x8
 805 030d 2201     		.2byte	0x122
 806 030f BF020000 		.4byte	0x2bf
 807 0313 0C       		.byte	0xc
 808 0314 0C       		.uleb128 0xc
 809 0315 723800   		.ascii	"r8\000"
 810 0318 08       		.byte	0x8
 811 0319 2301     		.2byte	0x123
 812 031b BF020000 		.4byte	0x2bf
 813 031f 10       		.byte	0x10
 814 0320 0C       		.uleb128 0xc
 815 0321 723900   		.ascii	"r9\000"
 816 0324 08       		.byte	0x8
 817 0325 2401     		.2byte	0x124
 818 0327 BF020000 		.4byte	0x2bf
 819 032b 14       		.byte	0x14
 820 032c 0C       		.uleb128 0xc
 821 032d 72313000 		.ascii	"r10\000"
 822 0331 08       		.byte	0x8
 823 0332 2501     		.2byte	0x125
 824 0334 BF020000 		.4byte	0x2bf
 825 0338 18       		.byte	0x18
 826 0339 0C       		.uleb128 0xc
 827 033a 72313100 		.ascii	"r11\000"
 828 033e 08       		.byte	0x8
 829 033f 2601     		.2byte	0x126
 830 0341 BF020000 		.4byte	0x2bf
 831 0345 1C       		.byte	0x1c
 832 0346 0C       		.uleb128 0xc
 833 0347 6C7200   		.ascii	"lr\000"
 834 034a 08       		.byte	0x8
 835 034b 2701     		.2byte	0x127
ARM GAS  /tmp/ccD25wWi.s 			page 16


 836 034d BF020000 		.4byte	0x2bf
 837 0351 20       		.byte	0x20
 838 0352 00       		.byte	0
 839 0353 0B       		.uleb128 0xb
 840 0354 83060000 		.4byte	.LASF57
 841 0358 04       		.byte	0x4
 842 0359 08       		.byte	0x8
 843 035a 3101     		.2byte	0x131
 844 035c 6E030000 		.4byte	0x36e
 845 0360 0C       		.uleb128 0xc
 846 0361 72313300 		.ascii	"r13\000"
 847 0365 08       		.byte	0x8
 848 0366 3201     		.2byte	0x132
 849 0368 6E030000 		.4byte	0x36e
 850 036c 00       		.byte	0
 851 036d 00       		.byte	0
 852 036e 09       		.uleb128 0x9
 853 036f 04       		.byte	0x4
 854 0370 D7020000 		.4byte	0x2d7
 855 0374 0D       		.uleb128 0xd
 856 0375 CE000000 		.4byte	0xce
 857 0379 04       		.uleb128 0x4
 858 037a 04       		.byte	0x4
 859 037b 07       		.byte	0x7
 860 037c EF030000 		.4byte	.LASF58
 861 0380 0D       		.uleb128 0xd
 862 0381 43010000 		.4byte	0x143
 863 0385 08       		.uleb128 0x8
 864 0386 1C       		.byte	0x1c
 865 0387 09       		.byte	0x9
 866 0388 5E       		.byte	0x5e
 867 0389 D6030000 		.4byte	0x3d6
 868 038d 06       		.uleb128 0x6
 869 038e EB050000 		.4byte	.LASF59
 870 0392 09       		.byte	0x9
 871 0393 5F       		.byte	0x5f
 872 0394 94020000 		.4byte	0x294
 873 0398 00       		.byte	0
 874 0399 06       		.uleb128 0x6
 875 039a 8E050000 		.4byte	.LASF60
 876 039e 09       		.byte	0x9
 877 039f 60       		.byte	0x60
 878 03a0 17010000 		.4byte	0x117
 879 03a4 08       		.byte	0x8
 880 03a5 06       		.uleb128 0x6
 881 03a6 44040000 		.4byte	.LASF61
 882 03aa 09       		.byte	0x9
 883 03ab 62       		.byte	0x62
 884 03ac 53030000 		.4byte	0x353
 885 03b0 0C       		.byte	0xc
 886 03b1 06       		.uleb128 0x6
 887 03b2 9D010000 		.4byte	.LASF62
 888 03b6 09       		.byte	0x9
 889 03b7 65       		.byte	0x65
 890 03b8 8E020000 		.4byte	0x28e
 891 03bc 10       		.byte	0x10
 892 03bd 06       		.uleb128 0x6
ARM GAS  /tmp/ccD25wWi.s 			page 17


 893 03be 6E040000 		.4byte	.LASF63
 894 03c2 09       		.byte	0x9
 895 03c3 66       		.byte	0x66
 896 03c4 8E020000 		.4byte	0x28e
 897 03c8 14       		.byte	0x14
 898 03c9 06       		.uleb128 0x6
 899 03ca 64040000 		.4byte	.LASF64
 900 03ce 09       		.byte	0x9
 901 03cf 69       		.byte	0x69
 902 03d0 8E020000 		.4byte	0x28e
 903 03d4 18       		.byte	0x18
 904 03d5 00       		.byte	0
 905 03d6 03       		.uleb128 0x3
 906 03d7 D8060000 		.4byte	.LASF65
 907 03db 09       		.byte	0x9
 908 03dc 6B       		.byte	0x6b
 909 03dd 85030000 		.4byte	0x385
 910 03e1 05       		.uleb128 0x5
 911 03e2 A8060000 		.4byte	.LASF66
 912 03e6 0C       		.byte	0xc
 913 03e7 0A       		.byte	0xa
 914 03e8 2C       		.byte	0x2c
 915 03e9 06040000 		.4byte	0x406
 916 03ed 06       		.uleb128 0x6
 917 03ee 75010000 		.4byte	.LASF67
 918 03f2 0A       		.byte	0xa
 919 03f3 2D       		.byte	0x2d
 920 03f4 94020000 		.4byte	0x294
 921 03f8 00       		.byte	0
 922 03f9 06       		.uleb128 0x6
 923 03fa 37020000 		.4byte	.LASF68
 924 03fe 0A       		.byte	0xa
 925 03ff 2F       		.byte	0x2f
 926 0400 4E010000 		.4byte	0x14e
 927 0404 08       		.byte	0x8
 928 0405 00       		.byte	0
 929 0406 03       		.uleb128 0x3
 930 0407 A8060000 		.4byte	.LASF66
 931 040b 0A       		.byte	0xa
 932 040c 30       		.byte	0x30
 933 040d E1030000 		.4byte	0x3e1
 934 0411 05       		.uleb128 0x5
 935 0412 95030000 		.4byte	.LASF69
 936 0416 10       		.byte	0x10
 937 0417 0B       		.byte	0xb
 938 0418 2C       		.byte	0x2c
 939 0419 42040000 		.4byte	0x442
 940 041d 06       		.uleb128 0x6
 941 041e 0A010000 		.4byte	.LASF70
 942 0422 0B       		.byte	0xb
 943 0423 2D       		.byte	0x2d
 944 0424 94020000 		.4byte	0x294
 945 0428 00       		.byte	0
 946 0429 06       		.uleb128 0x6
 947 042a 4C070000 		.4byte	.LASF71
 948 042e 0B       		.byte	0xb
 949 042f 2F       		.byte	0x2f
ARM GAS  /tmp/ccD25wWi.s 			page 18


 950 0430 8E020000 		.4byte	0x28e
 951 0434 08       		.byte	0x8
 952 0435 06       		.uleb128 0x6
 953 0436 3A060000 		.4byte	.LASF72
 954 043a 0B       		.byte	0xb
 955 043b 31       		.byte	0x31
 956 043c 42040000 		.4byte	0x442
 957 0440 0C       		.byte	0xc
 958 0441 00       		.byte	0
 959 0442 09       		.uleb128 0x9
 960 0443 04       		.byte	0x4
 961 0444 11040000 		.4byte	0x411
 962 0448 03       		.uleb128 0x3
 963 0449 95030000 		.4byte	.LASF69
 964 044d 0B       		.byte	0xb
 965 044e 33       		.byte	0x33
 966 044f 11040000 		.4byte	0x411
 967 0453 03       		.uleb128 0x3
 968 0454 0E070000 		.4byte	.LASF73
 969 0458 0C       		.byte	0xc
 970 0459 2C       		.byte	0x2c
 971 045a 5E040000 		.4byte	0x45e
 972 045e 05       		.uleb128 0x5
 973 045f 0E070000 		.4byte	.LASF73
 974 0463 10       		.byte	0x10
 975 0464 0C       		.byte	0xc
 976 0465 31       		.byte	0x31
 977 0466 9B040000 		.4byte	0x49b
 978 046a 06       		.uleb128 0x6
 979 046b 88020000 		.4byte	.LASF74
 980 046f 0C       		.byte	0xc
 981 0470 32       		.byte	0x32
 982 0471 9B040000 		.4byte	0x49b
 983 0475 00       		.byte	0
 984 0476 06       		.uleb128 0x6
 985 0477 46050000 		.4byte	.LASF75
 986 047b 0C       		.byte	0xc
 987 047c 35       		.byte	0x35
 988 047d 8E020000 		.4byte	0x28e
 989 0481 04       		.byte	0x4
 990 0482 06       		.uleb128 0x6
 991 0483 76040000 		.4byte	.LASF76
 992 0487 0C       		.byte	0xc
 993 0488 37       		.byte	0x37
 994 0489 2D010000 		.4byte	0x12d
 995 048d 08       		.byte	0x8
 996 048e 06       		.uleb128 0x6
 997 048f 5F050000 		.4byte	.LASF77
 998 0493 0C       		.byte	0xc
 999 0494 3A       		.byte	0x3a
 1000 0495 38010000 		.4byte	0x138
 1001 0499 0C       		.byte	0xc
 1002 049a 00       		.byte	0
 1003 049b 09       		.uleb128 0x9
 1004 049c 04       		.byte	0x4
 1005 049d 53040000 		.4byte	0x453
 1006 04a1 05       		.uleb128 0x5
ARM GAS  /tmp/ccD25wWi.s 			page 19


 1007 04a2 B8010000 		.4byte	.LASF78
 1008 04a6 04       		.byte	0x4
 1009 04a7 0C       		.byte	0xc
 1010 04a8 41       		.byte	0x41
 1011 04a9 BA040000 		.4byte	0x4ba
 1012 04ad 06       		.uleb128 0x6
 1013 04ae D0060000 		.4byte	.LASF79
 1014 04b2 0C       		.byte	0xc
 1015 04b3 42       		.byte	0x42
 1016 04b4 9B040000 		.4byte	0x49b
 1017 04b8 00       		.byte	0
 1018 04b9 00       		.byte	0
 1019 04ba 03       		.uleb128 0x3
 1020 04bb B8010000 		.4byte	.LASF78
 1021 04bf 0C       		.byte	0xc
 1022 04c0 45       		.byte	0x45
 1023 04c1 A1040000 		.4byte	0x4a1
 1024 04c5 0E       		.uleb128 0xe
 1025 04c6 04       		.byte	0x4
 1026 04c7 07       		.byte	0x7
 1027 04c8 96       		.byte	0x96
 1028 04c9 FA040000 		.4byte	0x4fa
 1029 04cd 0F       		.uleb128 0xf
 1030 04ce 47000000 		.4byte	.LASF80
 1031 04d2 07       		.byte	0x7
 1032 04d3 9D       		.byte	0x9d
 1033 04d4 22010000 		.4byte	0x122
 1034 04d8 0F       		.uleb128 0xf
 1035 04d9 9D000000 		.4byte	.LASF81
 1036 04dd 07       		.byte	0x7
 1037 04de A4       		.byte	0xa4
 1038 04df 22010000 		.4byte	0x122
 1039 04e3 0F       		.uleb128 0xf
 1040 04e4 1C070000 		.4byte	.LASF82
 1041 04e8 07       		.byte	0x7
 1042 04e9 AB       		.byte	0xab
 1043 04ea CA020000 		.4byte	0x2ca
 1044 04ee 0F       		.uleb128 0xf
 1045 04ef 95050000 		.4byte	.LASF83
 1046 04f3 07       		.byte	0x7
 1047 04f4 B2       		.byte	0xb2
 1048 04f5 2D010000 		.4byte	0x12d
 1049 04f9 00       		.byte	0
 1050 04fa 09       		.uleb128 0x9
 1051 04fb 04       		.byte	0x4
 1052 04fc 00050000 		.4byte	0x500
 1053 0500 10       		.uleb128 0x10
 1054 0501 05050000 		.4byte	0x505
 1055 0505 04       		.uleb128 0x4
 1056 0506 01       		.byte	0x1
 1057 0507 08       		.byte	0x8
 1058 0508 13060000 		.4byte	.LASF84
 1059 050c 09       		.uleb128 0x9
 1060 050d 04       		.byte	0x4
 1061 050e CC020000 		.4byte	0x2cc
 1062 0512 09       		.uleb128 0x9
 1063 0513 04       		.byte	0x4
ARM GAS  /tmp/ccD25wWi.s 			page 20


 1064 0514 48040000 		.4byte	0x448
 1065 0518 03       		.uleb128 0x3
 1066 0519 06000000 		.4byte	.LASF85
 1067 051d 07       		.byte	0x7
 1068 051e E5       		.byte	0xe5
 1069 051f 23050000 		.4byte	0x523
 1070 0523 09       		.uleb128 0x9
 1071 0524 04       		.byte	0x4
 1072 0525 29050000 		.4byte	0x529
 1073 0529 11       		.uleb128 0x11
 1074 052a 22010000 		.4byte	0x122
 1075 052e 38050000 		.4byte	0x538
 1076 0532 12       		.uleb128 0x12
 1077 0533 CA020000 		.4byte	0x2ca
 1078 0537 00       		.byte	0
 1079 0538 13       		.uleb128 0x13
 1080 0539 CE000000 		.4byte	0xce
 1081 053d 48050000 		.4byte	0x548
 1082 0541 14       		.uleb128 0x14
 1083 0542 79030000 		.4byte	0x379
 1084 0546 07       		.byte	0x7
 1085 0547 00       		.byte	0
 1086 0548 13       		.uleb128 0x13
 1087 0549 CE000000 		.4byte	0xce
 1088 054d 58050000 		.4byte	0x558
 1089 0551 14       		.uleb128 0x14
 1090 0552 79030000 		.4byte	0x379
 1091 0556 01       		.byte	0x1
 1092 0557 00       		.byte	0
 1093 0558 0D       		.uleb128 0xd
 1094 0559 C3000000 		.4byte	0xc3
 1095 055d 15       		.uleb128 0x15
 1096 055e 10       		.byte	0x10
 1097 055f 0D       		.byte	0xd
 1098 0560 2F02     		.2byte	0x22f
 1099 0562 9B050000 		.4byte	0x59b
 1100 0566 0C       		.uleb128 0xc
 1101 0567 54495200 		.ascii	"TIR\000"
 1102 056b 0D       		.byte	0xd
 1103 056c 3102     		.2byte	0x231
 1104 056e 74030000 		.4byte	0x374
 1105 0572 00       		.byte	0
 1106 0573 16       		.uleb128 0x16
 1107 0574 B3010000 		.4byte	.LASF86
 1108 0578 0D       		.byte	0xd
 1109 0579 3202     		.2byte	0x232
 1110 057b 74030000 		.4byte	0x374
 1111 057f 04       		.byte	0x4
 1112 0580 16       		.uleb128 0x16
 1113 0581 28010000 		.4byte	.LASF87
 1114 0585 0D       		.byte	0xd
 1115 0586 3302     		.2byte	0x233
 1116 0588 74030000 		.4byte	0x374
 1117 058c 08       		.byte	0x8
 1118 058d 16       		.uleb128 0x16
 1119 058e 5F040000 		.4byte	.LASF88
 1120 0592 0D       		.byte	0xd
ARM GAS  /tmp/ccD25wWi.s 			page 21


 1121 0593 3402     		.2byte	0x234
 1122 0595 74030000 		.4byte	0x374
 1123 0599 0C       		.byte	0xc
 1124 059a 00       		.byte	0
 1125 059b 17       		.uleb128 0x17
 1126 059c 3F010000 		.4byte	.LASF89
 1127 05a0 0D       		.byte	0xd
 1128 05a1 3502     		.2byte	0x235
 1129 05a3 5D050000 		.4byte	0x55d
 1130 05a7 15       		.uleb128 0x15
 1131 05a8 10       		.byte	0x10
 1132 05a9 0D       		.byte	0xd
 1133 05aa 3B02     		.2byte	0x23b
 1134 05ac E5050000 		.4byte	0x5e5
 1135 05b0 0C       		.uleb128 0xc
 1136 05b1 52495200 		.ascii	"RIR\000"
 1137 05b5 0D       		.byte	0xd
 1138 05b6 3D02     		.2byte	0x23d
 1139 05b8 74030000 		.4byte	0x374
 1140 05bc 00       		.byte	0
 1141 05bd 16       		.uleb128 0x16
 1142 05be 22020000 		.4byte	.LASF90
 1143 05c2 0D       		.byte	0xd
 1144 05c3 3E02     		.2byte	0x23e
 1145 05c5 74030000 		.4byte	0x374
 1146 05c9 04       		.byte	0x4
 1147 05ca 16       		.uleb128 0x16
 1148 05cb 42070000 		.4byte	.LASF91
 1149 05cf 0D       		.byte	0xd
 1150 05d0 3F02     		.2byte	0x23f
 1151 05d2 74030000 		.4byte	0x374
 1152 05d6 08       		.byte	0x8
 1153 05d7 16       		.uleb128 0x16
 1154 05d8 35060000 		.4byte	.LASF92
 1155 05dc 0D       		.byte	0xd
 1156 05dd 4002     		.2byte	0x240
 1157 05df 74030000 		.4byte	0x374
 1158 05e3 0C       		.byte	0xc
 1159 05e4 00       		.byte	0
 1160 05e5 17       		.uleb128 0x17
 1161 05e6 E2060000 		.4byte	.LASF93
 1162 05ea 0D       		.byte	0xd
 1163 05eb 4102     		.2byte	0x241
 1164 05ed A7050000 		.4byte	0x5a7
 1165 05f1 15       		.uleb128 0x15
 1166 05f2 08       		.byte	0x8
 1167 05f3 0D       		.byte	0xd
 1168 05f4 4702     		.2byte	0x247
 1169 05f6 15060000 		.4byte	0x615
 1170 05fa 0C       		.uleb128 0xc
 1171 05fb 46523100 		.ascii	"FR1\000"
 1172 05ff 0D       		.byte	0xd
 1173 0600 4902     		.2byte	0x249
 1174 0602 74030000 		.4byte	0x374
 1175 0606 00       		.byte	0
 1176 0607 0C       		.uleb128 0xc
 1177 0608 46523200 		.ascii	"FR2\000"
ARM GAS  /tmp/ccD25wWi.s 			page 22


 1178 060c 0D       		.byte	0xd
 1179 060d 4A02     		.2byte	0x24a
 1180 060f 74030000 		.4byte	0x374
 1181 0613 04       		.byte	0x4
 1182 0614 00       		.byte	0
 1183 0615 17       		.uleb128 0x17
 1184 0616 55020000 		.4byte	.LASF94
 1185 061a 0D       		.byte	0xd
 1186 061b 4B02     		.2byte	0x24b
 1187 061d F1050000 		.4byte	0x5f1
 1188 0621 18       		.uleb128 0x18
 1189 0622 2003     		.2byte	0x320
 1190 0624 0D       		.byte	0xd
 1191 0625 5102     		.2byte	0x251
 1192 0627 57070000 		.4byte	0x757
 1193 062b 0C       		.uleb128 0xc
 1194 062c 4D435200 		.ascii	"MCR\000"
 1195 0630 0D       		.byte	0xd
 1196 0631 5302     		.2byte	0x253
 1197 0633 74030000 		.4byte	0x374
 1198 0637 00       		.byte	0
 1199 0638 0C       		.uleb128 0xc
 1200 0639 4D535200 		.ascii	"MSR\000"
 1201 063d 0D       		.byte	0xd
 1202 063e 5402     		.2byte	0x254
 1203 0640 74030000 		.4byte	0x374
 1204 0644 04       		.byte	0x4
 1205 0645 0C       		.uleb128 0xc
 1206 0646 54535200 		.ascii	"TSR\000"
 1207 064a 0D       		.byte	0xd
 1208 064b 5502     		.2byte	0x255
 1209 064d 74030000 		.4byte	0x374
 1210 0651 08       		.byte	0x8
 1211 0652 16       		.uleb128 0x16
 1212 0653 23070000 		.4byte	.LASF95
 1213 0657 0D       		.byte	0xd
 1214 0658 5602     		.2byte	0x256
 1215 065a 74030000 		.4byte	0x374
 1216 065e 0C       		.byte	0xc
 1217 065f 16       		.uleb128 0x16
 1218 0660 50020000 		.4byte	.LASF96
 1219 0664 0D       		.byte	0xd
 1220 0665 5702     		.2byte	0x257
 1221 0667 74030000 		.4byte	0x374
 1222 066b 10       		.byte	0x10
 1223 066c 0C       		.uleb128 0xc
 1224 066d 49455200 		.ascii	"IER\000"
 1225 0671 0D       		.byte	0xd
 1226 0672 5802     		.2byte	0x258
 1227 0674 74030000 		.4byte	0x374
 1228 0678 14       		.byte	0x14
 1229 0679 0C       		.uleb128 0xc
 1230 067a 45535200 		.ascii	"ESR\000"
 1231 067e 0D       		.byte	0xd
 1232 067f 5902     		.2byte	0x259
 1233 0681 74030000 		.4byte	0x374
 1234 0685 18       		.byte	0x18
ARM GAS  /tmp/ccD25wWi.s 			page 23


 1235 0686 0C       		.uleb128 0xc
 1236 0687 42545200 		.ascii	"BTR\000"
 1237 068b 0D       		.byte	0xd
 1238 068c 5A02     		.2byte	0x25a
 1239 068e 74030000 		.4byte	0x374
 1240 0692 1C       		.byte	0x1c
 1241 0693 16       		.uleb128 0x16
 1242 0694 D1040000 		.4byte	.LASF97
 1243 0698 0D       		.byte	0xd
 1244 0699 5B02     		.2byte	0x25b
 1245 069b 57070000 		.4byte	0x757
 1246 069f 20       		.byte	0x20
 1247 06a0 19       		.uleb128 0x19
 1248 06a1 F7010000 		.4byte	.LASF98
 1249 06a5 0D       		.byte	0xd
 1250 06a6 5C02     		.2byte	0x25c
 1251 06a8 67070000 		.4byte	0x767
 1252 06ac 8001     		.2byte	0x180
 1253 06ae 19       		.uleb128 0x19
 1254 06af 6B060000 		.4byte	.LASF99
 1255 06b3 0D       		.byte	0xd
 1256 06b4 5D02     		.2byte	0x25d
 1257 06b6 77070000 		.4byte	0x777
 1258 06ba B001     		.2byte	0x1b0
 1259 06bc 19       		.uleb128 0x19
 1260 06bd DB040000 		.4byte	.LASF100
 1261 06c1 0D       		.byte	0xd
 1262 06c2 5E02     		.2byte	0x25e
 1263 06c4 87070000 		.4byte	0x787
 1264 06c8 D001     		.2byte	0x1d0
 1265 06ca 1A       		.uleb128 0x1a
 1266 06cb 464D5200 		.ascii	"FMR\000"
 1267 06cf 0D       		.byte	0xd
 1268 06d0 5F02     		.2byte	0x25f
 1269 06d2 74030000 		.4byte	0x374
 1270 06d6 0002     		.2byte	0x200
 1271 06d8 19       		.uleb128 0x19
 1272 06d9 AB050000 		.4byte	.LASF101
 1273 06dd 0D       		.byte	0xd
 1274 06de 6002     		.2byte	0x260
 1275 06e0 74030000 		.4byte	0x374
 1276 06e4 0402     		.2byte	0x204
 1277 06e6 19       		.uleb128 0x19
 1278 06e7 E5040000 		.4byte	.LASF102
 1279 06eb 0D       		.byte	0xd
 1280 06ec 6102     		.2byte	0x261
 1281 06ee CE000000 		.4byte	0xce
 1282 06f2 0802     		.2byte	0x208
 1283 06f4 19       		.uleb128 0x19
 1284 06f5 B9060000 		.4byte	.LASF103
 1285 06f9 0D       		.byte	0xd
 1286 06fa 6202     		.2byte	0x262
 1287 06fc 74030000 		.4byte	0x374
 1288 0700 0C02     		.2byte	0x20c
 1289 0702 19       		.uleb128 0x19
 1290 0703 EF040000 		.4byte	.LASF104
 1291 0707 0D       		.byte	0xd
ARM GAS  /tmp/ccD25wWi.s 			page 24


 1292 0708 6302     		.2byte	0x263
 1293 070a CE000000 		.4byte	0xce
 1294 070e 1002     		.2byte	0x210
 1295 0710 19       		.uleb128 0x19
 1296 0711 BF030000 		.4byte	.LASF105
 1297 0715 0D       		.byte	0xd
 1298 0716 6402     		.2byte	0x264
 1299 0718 74030000 		.4byte	0x374
 1300 071c 1402     		.2byte	0x214
 1301 071e 19       		.uleb128 0x19
 1302 071f F9040000 		.4byte	.LASF106
 1303 0723 0D       		.byte	0xd
 1304 0724 6502     		.2byte	0x265
 1305 0726 CE000000 		.4byte	0xce
 1306 072a 1802     		.2byte	0x218
 1307 072c 19       		.uleb128 0x19
 1308 072d DE030000 		.4byte	.LASF107
 1309 0731 0D       		.byte	0xd
 1310 0732 6602     		.2byte	0x266
 1311 0734 74030000 		.4byte	0x374
 1312 0738 1C02     		.2byte	0x21c
 1313 073a 19       		.uleb128 0x19
 1314 073b D3050000 		.4byte	.LASF108
 1315 073f 0D       		.byte	0xd
 1316 0740 6702     		.2byte	0x267
 1317 0742 38050000 		.4byte	0x538
 1318 0746 2002     		.2byte	0x220
 1319 0748 19       		.uleb128 0x19
 1320 0749 BB020000 		.4byte	.LASF109
 1321 074d 0D       		.byte	0xd
 1322 074e 6802     		.2byte	0x268
 1323 0750 97070000 		.4byte	0x797
 1324 0754 4002     		.2byte	0x240
 1325 0756 00       		.byte	0
 1326 0757 13       		.uleb128 0x13
 1327 0758 CE000000 		.4byte	0xce
 1328 075c 67070000 		.4byte	0x767
 1329 0760 14       		.uleb128 0x14
 1330 0761 79030000 		.4byte	0x379
 1331 0765 57       		.byte	0x57
 1332 0766 00       		.byte	0
 1333 0767 13       		.uleb128 0x13
 1334 0768 9B050000 		.4byte	0x59b
 1335 076c 77070000 		.4byte	0x777
 1336 0770 14       		.uleb128 0x14
 1337 0771 79030000 		.4byte	0x379
 1338 0775 02       		.byte	0x2
 1339 0776 00       		.byte	0
 1340 0777 13       		.uleb128 0x13
 1341 0778 E5050000 		.4byte	0x5e5
 1342 077c 87070000 		.4byte	0x787
 1343 0780 14       		.uleb128 0x14
 1344 0781 79030000 		.4byte	0x379
 1345 0785 01       		.byte	0x1
 1346 0786 00       		.byte	0
 1347 0787 13       		.uleb128 0x13
 1348 0788 CE000000 		.4byte	0xce
ARM GAS  /tmp/ccD25wWi.s 			page 25


 1349 078c 97070000 		.4byte	0x797
 1350 0790 14       		.uleb128 0x14
 1351 0791 79030000 		.4byte	0x379
 1352 0795 0B       		.byte	0xb
 1353 0796 00       		.byte	0
 1354 0797 13       		.uleb128 0x13
 1355 0798 15060000 		.4byte	0x615
 1356 079c A7070000 		.4byte	0x7a7
 1357 07a0 14       		.uleb128 0x14
 1358 07a1 79030000 		.4byte	0x379
 1359 07a5 1B       		.byte	0x1b
 1360 07a6 00       		.byte	0
 1361 07a7 17       		.uleb128 0x17
 1362 07a8 68000000 		.4byte	.LASF110
 1363 07ac 0D       		.byte	0xd
 1364 07ad 6902     		.2byte	0x269
 1365 07af 21060000 		.4byte	0x621
 1366 07b3 08       		.uleb128 0x8
 1367 07b4 04       		.byte	0x4
 1368 07b5 0E       		.byte	0xe
 1369 07b6 96       		.byte	0x96
 1370 07b7 D4070000 		.4byte	0x7d4
 1371 07bb 07       		.uleb128 0x7
 1372 07bc 73657400 		.ascii	"set\000"
 1373 07c0 0E       		.byte	0xe
 1374 07c1 97       		.byte	0x97
 1375 07c2 B8000000 		.4byte	0xb8
 1376 07c6 00       		.byte	0
 1377 07c7 06       		.uleb128 0x6
 1378 07c8 01040000 		.4byte	.LASF111
 1379 07cc 0E       		.byte	0xe
 1380 07cd 98       		.byte	0x98
 1381 07ce B8000000 		.4byte	0xb8
 1382 07d2 02       		.byte	0x2
 1383 07d3 00       		.byte	0
 1384 07d4 0E       		.uleb128 0xe
 1385 07d5 04       		.byte	0x4
 1386 07d6 0E       		.byte	0xe
 1387 07d7 94       		.byte	0x94
 1388 07d8 EF070000 		.4byte	0x7ef
 1389 07dc 1B       		.uleb128 0x1b
 1390 07dd 5700     		.ascii	"W\000"
 1391 07df 0E       		.byte	0xe
 1392 07e0 95       		.byte	0x95
 1393 07e1 CE000000 		.4byte	0xce
 1394 07e5 1B       		.uleb128 0x1b
 1395 07e6 4800     		.ascii	"H\000"
 1396 07e8 0E       		.byte	0xe
 1397 07e9 99       		.byte	0x99
 1398 07ea B3070000 		.4byte	0x7b3
 1399 07ee 00       		.byte	0
 1400 07ef 08       		.uleb128 0x8
 1401 07f0 28       		.byte	0x28
 1402 07f1 0E       		.byte	0xe
 1403 07f2 8C       		.byte	0x8c
 1404 07f3 70080000 		.4byte	0x870
 1405 07f7 06       		.uleb128 0x6
ARM GAS  /tmp/ccD25wWi.s 			page 26


 1406 07f8 7A000000 		.4byte	.LASF112
 1407 07fc 0E       		.byte	0xe
 1408 07fd 8E       		.byte	0x8e
 1409 07fe 74030000 		.4byte	0x374
 1410 0802 00       		.byte	0
 1411 0803 06       		.uleb128 0x6
 1412 0804 57000000 		.4byte	.LASF113
 1413 0808 0E       		.byte	0xe
 1414 0809 8F       		.byte	0x8f
 1415 080a 74030000 		.4byte	0x374
 1416 080e 04       		.byte	0x4
 1417 080f 06       		.uleb128 0x6
 1418 0810 57040000 		.4byte	.LASF114
 1419 0814 0E       		.byte	0xe
 1420 0815 90       		.byte	0x90
 1421 0816 74030000 		.4byte	0x374
 1422 081a 08       		.byte	0x8
 1423 081b 06       		.uleb128 0x6
 1424 081c 97000000 		.4byte	.LASF115
 1425 0820 0E       		.byte	0xe
 1426 0821 91       		.byte	0x91
 1427 0822 74030000 		.4byte	0x374
 1428 0826 0C       		.byte	0xc
 1429 0827 07       		.uleb128 0x7
 1430 0828 49445200 		.ascii	"IDR\000"
 1431 082c 0E       		.byte	0xe
 1432 082d 92       		.byte	0x92
 1433 082e 74030000 		.4byte	0x374
 1434 0832 10       		.byte	0x10
 1435 0833 07       		.uleb128 0x7
 1436 0834 4F445200 		.ascii	"ODR\000"
 1437 0838 0E       		.byte	0xe
 1438 0839 93       		.byte	0x93
 1439 083a 74030000 		.4byte	0x374
 1440 083e 14       		.byte	0x14
 1441 083f 06       		.uleb128 0x6
 1442 0840 F3000000 		.4byte	.LASF116
 1443 0844 0E       		.byte	0xe
 1444 0845 9A       		.byte	0x9a
 1445 0846 70080000 		.4byte	0x870
 1446 084a 18       		.byte	0x18
 1447 084b 06       		.uleb128 0x6
 1448 084c 32020000 		.4byte	.LASF117
 1449 0850 0E       		.byte	0xe
 1450 0851 9B       		.byte	0x9b
 1451 0852 74030000 		.4byte	0x374
 1452 0856 1C       		.byte	0x1c
 1453 0857 06       		.uleb128 0x6
 1454 0858 C4040000 		.4byte	.LASF118
 1455 085c 0E       		.byte	0xe
 1456 085d 9C       		.byte	0x9c
 1457 085e 74030000 		.4byte	0x374
 1458 0862 20       		.byte	0x20
 1459 0863 06       		.uleb128 0x6
 1460 0864 B3040000 		.4byte	.LASF119
 1461 0868 0E       		.byte	0xe
 1462 0869 9D       		.byte	0x9d
ARM GAS  /tmp/ccD25wWi.s 			page 27


 1463 086a 74030000 		.4byte	0x374
 1464 086e 24       		.byte	0x24
 1465 086f 00       		.byte	0
 1466 0870 0D       		.uleb128 0xd
 1467 0871 D4070000 		.4byte	0x7d4
 1468 0875 03       		.uleb128 0x3
 1469 0876 0D020000 		.4byte	.LASF120
 1470 087a 0E       		.byte	0xe
 1471 087b 9E       		.byte	0x9e
 1472 087c EF070000 		.4byte	0x7ef
 1473 0880 03       		.uleb128 0x3
 1474 0881 2F040000 		.4byte	.LASF121
 1475 0885 0E       		.byte	0xe
 1476 0886 F0       		.byte	0xf0
 1477 0887 CE000000 		.4byte	0xce
 1478 088b 03       		.uleb128 0x3
 1479 088c F8030000 		.4byte	.LASF122
 1480 0890 0E       		.byte	0xe
 1481 0891 F5       		.byte	0xf5
 1482 0892 CE000000 		.4byte	0xce
 1483 0896 03       		.uleb128 0x3
 1484 0897 78060000 		.4byte	.LASF123
 1485 089b 0E       		.byte	0xe
 1486 089c FD       		.byte	0xfd
 1487 089d A1080000 		.4byte	0x8a1
 1488 08a1 09       		.uleb128 0x9
 1489 08a2 04       		.byte	0x4
 1490 08a3 75080000 		.4byte	0x875
 1491 08a7 1C       		.uleb128 0x1c
 1492 08a8 01       		.byte	0x1
 1493 08a9 0F       		.byte	0xf
 1494 08aa 6E       		.byte	0x6e
 1495 08ab CE080000 		.4byte	0x8ce
 1496 08af 1D       		.uleb128 0x1d
 1497 08b0 12050000 		.4byte	.LASF124
 1498 08b4 00       		.sleb128 0
 1499 08b5 1D       		.uleb128 0x1d
 1500 08b6 95040000 		.4byte	.LASF125
 1501 08ba 01       		.sleb128 1
 1502 08bb 1D       		.uleb128 0x1d
 1503 08bc E6000000 		.4byte	.LASF126
 1504 08c0 02       		.sleb128 2
 1505 08c1 1D       		.uleb128 0x1d
 1506 08c2 7D010000 		.4byte	.LASF127
 1507 08c6 03       		.sleb128 3
 1508 08c7 1D       		.uleb128 0x1d
 1509 08c8 07040000 		.4byte	.LASF128
 1510 08cc 04       		.sleb128 4
 1511 08cd 00       		.byte	0
 1512 08ce 03       		.uleb128 0x3
 1513 08cf 8A040000 		.4byte	.LASF129
 1514 08d3 0F       		.byte	0xf
 1515 08d4 74       		.byte	0x74
 1516 08d5 A7080000 		.4byte	0x8a7
 1517 08d9 03       		.uleb128 0x3
 1518 08da 28070000 		.4byte	.LASF130
 1519 08de 10       		.byte	0x10
ARM GAS  /tmp/ccD25wWi.s 			page 28


 1520 08df 92       		.byte	0x92
 1521 08e0 CE000000 		.4byte	0xce
 1522 08e4 08       		.uleb128 0x8
 1523 08e5 01       		.byte	0x1
 1524 08e6 10       		.byte	0x10
 1525 08e7 9A       		.byte	0x9a
 1526 08e8 1A090000 		.4byte	0x91a
 1527 08ec 1E       		.uleb128 0x1e
 1528 08ed 444C4300 		.ascii	"DLC\000"
 1529 08f1 10       		.byte	0x10
 1530 08f2 9B       		.byte	0x9b
 1531 08f3 AD000000 		.4byte	0xad
 1532 08f7 01       		.byte	0x1
 1533 08f8 04       		.byte	0x4
 1534 08f9 04       		.byte	0x4
 1535 08fa 00       		.byte	0
 1536 08fb 1E       		.uleb128 0x1e
 1537 08fc 52545200 		.ascii	"RTR\000"
 1538 0900 10       		.byte	0x10
 1539 0901 9C       		.byte	0x9c
 1540 0902 AD000000 		.4byte	0xad
 1541 0906 01       		.byte	0x1
 1542 0907 01       		.byte	0x1
 1543 0908 03       		.byte	0x3
 1544 0909 00       		.byte	0
 1545 090a 1E       		.uleb128 0x1e
 1546 090b 49444500 		.ascii	"IDE\000"
 1547 090f 10       		.byte	0x10
 1548 0910 9D       		.byte	0x9d
 1549 0911 AD000000 		.4byte	0xad
 1550 0915 01       		.byte	0x1
 1551 0916 01       		.byte	0x1
 1552 0917 02       		.byte	0x2
 1553 0918 00       		.byte	0
 1554 0919 00       		.byte	0
 1555 091a 08       		.uleb128 0x8
 1556 091b 04       		.byte	0x4
 1557 091c 10       		.byte	0x10
 1558 091d A0       		.byte	0xa0
 1559 091e 32090000 		.4byte	0x932
 1560 0922 1E       		.uleb128 0x1e
 1561 0923 53494400 		.ascii	"SID\000"
 1562 0927 10       		.byte	0x10
 1563 0928 A1       		.byte	0xa1
 1564 0929 CE000000 		.4byte	0xce
 1565 092d 04       		.byte	0x4
 1566 092e 0B       		.byte	0xb
 1567 092f 15       		.byte	0x15
 1568 0930 00       		.byte	0
 1569 0931 00       		.byte	0
 1570 0932 08       		.uleb128 0x8
 1571 0933 04       		.byte	0x4
 1572 0934 10       		.byte	0x10
 1573 0935 A3       		.byte	0xa3
 1574 0936 4A090000 		.4byte	0x94a
 1575 093a 1E       		.uleb128 0x1e
 1576 093b 45494400 		.ascii	"EID\000"
ARM GAS  /tmp/ccD25wWi.s 			page 29


 1577 093f 10       		.byte	0x10
 1578 0940 A4       		.byte	0xa4
 1579 0941 CE000000 		.4byte	0xce
 1580 0945 04       		.byte	0x4
 1581 0946 1D       		.byte	0x1d
 1582 0947 03       		.byte	0x3
 1583 0948 00       		.byte	0
 1584 0949 00       		.byte	0
 1585 094a 0E       		.uleb128 0xe
 1586 094b 04       		.byte	0x4
 1587 094c 10       		.byte	0x10
 1588 094d 9F       		.byte	0x9f
 1589 094e 5D090000 		.4byte	0x95d
 1590 0952 1F       		.uleb128 0x1f
 1591 0953 1A090000 		.4byte	0x91a
 1592 0957 1F       		.uleb128 0x1f
 1593 0958 32090000 		.4byte	0x932
 1594 095c 00       		.byte	0
 1595 095d 0E       		.uleb128 0xe
 1596 095e 08       		.byte	0x8
 1597 095f 10       		.byte	0x10
 1598 0960 A7       		.byte	0xa7
 1599 0961 87090000 		.4byte	0x987
 1600 0965 0F       		.uleb128 0xf
 1601 0966 18040000 		.4byte	.LASF131
 1602 096a 10       		.byte	0x10
 1603 096b A8       		.byte	0xa8
 1604 096c 87090000 		.4byte	0x987
 1605 0970 0F       		.uleb128 0xf
 1606 0971 B2060000 		.4byte	.LASF132
 1607 0975 10       		.byte	0x10
 1608 0976 A9       		.byte	0xa9
 1609 0977 97090000 		.4byte	0x997
 1610 097b 0F       		.uleb128 0xf
 1611 097c A6000000 		.4byte	.LASF133
 1612 0980 10       		.byte	0x10
 1613 0981 AA       		.byte	0xaa
 1614 0982 48050000 		.4byte	0x548
 1615 0986 00       		.byte	0
 1616 0987 13       		.uleb128 0x13
 1617 0988 AD000000 		.4byte	0xad
 1618 098c 97090000 		.4byte	0x997
 1619 0990 14       		.uleb128 0x14
 1620 0991 79030000 		.4byte	0x379
 1621 0995 07       		.byte	0x7
 1622 0996 00       		.byte	0
 1623 0997 13       		.uleb128 0x13
 1624 0998 B8000000 		.4byte	0xb8
 1625 099c A7090000 		.4byte	0x9a7
 1626 09a0 14       		.uleb128 0x14
 1627 09a1 79030000 		.4byte	0x379
 1628 09a5 03       		.byte	0x3
 1629 09a6 00       		.byte	0
 1630 09a7 08       		.uleb128 0x8
 1631 09a8 10       		.byte	0x10
 1632 09a9 10       		.byte	0x10
 1633 09aa 99       		.byte	0x99
ARM GAS  /tmp/ccD25wWi.s 			page 30


 1634 09ab C2090000 		.4byte	0x9c2
 1635 09af 20       		.uleb128 0x20
 1636 09b0 E4080000 		.4byte	0x8e4
 1637 09b4 00       		.byte	0
 1638 09b5 20       		.uleb128 0x20
 1639 09b6 4A090000 		.4byte	0x94a
 1640 09ba 04       		.byte	0x4
 1641 09bb 20       		.uleb128 0x20
 1642 09bc 5D090000 		.4byte	0x95d
 1643 09c0 08       		.byte	0x8
 1644 09c1 00       		.byte	0
 1645 09c2 03       		.uleb128 0x3
 1646 09c3 27020000 		.4byte	.LASF134
 1647 09c7 10       		.byte	0x10
 1648 09c8 AC       		.byte	0xac
 1649 09c9 A7090000 		.4byte	0x9a7
 1650 09cd 08       		.uleb128 0x8
 1651 09ce 04       		.byte	0x4
 1652 09cf 10       		.byte	0x10
 1653 09d0 B4       		.byte	0xb4
 1654 09d1 EE090000 		.4byte	0x9ee
 1655 09d5 07       		.uleb128 0x7
 1656 09d6 464D4900 		.ascii	"FMI\000"
 1657 09da 10       		.byte	0x10
 1658 09db B5       		.byte	0xb5
 1659 09dc AD000000 		.4byte	0xad
 1660 09e0 00       		.byte	0
 1661 09e1 06       		.uleb128 0x6
 1662 09e2 AE010000 		.4byte	.LASF135
 1663 09e6 10       		.byte	0x10
 1664 09e7 B6       		.byte	0xb6
 1665 09e8 B8000000 		.4byte	0xb8
 1666 09ec 02       		.byte	0x2
 1667 09ed 00       		.byte	0
 1668 09ee 08       		.uleb128 0x8
 1669 09ef 01       		.byte	0x1
 1670 09f0 10       		.byte	0x10
 1671 09f1 B8       		.byte	0xb8
 1672 09f2 240A0000 		.4byte	0xa24
 1673 09f6 1E       		.uleb128 0x1e
 1674 09f7 444C4300 		.ascii	"DLC\000"
 1675 09fb 10       		.byte	0x10
 1676 09fc B9       		.byte	0xb9
 1677 09fd AD000000 		.4byte	0xad
 1678 0a01 01       		.byte	0x1
 1679 0a02 04       		.byte	0x4
 1680 0a03 04       		.byte	0x4
 1681 0a04 00       		.byte	0
 1682 0a05 1E       		.uleb128 0x1e
 1683 0a06 52545200 		.ascii	"RTR\000"
 1684 0a0a 10       		.byte	0x10
 1685 0a0b BA       		.byte	0xba
 1686 0a0c AD000000 		.4byte	0xad
 1687 0a10 01       		.byte	0x1
 1688 0a11 01       		.byte	0x1
 1689 0a12 03       		.byte	0x3
 1690 0a13 00       		.byte	0
ARM GAS  /tmp/ccD25wWi.s 			page 31


 1691 0a14 1E       		.uleb128 0x1e
 1692 0a15 49444500 		.ascii	"IDE\000"
 1693 0a19 10       		.byte	0x10
 1694 0a1a BB       		.byte	0xbb
 1695 0a1b AD000000 		.4byte	0xad
 1696 0a1f 01       		.byte	0x1
 1697 0a20 01       		.byte	0x1
 1698 0a21 02       		.byte	0x2
 1699 0a22 00       		.byte	0
 1700 0a23 00       		.byte	0
 1701 0a24 08       		.uleb128 0x8
 1702 0a25 04       		.byte	0x4
 1703 0a26 10       		.byte	0x10
 1704 0a27 BE       		.byte	0xbe
 1705 0a28 3C0A0000 		.4byte	0xa3c
 1706 0a2c 1E       		.uleb128 0x1e
 1707 0a2d 53494400 		.ascii	"SID\000"
 1708 0a31 10       		.byte	0x10
 1709 0a32 BF       		.byte	0xbf
 1710 0a33 CE000000 		.4byte	0xce
 1711 0a37 04       		.byte	0x4
 1712 0a38 0B       		.byte	0xb
 1713 0a39 15       		.byte	0x15
 1714 0a3a 00       		.byte	0
 1715 0a3b 00       		.byte	0
 1716 0a3c 08       		.uleb128 0x8
 1717 0a3d 04       		.byte	0x4
 1718 0a3e 10       		.byte	0x10
 1719 0a3f C1       		.byte	0xc1
 1720 0a40 540A0000 		.4byte	0xa54
 1721 0a44 1E       		.uleb128 0x1e
 1722 0a45 45494400 		.ascii	"EID\000"
 1723 0a49 10       		.byte	0x10
 1724 0a4a C2       		.byte	0xc2
 1725 0a4b CE000000 		.4byte	0xce
 1726 0a4f 04       		.byte	0x4
 1727 0a50 1D       		.byte	0x1d
 1728 0a51 03       		.byte	0x3
 1729 0a52 00       		.byte	0
 1730 0a53 00       		.byte	0
 1731 0a54 0E       		.uleb128 0xe
 1732 0a55 04       		.byte	0x4
 1733 0a56 10       		.byte	0x10
 1734 0a57 BD       		.byte	0xbd
 1735 0a58 670A0000 		.4byte	0xa67
 1736 0a5c 1F       		.uleb128 0x1f
 1737 0a5d 240A0000 		.4byte	0xa24
 1738 0a61 1F       		.uleb128 0x1f
 1739 0a62 3C0A0000 		.4byte	0xa3c
 1740 0a66 00       		.byte	0
 1741 0a67 0E       		.uleb128 0xe
 1742 0a68 08       		.byte	0x8
 1743 0a69 10       		.byte	0x10
 1744 0a6a C5       		.byte	0xc5
 1745 0a6b 910A0000 		.4byte	0xa91
 1746 0a6f 0F       		.uleb128 0xf
 1747 0a70 18040000 		.4byte	.LASF131
ARM GAS  /tmp/ccD25wWi.s 			page 32


 1748 0a74 10       		.byte	0x10
 1749 0a75 C6       		.byte	0xc6
 1750 0a76 87090000 		.4byte	0x987
 1751 0a7a 0F       		.uleb128 0xf
 1752 0a7b B2060000 		.4byte	.LASF132
 1753 0a7f 10       		.byte	0x10
 1754 0a80 C7       		.byte	0xc7
 1755 0a81 97090000 		.4byte	0x997
 1756 0a85 0F       		.uleb128 0xf
 1757 0a86 A6000000 		.4byte	.LASF133
 1758 0a8a 10       		.byte	0x10
 1759 0a8b C8       		.byte	0xc8
 1760 0a8c 48050000 		.4byte	0x548
 1761 0a90 00       		.byte	0
 1762 0a91 08       		.uleb128 0x8
 1763 0a92 14       		.byte	0x14
 1764 0a93 10       		.byte	0x10
 1765 0a94 B3       		.byte	0xb3
 1766 0a95 B20A0000 		.4byte	0xab2
 1767 0a99 20       		.uleb128 0x20
 1768 0a9a CD090000 		.4byte	0x9cd
 1769 0a9e 00       		.byte	0
 1770 0a9f 20       		.uleb128 0x20
 1771 0aa0 EE090000 		.4byte	0x9ee
 1772 0aa4 04       		.byte	0x4
 1773 0aa5 20       		.uleb128 0x20
 1774 0aa6 540A0000 		.4byte	0xa54
 1775 0aaa 08       		.byte	0x8
 1776 0aab 20       		.uleb128 0x20
 1777 0aac 670A0000 		.4byte	0xa67
 1778 0ab0 0C       		.byte	0xc
 1779 0ab1 00       		.byte	0
 1780 0ab2 03       		.uleb128 0x3
 1781 0ab3 3C000000 		.4byte	.LASF136
 1782 0ab7 10       		.byte	0x10
 1783 0ab8 CA       		.byte	0xca
 1784 0ab9 910A0000 		.4byte	0xa91
 1785 0abd 08       		.uleb128 0x8
 1786 0abe 08       		.byte	0x8
 1787 0abf 10       		.byte	0x10
 1788 0ac0 F4       		.byte	0xf4
 1789 0ac1 DF0A0000 		.4byte	0xadf
 1790 0ac5 07       		.uleb128 0x7
 1791 0ac6 6D637200 		.ascii	"mcr\000"
 1792 0aca 10       		.byte	0x10
 1793 0acb FA       		.byte	0xfa
 1794 0acc CE000000 		.4byte	0xce
 1795 0ad0 00       		.byte	0
 1796 0ad1 0C       		.uleb128 0xc
 1797 0ad2 62747200 		.ascii	"btr\000"
 1798 0ad6 10       		.byte	0x10
 1799 0ad7 0001     		.2byte	0x100
 1800 0ad9 CE000000 		.4byte	0xce
 1801 0add 04       		.byte	0x4
 1802 0ade 00       		.byte	0
 1803 0adf 17       		.uleb128 0x17
 1804 0ae0 9E040000 		.4byte	.LASF137
ARM GAS  /tmp/ccD25wWi.s 			page 33


 1805 0ae4 10       		.byte	0x10
 1806 0ae5 0101     		.2byte	0x101
 1807 0ae7 BD0A0000 		.4byte	0xabd
 1808 0aeb 15       		.uleb128 0x15
 1809 0aec 38       		.byte	0x38
 1810 0aed 10       		.byte	0x10
 1811 0aee 0601     		.2byte	0x106
 1812 0af0 770B0000 		.4byte	0xb77
 1813 0af4 16       		.uleb128 0x16
 1814 0af5 22010000 		.4byte	.LASF138
 1815 0af9 10       		.byte	0x10
 1816 0afa 0A01     		.2byte	0x10a
 1817 0afc CE080000 		.4byte	0x8ce
 1818 0b00 00       		.byte	0
 1819 0b01 16       		.uleb128 0x16
 1820 0b02 18060000 		.4byte	.LASF139
 1821 0b06 10       		.byte	0x10
 1822 0b07 0E01     		.2byte	0x10e
 1823 0b09 770B0000 		.4byte	0xb77
 1824 0b0d 04       		.byte	0x4
 1825 0b0e 16       		.uleb128 0x16
 1826 0b0f 12010000 		.4byte	.LASF140
 1827 0b13 10       		.byte	0x10
 1828 0b14 1201     		.2byte	0x112
 1829 0b16 06040000 		.4byte	0x406
 1830 0b1a 08       		.byte	0x8
 1831 0b1b 16       		.uleb128 0x16
 1832 0b1c 08070000 		.4byte	.LASF141
 1833 0b20 10       		.byte	0x10
 1834 0b21 1601     		.2byte	0x116
 1835 0b23 06040000 		.4byte	0x406
 1836 0b27 14       		.byte	0x14
 1837 0b28 16       		.uleb128 0x16
 1838 0b29 90010000 		.4byte	.LASF142
 1839 0b2d 10       		.byte	0x10
 1840 0b2e 2301     		.2byte	0x123
 1841 0b30 BA040000 		.4byte	0x4ba
 1842 0b34 20       		.byte	0x20
 1843 0b35 16       		.uleb128 0x16
 1844 0b36 F3050000 		.4byte	.LASF143
 1845 0b3a 10       		.byte	0x10
 1846 0b3b 2A01     		.2byte	0x12a
 1847 0b3d BA040000 		.4byte	0x4ba
 1848 0b41 24       		.byte	0x24
 1849 0b42 16       		.uleb128 0x16
 1850 0b43 B8040000 		.4byte	.LASF144
 1851 0b47 10       		.byte	0x10
 1852 0b48 3001     		.2byte	0x130
 1853 0b4a BA040000 		.4byte	0x4ba
 1854 0b4e 28       		.byte	0x28
 1855 0b4f 16       		.uleb128 0x16
 1856 0b50 7E040000 		.4byte	.LASF145
 1857 0b54 10       		.byte	0x10
 1858 0b55 3501     		.2byte	0x135
 1859 0b57 BA040000 		.4byte	0x4ba
 1860 0b5b 2C       		.byte	0x2c
 1861 0b5c 16       		.uleb128 0x16
ARM GAS  /tmp/ccD25wWi.s 			page 34


 1862 0b5d 39050000 		.4byte	.LASF146
 1863 0b61 10       		.byte	0x10
 1864 0b62 3901     		.2byte	0x139
 1865 0b64 BA040000 		.4byte	0x4ba
 1866 0b68 30       		.byte	0x30
 1867 0b69 0C       		.uleb128 0xc
 1868 0b6a 63616E00 		.ascii	"can\000"
 1869 0b6e 10       		.byte	0x10
 1870 0b6f 3F01     		.2byte	0x13f
 1871 0b71 820B0000 		.4byte	0xb82
 1872 0b75 34       		.byte	0x34
 1873 0b76 00       		.byte	0
 1874 0b77 09       		.uleb128 0x9
 1875 0b78 04       		.byte	0x4
 1876 0b79 7D0B0000 		.4byte	0xb7d
 1877 0b7d 10       		.uleb128 0x10
 1878 0b7e DF0A0000 		.4byte	0xadf
 1879 0b82 09       		.uleb128 0x9
 1880 0b83 04       		.byte	0x4
 1881 0b84 A7070000 		.4byte	0x7a7
 1882 0b88 17       		.uleb128 0x17
 1883 0b89 25040000 		.4byte	.LASF147
 1884 0b8d 10       		.byte	0x10
 1885 0b8e 4001     		.2byte	0x140
 1886 0b90 EB0A0000 		.4byte	0xaeb
 1887 0b94 05       		.uleb128 0x5
 1888 0b95 4A040000 		.4byte	.LASF148
 1889 0b99 08       		.byte	0x8
 1890 0b9a 01       		.byte	0x1
 1891 0b9b 14       		.byte	0x14
 1892 0b9c B90B0000 		.4byte	0xbb9
 1893 0ba0 06       		.uleb128 0x6
 1894 0ba1 DD050000 		.4byte	.LASF149
 1895 0ba5 01       		.byte	0x1
 1896 0ba6 15       		.byte	0x15
 1897 0ba7 B90B0000 		.4byte	0xbb9
 1898 0bab 00       		.byte	0
 1899 0bac 07       		.uleb128 0x7
 1900 0bad 6C656400 		.ascii	"led\000"
 1901 0bb1 01       		.byte	0x1
 1902 0bb2 16       		.byte	0x16
 1903 0bb3 CE000000 		.4byte	0xce
 1904 0bb7 04       		.byte	0x4
 1905 0bb8 00       		.byte	0
 1906 0bb9 09       		.uleb128 0x9
 1907 0bba 04       		.byte	0x4
 1908 0bbb 880B0000 		.4byte	0xb88
 1909 0bbf 21       		.uleb128 0x21
 1910 0bc0 B7050000 		.4byte	.LASF150
 1911 0bc4 01       		.byte	0x1
 1912 0bc5 45       		.byte	0x45
 1913 0bc6 22010000 		.4byte	0x122
 1914 0bca 00000000 		.4byte	.LFB119
 1915 0bce 94000000 		.4byte	.LFE119-.LFB119
 1916 0bd2 01       		.uleb128 0x1
 1917 0bd3 9C       		.byte	0x9c
 1918 0bd4 430C0000 		.4byte	0xc43
ARM GAS  /tmp/ccD25wWi.s 			page 35


 1919 0bd8 22       		.uleb128 0x22
 1920 0bd9 7000     		.ascii	"p\000"
 1921 0bdb 01       		.byte	0x1
 1922 0bdc 45       		.byte	0x45
 1923 0bdd CA020000 		.4byte	0x2ca
 1924 0be1 00000000 		.4byte	.LLST0
 1925 0be5 23       		.uleb128 0x23
 1926 0be6 74000000 		.4byte	.LASF152
 1927 0bea 01       		.byte	0x1
 1928 0beb 46       		.byte	0x46
 1929 0bec C2090000 		.4byte	0x9c2
 1930 0bf0 02       		.uleb128 0x2
 1931 0bf1 91       		.byte	0x91
 1932 0bf2 68       		.sleb128 -24
 1933 0bf3 24       		.uleb128 0x24
 1934 0bf4 44000000 		.4byte	.LVL2
 1935 0bf8 9C0F0000 		.4byte	0xf9c
 1936 0bfc 120C0000 		.4byte	0xc12
 1937 0c00 25       		.uleb128 0x25
 1938 0c01 01       		.uleb128 0x1
 1939 0c02 53       		.byte	0x53
 1940 0c03 02       		.uleb128 0x2
 1941 0c04 08       		.byte	0x8
 1942 0c05 64       		.byte	0x64
 1943 0c06 25       		.uleb128 0x25
 1944 0c07 01       		.uleb128 0x1
 1945 0c08 52       		.byte	0x52
 1946 0c09 02       		.uleb128 0x2
 1947 0c0a 7D       		.byte	0x7d
 1948 0c0b 00       		.sleb128 0
 1949 0c0c 25       		.uleb128 0x25
 1950 0c0d 01       		.uleb128 0x1
 1951 0c0e 51       		.byte	0x51
 1952 0c0f 01       		.uleb128 0x1
 1953 0c10 30       		.byte	0x30
 1954 0c11 00       		.byte	0
 1955 0c12 24       		.uleb128 0x24
 1956 0c13 50000000 		.4byte	.LVL3
 1957 0c17 9C0F0000 		.4byte	0xf9c
 1958 0c1b 310C0000 		.4byte	0xc31
 1959 0c1f 25       		.uleb128 0x25
 1960 0c20 01       		.uleb128 0x1
 1961 0c21 53       		.byte	0x53
 1962 0c22 02       		.uleb128 0x2
 1963 0c23 08       		.byte	0x8
 1964 0c24 64       		.byte	0x64
 1965 0c25 25       		.uleb128 0x25
 1966 0c26 01       		.uleb128 0x1
 1967 0c27 52       		.byte	0x52
 1968 0c28 02       		.uleb128 0x2
 1969 0c29 7D       		.byte	0x7d
 1970 0c2a 00       		.sleb128 0
 1971 0c2b 25       		.uleb128 0x25
 1972 0c2c 01       		.uleb128 0x1
 1973 0c2d 51       		.byte	0x51
 1974 0c2e 01       		.uleb128 0x1
 1975 0c2f 30       		.byte	0x30
ARM GAS  /tmp/ccD25wWi.s 			page 36


 1976 0c30 00       		.byte	0
 1977 0c31 26       		.uleb128 0x26
 1978 0c32 62000000 		.4byte	.LVL4
 1979 0c36 CB0F0000 		.4byte	0xfcb
 1980 0c3a 25       		.uleb128 0x25
 1981 0c3b 01       		.uleb128 0x1
 1982 0c3c 50       		.byte	0x50
 1983 0c3d 03       		.uleb128 0x3
 1984 0c3e 0A       		.byte	0xa
 1985 0c3f F401     		.2byte	0x1f4
 1986 0c41 00       		.byte	0
 1987 0c42 00       		.byte	0
 1988 0c43 21       		.uleb128 0x21
 1989 0c44 9B030000 		.4byte	.LASF151
 1990 0c48 01       		.byte	0x1
 1991 0c49 2C       		.byte	0x2c
 1992 0c4a 22010000 		.4byte	0x122
 1993 0c4e 00000000 		.4byte	.LFB118
 1994 0c52 74000000 		.4byte	.LFE118-.LFB118
 1995 0c56 01       		.uleb128 0x1
 1996 0c57 9C       		.byte	0x9c
 1997 0c58 F50C0000 		.4byte	0xcf5
 1998 0c5c 22       		.uleb128 0x22
 1999 0c5d 7000     		.ascii	"p\000"
 2000 0c5f 01       		.byte	0x1
 2001 0c60 2C       		.byte	0x2c
 2002 0c61 CA020000 		.4byte	0x2ca
 2003 0c65 21000000 		.4byte	.LLST1
 2004 0c69 27       		.uleb128 0x27
 2005 0c6a 63697000 		.ascii	"cip\000"
 2006 0c6e 01       		.byte	0x1
 2007 0c6f 2D       		.byte	0x2d
 2008 0c70 F50C0000 		.4byte	0xcf5
 2009 0c74 4D000000 		.4byte	.LLST2
 2010 0c78 28       		.uleb128 0x28
 2011 0c79 656C00   		.ascii	"el\000"
 2012 0c7c 01       		.byte	0x1
 2013 0c7d 2E       		.byte	0x2e
 2014 0c7e 53040000 		.4byte	0x453
 2015 0c82 02       		.uleb128 0x2
 2016 0c83 91       		.byte	0x91
 2017 0c84 68       		.sleb128 -24
 2018 0c85 23       		.uleb128 0x23
 2019 0c86 00000000 		.4byte	.LASF153
 2020 0c8a 01       		.byte	0x1
 2021 0c8b 2F       		.byte	0x2f
 2022 0c8c B20A0000 		.4byte	0xab2
 2023 0c90 02       		.uleb128 0x2
 2024 0c91 91       		.byte	0x91
 2025 0c92 54       		.sleb128 -44
 2026 0c93 24       		.uleb128 0x24
 2027 0c94 1A000000 		.4byte	.LVL8
 2028 0c98 DD0F0000 		.4byte	0xfdd
 2029 0c9c AC0C0000 		.4byte	0xcac
 2030 0ca0 25       		.uleb128 0x25
 2031 0ca1 01       		.uleb128 0x1
 2032 0ca2 52       		.byte	0x52
ARM GAS  /tmp/ccD25wWi.s 			page 37


 2033 0ca3 01       		.uleb128 0x1
 2034 0ca4 31       		.byte	0x31
 2035 0ca5 25       		.uleb128 0x25
 2036 0ca6 01       		.uleb128 0x1
 2037 0ca7 51       		.byte	0x51
 2038 0ca8 02       		.uleb128 0x2
 2039 0ca9 91       		.byte	0x91
 2040 0caa 68       		.sleb128 -24
 2041 0cab 00       		.byte	0
 2042 0cac 24       		.uleb128 0x24
 2043 0cad 26000000 		.4byte	.LVL9
 2044 0cb1 FE0F0000 		.4byte	0xffe
 2045 0cb5 C60C0000 		.4byte	0xcc6
 2046 0cb9 25       		.uleb128 0x25
 2047 0cba 01       		.uleb128 0x1
 2048 0cbb 51       		.byte	0x51
 2049 0cbc 02       		.uleb128 0x2
 2050 0cbd 08       		.byte	0x8
 2051 0cbe 64       		.byte	0x64
 2052 0cbf 25       		.uleb128 0x25
 2053 0cc0 01       		.uleb128 0x1
 2054 0cc1 50       		.byte	0x50
 2055 0cc2 02       		.uleb128 0x2
 2056 0cc3 09       		.byte	0x9
 2057 0cc4 FF       		.byte	0xff
 2058 0cc5 00       		.byte	0
 2059 0cc6 24       		.uleb128 0x24
 2060 0cc7 44000000 		.4byte	.LVL10
 2061 0ccb 18100000 		.4byte	0x1018
 2062 0ccf E40C0000 		.4byte	0xce4
 2063 0cd3 25       		.uleb128 0x25
 2064 0cd4 01       		.uleb128 0x1
 2065 0cd5 53       		.byte	0x53
 2066 0cd6 01       		.uleb128 0x1
 2067 0cd7 30       		.byte	0x30
 2068 0cd8 25       		.uleb128 0x25
 2069 0cd9 01       		.uleb128 0x1
 2070 0cda 52       		.byte	0x52
 2071 0cdb 02       		.uleb128 0x2
 2072 0cdc 91       		.byte	0x91
 2073 0cdd 54       		.sleb128 -44
 2074 0cde 25       		.uleb128 0x25
 2075 0cdf 01       		.uleb128 0x1
 2076 0ce0 51       		.byte	0x51
 2077 0ce1 01       		.uleb128 0x1
 2078 0ce2 30       		.byte	0x30
 2079 0ce3 00       		.byte	0
 2080 0ce4 26       		.uleb128 0x26
 2081 0ce5 5E000000 		.4byte	.LVL11
 2082 0ce9 42100000 		.4byte	0x1042
 2083 0ced 25       		.uleb128 0x25
 2084 0cee 01       		.uleb128 0x1
 2085 0cef 51       		.byte	0x51
 2086 0cf0 02       		.uleb128 0x2
 2087 0cf1 91       		.byte	0x91
 2088 0cf2 68       		.sleb128 -24
 2089 0cf3 00       		.byte	0
ARM GAS  /tmp/ccD25wWi.s 			page 38


 2090 0cf4 00       		.byte	0
 2091 0cf5 09       		.uleb128 0x9
 2092 0cf6 04       		.byte	0x4
 2093 0cf7 940B0000 		.4byte	0xb94
 2094 0cfb 29       		.uleb128 0x29
 2095 0cfc 47070000 		.4byte	.LASF178
 2096 0d00 01       		.byte	0x1
 2097 0d01 5D       		.byte	0x5d
 2098 0d02 25000000 		.4byte	0x25
 2099 0d06 00000000 		.4byte	.LFB120
 2100 0d0a 00010000 		.4byte	.LFE120-.LFB120
 2101 0d0e 01       		.uleb128 0x1
 2102 0d0f 9C       		.byte	0x9c
 2103 0d10 F20E0000 		.4byte	0xef2
 2104 0d14 2A       		.uleb128 0x2a
 2105 0d15 08000000 		.4byte	.LVL13
 2106 0d19 58100000 		.4byte	0x1058
 2107 0d1d 2A       		.uleb128 0x2a
 2108 0d1e 0C000000 		.4byte	.LVL14
 2109 0d22 5F100000 		.4byte	0x105f
 2110 0d26 24       		.uleb128 0x24
 2111 0d27 1A000000 		.4byte	.LVL15
 2112 0d2b 66100000 		.4byte	0x1066
 2113 0d2f 470D0000 		.4byte	0xd47
 2114 0d33 25       		.uleb128 0x25
 2115 0d34 01       		.uleb128 0x1
 2116 0d35 52       		.byte	0x52
 2117 0d36 03       		.uleb128 0x3
 2118 0d37 0A       		.byte	0xa
 2119 0d38 8204     		.2byte	0x482
 2120 0d3a 25       		.uleb128 0x25
 2121 0d3b 01       		.uleb128 0x1
 2122 0d3c 51       		.byte	0x51
 2123 0d3d 02       		.uleb128 0x2
 2124 0d3e 08       		.byte	0x8
 2125 0d3f 40       		.byte	0x40
 2126 0d40 25       		.uleb128 0x25
 2127 0d41 01       		.uleb128 0x1
 2128 0d42 50       		.byte	0x50
 2129 0d43 02       		.uleb128 0x2
 2130 0d44 74       		.byte	0x74
 2131 0d45 00       		.sleb128 0
 2132 0d46 00       		.byte	0
 2133 0d47 24       		.uleb128 0x24
 2134 0d48 26000000 		.4byte	.LVL16
 2135 0d4c 66100000 		.4byte	0x1066
 2136 0d50 680D0000 		.4byte	0xd68
 2137 0d54 25       		.uleb128 0x25
 2138 0d55 01       		.uleb128 0x1
 2139 0d56 52       		.byte	0x52
 2140 0d57 03       		.uleb128 0x3
 2141 0d58 0A       		.byte	0xa
 2142 0d59 8204     		.2byte	0x482
 2143 0d5b 25       		.uleb128 0x25
 2144 0d5c 01       		.uleb128 0x1
 2145 0d5d 51       		.byte	0x51
 2146 0d5e 02       		.uleb128 0x2
ARM GAS  /tmp/ccD25wWi.s 			page 39


 2147 0d5f 08       		.byte	0x8
 2148 0d60 20       		.byte	0x20
 2149 0d61 25       		.uleb128 0x25
 2150 0d62 01       		.uleb128 0x1
 2151 0d63 50       		.byte	0x50
 2152 0d64 02       		.uleb128 0x2
 2153 0d65 74       		.byte	0x74
 2154 0d66 00       		.sleb128 0
 2155 0d67 00       		.byte	0
 2156 0d68 24       		.uleb128 0x24
 2157 0d69 36000000 		.4byte	.LVL17
 2158 0d6d 66100000 		.4byte	0x1066
 2159 0d71 8A0D0000 		.4byte	0xd8a
 2160 0d75 25       		.uleb128 0x25
 2161 0d76 01       		.uleb128 0x1
 2162 0d77 52       		.byte	0x52
 2163 0d78 03       		.uleb128 0x3
 2164 0d79 0A       		.byte	0xa
 2165 0d7a 8204     		.2byte	0x482
 2166 0d7c 25       		.uleb128 0x25
 2167 0d7d 01       		.uleb128 0x1
 2168 0d7e 51       		.byte	0x51
 2169 0d7f 03       		.uleb128 0x3
 2170 0d80 0A       		.byte	0xa
 2171 0d81 0002     		.2byte	0x200
 2172 0d83 25       		.uleb128 0x25
 2173 0d84 01       		.uleb128 0x1
 2174 0d85 50       		.byte	0x50
 2175 0d86 02       		.uleb128 0x2
 2176 0d87 75       		.byte	0x75
 2177 0d88 00       		.sleb128 0
 2178 0d89 00       		.byte	0
 2179 0d8a 24       		.uleb128 0x24
 2180 0d8b 48000000 		.4byte	.LVL18
 2181 0d8f 66100000 		.4byte	0x1066
 2182 0d93 AC0D0000 		.4byte	0xdac
 2183 0d97 25       		.uleb128 0x25
 2184 0d98 01       		.uleb128 0x1
 2185 0d99 52       		.byte	0x52
 2186 0d9a 03       		.uleb128 0x3
 2187 0d9b 0A       		.byte	0xa
 2188 0d9c 8204     		.2byte	0x482
 2189 0d9e 25       		.uleb128 0x25
 2190 0d9f 01       		.uleb128 0x1
 2191 0da0 51       		.byte	0x51
 2192 0da1 03       		.uleb128 0x3
 2193 0da2 0A       		.byte	0xa
 2194 0da3 0020     		.2byte	0x2000
 2195 0da5 25       		.uleb128 0x25
 2196 0da6 01       		.uleb128 0x1
 2197 0da7 50       		.byte	0x50
 2198 0da8 02       		.uleb128 0x2
 2199 0da9 74       		.byte	0x74
 2200 0daa 00       		.sleb128 0
 2201 0dab 00       		.byte	0
 2202 0dac 24       		.uleb128 0x24
 2203 0dad 52000000 		.4byte	.LVL19
ARM GAS  /tmp/ccD25wWi.s 			page 40


 2204 0db1 66100000 		.4byte	0x1066
 2205 0db5 CA0D0000 		.4byte	0xdca
 2206 0db9 25       		.uleb128 0x25
 2207 0dba 01       		.uleb128 0x1
 2208 0dbb 52       		.byte	0x52
 2209 0dbc 01       		.uleb128 0x1
 2210 0dbd 31       		.byte	0x31
 2211 0dbe 25       		.uleb128 0x25
 2212 0dbf 01       		.uleb128 0x1
 2213 0dc0 51       		.byte	0x51
 2214 0dc1 01       		.uleb128 0x1
 2215 0dc2 34       		.byte	0x34
 2216 0dc3 25       		.uleb128 0x25
 2217 0dc4 01       		.uleb128 0x1
 2218 0dc5 50       		.byte	0x50
 2219 0dc6 02       		.uleb128 0x2
 2220 0dc7 74       		.byte	0x74
 2221 0dc8 00       		.sleb128 0
 2222 0dc9 00       		.byte	0
 2223 0dca 24       		.uleb128 0x24
 2224 0dcb 5C000000 		.4byte	.LVL20
 2225 0dcf 66100000 		.4byte	0x1066
 2226 0dd3 E80D0000 		.4byte	0xde8
 2227 0dd7 25       		.uleb128 0x25
 2228 0dd8 01       		.uleb128 0x1
 2229 0dd9 52       		.byte	0x52
 2230 0dda 01       		.uleb128 0x1
 2231 0ddb 31       		.byte	0x31
 2232 0ddc 25       		.uleb128 0x25
 2233 0ddd 01       		.uleb128 0x1
 2234 0dde 51       		.byte	0x51
 2235 0ddf 01       		.uleb128 0x1
 2236 0de0 38       		.byte	0x38
 2237 0de1 25       		.uleb128 0x25
 2238 0de2 01       		.uleb128 0x1
 2239 0de3 50       		.byte	0x50
 2240 0de4 02       		.uleb128 0x2
 2241 0de5 74       		.byte	0x74
 2242 0de6 00       		.sleb128 0
 2243 0de7 00       		.byte	0
 2244 0de8 24       		.uleb128 0x24
 2245 0de9 66000000 		.4byte	.LVL21
 2246 0ded 82100000 		.4byte	0x1082
 2247 0df1 FC0D0000 		.4byte	0xdfc
 2248 0df5 25       		.uleb128 0x25
 2249 0df6 01       		.uleb128 0x1
 2250 0df7 51       		.byte	0x51
 2251 0df8 02       		.uleb128 0x2
 2252 0df9 74       		.byte	0x74
 2253 0dfa 00       		.sleb128 0
 2254 0dfb 00       		.byte	0
 2255 0dfc 24       		.uleb128 0x24
 2256 0dfd 6E000000 		.4byte	.LVL22
 2257 0e01 82100000 		.4byte	0x1082
 2258 0e05 100E0000 		.4byte	0xe10
 2259 0e09 25       		.uleb128 0x25
 2260 0e0a 01       		.uleb128 0x1
ARM GAS  /tmp/ccD25wWi.s 			page 41


 2261 0e0b 51       		.byte	0x51
 2262 0e0c 02       		.uleb128 0x2
 2263 0e0d 74       		.byte	0x74
 2264 0e0e 00       		.sleb128 0
 2265 0e0f 00       		.byte	0
 2266 0e10 24       		.uleb128 0x24
 2267 0e11 82000000 		.4byte	.LVL23
 2268 0e15 98100000 		.4byte	0x1098
 2269 0e19 440E0000 		.4byte	0xe44
 2270 0e1d 25       		.uleb128 0x25
 2271 0e1e 01       		.uleb128 0x1
 2272 0e1f 53       		.byte	0x53
 2273 0e20 02       		.uleb128 0x2
 2274 0e21 74       		.byte	0x74
 2275 0e22 00       		.sleb128 0
 2276 0e23 25       		.uleb128 0x25
 2277 0e24 01       		.uleb128 0x1
 2278 0e25 52       		.byte	0x52
 2279 0e26 02       		.uleb128 0x2
 2280 0e27 08       		.byte	0x8
 2281 0e28 47       		.byte	0x47
 2282 0e29 25       		.uleb128 0x25
 2283 0e2a 01       		.uleb128 0x1
 2284 0e2b 51       		.byte	0x51
 2285 0e2c 03       		.uleb128 0x3
 2286 0e2d 0A       		.byte	0xa
 2287 0e2e D001     		.2byte	0x1d0
 2288 0e30 25       		.uleb128 0x25
 2289 0e31 01       		.uleb128 0x1
 2290 0e32 50       		.byte	0x50
 2291 0e33 05       		.uleb128 0x5
 2292 0e34 03       		.byte	0x3
 2293 0e35 00000000 		.4byte	.LANCHOR1
 2294 0e39 25       		.uleb128 0x25
 2295 0e3a 02       		.uleb128 0x2
 2296 0e3b 7D       		.byte	0x7d
 2297 0e3c 00       		.sleb128 0
 2298 0e3d 05       		.uleb128 0x5
 2299 0e3e 03       		.byte	0x3
 2300 0e3f 00000000 		.4byte	.LANCHOR2
 2301 0e43 00       		.byte	0
 2302 0e44 24       		.uleb128 0x24
 2303 0e45 94000000 		.4byte	.LVL24
 2304 0e49 98100000 		.4byte	0x1098
 2305 0e4d 780E0000 		.4byte	0xe78
 2306 0e51 25       		.uleb128 0x25
 2307 0e52 01       		.uleb128 0x1
 2308 0e53 53       		.byte	0x53
 2309 0e54 02       		.uleb128 0x2
 2310 0e55 74       		.byte	0x74
 2311 0e56 00       		.sleb128 0
 2312 0e57 25       		.uleb128 0x25
 2313 0e58 01       		.uleb128 0x1
 2314 0e59 52       		.byte	0x52
 2315 0e5a 02       		.uleb128 0x2
 2316 0e5b 08       		.byte	0x8
 2317 0e5c 47       		.byte	0x47
ARM GAS  /tmp/ccD25wWi.s 			page 42


 2318 0e5d 25       		.uleb128 0x25
 2319 0e5e 01       		.uleb128 0x1
 2320 0e5f 51       		.byte	0x51
 2321 0e60 03       		.uleb128 0x3
 2322 0e61 0A       		.byte	0xa
 2323 0e62 D001     		.2byte	0x1d0
 2324 0e64 25       		.uleb128 0x25
 2325 0e65 01       		.uleb128 0x1
 2326 0e66 50       		.byte	0x50
 2327 0e67 05       		.uleb128 0x5
 2328 0e68 03       		.byte	0x3
 2329 0e69 00000000 		.4byte	.LANCHOR3
 2330 0e6d 25       		.uleb128 0x25
 2331 0e6e 02       		.uleb128 0x2
 2332 0e6f 7D       		.byte	0x7d
 2333 0e70 00       		.sleb128 0
 2334 0e71 05       		.uleb128 0x5
 2335 0e72 03       		.byte	0x3
 2336 0e73 00000000 		.4byte	.LANCHOR4
 2337 0e77 00       		.byte	0
 2338 0e78 24       		.uleb128 0x24
 2339 0e79 A6000000 		.4byte	.LVL25
 2340 0e7d 98100000 		.4byte	0x1098
 2341 0e81 AB0E0000 		.4byte	0xeab
 2342 0e85 25       		.uleb128 0x25
 2343 0e86 01       		.uleb128 0x1
 2344 0e87 53       		.byte	0x53
 2345 0e88 05       		.uleb128 0x5
 2346 0e89 03       		.byte	0x3
 2347 0e8a 00000000 		.4byte	can_tx
 2348 0e8e 25       		.uleb128 0x25
 2349 0e8f 01       		.uleb128 0x1
 2350 0e90 52       		.byte	0x52
 2351 0e91 02       		.uleb128 0x2
 2352 0e92 08       		.byte	0x8
 2353 0e93 47       		.byte	0x47
 2354 0e94 25       		.uleb128 0x25
 2355 0e95 01       		.uleb128 0x1
 2356 0e96 51       		.byte	0x51
 2357 0e97 03       		.uleb128 0x3
 2358 0e98 0A       		.byte	0xa
 2359 0e99 D001     		.2byte	0x1d0
 2360 0e9b 25       		.uleb128 0x25
 2361 0e9c 01       		.uleb128 0x1
 2362 0e9d 50       		.byte	0x50
 2363 0e9e 05       		.uleb128 0x5
 2364 0e9f 03       		.byte	0x3
 2365 0ea0 00000000 		.4byte	.LANCHOR5
 2366 0ea4 25       		.uleb128 0x25
 2367 0ea5 02       		.uleb128 0x2
 2368 0ea6 7D       		.byte	0x7d
 2369 0ea7 00       		.sleb128 0
 2370 0ea8 01       		.uleb128 0x1
 2371 0ea9 30       		.byte	0x30
 2372 0eaa 00       		.byte	0
 2373 0eab 24       		.uleb128 0x24
 2374 0eac B2000000 		.4byte	.LVL26
ARM GAS  /tmp/ccD25wWi.s 			page 43


 2375 0eb0 66100000 		.4byte	0x1066
 2376 0eb4 CB0E0000 		.4byte	0xecb
 2377 0eb8 25       		.uleb128 0x25
 2378 0eb9 01       		.uleb128 0x1
 2379 0eba 52       		.byte	0x52
 2380 0ebb 01       		.uleb128 0x1
 2381 0ebc 31       		.byte	0x31
 2382 0ebd 25       		.uleb128 0x25
 2383 0ebe 01       		.uleb128 0x1
 2384 0ebf 51       		.byte	0x51
 2385 0ec0 03       		.uleb128 0x3
 2386 0ec1 0A       		.byte	0xa
 2387 0ec2 0004     		.2byte	0x400
 2388 0ec4 25       		.uleb128 0x25
 2389 0ec5 01       		.uleb128 0x1
 2390 0ec6 50       		.byte	0x50
 2391 0ec7 02       		.uleb128 0x2
 2392 0ec8 75       		.byte	0x75
 2393 0ec9 00       		.sleb128 0
 2394 0eca 00       		.byte	0
 2395 0ecb 24       		.uleb128 0x24
 2396 0ecc C2000000 		.4byte	.LVL27
 2397 0ed0 CB0F0000 		.4byte	0xfcb
 2398 0ed4 E00E0000 		.4byte	0xee0
 2399 0ed8 25       		.uleb128 0x25
 2400 0ed9 01       		.uleb128 0x1
 2401 0eda 50       		.byte	0x50
 2402 0edb 03       		.uleb128 0x3
 2403 0edc 0A       		.byte	0xa
 2404 0edd F401     		.2byte	0x1f4
 2405 0edf 00       		.byte	0
 2406 0ee0 26       		.uleb128 0x26
 2407 0ee1 CC000000 		.4byte	.LVL28
 2408 0ee5 CB0F0000 		.4byte	0xfcb
 2409 0ee9 25       		.uleb128 0x25
 2410 0eea 01       		.uleb128 0x1
 2411 0eeb 50       		.byte	0x50
 2412 0eec 03       		.uleb128 0x3
 2413 0eed 0A       		.byte	0xa
 2414 0eee F401     		.2byte	0x1f4
 2415 0ef0 00       		.byte	0
 2416 0ef1 00       		.byte	0
 2417 0ef2 23       		.uleb128 0x23
 2418 0ef3 55010000 		.4byte	.LASF154
 2419 0ef7 01       		.byte	0x1
 2420 0ef8 19       		.byte	0x19
 2421 0ef9 030F0000 		.4byte	0xf03
 2422 0efd 05       		.uleb128 0x5
 2423 0efe 03       		.byte	0x3
 2424 0eff 00000000 		.4byte	can1
 2425 0f03 10       		.uleb128 0x10
 2426 0f04 940B0000 		.4byte	0xb94
 2427 0f08 23       		.uleb128 0x23
 2428 0f09 61010000 		.4byte	.LASF155
 2429 0f0d 01       		.byte	0x1
 2430 0f0e 1A       		.byte	0x1a
 2431 0f0f 030F0000 		.4byte	0xf03
ARM GAS  /tmp/ccD25wWi.s 			page 44


 2432 0f13 05       		.uleb128 0x5
 2433 0f14 03       		.byte	0x3
 2434 0f15 00000000 		.4byte	can2
 2435 0f19 23       		.uleb128 0x23
 2436 0f1a 11040000 		.4byte	.LASF156
 2437 0f1e 01       		.byte	0x1
 2438 0f1f 21       		.byte	0x21
 2439 0f20 7D0B0000 		.4byte	0xb7d
 2440 0f24 05       		.uleb128 0x5
 2441 0f25 03       		.byte	0x3
 2442 0f26 00000000 		.4byte	cancfg
 2443 0f2a 13       		.uleb128 0x13
 2444 0f2b CC020000 		.4byte	0x2cc
 2445 0f2f 3A0F0000 		.4byte	0xf3a
 2446 0f33 14       		.uleb128 0x14
 2447 0f34 79030000 		.4byte	0x379
 2448 0f38 39       		.byte	0x39
 2449 0f39 00       		.byte	0
 2450 0f3a 23       		.uleb128 0x23
 2451 0f3b 1F060000 		.4byte	.LASF157
 2452 0f3f 01       		.byte	0x1
 2453 0f40 2A       		.byte	0x2a
 2454 0f41 2A0F0000 		.4byte	0xf2a
 2455 0f45 05       		.uleb128 0x5
 2456 0f46 03       		.byte	0x3
 2457 0f47 00000000 		.4byte	can_rx1_wa
 2458 0f4b 23       		.uleb128 0x23
 2459 0f4c 37070000 		.4byte	.LASF158
 2460 0f50 01       		.byte	0x1
 2461 0f51 2B       		.byte	0x2b
 2462 0f52 2A0F0000 		.4byte	0xf2a
 2463 0f56 05       		.uleb128 0x5
 2464 0f57 03       		.byte	0x3
 2465 0f58 00000000 		.4byte	can_rx2_wa
 2466 0f5c 23       		.uleb128 0x23
 2467 0f5d BE050000 		.4byte	.LASF159
 2468 0f61 01       		.byte	0x1
 2469 0f62 44       		.byte	0x44
 2470 0f63 2A0F0000 		.4byte	0xf2a
 2471 0f67 05       		.uleb128 0x5
 2472 0f68 03       		.byte	0x3
 2473 0f69 00000000 		.4byte	can_tx_wa
 2474 0f6d 2B       		.uleb128 0x2b
 2475 0f6e FA060000 		.4byte	.LASF160
 2476 0f72 09       		.byte	0x9
 2477 0f73 6F       		.byte	0x6f
 2478 0f74 D6030000 		.4byte	0x3d6
 2479 0f78 2C       		.uleb128 0x2c
 2480 0f79 52050000 		.4byte	.LASF161
 2481 0f7d 11       		.byte	0x11
 2482 0f7e 9806     		.2byte	0x698
 2483 0f80 58050000 		.4byte	0x558
 2484 0f84 2C       		.uleb128 0x2c
 2485 0f85 EB010000 		.4byte	.LASF162
 2486 0f89 10       		.byte	0x10
 2487 0f8a 4B01     		.2byte	0x14b
 2488 0f8c 880B0000 		.4byte	0xb88
ARM GAS  /tmp/ccD25wWi.s 			page 45


 2489 0f90 2C       		.uleb128 0x2c
 2490 0f91 F1010000 		.4byte	.LASF163
 2491 0f95 10       		.byte	0x10
 2492 0f96 4F01     		.2byte	0x14f
 2493 0f98 880B0000 		.4byte	0xb88
 2494 0f9c 2D       		.uleb128 0x2d
 2495 0f9d E3030000 		.4byte	.LASF166
 2496 0fa1 0F       		.byte	0xf
 2497 0fa2 91       		.byte	0x91
 2498 0fa3 22010000 		.4byte	0x122
 2499 0fa7 C00F0000 		.4byte	0xfc0
 2500 0fab 12       		.uleb128 0x12
 2501 0fac B90B0000 		.4byte	0xbb9
 2502 0fb0 12       		.uleb128 0x12
 2503 0fb1 D9080000 		.4byte	0x8d9
 2504 0fb5 12       		.uleb128 0x12
 2505 0fb6 C00F0000 		.4byte	0xfc0
 2506 0fba 12       		.uleb128 0x12
 2507 0fbb 43010000 		.4byte	0x143
 2508 0fbf 00       		.byte	0
 2509 0fc0 09       		.uleb128 0x9
 2510 0fc1 04       		.byte	0x4
 2511 0fc2 C60F0000 		.4byte	0xfc6
 2512 0fc6 10       		.uleb128 0x10
 2513 0fc7 C2090000 		.4byte	0x9c2
 2514 0fcb 2E       		.uleb128 0x2e
 2515 0fcc BE060000 		.4byte	.LASF164
 2516 0fd0 07       		.byte	0x7
 2517 0fd1 7501     		.2byte	0x175
 2518 0fd3 DD0F0000 		.4byte	0xfdd
 2519 0fd7 12       		.uleb128 0x12
 2520 0fd8 43010000 		.4byte	0x143
 2521 0fdc 00       		.byte	0
 2522 0fdd 2F       		.uleb128 0x2f
 2523 0fde 70020000 		.4byte	.LASF165
 2524 0fe2 0C       		.byte	0xc
 2525 0fe3 AF       		.byte	0xaf
 2526 0fe4 F80F0000 		.4byte	0xff8
 2527 0fe8 12       		.uleb128 0x12
 2528 0fe9 F80F0000 		.4byte	0xff8
 2529 0fed 12       		.uleb128 0x12
 2530 0fee 9B040000 		.4byte	0x49b
 2531 0ff2 12       		.uleb128 0x12
 2532 0ff3 2D010000 		.4byte	0x12d
 2533 0ff7 00       		.byte	0
 2534 0ff8 09       		.uleb128 0x9
 2535 0ff9 04       		.byte	0x4
 2536 0ffa BA040000 		.4byte	0x4ba
 2537 0ffe 2D       		.uleb128 0x2d
 2538 0fff AD000000 		.4byte	.LASF167
 2539 1003 0C       		.byte	0xc
 2540 1004 C3       		.byte	0xc3
 2541 1005 2D010000 		.4byte	0x12d
 2542 1009 18100000 		.4byte	0x1018
 2543 100d 12       		.uleb128 0x12
 2544 100e 2D010000 		.4byte	0x12d
 2545 1012 12       		.uleb128 0x12
ARM GAS  /tmp/ccD25wWi.s 			page 46


 2546 1013 43010000 		.4byte	0x143
 2547 1017 00       		.byte	0
 2548 1018 2D       		.uleb128 0x2d
 2549 1019 C1000000 		.4byte	.LASF168
 2550 101d 0F       		.byte	0xf
 2551 101e 95       		.byte	0x95
 2552 101f 22010000 		.4byte	0x122
 2553 1023 3C100000 		.4byte	0x103c
 2554 1027 12       		.uleb128 0x12
 2555 1028 B90B0000 		.4byte	0xbb9
 2556 102c 12       		.uleb128 0x12
 2557 102d D9080000 		.4byte	0x8d9
 2558 1031 12       		.uleb128 0x12
 2559 1032 3C100000 		.4byte	0x103c
 2560 1036 12       		.uleb128 0x12
 2561 1037 43010000 		.4byte	0x143
 2562 103b 00       		.byte	0
 2563 103c 09       		.uleb128 0x9
 2564 103d 04       		.byte	0x4
 2565 103e B20A0000 		.4byte	0xab2
 2566 1042 2F       		.uleb128 0x2f
 2567 1043 90020000 		.4byte	.LASF169
 2568 1047 0C       		.byte	0xc
 2569 1048 B2       		.byte	0xb2
 2570 1049 58100000 		.4byte	0x1058
 2571 104d 12       		.uleb128 0x12
 2572 104e F80F0000 		.4byte	0xff8
 2573 1052 12       		.uleb128 0x12
 2574 1053 9B040000 		.4byte	0x49b
 2575 1057 00       		.byte	0
 2576 1058 30       		.uleb128 0x30
 2577 1059 1A020000 		.4byte	.LASF170
 2578 105d 12       		.byte	0x12
 2579 105e D0       		.byte	0xd0
 2580 105f 30       		.uleb128 0x30
 2581 1060 F8000000 		.4byte	.LASF171
 2582 1064 13       		.byte	0x13
 2583 1065 F6       		.byte	0xf6
 2584 1066 2E       		.uleb128 0x2e
 2585 1067 8B060000 		.4byte	.LASF172
 2586 106b 0E       		.byte	0xe
 2587 106c C201     		.2byte	0x1c2
 2588 106e 82100000 		.4byte	0x1082
 2589 1072 12       		.uleb128 0x12
 2590 1073 96080000 		.4byte	0x896
 2591 1077 12       		.uleb128 0x12
 2592 1078 80080000 		.4byte	0x880
 2593 107c 12       		.uleb128 0x12
 2594 107d 8B080000 		.4byte	0x88b
 2595 1081 00       		.byte	0
 2596 1082 2F       		.uleb128 0x2f
 2597 1083 87010000 		.4byte	.LASF173
 2598 1087 0F       		.byte	0xf
 2599 1088 8F       		.byte	0x8f
 2600 1089 98100000 		.4byte	0x1098
 2601 108d 12       		.uleb128 0x12
 2602 108e B90B0000 		.4byte	0xbb9
ARM GAS  /tmp/ccD25wWi.s 			page 47


 2603 1092 12       		.uleb128 0x12
 2604 1093 770B0000 		.4byte	0xb77
 2605 1097 00       		.byte	0
 2606 1098 31       		.uleb128 0x31
 2607 1099 AD030000 		.4byte	.LASF174
 2608 109d 07       		.byte	0x7
 2609 109e 7001     		.2byte	0x170
 2610 10a0 8E020000 		.4byte	0x28e
 2611 10a4 12       		.uleb128 0x12
 2612 10a5 CA020000 		.4byte	0x2ca
 2613 10a9 12       		.uleb128 0x12
 2614 10aa 2C000000 		.4byte	0x2c
 2615 10ae 12       		.uleb128 0x12
 2616 10af 17010000 		.4byte	0x117
 2617 10b3 12       		.uleb128 0x12
 2618 10b4 18050000 		.4byte	0x518
 2619 10b8 12       		.uleb128 0x12
 2620 10b9 CA020000 		.4byte	0x2ca
 2621 10bd 00       		.byte	0
 2622 10be 00       		.byte	0
 2623              		.section	.debug_abbrev,"",%progbits
 2624              	.Ldebug_abbrev0:
 2625 0000 01       		.uleb128 0x1
 2626 0001 11       		.uleb128 0x11
 2627 0002 01       		.byte	0x1
 2628 0003 25       		.uleb128 0x25
 2629 0004 0E       		.uleb128 0xe
 2630 0005 13       		.uleb128 0x13
 2631 0006 0B       		.uleb128 0xb
 2632 0007 03       		.uleb128 0x3
 2633 0008 0E       		.uleb128 0xe
 2634 0009 1B       		.uleb128 0x1b
 2635 000a 0E       		.uleb128 0xe
 2636 000b 55       		.uleb128 0x55
 2637 000c 17       		.uleb128 0x17
 2638 000d 11       		.uleb128 0x11
 2639 000e 01       		.uleb128 0x1
 2640 000f 10       		.uleb128 0x10
 2641 0010 17       		.uleb128 0x17
 2642 0011 00       		.byte	0
 2643 0012 00       		.byte	0
 2644 0013 02       		.uleb128 0x2
 2645 0014 24       		.uleb128 0x24
 2646 0015 00       		.byte	0
 2647 0016 0B       		.uleb128 0xb
 2648 0017 0B       		.uleb128 0xb
 2649 0018 3E       		.uleb128 0x3e
 2650 0019 0B       		.uleb128 0xb
 2651 001a 03       		.uleb128 0x3
 2652 001b 08       		.uleb128 0x8
 2653 001c 00       		.byte	0
 2654 001d 00       		.byte	0
 2655 001e 03       		.uleb128 0x3
 2656 001f 16       		.uleb128 0x16
 2657 0020 00       		.byte	0
 2658 0021 03       		.uleb128 0x3
 2659 0022 0E       		.uleb128 0xe
ARM GAS  /tmp/ccD25wWi.s 			page 48


 2660 0023 3A       		.uleb128 0x3a
 2661 0024 0B       		.uleb128 0xb
 2662 0025 3B       		.uleb128 0x3b
 2663 0026 0B       		.uleb128 0xb
 2664 0027 49       		.uleb128 0x49
 2665 0028 13       		.uleb128 0x13
 2666 0029 00       		.byte	0
 2667 002a 00       		.byte	0
 2668 002b 04       		.uleb128 0x4
 2669 002c 24       		.uleb128 0x24
 2670 002d 00       		.byte	0
 2671 002e 0B       		.uleb128 0xb
 2672 002f 0B       		.uleb128 0xb
 2673 0030 3E       		.uleb128 0x3e
 2674 0031 0B       		.uleb128 0xb
 2675 0032 03       		.uleb128 0x3
 2676 0033 0E       		.uleb128 0xe
 2677 0034 00       		.byte	0
 2678 0035 00       		.byte	0
 2679 0036 05       		.uleb128 0x5
 2680 0037 13       		.uleb128 0x13
 2681 0038 01       		.byte	0x1
 2682 0039 03       		.uleb128 0x3
 2683 003a 0E       		.uleb128 0xe
 2684 003b 0B       		.uleb128 0xb
 2685 003c 0B       		.uleb128 0xb
 2686 003d 3A       		.uleb128 0x3a
 2687 003e 0B       		.uleb128 0xb
 2688 003f 3B       		.uleb128 0x3b
 2689 0040 0B       		.uleb128 0xb
 2690 0041 01       		.uleb128 0x1
 2691 0042 13       		.uleb128 0x13
 2692 0043 00       		.byte	0
 2693 0044 00       		.byte	0
 2694 0045 06       		.uleb128 0x6
 2695 0046 0D       		.uleb128 0xd
 2696 0047 00       		.byte	0
 2697 0048 03       		.uleb128 0x3
 2698 0049 0E       		.uleb128 0xe
 2699 004a 3A       		.uleb128 0x3a
 2700 004b 0B       		.uleb128 0xb
 2701 004c 3B       		.uleb128 0x3b
 2702 004d 0B       		.uleb128 0xb
 2703 004e 49       		.uleb128 0x49
 2704 004f 13       		.uleb128 0x13
 2705 0050 38       		.uleb128 0x38
 2706 0051 0B       		.uleb128 0xb
 2707 0052 00       		.byte	0
 2708 0053 00       		.byte	0
 2709 0054 07       		.uleb128 0x7
 2710 0055 0D       		.uleb128 0xd
 2711 0056 00       		.byte	0
 2712 0057 03       		.uleb128 0x3
 2713 0058 08       		.uleb128 0x8
 2714 0059 3A       		.uleb128 0x3a
 2715 005a 0B       		.uleb128 0xb
 2716 005b 3B       		.uleb128 0x3b
ARM GAS  /tmp/ccD25wWi.s 			page 49


 2717 005c 0B       		.uleb128 0xb
 2718 005d 49       		.uleb128 0x49
 2719 005e 13       		.uleb128 0x13
 2720 005f 38       		.uleb128 0x38
 2721 0060 0B       		.uleb128 0xb
 2722 0061 00       		.byte	0
 2723 0062 00       		.byte	0
 2724 0063 08       		.uleb128 0x8
 2725 0064 13       		.uleb128 0x13
 2726 0065 01       		.byte	0x1
 2727 0066 0B       		.uleb128 0xb
 2728 0067 0B       		.uleb128 0xb
 2729 0068 3A       		.uleb128 0x3a
 2730 0069 0B       		.uleb128 0xb
 2731 006a 3B       		.uleb128 0x3b
 2732 006b 0B       		.uleb128 0xb
 2733 006c 01       		.uleb128 0x1
 2734 006d 13       		.uleb128 0x13
 2735 006e 00       		.byte	0
 2736 006f 00       		.byte	0
 2737 0070 09       		.uleb128 0x9
 2738 0071 0F       		.uleb128 0xf
 2739 0072 00       		.byte	0
 2740 0073 0B       		.uleb128 0xb
 2741 0074 0B       		.uleb128 0xb
 2742 0075 49       		.uleb128 0x49
 2743 0076 13       		.uleb128 0x13
 2744 0077 00       		.byte	0
 2745 0078 00       		.byte	0
 2746 0079 0A       		.uleb128 0xa
 2747 007a 0F       		.uleb128 0xf
 2748 007b 00       		.byte	0
 2749 007c 0B       		.uleb128 0xb
 2750 007d 0B       		.uleb128 0xb
 2751 007e 00       		.byte	0
 2752 007f 00       		.byte	0
 2753 0080 0B       		.uleb128 0xb
 2754 0081 13       		.uleb128 0x13
 2755 0082 01       		.byte	0x1
 2756 0083 03       		.uleb128 0x3
 2757 0084 0E       		.uleb128 0xe
 2758 0085 0B       		.uleb128 0xb
 2759 0086 0B       		.uleb128 0xb
 2760 0087 3A       		.uleb128 0x3a
 2761 0088 0B       		.uleb128 0xb
 2762 0089 3B       		.uleb128 0x3b
 2763 008a 05       		.uleb128 0x5
 2764 008b 01       		.uleb128 0x1
 2765 008c 13       		.uleb128 0x13
 2766 008d 00       		.byte	0
 2767 008e 00       		.byte	0
 2768 008f 0C       		.uleb128 0xc
 2769 0090 0D       		.uleb128 0xd
 2770 0091 00       		.byte	0
 2771 0092 03       		.uleb128 0x3
 2772 0093 08       		.uleb128 0x8
 2773 0094 3A       		.uleb128 0x3a
ARM GAS  /tmp/ccD25wWi.s 			page 50


 2774 0095 0B       		.uleb128 0xb
 2775 0096 3B       		.uleb128 0x3b
 2776 0097 05       		.uleb128 0x5
 2777 0098 49       		.uleb128 0x49
 2778 0099 13       		.uleb128 0x13
 2779 009a 38       		.uleb128 0x38
 2780 009b 0B       		.uleb128 0xb
 2781 009c 00       		.byte	0
 2782 009d 00       		.byte	0
 2783 009e 0D       		.uleb128 0xd
 2784 009f 35       		.uleb128 0x35
 2785 00a0 00       		.byte	0
 2786 00a1 49       		.uleb128 0x49
 2787 00a2 13       		.uleb128 0x13
 2788 00a3 00       		.byte	0
 2789 00a4 00       		.byte	0
 2790 00a5 0E       		.uleb128 0xe
 2791 00a6 17       		.uleb128 0x17
 2792 00a7 01       		.byte	0x1
 2793 00a8 0B       		.uleb128 0xb
 2794 00a9 0B       		.uleb128 0xb
 2795 00aa 3A       		.uleb128 0x3a
 2796 00ab 0B       		.uleb128 0xb
 2797 00ac 3B       		.uleb128 0x3b
 2798 00ad 0B       		.uleb128 0xb
 2799 00ae 01       		.uleb128 0x1
 2800 00af 13       		.uleb128 0x13
 2801 00b0 00       		.byte	0
 2802 00b1 00       		.byte	0
 2803 00b2 0F       		.uleb128 0xf
 2804 00b3 0D       		.uleb128 0xd
 2805 00b4 00       		.byte	0
 2806 00b5 03       		.uleb128 0x3
 2807 00b6 0E       		.uleb128 0xe
 2808 00b7 3A       		.uleb128 0x3a
 2809 00b8 0B       		.uleb128 0xb
 2810 00b9 3B       		.uleb128 0x3b
 2811 00ba 0B       		.uleb128 0xb
 2812 00bb 49       		.uleb128 0x49
 2813 00bc 13       		.uleb128 0x13
 2814 00bd 00       		.byte	0
 2815 00be 00       		.byte	0
 2816 00bf 10       		.uleb128 0x10
 2817 00c0 26       		.uleb128 0x26
 2818 00c1 00       		.byte	0
 2819 00c2 49       		.uleb128 0x49
 2820 00c3 13       		.uleb128 0x13
 2821 00c4 00       		.byte	0
 2822 00c5 00       		.byte	0
 2823 00c6 11       		.uleb128 0x11
 2824 00c7 15       		.uleb128 0x15
 2825 00c8 01       		.byte	0x1
 2826 00c9 27       		.uleb128 0x27
 2827 00ca 19       		.uleb128 0x19
 2828 00cb 49       		.uleb128 0x49
 2829 00cc 13       		.uleb128 0x13
 2830 00cd 01       		.uleb128 0x1
ARM GAS  /tmp/ccD25wWi.s 			page 51


 2831 00ce 13       		.uleb128 0x13
 2832 00cf 00       		.byte	0
 2833 00d0 00       		.byte	0
 2834 00d1 12       		.uleb128 0x12
 2835 00d2 05       		.uleb128 0x5
 2836 00d3 00       		.byte	0
 2837 00d4 49       		.uleb128 0x49
 2838 00d5 13       		.uleb128 0x13
 2839 00d6 00       		.byte	0
 2840 00d7 00       		.byte	0
 2841 00d8 13       		.uleb128 0x13
 2842 00d9 01       		.uleb128 0x1
 2843 00da 01       		.byte	0x1
 2844 00db 49       		.uleb128 0x49
 2845 00dc 13       		.uleb128 0x13
 2846 00dd 01       		.uleb128 0x1
 2847 00de 13       		.uleb128 0x13
 2848 00df 00       		.byte	0
 2849 00e0 00       		.byte	0
 2850 00e1 14       		.uleb128 0x14
 2851 00e2 21       		.uleb128 0x21
 2852 00e3 00       		.byte	0
 2853 00e4 49       		.uleb128 0x49
 2854 00e5 13       		.uleb128 0x13
 2855 00e6 2F       		.uleb128 0x2f
 2856 00e7 0B       		.uleb128 0xb
 2857 00e8 00       		.byte	0
 2858 00e9 00       		.byte	0
 2859 00ea 15       		.uleb128 0x15
 2860 00eb 13       		.uleb128 0x13
 2861 00ec 01       		.byte	0x1
 2862 00ed 0B       		.uleb128 0xb
 2863 00ee 0B       		.uleb128 0xb
 2864 00ef 3A       		.uleb128 0x3a
 2865 00f0 0B       		.uleb128 0xb
 2866 00f1 3B       		.uleb128 0x3b
 2867 00f2 05       		.uleb128 0x5
 2868 00f3 01       		.uleb128 0x1
 2869 00f4 13       		.uleb128 0x13
 2870 00f5 00       		.byte	0
 2871 00f6 00       		.byte	0
 2872 00f7 16       		.uleb128 0x16
 2873 00f8 0D       		.uleb128 0xd
 2874 00f9 00       		.byte	0
 2875 00fa 03       		.uleb128 0x3
 2876 00fb 0E       		.uleb128 0xe
 2877 00fc 3A       		.uleb128 0x3a
 2878 00fd 0B       		.uleb128 0xb
 2879 00fe 3B       		.uleb128 0x3b
 2880 00ff 05       		.uleb128 0x5
 2881 0100 49       		.uleb128 0x49
 2882 0101 13       		.uleb128 0x13
 2883 0102 38       		.uleb128 0x38
 2884 0103 0B       		.uleb128 0xb
 2885 0104 00       		.byte	0
 2886 0105 00       		.byte	0
 2887 0106 17       		.uleb128 0x17
ARM GAS  /tmp/ccD25wWi.s 			page 52


 2888 0107 16       		.uleb128 0x16
 2889 0108 00       		.byte	0
 2890 0109 03       		.uleb128 0x3
 2891 010a 0E       		.uleb128 0xe
 2892 010b 3A       		.uleb128 0x3a
 2893 010c 0B       		.uleb128 0xb
 2894 010d 3B       		.uleb128 0x3b
 2895 010e 05       		.uleb128 0x5
 2896 010f 49       		.uleb128 0x49
 2897 0110 13       		.uleb128 0x13
 2898 0111 00       		.byte	0
 2899 0112 00       		.byte	0
 2900 0113 18       		.uleb128 0x18
 2901 0114 13       		.uleb128 0x13
 2902 0115 01       		.byte	0x1
 2903 0116 0B       		.uleb128 0xb
 2904 0117 05       		.uleb128 0x5
 2905 0118 3A       		.uleb128 0x3a
 2906 0119 0B       		.uleb128 0xb
 2907 011a 3B       		.uleb128 0x3b
 2908 011b 05       		.uleb128 0x5
 2909 011c 01       		.uleb128 0x1
 2910 011d 13       		.uleb128 0x13
 2911 011e 00       		.byte	0
 2912 011f 00       		.byte	0
 2913 0120 19       		.uleb128 0x19
 2914 0121 0D       		.uleb128 0xd
 2915 0122 00       		.byte	0
 2916 0123 03       		.uleb128 0x3
 2917 0124 0E       		.uleb128 0xe
 2918 0125 3A       		.uleb128 0x3a
 2919 0126 0B       		.uleb128 0xb
 2920 0127 3B       		.uleb128 0x3b
 2921 0128 05       		.uleb128 0x5
 2922 0129 49       		.uleb128 0x49
 2923 012a 13       		.uleb128 0x13
 2924 012b 38       		.uleb128 0x38
 2925 012c 05       		.uleb128 0x5
 2926 012d 00       		.byte	0
 2927 012e 00       		.byte	0
 2928 012f 1A       		.uleb128 0x1a
 2929 0130 0D       		.uleb128 0xd
 2930 0131 00       		.byte	0
 2931 0132 03       		.uleb128 0x3
 2932 0133 08       		.uleb128 0x8
 2933 0134 3A       		.uleb128 0x3a
 2934 0135 0B       		.uleb128 0xb
 2935 0136 3B       		.uleb128 0x3b
 2936 0137 05       		.uleb128 0x5
 2937 0138 49       		.uleb128 0x49
 2938 0139 13       		.uleb128 0x13
 2939 013a 38       		.uleb128 0x38
 2940 013b 05       		.uleb128 0x5
 2941 013c 00       		.byte	0
 2942 013d 00       		.byte	0
 2943 013e 1B       		.uleb128 0x1b
 2944 013f 0D       		.uleb128 0xd
ARM GAS  /tmp/ccD25wWi.s 			page 53


 2945 0140 00       		.byte	0
 2946 0141 03       		.uleb128 0x3
 2947 0142 08       		.uleb128 0x8
 2948 0143 3A       		.uleb128 0x3a
 2949 0144 0B       		.uleb128 0xb
 2950 0145 3B       		.uleb128 0x3b
 2951 0146 0B       		.uleb128 0xb
 2952 0147 49       		.uleb128 0x49
 2953 0148 13       		.uleb128 0x13
 2954 0149 00       		.byte	0
 2955 014a 00       		.byte	0
 2956 014b 1C       		.uleb128 0x1c
 2957 014c 04       		.uleb128 0x4
 2958 014d 01       		.byte	0x1
 2959 014e 0B       		.uleb128 0xb
 2960 014f 0B       		.uleb128 0xb
 2961 0150 3A       		.uleb128 0x3a
 2962 0151 0B       		.uleb128 0xb
 2963 0152 3B       		.uleb128 0x3b
 2964 0153 0B       		.uleb128 0xb
 2965 0154 01       		.uleb128 0x1
 2966 0155 13       		.uleb128 0x13
 2967 0156 00       		.byte	0
 2968 0157 00       		.byte	0
 2969 0158 1D       		.uleb128 0x1d
 2970 0159 28       		.uleb128 0x28
 2971 015a 00       		.byte	0
 2972 015b 03       		.uleb128 0x3
 2973 015c 0E       		.uleb128 0xe
 2974 015d 1C       		.uleb128 0x1c
 2975 015e 0D       		.uleb128 0xd
 2976 015f 00       		.byte	0
 2977 0160 00       		.byte	0
 2978 0161 1E       		.uleb128 0x1e
 2979 0162 0D       		.uleb128 0xd
 2980 0163 00       		.byte	0
 2981 0164 03       		.uleb128 0x3
 2982 0165 08       		.uleb128 0x8
 2983 0166 3A       		.uleb128 0x3a
 2984 0167 0B       		.uleb128 0xb
 2985 0168 3B       		.uleb128 0x3b
 2986 0169 0B       		.uleb128 0xb
 2987 016a 49       		.uleb128 0x49
 2988 016b 13       		.uleb128 0x13
 2989 016c 0B       		.uleb128 0xb
 2990 016d 0B       		.uleb128 0xb
 2991 016e 0D       		.uleb128 0xd
 2992 016f 0B       		.uleb128 0xb
 2993 0170 0C       		.uleb128 0xc
 2994 0171 0B       		.uleb128 0xb
 2995 0172 38       		.uleb128 0x38
 2996 0173 0B       		.uleb128 0xb
 2997 0174 00       		.byte	0
 2998 0175 00       		.byte	0
 2999 0176 1F       		.uleb128 0x1f
 3000 0177 0D       		.uleb128 0xd
 3001 0178 00       		.byte	0
ARM GAS  /tmp/ccD25wWi.s 			page 54


 3002 0179 49       		.uleb128 0x49
 3003 017a 13       		.uleb128 0x13
 3004 017b 00       		.byte	0
 3005 017c 00       		.byte	0
 3006 017d 20       		.uleb128 0x20
 3007 017e 0D       		.uleb128 0xd
 3008 017f 00       		.byte	0
 3009 0180 49       		.uleb128 0x49
 3010 0181 13       		.uleb128 0x13
 3011 0182 38       		.uleb128 0x38
 3012 0183 0B       		.uleb128 0xb
 3013 0184 00       		.byte	0
 3014 0185 00       		.byte	0
 3015 0186 21       		.uleb128 0x21
 3016 0187 2E       		.uleb128 0x2e
 3017 0188 01       		.byte	0x1
 3018 0189 03       		.uleb128 0x3
 3019 018a 0E       		.uleb128 0xe
 3020 018b 3A       		.uleb128 0x3a
 3021 018c 0B       		.uleb128 0xb
 3022 018d 3B       		.uleb128 0x3b
 3023 018e 0B       		.uleb128 0xb
 3024 018f 27       		.uleb128 0x27
 3025 0190 19       		.uleb128 0x19
 3026 0191 49       		.uleb128 0x49
 3027 0192 13       		.uleb128 0x13
 3028 0193 11       		.uleb128 0x11
 3029 0194 01       		.uleb128 0x1
 3030 0195 12       		.uleb128 0x12
 3031 0196 06       		.uleb128 0x6
 3032 0197 40       		.uleb128 0x40
 3033 0198 18       		.uleb128 0x18
 3034 0199 9742     		.uleb128 0x2117
 3035 019b 19       		.uleb128 0x19
 3036 019c 01       		.uleb128 0x1
 3037 019d 13       		.uleb128 0x13
 3038 019e 00       		.byte	0
 3039 019f 00       		.byte	0
 3040 01a0 22       		.uleb128 0x22
 3041 01a1 05       		.uleb128 0x5
 3042 01a2 00       		.byte	0
 3043 01a3 03       		.uleb128 0x3
 3044 01a4 08       		.uleb128 0x8
 3045 01a5 3A       		.uleb128 0x3a
 3046 01a6 0B       		.uleb128 0xb
 3047 01a7 3B       		.uleb128 0x3b
 3048 01a8 0B       		.uleb128 0xb
 3049 01a9 49       		.uleb128 0x49
 3050 01aa 13       		.uleb128 0x13
 3051 01ab 02       		.uleb128 0x2
 3052 01ac 17       		.uleb128 0x17
 3053 01ad 00       		.byte	0
 3054 01ae 00       		.byte	0
 3055 01af 23       		.uleb128 0x23
 3056 01b0 34       		.uleb128 0x34
 3057 01b1 00       		.byte	0
 3058 01b2 03       		.uleb128 0x3
ARM GAS  /tmp/ccD25wWi.s 			page 55


 3059 01b3 0E       		.uleb128 0xe
 3060 01b4 3A       		.uleb128 0x3a
 3061 01b5 0B       		.uleb128 0xb
 3062 01b6 3B       		.uleb128 0x3b
 3063 01b7 0B       		.uleb128 0xb
 3064 01b8 49       		.uleb128 0x49
 3065 01b9 13       		.uleb128 0x13
 3066 01ba 02       		.uleb128 0x2
 3067 01bb 18       		.uleb128 0x18
 3068 01bc 00       		.byte	0
 3069 01bd 00       		.byte	0
 3070 01be 24       		.uleb128 0x24
 3071 01bf 898201   		.uleb128 0x4109
 3072 01c2 01       		.byte	0x1
 3073 01c3 11       		.uleb128 0x11
 3074 01c4 01       		.uleb128 0x1
 3075 01c5 31       		.uleb128 0x31
 3076 01c6 13       		.uleb128 0x13
 3077 01c7 01       		.uleb128 0x1
 3078 01c8 13       		.uleb128 0x13
 3079 01c9 00       		.byte	0
 3080 01ca 00       		.byte	0
 3081 01cb 25       		.uleb128 0x25
 3082 01cc 8A8201   		.uleb128 0x410a
 3083 01cf 00       		.byte	0
 3084 01d0 02       		.uleb128 0x2
 3085 01d1 18       		.uleb128 0x18
 3086 01d2 9142     		.uleb128 0x2111
 3087 01d4 18       		.uleb128 0x18
 3088 01d5 00       		.byte	0
 3089 01d6 00       		.byte	0
 3090 01d7 26       		.uleb128 0x26
 3091 01d8 898201   		.uleb128 0x4109
 3092 01db 01       		.byte	0x1
 3093 01dc 11       		.uleb128 0x11
 3094 01dd 01       		.uleb128 0x1
 3095 01de 31       		.uleb128 0x31
 3096 01df 13       		.uleb128 0x13
 3097 01e0 00       		.byte	0
 3098 01e1 00       		.byte	0
 3099 01e2 27       		.uleb128 0x27
 3100 01e3 34       		.uleb128 0x34
 3101 01e4 00       		.byte	0
 3102 01e5 03       		.uleb128 0x3
 3103 01e6 08       		.uleb128 0x8
 3104 01e7 3A       		.uleb128 0x3a
 3105 01e8 0B       		.uleb128 0xb
 3106 01e9 3B       		.uleb128 0x3b
 3107 01ea 0B       		.uleb128 0xb
 3108 01eb 49       		.uleb128 0x49
 3109 01ec 13       		.uleb128 0x13
 3110 01ed 02       		.uleb128 0x2
 3111 01ee 17       		.uleb128 0x17
 3112 01ef 00       		.byte	0
 3113 01f0 00       		.byte	0
 3114 01f1 28       		.uleb128 0x28
 3115 01f2 34       		.uleb128 0x34
ARM GAS  /tmp/ccD25wWi.s 			page 56


 3116 01f3 00       		.byte	0
 3117 01f4 03       		.uleb128 0x3
 3118 01f5 08       		.uleb128 0x8
 3119 01f6 3A       		.uleb128 0x3a
 3120 01f7 0B       		.uleb128 0xb
 3121 01f8 3B       		.uleb128 0x3b
 3122 01f9 0B       		.uleb128 0xb
 3123 01fa 49       		.uleb128 0x49
 3124 01fb 13       		.uleb128 0x13
 3125 01fc 02       		.uleb128 0x2
 3126 01fd 18       		.uleb128 0x18
 3127 01fe 00       		.byte	0
 3128 01ff 00       		.byte	0
 3129 0200 29       		.uleb128 0x29
 3130 0201 2E       		.uleb128 0x2e
 3131 0202 01       		.byte	0x1
 3132 0203 3F       		.uleb128 0x3f
 3133 0204 19       		.uleb128 0x19
 3134 0205 03       		.uleb128 0x3
 3135 0206 0E       		.uleb128 0xe
 3136 0207 3A       		.uleb128 0x3a
 3137 0208 0B       		.uleb128 0xb
 3138 0209 3B       		.uleb128 0x3b
 3139 020a 0B       		.uleb128 0xb
 3140 020b 27       		.uleb128 0x27
 3141 020c 19       		.uleb128 0x19
 3142 020d 49       		.uleb128 0x49
 3143 020e 13       		.uleb128 0x13
 3144 020f 11       		.uleb128 0x11
 3145 0210 01       		.uleb128 0x1
 3146 0211 12       		.uleb128 0x12
 3147 0212 06       		.uleb128 0x6
 3148 0213 40       		.uleb128 0x40
 3149 0214 18       		.uleb128 0x18
 3150 0215 9742     		.uleb128 0x2117
 3151 0217 19       		.uleb128 0x19
 3152 0218 01       		.uleb128 0x1
 3153 0219 13       		.uleb128 0x13
 3154 021a 00       		.byte	0
 3155 021b 00       		.byte	0
 3156 021c 2A       		.uleb128 0x2a
 3157 021d 898201   		.uleb128 0x4109
 3158 0220 00       		.byte	0
 3159 0221 11       		.uleb128 0x11
 3160 0222 01       		.uleb128 0x1
 3161 0223 31       		.uleb128 0x31
 3162 0224 13       		.uleb128 0x13
 3163 0225 00       		.byte	0
 3164 0226 00       		.byte	0
 3165 0227 2B       		.uleb128 0x2b
 3166 0228 34       		.uleb128 0x34
 3167 0229 00       		.byte	0
 3168 022a 03       		.uleb128 0x3
 3169 022b 0E       		.uleb128 0xe
 3170 022c 3A       		.uleb128 0x3a
 3171 022d 0B       		.uleb128 0xb
 3172 022e 3B       		.uleb128 0x3b
ARM GAS  /tmp/ccD25wWi.s 			page 57


 3173 022f 0B       		.uleb128 0xb
 3174 0230 49       		.uleb128 0x49
 3175 0231 13       		.uleb128 0x13
 3176 0232 3F       		.uleb128 0x3f
 3177 0233 19       		.uleb128 0x19
 3178 0234 3C       		.uleb128 0x3c
 3179 0235 19       		.uleb128 0x19
 3180 0236 00       		.byte	0
 3181 0237 00       		.byte	0
 3182 0238 2C       		.uleb128 0x2c
 3183 0239 34       		.uleb128 0x34
 3184 023a 00       		.byte	0
 3185 023b 03       		.uleb128 0x3
 3186 023c 0E       		.uleb128 0xe
 3187 023d 3A       		.uleb128 0x3a
 3188 023e 0B       		.uleb128 0xb
 3189 023f 3B       		.uleb128 0x3b
 3190 0240 05       		.uleb128 0x5
 3191 0241 49       		.uleb128 0x49
 3192 0242 13       		.uleb128 0x13
 3193 0243 3F       		.uleb128 0x3f
 3194 0244 19       		.uleb128 0x19
 3195 0245 3C       		.uleb128 0x3c
 3196 0246 19       		.uleb128 0x19
 3197 0247 00       		.byte	0
 3198 0248 00       		.byte	0
 3199 0249 2D       		.uleb128 0x2d
 3200 024a 2E       		.uleb128 0x2e
 3201 024b 01       		.byte	0x1
 3202 024c 3F       		.uleb128 0x3f
 3203 024d 19       		.uleb128 0x19
 3204 024e 03       		.uleb128 0x3
 3205 024f 0E       		.uleb128 0xe
 3206 0250 3A       		.uleb128 0x3a
 3207 0251 0B       		.uleb128 0xb
 3208 0252 3B       		.uleb128 0x3b
 3209 0253 0B       		.uleb128 0xb
 3210 0254 27       		.uleb128 0x27
 3211 0255 19       		.uleb128 0x19
 3212 0256 49       		.uleb128 0x49
 3213 0257 13       		.uleb128 0x13
 3214 0258 3C       		.uleb128 0x3c
 3215 0259 19       		.uleb128 0x19
 3216 025a 01       		.uleb128 0x1
 3217 025b 13       		.uleb128 0x13
 3218 025c 00       		.byte	0
 3219 025d 00       		.byte	0
 3220 025e 2E       		.uleb128 0x2e
 3221 025f 2E       		.uleb128 0x2e
 3222 0260 01       		.byte	0x1
 3223 0261 3F       		.uleb128 0x3f
 3224 0262 19       		.uleb128 0x19
 3225 0263 03       		.uleb128 0x3
 3226 0264 0E       		.uleb128 0xe
 3227 0265 3A       		.uleb128 0x3a
 3228 0266 0B       		.uleb128 0xb
 3229 0267 3B       		.uleb128 0x3b
ARM GAS  /tmp/ccD25wWi.s 			page 58


 3230 0268 05       		.uleb128 0x5
 3231 0269 27       		.uleb128 0x27
 3232 026a 19       		.uleb128 0x19
 3233 026b 3C       		.uleb128 0x3c
 3234 026c 19       		.uleb128 0x19
 3235 026d 01       		.uleb128 0x1
 3236 026e 13       		.uleb128 0x13
 3237 026f 00       		.byte	0
 3238 0270 00       		.byte	0
 3239 0271 2F       		.uleb128 0x2f
 3240 0272 2E       		.uleb128 0x2e
 3241 0273 01       		.byte	0x1
 3242 0274 3F       		.uleb128 0x3f
 3243 0275 19       		.uleb128 0x19
 3244 0276 03       		.uleb128 0x3
 3245 0277 0E       		.uleb128 0xe
 3246 0278 3A       		.uleb128 0x3a
 3247 0279 0B       		.uleb128 0xb
 3248 027a 3B       		.uleb128 0x3b
 3249 027b 0B       		.uleb128 0xb
 3250 027c 27       		.uleb128 0x27
 3251 027d 19       		.uleb128 0x19
 3252 027e 3C       		.uleb128 0x3c
 3253 027f 19       		.uleb128 0x19
 3254 0280 01       		.uleb128 0x1
 3255 0281 13       		.uleb128 0x13
 3256 0282 00       		.byte	0
 3257 0283 00       		.byte	0
 3258 0284 30       		.uleb128 0x30
 3259 0285 2E       		.uleb128 0x2e
 3260 0286 00       		.byte	0
 3261 0287 3F       		.uleb128 0x3f
 3262 0288 19       		.uleb128 0x19
 3263 0289 03       		.uleb128 0x3
 3264 028a 0E       		.uleb128 0xe
 3265 028b 3A       		.uleb128 0x3a
 3266 028c 0B       		.uleb128 0xb
 3267 028d 3B       		.uleb128 0x3b
 3268 028e 0B       		.uleb128 0xb
 3269 028f 27       		.uleb128 0x27
 3270 0290 19       		.uleb128 0x19
 3271 0291 3C       		.uleb128 0x3c
 3272 0292 19       		.uleb128 0x19
 3273 0293 00       		.byte	0
 3274 0294 00       		.byte	0
 3275 0295 31       		.uleb128 0x31
 3276 0296 2E       		.uleb128 0x2e
 3277 0297 01       		.byte	0x1
 3278 0298 3F       		.uleb128 0x3f
 3279 0299 19       		.uleb128 0x19
 3280 029a 03       		.uleb128 0x3
 3281 029b 0E       		.uleb128 0xe
 3282 029c 3A       		.uleb128 0x3a
 3283 029d 0B       		.uleb128 0xb
 3284 029e 3B       		.uleb128 0x3b
 3285 029f 05       		.uleb128 0x5
 3286 02a0 27       		.uleb128 0x27
ARM GAS  /tmp/ccD25wWi.s 			page 59


 3287 02a1 19       		.uleb128 0x19
 3288 02a2 49       		.uleb128 0x49
 3289 02a3 13       		.uleb128 0x13
 3290 02a4 3C       		.uleb128 0x3c
 3291 02a5 19       		.uleb128 0x19
 3292 02a6 00       		.byte	0
 3293 02a7 00       		.byte	0
 3294 02a8 00       		.byte	0
 3295              		.section	.debug_loc,"",%progbits
 3296              	.Ldebug_loc0:
 3297              	.LLST0:
 3298 0000 00000000 		.4byte	.LVL0
 3299 0004 38000000 		.4byte	.LVL1
 3300 0008 0100     		.2byte	0x1
 3301 000a 50       		.byte	0x50
 3302 000b 38000000 		.4byte	.LVL1
 3303 000f 94000000 		.4byte	.LFE119
 3304 0013 0400     		.2byte	0x4
 3305 0015 F3       		.byte	0xf3
 3306 0016 01       		.uleb128 0x1
 3307 0017 50       		.byte	0x50
 3308 0018 9F       		.byte	0x9f
 3309 0019 00000000 		.4byte	0
 3310 001d 00000000 		.4byte	0
 3311              	.LLST1:
 3312 0021 00000000 		.4byte	.LVL5
 3313 0025 10000000 		.4byte	.LVL7
 3314 0029 0100     		.2byte	0x1
 3315 002b 50       		.byte	0x50
 3316 002c 10000000 		.4byte	.LVL7
 3317 0030 64000000 		.4byte	.LVL12
 3318 0034 0100     		.2byte	0x1
 3319 0036 54       		.byte	0x54
 3320 0037 64000000 		.4byte	.LVL12
 3321 003b 74000000 		.4byte	.LFE118
 3322 003f 0400     		.2byte	0x4
 3323 0041 F3       		.byte	0xf3
 3324 0042 01       		.uleb128 0x1
 3325 0043 50       		.byte	0x50
 3326 0044 9F       		.byte	0x9f
 3327 0045 00000000 		.4byte	0
 3328 0049 00000000 		.4byte	0
 3329              	.LLST2:
 3330 004d 06000000 		.4byte	.LVL6
 3331 0051 10000000 		.4byte	.LVL7
 3332 0055 0100     		.2byte	0x1
 3333 0057 50       		.byte	0x50
 3334 0058 10000000 		.4byte	.LVL7
 3335 005c 64000000 		.4byte	.LVL12
 3336 0060 0100     		.2byte	0x1
 3337 0062 54       		.byte	0x54
 3338 0063 64000000 		.4byte	.LVL12
 3339 0067 74000000 		.4byte	.LFE118
 3340 006b 0400     		.2byte	0x4
 3341 006d F3       		.byte	0xf3
 3342 006e 01       		.uleb128 0x1
 3343 006f 50       		.byte	0x50
ARM GAS  /tmp/ccD25wWi.s 			page 60


 3344 0070 9F       		.byte	0x9f
 3345 0071 00000000 		.4byte	0
 3346 0075 00000000 		.4byte	0
 3347              		.section	.debug_aranges,"",%progbits
 3348 0000 2C000000 		.4byte	0x2c
 3349 0004 0200     		.2byte	0x2
 3350 0006 00000000 		.4byte	.Ldebug_info0
 3351 000a 04       		.byte	0x4
 3352 000b 00       		.byte	0
 3353 000c 0000     		.2byte	0
 3354 000e 0000     		.2byte	0
 3355 0010 00000000 		.4byte	.LFB119
 3356 0014 94000000 		.4byte	.LFE119-.LFB119
 3357 0018 00000000 		.4byte	.LFB118
 3358 001c 74000000 		.4byte	.LFE118-.LFB118
 3359 0020 00000000 		.4byte	.LFB120
 3360 0024 00010000 		.4byte	.LFE120-.LFB120
 3361 0028 00000000 		.4byte	0
 3362 002c 00000000 		.4byte	0
 3363              		.section	.debug_ranges,"",%progbits
 3364              	.Ldebug_ranges0:
 3365 0000 00000000 		.4byte	.LFB119
 3366 0004 94000000 		.4byte	.LFE119
 3367 0008 00000000 		.4byte	.LFB118
 3368 000c 74000000 		.4byte	.LFE118
 3369 0010 00000000 		.4byte	.LFB120
 3370 0014 00010000 		.4byte	.LFE120
 3371 0018 00000000 		.4byte	0
 3372 001c 00000000 		.4byte	0
 3373              		.section	.debug_line,"",%progbits
 3374              	.Ldebug_line0:
 3375 0000 05030000 		.section	.debug_str,"MS",%progbits,1
 3375      02008E02 
 3375      00000201 
 3375      FB0E0D00 
 3375      01010101 
 3376              	.LASF153:
 3377 0000 72786D73 		.ascii	"rxmsg\000"
 3377      6700
 3378              	.LASF85:
 3379 0006 7466756E 		.ascii	"tfunc_t\000"
 3379      635F7400 
 3380              	.LASF177:
 3381 000e 2F686F6D 		.ascii	"/home/seth/marionette-firmware/src/CAN\000"
 3381      652F7365 
 3381      74682F6D 
 3381      6172696F 
 3381      6E657474 
 3382              	.LASF2:
 3383 0035 73697A65 		.ascii	"size_t\000"
 3383      5F7400
 3384              	.LASF136:
 3385 003c 43414E52 		.ascii	"CANRxFrame\000"
 3385      78467261 
 3385      6D6500
 3386              	.LASF80:
 3387 0047 7264796D 		.ascii	"rdymsg\000"
ARM GAS  /tmp/ccD25wWi.s 			page 61


 3387      736700
 3388              	.LASF19:
 3389 004e 75696E74 		.ascii	"uint64_t\000"
 3389      36345F74 
 3389      00
 3390              	.LASF113:
 3391 0057 4F545950 		.ascii	"OTYPER\000"
 3391      455200
 3392              	.LASF3:
 3393 005e 5F5F7569 		.ascii	"__uint8_t\000"
 3393      6E74385F 
 3393      7400
 3394              	.LASF110:
 3395 0068 43414E5F 		.ascii	"CAN_TypeDef\000"
 3395      54797065 
 3395      44656600 
 3396              	.LASF152:
 3397 0074 74786D73 		.ascii	"txmsg\000"
 3397      6700
 3398              	.LASF112:
 3399 007a 4D4F4445 		.ascii	"MODER\000"
 3399      5200
 3400              	.LASF14:
 3401 0080 6C6F6E67 		.ascii	"long long unsigned int\000"
 3401      206C6F6E 
 3401      6720756E 
 3401      7369676E 
 3401      65642069 
 3402              	.LASF115:
 3403 0097 50555044 		.ascii	"PUPDR\000"
 3403      5200
 3404              	.LASF81:
 3405 009d 65786974 		.ascii	"exitcode\000"
 3405      636F6465 
 3405      00
 3406              	.LASF133:
 3407 00a6 64617461 		.ascii	"data32\000"
 3407      333200
 3408              	.LASF167:
 3409 00ad 63684576 		.ascii	"chEvtWaitAnyTimeout\000"
 3409      74576169 
 3409      74416E79 
 3409      54696D65 
 3409      6F757400 
 3410              	.LASF168:
 3411 00c1 63616E52 		.ascii	"canReceive\000"
 3411      65636569 
 3411      766500
 3412              	.LASF12:
 3413 00cc 6C6F6E67 		.ascii	"long long int\000"
 3413      206C6F6E 
 3413      6720696E 
 3413      7400
 3414              	.LASF1:
 3415 00da 7369676E 		.ascii	"signed char\000"
 3415      65642063 
 3415      68617200 
ARM GAS  /tmp/ccD25wWi.s 			page 62


 3416              	.LASF126:
 3417 00e6 43414E5F 		.ascii	"CAN_STARTING\000"
 3417      53544152 
 3417      54494E47 
 3417      00
 3418              	.LASF116:
 3419 00f3 42535252 		.ascii	"BSRR\000"
 3419      00
 3420              	.LASF171:
 3421 00f8 63685379 		.ascii	"chSysInit\000"
 3421      73496E69 
 3421      7400
 3422              	.LASF51:
 3423 0102 705F6D70 		.ascii	"p_mpool\000"
 3423      6F6F6C00 
 3424              	.LASF70:
 3425 010a 6D5F7175 		.ascii	"m_queue\000"
 3425      65756500 
 3426              	.LASF140:
 3427 0112 74787365 		.ascii	"txsem\000"
 3427      6D00
 3428              	.LASF24:
 3429 0118 74736C69 		.ascii	"tslices_t\000"
 3429      6365735F 
 3429      7400
 3430              	.LASF138:
 3431 0122 73746174 		.ascii	"state\000"
 3431      6500
 3432              	.LASF87:
 3433 0128 54444C52 		.ascii	"TDLR\000"
 3433      00
 3434              	.LASF9:
 3435 012d 6C6F6E67 		.ascii	"long int\000"
 3435      20696E74 
 3435      00
 3436              	.LASF22:
 3437 0136 74737461 		.ascii	"tstate_t\000"
 3437      74655F74 
 3437      00
 3438              	.LASF89:
 3439 013f 43414E5F 		.ascii	"CAN_TxMailBox_TypeDef\000"
 3439      54784D61 
 3439      696C426F 
 3439      785F5479 
 3439      70654465 
 3440              	.LASF154:
 3441 0155 63616E31 		.ascii	"can1\000"
 3441      00
 3442              	.LASF42:
 3443 015a 705F7265 		.ascii	"p_refs\000"
 3443      667300
 3444              	.LASF155:
 3445 0161 63616E32 		.ascii	"can2\000"
 3445      00
 3446              	.LASF44:
 3447 0166 705F7469 		.ascii	"p_time\000"
 3447      6D6500
ARM GAS  /tmp/ccD25wWi.s 			page 63


 3448              	.LASF36:
 3449 016d 705F6E65 		.ascii	"p_newer\000"
 3449      77657200 
 3450              	.LASF67:
 3451 0175 735F7175 		.ascii	"s_queue\000"
 3451      65756500 
 3452              	.LASF127:
 3453 017d 43414E5F 		.ascii	"CAN_READY\000"
 3453      52454144 
 3453      5900
 3454              	.LASF173:
 3455 0187 63616E53 		.ascii	"canStart\000"
 3455      74617274 
 3455      00
 3456              	.LASF142:
 3457 0190 72786675 		.ascii	"rxfull_event\000"
 3457      6C6C5F65 
 3457      76656E74 
 3457      00
 3458              	.LASF62:
 3459 019d 725F6E65 		.ascii	"r_newer\000"
 3459      77657200 
 3460              	.LASF54:
 3461 01a5 72656761 		.ascii	"regarm_t\000"
 3461      726D5F74 
 3461      00
 3462              	.LASF135:
 3463 01ae 54494D45 		.ascii	"TIME\000"
 3463      00
 3464              	.LASF86:
 3465 01b3 54445452 		.ascii	"TDTR\000"
 3465      00
 3466              	.LASF78:
 3467 01b8 4576656E 		.ascii	"EventSource\000"
 3467      74536F75 
 3467      72636500 
 3468              	.LASF30:
 3469 01c4 636E745F 		.ascii	"cnt_t\000"
 3469      7400
 3470              	.LASF39:
 3471 01ca 705F7374 		.ascii	"p_stklimit\000"
 3471      6B6C696D 
 3471      697400
 3472              	.LASF0:
 3473 01d5 756E7369 		.ascii	"unsigned int\000"
 3473      676E6564 
 3473      20696E74 
 3473      00
 3474              	.LASF16:
 3475 01e2 75696E74 		.ascii	"uint16_t\000"
 3475      31365F74 
 3475      00
 3476              	.LASF162:
 3477 01eb 43414E44 		.ascii	"CAND1\000"
 3477      3100
 3478              	.LASF163:
 3479 01f1 43414E44 		.ascii	"CAND2\000"
ARM GAS  /tmp/ccD25wWi.s 			page 64


 3479      3200
 3480              	.LASF98:
 3481 01f7 7354784D 		.ascii	"sTxMailBox\000"
 3481      61696C42 
 3481      6F7800
 3482              	.LASF46:
 3483 0202 705F6D73 		.ascii	"p_msgqueue\000"
 3483      67717565 
 3483      756500
 3484              	.LASF120:
 3485 020d 4750494F 		.ascii	"GPIO_TypeDef\000"
 3485      5F547970 
 3485      65446566 
 3485      00
 3486              	.LASF170:
 3487 021a 68616C49 		.ascii	"halInit\000"
 3487      6E697400 
 3488              	.LASF90:
 3489 0222 52445452 		.ascii	"RDTR\000"
 3489      00
 3490              	.LASF134:
 3491 0227 43414E54 		.ascii	"CANTxFrame\000"
 3491      78467261 
 3491      6D6500
 3492              	.LASF117:
 3493 0232 4C434B52 		.ascii	"LCKR\000"
 3493      00
 3494              	.LASF68:
 3495 0237 735F636E 		.ascii	"s_cnt\000"
 3495      7400
 3496              	.LASF7:
 3497 023d 73686F72 		.ascii	"short unsigned int\000"
 3497      7420756E 
 3497      7369676E 
 3497      65642069 
 3497      6E7400
 3498              	.LASF96:
 3499 0250 52463152 		.ascii	"RF1R\000"
 3499      00
 3500              	.LASF94:
 3501 0255 43414E5F 		.ascii	"CAN_FilterRegister_TypeDef\000"
 3501      46696C74 
 3501      65725265 
 3501      67697374 
 3501      65725F54 
 3502              	.LASF165:
 3503 0270 63684576 		.ascii	"chEvtRegisterMask\000"
 3503      74526567 
 3503      69737465 
 3503      724D6173 
 3503      6B00
 3504              	.LASF26:
 3505 0282 6D73675F 		.ascii	"msg_t\000"
 3505      7400
 3506              	.LASF74:
 3507 0288 656C5F6E 		.ascii	"el_next\000"
 3507      65787400 
ARM GAS  /tmp/ccD25wWi.s 			page 65


 3508              	.LASF169:
 3509 0290 63684576 		.ascii	"chEvtUnregister\000"
 3509      74556E72 
 3509      65676973 
 3509      74657200 
 3510              	.LASF176:
 3511 02a0 6D61696E 		.ascii	"main.c\000"
 3511      2E6300
 3512              	.LASF21:
 3513 02a7 746D6F64 		.ascii	"tmode_t\000"
 3513      655F7400 
 3514              	.LASF53:
 3515 02af 54687265 		.ascii	"ThreadsList\000"
 3515      6164734C 
 3515      69737400 
 3516              	.LASF109:
 3517 02bb 7346696C 		.ascii	"sFilterRegister\000"
 3517      74657252 
 3517      65676973 
 3517      74657200 
 3518              	.LASF27:
 3519 02cb 6576656E 		.ascii	"eventmask_t\000"
 3519      746D6173 
 3519      6B5F7400 
 3520              	.LASF175:
 3521 02d7 474E5520 		.ascii	"GNU C 4.9.2 20150128 (prerelease) -mcpu=cortex-m4 -"
 3521      4320342E 
 3521      392E3220 
 3521      32303135 
 3521      30313238 
 3522 030a 6D6E6F2D 		.ascii	"mno-thumb-interwork -mthumb -ggdb -Og -std=gnu99 -f"
 3522      7468756D 
 3522      622D696E 
 3522      74657277 
 3522      6F726B20 
 3523 033d 6F6D6974 		.ascii	"omit-frame-pointer -falign-functions=16 -ffunction-"
 3523      2D667261 
 3523      6D652D70 
 3523      6F696E74 
 3523      6572202D 
 3524 0370 73656374 		.ascii	"sections -fdata-sections -fno-common\000"
 3524      696F6E73 
 3524      202D6664 
 3524      6174612D 
 3524      73656374 
 3525              	.LASF69:
 3526 0395 4D757465 		.ascii	"Mutex\000"
 3526      7800
 3527              	.LASF151:
 3528 039b 63616E5F 		.ascii	"can_rx\000"
 3528      727800
 3529              	.LASF55:
 3530 03a2 73746B61 		.ascii	"stkalign_t\000"
 3530      6C69676E 
 3530      5F7400
 3531              	.LASF174:
 3532 03ad 63685468 		.ascii	"chThdCreateStatic\000"
ARM GAS  /tmp/ccD25wWi.s 			page 66


 3532      64437265 
 3532      61746553 
 3532      74617469 
 3532      6300
 3533              	.LASF105:
 3534 03bf 46464131 		.ascii	"FFA1R\000"
 3534      5200
 3535              	.LASF52:
 3536 03c5 54687265 		.ascii	"ThreadsQueue\000"
 3536      61647351 
 3536      75657565 
 3536      00
 3537              	.LASF28:
 3538 03d2 666C6167 		.ascii	"flagsmask_t\000"
 3538      736D6173 
 3538      6B5F7400 
 3539              	.LASF107:
 3540 03de 46413152 		.ascii	"FA1R\000"
 3540      00
 3541              	.LASF166:
 3542 03e3 63616E54 		.ascii	"canTransmit\000"
 3542      72616E73 
 3542      6D697400 
 3543              	.LASF58:
 3544 03ef 73697A65 		.ascii	"sizetype\000"
 3544      74797065 
 3544      00
 3545              	.LASF122:
 3546 03f8 696F6D6F 		.ascii	"iomode_t\000"
 3546      64655F74 
 3546      00
 3547              	.LASF111:
 3548 0401 636C6561 		.ascii	"clear\000"
 3548      7200
 3549              	.LASF128:
 3550 0407 43414E5F 		.ascii	"CAN_SLEEP\000"
 3550      534C4545 
 3550      5000
 3551              	.LASF156:
 3552 0411 63616E63 		.ascii	"cancfg\000"
 3552      666700
 3553              	.LASF131:
 3554 0418 64617461 		.ascii	"data8\000"
 3554      3800
 3555              	.LASF34:
 3556 041e 705F7072 		.ascii	"p_prio\000"
 3556      696F00
 3557              	.LASF147:
 3558 0425 43414E44 		.ascii	"CANDriver\000"
 3558      72697665 
 3558      7200
 3559              	.LASF121:
 3560 042f 696F706F 		.ascii	"ioportmask_t\000"
 3560      72746D61 
 3560      736B5F74 
 3560      00
 3561              	.LASF37:
ARM GAS  /tmp/ccD25wWi.s 			page 67


 3562 043c 705F6F6C 		.ascii	"p_older\000"
 3562      64657200 
 3563              	.LASF61:
 3564 0444 725F6374 		.ascii	"r_ctx\000"
 3564      7800
 3565              	.LASF148:
 3566 044a 63616E5F 		.ascii	"can_instance\000"
 3566      696E7374 
 3566      616E6365 
 3566      00
 3567              	.LASF114:
 3568 0457 4F535045 		.ascii	"OSPEEDR\000"
 3568      45445200 
 3569              	.LASF88:
 3570 045f 54444852 		.ascii	"TDHR\000"
 3570      00
 3571              	.LASF64:
 3572 0464 725F6375 		.ascii	"r_current\000"
 3572      7272656E 
 3572      7400
 3573              	.LASF63:
 3574 046e 725F6F6C 		.ascii	"r_older\000"
 3574      64657200 
 3575              	.LASF76:
 3576 0476 656C5F6D 		.ascii	"el_mask\000"
 3576      61736B00 
 3577              	.LASF145:
 3578 047e 736C6565 		.ascii	"sleep_event\000"
 3578      705F6576 
 3578      656E7400 
 3579              	.LASF129:
 3580 048a 63616E73 		.ascii	"canstate_t\000"
 3580      74617465 
 3580      5F7400
 3581              	.LASF125:
 3582 0495 43414E5F 		.ascii	"CAN_STOP\000"
 3582      53544F50 
 3582      00
 3583              	.LASF137:
 3584 049e 43414E43 		.ascii	"CANConfig\000"
 3584      6F6E6669 
 3584      6700
 3585              	.LASF13:
 3586 04a8 5F5F7569 		.ascii	"__uint64_t\000"
 3586      6E743634 
 3586      5F7400
 3587              	.LASF119:
 3588 04b3 41465248 		.ascii	"AFRH\000"
 3588      00
 3589              	.LASF144:
 3590 04b8 6572726F 		.ascii	"error_event\000"
 3590      725F6576 
 3590      656E7400 
 3591              	.LASF118:
 3592 04c4 4146524C 		.ascii	"AFRL\000"
 3592      00
 3593              	.LASF23:
ARM GAS  /tmp/ccD25wWi.s 			page 68


 3594 04c9 74726566 		.ascii	"trefs_t\000"
 3594      735F7400 
 3595              	.LASF97:
 3596 04d1 52455345 		.ascii	"RESERVED0\000"
 3596      52564544 
 3596      3000
 3597              	.LASF100:
 3598 04db 52455345 		.ascii	"RESERVED1\000"
 3598      52564544 
 3598      3100
 3599              	.LASF102:
 3600 04e5 52455345 		.ascii	"RESERVED2\000"
 3600      52564544 
 3600      3200
 3601              	.LASF104:
 3602 04ef 52455345 		.ascii	"RESERVED3\000"
 3602      52564544 
 3602      3300
 3603              	.LASF106:
 3604 04f9 52455345 		.ascii	"RESERVED4\000"
 3604      52564544 
 3604      3400
 3605              	.LASF33:
 3606 0503 705F7072 		.ascii	"p_prev\000"
 3606      657600
 3607              	.LASF25:
 3608 050a 74707269 		.ascii	"tprio_t\000"
 3608      6F5F7400 
 3609              	.LASF124:
 3610 0512 43414E5F 		.ascii	"CAN_UNINIT\000"
 3610      554E494E 
 3610      495400
 3611              	.LASF20:
 3612 051d 5F426F6F 		.ascii	"_Bool\000"
 3612      6C00
 3613              	.LASF17:
 3614 0523 696E7433 		.ascii	"int32_t\000"
 3614      325F7400 
 3615              	.LASF4:
 3616 052b 756E7369 		.ascii	"unsigned char\000"
 3616      676E6564 
 3616      20636861 
 3616      7200
 3617              	.LASF146:
 3618 0539 77616B65 		.ascii	"wakeup_event\000"
 3618      75705F65 
 3618      76656E74 
 3618      00
 3619              	.LASF75:
 3620 0546 656C5F6C 		.ascii	"el_listener\000"
 3620      69737465 
 3620      6E657200 
 3621              	.LASF161:
 3622 0552 49544D5F 		.ascii	"ITM_RxBuffer\000"
 3622      52784275 
 3622      66666572 
 3622      00
ARM GAS  /tmp/ccD25wWi.s 			page 69


 3623              	.LASF77:
 3624 055f 656C5F66 		.ascii	"el_flags\000"
 3624      6C616773 
 3624      00
 3625              	.LASF49:
 3626 0568 705F6D74 		.ascii	"p_mtxlist\000"
 3626      786C6973 
 3626      7400
 3627              	.LASF5:
 3628 0572 73686F72 		.ascii	"short int\000"
 3628      7420696E 
 3628      7400
 3629              	.LASF40:
 3630 057c 705F7374 		.ascii	"p_state\000"
 3630      61746500 
 3631              	.LASF43:
 3632 0584 705F7072 		.ascii	"p_preempt\000"
 3632      65656D70 
 3632      7400
 3633              	.LASF60:
 3634 058e 725F7072 		.ascii	"r_prio\000"
 3634      696F00
 3635              	.LASF83:
 3636 0595 65776D61 		.ascii	"ewmask\000"
 3636      736B00
 3637              	.LASF32:
 3638 059c 705F6E65 		.ascii	"p_next\000"
 3638      787400
 3639              	.LASF41:
 3640 05a3 705F666C 		.ascii	"p_flags\000"
 3640      61677300 
 3641              	.LASF101:
 3642 05ab 464D3152 		.ascii	"FM1R\000"
 3642      00
 3643              	.LASF31:
 3644 05b0 54687265 		.ascii	"Thread\000"
 3644      616400
 3645              	.LASF150:
 3646 05b7 63616E5F 		.ascii	"can_tx\000"
 3646      747800
 3647              	.LASF159:
 3648 05be 63616E5F 		.ascii	"can_tx_wa\000"
 3648      74785F77 
 3648      6100
 3649              	.LASF48:
 3650 05c8 705F6570 		.ascii	"p_epending\000"
 3650      656E6469 
 3650      6E6700
 3651              	.LASF108:
 3652 05d3 52455345 		.ascii	"RESERVED5\000"
 3652      52564544 
 3652      3500
 3653              	.LASF149:
 3654 05dd 63616E70 		.ascii	"canp\000"
 3654      00
 3655              	.LASF18:
 3656 05e2 75696E74 		.ascii	"uint32_t\000"
ARM GAS  /tmp/ccD25wWi.s 			page 70


 3656      33325F74 
 3656      00
 3657              	.LASF59:
 3658 05eb 725F7175 		.ascii	"r_queue\000"
 3658      65756500 
 3659              	.LASF143:
 3660 05f3 7478656D 		.ascii	"txempty_event\000"
 3660      7074795F 
 3660      6576656E 
 3660      7400
 3661              	.LASF11:
 3662 0601 6C6F6E67 		.ascii	"long unsigned int\000"
 3662      20756E73 
 3662      69676E65 
 3662      6420696E 
 3662      7400
 3663              	.LASF84:
 3664 0613 63686172 		.ascii	"char\000"
 3664      00
 3665              	.LASF139:
 3666 0618 636F6E66 		.ascii	"config\000"
 3666      696700
 3667              	.LASF157:
 3668 061f 63616E5F 		.ascii	"can_rx1_wa\000"
 3668      7278315F 
 3668      776100
 3669              	.LASF6:
 3670 062a 5F5F7569 		.ascii	"__uint16_t\000"
 3670      6E743136 
 3670      5F7400
 3671              	.LASF92:
 3672 0635 52444852 		.ascii	"RDHR\000"
 3672      00
 3673              	.LASF72:
 3674 063a 6D5F6E65 		.ascii	"m_next\000"
 3674      787400
 3675              	.LASF29:
 3676 0641 73797374 		.ascii	"systime_t\000"
 3676      696D655F 
 3676      7400
 3677              	.LASF50:
 3678 064b 705F7265 		.ascii	"p_realprio\000"
 3678      616C7072 
 3678      696F00
 3679              	.LASF8:
 3680 0656 5F5F696E 		.ascii	"__int32_t\000"
 3680      7433325F 
 3680      7400
 3681              	.LASF10:
 3682 0660 5F5F7569 		.ascii	"__uint32_t\000"
 3682      6E743332 
 3682      5F7400
 3683              	.LASF99:
 3684 066b 73464946 		.ascii	"sFIFOMailBox\000"
 3684      4F4D6169 
 3684      6C426F78 
 3684      00
ARM GAS  /tmp/ccD25wWi.s 			page 71


 3685              	.LASF123:
 3686 0678 696F706F 		.ascii	"ioportid_t\000"
 3686      72746964 
 3686      5F7400
 3687              	.LASF57:
 3688 0683 636F6E74 		.ascii	"context\000"
 3688      65787400 
 3689              	.LASF172:
 3690 068b 5F70616C 		.ascii	"_pal_lld_setgroupmode\000"
 3690      5F6C6C64 
 3690      5F736574 
 3690      67726F75 
 3690      706D6F64 
 3691              	.LASF56:
 3692 06a1 696E7463 		.ascii	"intctx\000"
 3692      747800
 3693              	.LASF66:
 3694 06a8 53656D61 		.ascii	"Semaphore\000"
 3694      70686F72 
 3694      6500
 3695              	.LASF132:
 3696 06b2 64617461 		.ascii	"data16\000"
 3696      313600
 3697              	.LASF103:
 3698 06b9 46533152 		.ascii	"FS1R\000"
 3698      00
 3699              	.LASF164:
 3700 06be 63685468 		.ascii	"chThdSleep\000"
 3700      64536C65 
 3700      657000
 3701              	.LASF38:
 3702 06c9 705F6E61 		.ascii	"p_name\000"
 3702      6D6500
 3703              	.LASF79:
 3704 06d0 65735F6E 		.ascii	"es_next\000"
 3704      65787400 
 3705              	.LASF65:
 3706 06d8 52656164 		.ascii	"ReadyList\000"
 3706      794C6973 
 3706      7400
 3707              	.LASF93:
 3708 06e2 43414E5F 		.ascii	"CAN_FIFOMailBox_TypeDef\000"
 3708      4649464F 
 3708      4D61696C 
 3708      426F785F 
 3708      54797065 
 3709              	.LASF160:
 3710 06fa 726C6973 		.ascii	"rlist\000"
 3710      7400
 3711              	.LASF15:
 3712 0700 75696E74 		.ascii	"uint8_t\000"
 3712      385F7400 
 3713              	.LASF141:
 3714 0708 72787365 		.ascii	"rxsem\000"
 3714      6D00
 3715              	.LASF73:
 3716 070e 4576656E 		.ascii	"EventListener\000"
ARM GAS  /tmp/ccD25wWi.s 			page 72


 3716      744C6973 
 3716      74656E65 
 3716      7200
 3717              	.LASF82:
 3718 071c 77746F62 		.ascii	"wtobjp\000"
 3718      6A7000
 3719              	.LASF95:
 3720 0723 52463052 		.ascii	"RF0R\000"
 3720      00
 3721              	.LASF130:
 3722 0728 63616E6D 		.ascii	"canmbx_t\000"
 3722      62785F74 
 3722      00
 3723              	.LASF47:
 3724 0731 705F6D73 		.ascii	"p_msg\000"
 3724      6700
 3725              	.LASF158:
 3726 0737 63616E5F 		.ascii	"can_rx2_wa\000"
 3726      7278325F 
 3726      776100
 3727              	.LASF91:
 3728 0742 52444C52 		.ascii	"RDLR\000"
 3728      00
 3729              	.LASF178:
 3730 0747 6D61696E 		.ascii	"main\000"
 3730      00
 3731              	.LASF71:
 3732 074c 6D5F6F77 		.ascii	"m_owner\000"
 3732      6E657200 
 3733              	.LASF35:
 3734 0754 705F6374 		.ascii	"p_ctx\000"
 3734      7800
 3735              	.LASF45:
 3736 075a 705F7761 		.ascii	"p_waiting\000"
 3736      6974696E 
 3736      6700
 3737              		.ident	"GCC: (Arch Repository) 4.9.2 20150128 (prerelease)"
ARM GAS  /tmp/ccD25wWi.s 			page 73


DEFINED SYMBOLS
                            *ABS*:0000000000000000 main.c
     /tmp/ccD25wWi.s:19     .text.can_tx:0000000000000000 $t
     /tmp/ccD25wWi.s:24     .text.can_tx:0000000000000000 can_tx
     /tmp/ccD25wWi.s:105    .text.can_tx:0000000000000078 $d
     /tmp/ccD25wWi.s:116    .text.can_rx:0000000000000000 $t
     /tmp/ccD25wWi.s:121    .text.can_rx:0000000000000000 can_rx
     /tmp/ccD25wWi.s:200    .text.can_rx:0000000000000064 $d
     /tmp/ccD25wWi.s:208    .text.main:0000000000000000 $t
     /tmp/ccD25wWi.s:214    .text.main:0000000000000000 main
     /tmp/ccD25wWi.s:336    .text.main:00000000000000d0 $d
     /tmp/ccD25wWi.s:352    .bss.can_rx2_wa:0000000000000000 $d
     /tmp/ccD25wWi.s:356    .bss.can_rx2_wa:0000000000000000 can_rx2_wa
     /tmp/ccD25wWi.s:359    .rodata.cancfg:0000000000000000 $d
     /tmp/ccD25wWi.s:363    .rodata.cancfg:0000000000000000 cancfg
     /tmp/ccD25wWi.s:367    .bss.can_tx_wa:0000000000000000 $d
     /tmp/ccD25wWi.s:371    .bss.can_tx_wa:0000000000000000 can_tx_wa
     /tmp/ccD25wWi.s:374    .rodata.can1:0000000000000000 $d
     /tmp/ccD25wWi.s:378    .rodata.can1:0000000000000000 can1
     /tmp/ccD25wWi.s:382    .rodata.str1.4:0000000000000000 $d
     /tmp/ccD25wWi.s:388    .rodata.can2:0000000000000000 $d
     /tmp/ccD25wWi.s:392    .rodata.can2:0000000000000000 can2
     /tmp/ccD25wWi.s:396    .bss.can_rx1_wa:0000000000000000 $d
     /tmp/ccD25wWi.s:400    .bss.can_rx1_wa:0000000000000000 can_rx1_wa
                     .debug_frame:0000000000000010 $d
     /tmp/ccD25wWi.s:115    .text.can_tx:0000000000000094 $t
     /tmp/ccD25wWi.s:207    .text.can_rx:0000000000000074 $t

UNDEFINED SYMBOLS
canTransmit
chThdSleep
rlist
CAND1
CAND2
chEvtRegisterMask
chEvtWaitAnyTimeout
canReceive
chEvtUnregister
halInit
chSysInit
_pal_lld_setgroupmode
canStart
chThdCreateStatic
