ARM GAS  /tmp/ccs5rMlo.s 			page 1


   1              		.syntax unified
   2              		.cpu cortex-m4
   3              		.fpu softvfp
   4              		.eabi_attribute 20, 1
   5              		.eabi_attribute 21, 1
   6              		.eabi_attribute 23, 3
   7              		.eabi_attribute 24, 1
   8              		.eabi_attribute 25, 1
   9              		.eabi_attribute 26, 1
  10              		.eabi_attribute 30, 1
  11              		.eabi_attribute 34, 1
  12              		.eabi_attribute 18, 4
  13              		.thumb
  14              		.file	"main.c"
  15              		.text
  16              	.Ltext0:
  17              		.cfi_sections	.debug_frame
  18              		.section	.text.can_tx,"ax",%progbits
  19              		.align	2
  20              		.p2align 4,,15
  21              		.thumb
  22              		.thumb_func
  23              		.type	can_tx, %function
  24              	can_tx:
  25              	.LFB119:
  26              		.file 1 "main.c"
  27              		.loc 1 69 0
  28              		.cfi_startproc
  29              		@ args = 0, pretend = 0, frame = 16
  30              		@ frame_needed = 0, uses_anonymous_args = 0
  31              	.LVL0:
  32 0000 00B5     		push	{lr}
  33              		.cfi_def_cfa_offset 4
  34              		.cfi_offset 14, -4
  35 0002 85B0     		sub	sp, sp, #20
  36              		.cfi_def_cfa_offset 24
  37              		.loc 1 73 0
  38 0004 1A4B     		ldr	r3, .L5
  39 0006 9B69     		ldr	r3, [r3, #24]
  40 0008 1A4A     		ldr	r2, .L5+4
  41 000a 9A61     		str	r2, [r3, #24]
  42              		.loc 1 74 0
  43 000c 9DF80030 		ldrb	r3, [sp]	@ zero_extendqisi2
  44              		.loc 1 75 0
  45 0010 019A     		ldr	r2, [sp, #4]
  46 0012 1949     		ldr	r1, .L5+8
  47 0014 61F31C02 		bfi	r2, r1, #0, #29
  48 0018 0192     		str	r2, [sp, #4]
  49              		.loc 1 76 0
  50 001a 43F02003 		orr	r3, r3, #32
  51              		.loc 1 77 0
  52 001e 03F0EF03 		and	r3, r3, #239
  53 0022 0822     		movs	r2, #8
  54 0024 62F30303 		bfi	r3, r2, #0, #4
  55 0028 8DF80030 		strb	r3, [sp]
  56              		.loc 1 78 0
  57 002c 134B     		ldr	r3, .L5+12
ARM GAS  /tmp/ccs5rMlo.s 			page 2


  58 002e 0293     		str	r3, [sp, #8]
  59              		.loc 1 79 0
  60 0030 4FF0FF13 		mov	r3, #16711935
  61 0034 0393     		str	r3, [sp, #12]
  62              		.loc 1 81 0
  63 0036 0FE0     		b	.L2
  64              	.LVL1:
  65              	.L3:
  66              		.loc 1 82 0
  67 0038 1148     		ldr	r0, .L5+16
  68 003a 0021     		movs	r1, #0
  69 003c 6A46     		mov	r2, sp
  70 003e 6423     		movs	r3, #100
  71 0040 FFF7FEFF 		bl	canTransmit
  72              	.LVL2:
  73              		.loc 1 83 0
  74 0044 0F48     		ldr	r0, .L5+20
  75 0046 0021     		movs	r1, #0
  76 0048 6A46     		mov	r2, sp
  77 004a 6423     		movs	r3, #100
  78 004c FFF7FEFF 		bl	canTransmit
  79              	.LVL3:
  80              		.loc 1 84 0
  81 0050 4FF4FA70 		mov	r0, #500
  82 0054 FFF7FEFF 		bl	chThdSleep
  83              	.LVL4:
  84              	.L2:
  85              		.loc 1 81 0
  86 0058 054B     		ldr	r3, .L5
  87 005a 9B69     		ldr	r3, [r3, #24]
  88 005c 93F82130 		ldrb	r3, [r3, #33]	@ zero_extendqisi2
  89 0060 13F0040F 		tst	r3, #4
  90 0064 E8D0     		beq	.L3
  91              		.loc 1 87 0
  92 0066 0020     		movs	r0, #0
  93 0068 05B0     		add	sp, sp, #20
  94              		.cfi_def_cfa_offset 4
  95              		@ sp needed
  96 006a 5DF804FB 		ldr	pc, [sp], #4
  97              	.L6:
  98 006e 00BF     		.align	2
  99              	.L5:
 100 0070 00000000 		.word	rlist
 101 0074 00000000 		.word	.LC0
 102 0078 67452301 		.word	19088743
 103 007c AA55AA55 		.word	1437226410
 104 0080 00000000 		.word	CAND1
 105 0084 00000000 		.word	CAND2
 106              		.cfi_endproc
 107              	.LFE119:
 108              		.size	can_tx, .-can_tx
 109 0088 AFF30080 		.section	.text.can_rx,"ax",%progbits
 109      AFF30080 
 110              		.align	2
 111              		.p2align 4,,15
 112              		.thumb
 113              		.thumb_func
ARM GAS  /tmp/ccs5rMlo.s 			page 3


 114              		.type	can_rx, %function
 115              	can_rx:
 116              	.LFB118:
 117              		.loc 1 44 0
 118              		.cfi_startproc
 119              		@ args = 0, pretend = 0, frame = 40
 120              		@ frame_needed = 0, uses_anonymous_args = 0
 121              	.LVL5:
 122 0000 10B5     		push	{r4, lr}
 123              		.cfi_def_cfa_offset 8
 124              		.cfi_offset 4, -8
 125              		.cfi_offset 14, -4
 126 0002 8AB0     		sub	sp, sp, #40
 127              		.cfi_def_cfa_offset 48
 128 0004 0446     		mov	r4, r0
 129              	.LVL6:
 130              		.loc 1 50 0
 131 0006 174B     		ldr	r3, .L14
 132 0008 9B69     		ldr	r3, [r3, #24]
 133 000a 174A     		ldr	r2, .L14+4
 134 000c 9A61     		str	r2, [r3, #24]
 135              		.loc 1 51 0
 136 000e 0068     		ldr	r0, [r0]
 137              	.LVL7:
 138 0010 2030     		adds	r0, r0, #32
 139 0012 06A9     		add	r1, sp, #24
 140 0014 0122     		movs	r2, #1
 141 0016 FFF7FEFF 		bl	chEvtRegisterMask
 142              	.LVL8:
 143              		.loc 1 52 0
 144 001a 15E0     		b	.L8
 145              	.L12:
 146              		.loc 1 53 0
 147 001c 4FF0FF30 		mov	r0, #-1
 148 0020 6421     		movs	r1, #100
 149 0022 FFF7FEFF 		bl	chEvtWaitAnyTimeout
 150              	.LVL9:
 151 0026 78B1     		cbz	r0, .L8
 152 0028 06E0     		b	.L10
 153              	.L11:
 154              		.loc 1 58 0
 155 002a 104A     		ldr	r2, .L14+8
 156 002c 5169     		ldr	r1, [r2, #20]
 157 002e 6068     		ldr	r0, [r4, #4]
 158 0030 0123     		movs	r3, #1
 159 0032 8340     		lsls	r3, r3, r0
 160 0034 4B40     		eors	r3, r3, r1
 161 0036 5361     		str	r3, [r2, #20]
 162              	.L10:
 163              		.loc 1 55 0
 164 0038 2068     		ldr	r0, [r4]
 165 003a 0021     		movs	r1, #0
 166 003c 01AA     		add	r2, sp, #4
 167 003e 0B46     		mov	r3, r1
 168 0040 FFF7FEFF 		bl	canReceive
 169              	.LVL10:
 170 0044 0028     		cmp	r0, #0
ARM GAS  /tmp/ccs5rMlo.s 			page 4


 171 0046 F0D0     		beq	.L11
 172              	.L8:
 173              		.loc 1 52 0
 174 0048 064B     		ldr	r3, .L14
 175 004a 9B69     		ldr	r3, [r3, #24]
 176 004c 93F82130 		ldrb	r3, [r3, #33]	@ zero_extendqisi2
 177 0050 13F0040F 		tst	r3, #4
 178 0054 E2D0     		beq	.L12
 179              		.loc 1 61 0
 180 0056 0648     		ldr	r0, .L14+12
 181 0058 06A9     		add	r1, sp, #24
 182 005a FFF7FEFF 		bl	chEvtUnregister
 183              	.LVL11:
 184              		.loc 1 63 0
 185 005e 0020     		movs	r0, #0
 186 0060 0AB0     		add	sp, sp, #40
 187              		.cfi_def_cfa_offset 8
 188              		@ sp needed
 189 0062 10BD     		pop	{r4, pc}
 190              	.LVL12:
 191              	.L15:
 192              		.align	2
 193              	.L14:
 194 0064 00000000 		.word	rlist
 195 0068 0C000000 		.word	.LC1
 196 006c 000C0240 		.word	1073875968
 197 0070 20000000 		.word	CAND1+32
 198              		.cfi_endproc
 199              	.LFE118:
 200              		.size	can_rx, .-can_rx
 201 0074 AFF30080 		.section	.text.main,"ax",%progbits
 201      AFF30080 
 201      AFF30080 
 202              		.align	2
 203              		.p2align 4,,15
 204              		.global	main
 205              		.thumb
 206              		.thumb_func
 207              		.type	main, %function
 208              	main:
 209              	.LFB120:
 210              		.loc 1 92 0
 211              		.cfi_startproc
 212              		@ Volatile: function does not return.
 213              		@ args = 0, pretend = 0, frame = 0
 214              		@ frame_needed = 0, uses_anonymous_args = 0
 215 0000 00B5     		push	{lr}
 216              		.cfi_def_cfa_offset 4
 217              		.cfi_offset 14, -4
 218 0002 83B0     		sub	sp, sp, #12
 219              		.cfi_def_cfa_offset 16
 220              		.loc 1 101 0
 221 0004 FFF7FEFF 		bl	halInit
 222              	.LVL13:
 223              		.loc 1 102 0
 224 0008 FFF7FEFF 		bl	chSysInit
 225              	.LVL14:
ARM GAS  /tmp/ccs5rMlo.s 			page 5


 226              		.loc 1 107 0
 227 000c 1B4C     		ldr	r4, .L19
 228 000e 1C48     		ldr	r0, .L19+4
 229 0010 2146     		mov	r1, r4
 230 0012 FFF7FEFF 		bl	canStart
 231              	.LVL15:
 232              		.loc 1 108 0
 233 0016 1B48     		ldr	r0, .L19+8
 234 0018 2146     		mov	r1, r4
 235 001a FFF7FEFF 		bl	canStart
 236              	.LVL16:
 237              		.loc 1 113 0
 238 001e 1A4C     		ldr	r4, .L19+12
 239 0020 1A4B     		ldr	r3, .L19+16
 240 0022 0093     		str	r3, [sp]
 241 0024 1A48     		ldr	r0, .L19+20
 242 0026 4FF4E871 		mov	r1, #464
 243 002a 4722     		movs	r2, #71
 244 002c 2346     		mov	r3, r4
 245 002e FFF7FEFF 		bl	chThdCreateStatic
 246              	.LVL17:
 247              		.loc 1 115 0
 248 0032 184B     		ldr	r3, .L19+24
 249 0034 0093     		str	r3, [sp]
 250 0036 1848     		ldr	r0, .L19+28
 251 0038 4FF4E871 		mov	r1, #464
 252 003c 4722     		movs	r2, #71
 253 003e 2346     		mov	r3, r4
 254 0040 FFF7FEFF 		bl	chThdCreateStatic
 255              	.LVL18:
 256              		.loc 1 117 0
 257 0044 0023     		movs	r3, #0
 258 0046 0093     		str	r3, [sp]
 259 0048 1448     		ldr	r0, .L19+32
 260 004a 4FF4E871 		mov	r1, #464
 261 004e 4722     		movs	r2, #71
 262 0050 134B     		ldr	r3, .L19+36
 263 0052 FFF7FEFF 		bl	chThdCreateStatic
 264              	.LVL19:
 265              		.loc 1 123 0
 266 0056 1348     		ldr	r0, .L19+40
 267 0058 0421     		movs	r1, #4
 268 005a 0122     		movs	r2, #1
 269 005c FFF7FEFF 		bl	_pal_lld_setgroupmode
 270              	.LVL20:
 271              	.L17:
 272              		.loc 1 125 0 discriminator 1
 273 0060 104C     		ldr	r4, .L19+40
 274 0062 0425     		movs	r5, #4
 275 0064 2583     		strh	r5, [r4, #24]	@ movhi
 276              		.loc 1 126 0 discriminator 1
 277 0066 4FF4FA70 		mov	r0, #500
 278 006a FFF7FEFF 		bl	chThdSleep
 279              	.LVL21:
 280              		.loc 1 127 0 discriminator 1
 281 006e 6583     		strh	r5, [r4, #26]	@ movhi
 282              		.loc 1 128 0 discriminator 1
ARM GAS  /tmp/ccs5rMlo.s 			page 6


 283 0070 4FF4FA70 		mov	r0, #500
 284 0074 FFF7FEFF 		bl	chThdSleep
 285              	.LVL22:
 286              		.loc 1 129 0 discriminator 1
 287 0078 F2E7     		b	.L17
 288              	.L20:
 289 007a 00BF     		.align	2
 290              	.L19:
 291 007c 00000000 		.word	.LANCHOR0
 292 0080 00000000 		.word	CAND1
 293 0084 00000000 		.word	CAND2
 294 0088 00000000 		.word	can_rx
 295 008c 00000000 		.word	.LANCHOR2
 296 0090 00000000 		.word	.LANCHOR1
 297 0094 00000000 		.word	.LANCHOR4
 298 0098 00000000 		.word	.LANCHOR3
 299 009c 00000000 		.word	.LANCHOR5
 300 00a0 00000000 		.word	can_tx
 301 00a4 00100240 		.word	1073876992
 302              		.cfi_endproc
 303              	.LFE120:
 304              		.size	main, .-main
 305 00a8 AFF30080 		.section	.bss.can_rx2_wa,"aw",%nobits
 305      AFF30080 
 306              		.align	3
 307              		.set	.LANCHOR3,. + 0
 308              		.type	can_rx2_wa, %object
 309              		.size	can_rx2_wa, 464
 310              	can_rx2_wa:
 311 0000 00000000 		.space	464
 311      00000000 
 311      00000000 
 311      00000000 
 311      00000000 
 312              		.section	.rodata.cancfg,"a",%progbits
 313              		.align	2
 314              		.set	.LANCHOR0,. + 0
 315              		.type	cancfg, %object
 316              		.size	cancfg, 8
 317              	cancfg:
 318 0000 64000000 		.word	100
 319 0004 06001840 		.word	1075314694
 320              		.section	.bss.can_tx_wa,"aw",%nobits
 321              		.align	3
 322              		.set	.LANCHOR5,. + 0
 323              		.type	can_tx_wa, %object
 324              		.size	can_tx_wa, 464
 325              	can_tx_wa:
 326 0000 00000000 		.space	464
 326      00000000 
 326      00000000 
 326      00000000 
 326      00000000 
 327              		.section	.rodata.can1,"a",%progbits
 328              		.align	2
 329              		.set	.LANCHOR2,. + 0
 330              		.type	can1, %object
ARM GAS  /tmp/ccs5rMlo.s 			page 7


 331              		.size	can1, 8
 332              	can1:
 333 0000 00000000 		.word	CAND1
 334 0004 0D000000 		.word	13
 335              		.section	.rodata.str1.4,"aMS",%progbits,1
 336              		.align	2
 337              	.LC0:
 338 0000 7472616E 		.ascii	"transmitter\000"
 338      736D6974 
 338      74657200 
 339              	.LC1:
 340 000c 72656365 		.ascii	"receiver\000"
 340      69766572 
 340      00
 341 0015 000000   		.section	.rodata.can2,"a",%progbits
 342              		.align	2
 343              		.set	.LANCHOR4,. + 0
 344              		.type	can2, %object
 345              		.size	can2, 8
 346              	can2:
 347 0000 00000000 		.word	CAND2
 348 0004 0E000000 		.word	14
 349              		.section	.bss.can_rx1_wa,"aw",%nobits
 350              		.align	3
 351              		.set	.LANCHOR1,. + 0
 352              		.type	can_rx1_wa, %object
 353              		.size	can_rx1_wa, 464
 354              	can_rx1_wa:
 355 0000 00000000 		.space	464
 355      00000000 
 355      00000000 
 355      00000000 
 355      00000000 
 356              		.text
 357              	.Letext0:
 358              		.file 2 "/usr/lib/gcc/arm-none-eabi/4.9.2/include/stddef.h"
 359              		.file 3 "/usr/arm-none-eabi/include/machine/_default_types.h"
 360              		.file 4 "/usr/arm-none-eabi/include/stdint.h"
 361              		.file 5 "../../ChibiOS-RT/os/ports/GCC/ARMCMx/chtypes.h"
 362              		.file 6 "../../ChibiOS-RT/os/kernel/include/chlists.h"
 363              		.file 7 "../../ChibiOS-RT/os/kernel/include/chthreads.h"
 364              		.file 8 "../../ChibiOS-RT/os/ports/GCC/ARMCMx/chcore_v7m.h"
 365              		.file 9 "../../ChibiOS-RT/os/kernel/include/chschd.h"
 366              		.file 10 "../../ChibiOS-RT/os/kernel/include/chsem.h"
 367              		.file 11 "../../ChibiOS-RT/os/kernel/include/chmtx.h"
 368              		.file 12 "../../ChibiOS-RT/os/kernel/include/chevents.h"
 369              		.file 13 "../../ChibiOS-RT/os/hal/platforms/STM32F4xx/stm32f4xx.h"
 370              		.file 14 "../../ChibiOS-RT/os/hal/platforms/STM32/GPIOv2/pal_lld.h"
 371              		.file 15 "../../ChibiOS-RT/os/hal/include/can.h"
 372              		.file 16 "../../ChibiOS-RT/os/hal/platforms/STM32/can_lld.h"
 373              		.file 17 "../../ChibiOS-RT/os/ports/common/ARMCMx/CMSIS/include/core_cm4.h"
 374              		.file 18 "../../ChibiOS-RT/os/hal/include/hal.h"
 375              		.file 19 "../../ChibiOS-RT/os/kernel/include/chsys.h"