ARM GAS  /tmp/ccUh5hAd.s 			page 1


   1              		.syntax unified
   2              		.cpu cortex-m4
   3              		.fpu softvfp
   4              		.eabi_attribute 20, 1
   5              		.eabi_attribute 21, 1
   6              		.eabi_attribute 23, 3
   7              		.eabi_attribute 24, 1
   8              		.eabi_attribute 25, 1
   9              		.eabi_attribute 26, 1
  10              		.eabi_attribute 30, 1
  11              		.eabi_attribute 34, 1
  12              		.eabi_attribute 18, 4
  13              		.thumb
  14              		.file	"memstreams.c"
  15              		.text
  16              	.Ltext0:
  17              		.cfi_sections	.debug_frame
  18              		.section	.text.put,"ax",%progbits
  19              		.align	2
  20              		.p2align 4,,15
  21              		.thumb
  22              		.thumb_func
  23              		.type	put, %function
  24              	put:
  25              	.LFB9:
  26              		.file 1 "../../ChibiOS-RT/os/various/memstreams.c"
  27              		.loc 1 66 0
  28              		.cfi_startproc
  29              		@ args = 0, pretend = 0, frame = 0
  30              		@ frame_needed = 0, uses_anonymous_args = 0
  31              		@ link register save eliminated.
  32              	.LVL0:
  33              		.loc 1 69 0
  34 0000 8268     		ldr	r2, [r0, #8]
  35 0002 C368     		ldr	r3, [r0, #12]
  36 0004 9A42     		cmp	r2, r3
  37 0006 06D0     		beq	.L3
  38              		.loc 1 71 0
  39 0008 4268     		ldr	r2, [r0, #4]
  40 000a D154     		strb	r1, [r2, r3]
  41              		.loc 1 72 0
  42 000c C368     		ldr	r3, [r0, #12]
  43 000e 0133     		adds	r3, r3, #1
  44 0010 C360     		str	r3, [r0, #12]
  45              		.loc 1 73 0
  46 0012 0020     		movs	r0, #0
  47              	.LVL1:
  48 0014 7047     		bx	lr
  49              	.LVL2:
  50              	.L3:
  51              		.loc 1 70 0
  52 0016 6FF00100 		mvn	r0, #1
  53              	.LVL3:
  54              		.loc 1 74 0
  55 001a 7047     		bx	lr
  56              		.cfi_endproc
  57              	.LFE9:
ARM GAS  /tmp/ccUh5hAd.s 			page 2


  58              		.size	put, .-put
  59 001c AFF30080 		.section	.text.get,"ax",%progbits
  60              		.align	2
  61              		.p2align 4,,15
  62              		.thumb
  63              		.thumb_func
  64              		.type	get, %function
  65              	get:
  66              	.LFB10:
  67              		.loc 1 76 0
  68              		.cfi_startproc
  69              		@ args = 0, pretend = 0, frame = 0
  70              		@ frame_needed = 0, uses_anonymous_args = 0
  71              		@ link register save eliminated.
  72              	.LVL4:
  73              		.loc 1 80 0
  74 0000 C268     		ldr	r2, [r0, #12]
  75 0002 0369     		ldr	r3, [r0, #16]
  76 0004 9A42     		cmp	r2, r3
  77 0006 05D0     		beq	.L6
  78              		.loc 1 82 0
  79 0008 4268     		ldr	r2, [r0, #4]
  80 000a D25C     		ldrb	r2, [r2, r3]	@ zero_extendqisi2
  81              	.LVL5:
  82              		.loc 1 83 0
  83 000c 0133     		adds	r3, r3, #1
  84 000e 0361     		str	r3, [r0, #16]
  85              		.loc 1 84 0
  86 0010 1046     		mov	r0, r2
  87              	.LVL6:
  88 0012 7047     		bx	lr
  89              	.LVL7:
  90              	.L6:
  91              		.loc 1 81 0
  92 0014 6FF00100 		mvn	r0, #1
  93              	.LVL8:
  94              		.loc 1 85 0
  95 0018 7047     		bx	lr
  96              		.cfi_endproc
  97              	.LFE10:
  98              		.size	get, .-get
  99 001a 00BFAFF3 		.section	.text.reads,"ax",%progbits
  99      0080
 100              		.align	2
 101              		.p2align 4,,15
 102              		.thumb
 103              		.thumb_func
 104              		.type	reads, %function
 105              	reads:
 106              	.LFB8:
 107              		.loc 1 56 0
 108              		.cfi_startproc
 109              		@ args = 0, pretend = 0, frame = 0
 110              		@ frame_needed = 0, uses_anonymous_args = 0
 111              	.LVL9:
 112 0000 38B5     		push	{r3, r4, r5, lr}
 113              		.cfi_def_cfa_offset 16
ARM GAS  /tmp/ccUh5hAd.s 			page 3


 114              		.cfi_offset 3, -16
 115              		.cfi_offset 4, -12
 116              		.cfi_offset 5, -8
 117              		.cfi_offset 14, -4
 118 0002 0546     		mov	r5, r0
 119              	.LVL10:
 120              		.loc 1 59 0
 121 0004 C468     		ldr	r4, [r0, #12]
 122 0006 0369     		ldr	r3, [r0, #16]
 123 0008 E41A     		subs	r4, r4, r3
 124 000a 9442     		cmp	r4, r2
 125 000c 00D3     		bcc	.L8
 126 000e 1446     		mov	r4, r2
 127              	.L8:
 128              	.LVL11:
 129              		.loc 1 61 0
 130 0010 6A68     		ldr	r2, [r5, #4]
 131 0012 0846     		mov	r0, r1
 132              	.LVL12:
 133 0014 D118     		adds	r1, r2, r3
 134              	.LVL13:
 135 0016 2246     		mov	r2, r4
 136 0018 FFF7FEFF 		bl	memcpy
 137              	.LVL14:
 138              		.loc 1 62 0
 139 001c 2B69     		ldr	r3, [r5, #16]
 140 001e 2344     		add	r3, r3, r4
 141 0020 2B61     		str	r3, [r5, #16]
 142              		.loc 1 64 0
 143 0022 2046     		mov	r0, r4
 144 0024 38BD     		pop	{r3, r4, r5, pc}
 145              		.cfi_endproc
 146              	.LFE8:
 147              		.size	reads, .-reads
 148 0026 00BFAFF3 		.section	.text.writes,"ax",%progbits
 148      0080AFF3 
 148      0080
 149              		.align	2
 150              		.p2align 4,,15
 151              		.thumb
 152              		.thumb_func
 153              		.type	writes, %function
 154              	writes:
 155              	.LFB7:
 156              		.loc 1 46 0
 157              		.cfi_startproc
 158              		@ args = 0, pretend = 0, frame = 0
 159              		@ frame_needed = 0, uses_anonymous_args = 0
 160              	.LVL15:
 161 0000 38B5     		push	{r3, r4, r5, lr}
 162              		.cfi_def_cfa_offset 16
 163              		.cfi_offset 3, -16
 164              		.cfi_offset 4, -12
 165              		.cfi_offset 5, -8
 166              		.cfi_offset 14, -4
 167 0002 0546     		mov	r5, r0
 168              	.LVL16:
ARM GAS  /tmp/ccUh5hAd.s 			page 4


 169              		.loc 1 49 0
 170 0004 8468     		ldr	r4, [r0, #8]
 171 0006 C368     		ldr	r3, [r0, #12]
 172 0008 E41A     		subs	r4, r4, r3
 173 000a 9442     		cmp	r4, r2
 174 000c 00D3     		bcc	.L11
 175 000e 1446     		mov	r4, r2
 176              	.L11:
 177              	.LVL17:
 178              		.loc 1 51 0
 179 0010 6868     		ldr	r0, [r5, #4]
 180              	.LVL18:
 181 0012 1844     		add	r0, r0, r3
 182 0014 2246     		mov	r2, r4
 183 0016 FFF7FEFF 		bl	memcpy
 184              	.LVL19:
 185              		.loc 1 52 0
 186 001a EB68     		ldr	r3, [r5, #12]
 187 001c 2344     		add	r3, r3, r4
 188 001e EB60     		str	r3, [r5, #12]
 189              		.loc 1 54 0
 190 0020 2046     		mov	r0, r4
 191 0022 38BD     		pop	{r3, r4, r5, pc}
 192              		.cfi_endproc
 193              	.LFE7:
 194              		.size	writes, .-writes
 195 0024 AFF30080 		.section	.text.msObjectInit,"ax",%progbits
 195      AFF30080 
 195      AFF30080 
 196              		.align	2
 197              		.p2align 4,,15
 198              		.global	msObjectInit
 199              		.thumb
 200              		.thumb_func
 201              		.type	msObjectInit, %function
 202              	msObjectInit:
 203              	.LFB11:
 204              		.loc 1 104 0
 205              		.cfi_startproc
 206              		@ args = 0, pretend = 0, frame = 0
 207              		@ frame_needed = 0, uses_anonymous_args = 0
 208              		@ link register save eliminated.
 209              	.LVL20:
 210 0000 10B4     		push	{r4}
 211              		.cfi_def_cfa_offset 4
 212              		.cfi_offset 4, -4
 213              		.loc 1 106 0
 214 0002 054C     		ldr	r4, .L15
 215 0004 0460     		str	r4, [r0]
 216              		.loc 1 107 0
 217 0006 4160     		str	r1, [r0, #4]
 218              		.loc 1 108 0
 219 0008 8260     		str	r2, [r0, #8]
 220              		.loc 1 109 0
 221 000a C360     		str	r3, [r0, #12]
 222              		.loc 1 110 0
 223 000c 0023     		movs	r3, #0
ARM GAS  /tmp/ccUh5hAd.s 			page 5


 224              	.LVL21:
 225 000e 0361     		str	r3, [r0, #16]
 226              		.loc 1 111 0
 227 0010 5DF8044B 		ldr	r4, [sp], #4
 228              		.cfi_restore 4
 229              		.cfi_def_cfa_offset 0
 230 0014 7047     		bx	lr
 231              	.L16:
 232 0016 00BF     		.align	2
 233              	.L15:
 234 0018 00000000 		.word	.LANCHOR0
 235              		.cfi_endproc
 236              	.LFE11:
 237              		.size	msObjectInit, .-msObjectInit
 238 001c AFF30080 		.section	.rodata.vmt,"a",%progbits
 239              		.align	2
 240              		.set	.LANCHOR0,. + 0
 241              		.type	vmt, %object
 242              		.size	vmt, 16
 243              	vmt:
 244 0000 00000000 		.word	writes
 245 0004 00000000 		.word	reads
 246 0008 00000000 		.word	put
 247 000c 00000000 		.word	get
 248              		.text
 249              	.Letext0:
 250              		.file 2 "/usr/lib/gcc/arm-none-eabi/4.9.2/include/stddef.h"
 251              		.file 3 "/usr/arm-none-eabi/include/machine/_default_types.h"
 252              		.file 4 "/usr/arm-none-eabi/include/stdint.h"
 253              		.file 5 "../../ChibiOS-RT/os/ports/GCC/ARMCMx/chtypes.h"
 254              		.file 6 "../../ChibiOS-RT/os/various/memstreams.h"