ARM GAS  /tmp/ccaMlKJI.s 			page 1


   1              		.syntax unified
   2              		.cpu cortex-m4
   3              		.fpu softvfp
   4              		.eabi_attribute 20, 1
   5              		.eabi_attribute 21, 1
   6              		.eabi_attribute 23, 3
   7              		.eabi_attribute 24, 1
   8              		.eabi_attribute 25, 1
   9              		.eabi_attribute 26, 1
  10              		.eabi_attribute 30, 1
  11              		.eabi_attribute 34, 1
  12              		.eabi_attribute 18, 4
  13              		.thumb
  14              		.file	"nvic.c"
  15              		.text
  16              	.Ltext0:
  17              		.cfi_sections	.debug_frame
  18              		.section	.text.nvicEnableVector,"ax",%progbits
  19              		.align	2
  20              		.p2align 4,,15
  21              		.global	nvicEnableVector
  22              		.thumb
  23              		.thumb_func
  24              		.type	nvicEnableVector, %function
  25              	nvicEnableVector:
  26              	.LFB7:
  27              		.file 1 "../../ChibiOS-RT/os/ports/common/ARMCMx/nvic.c"
  28              		.loc 1 46 0
  29              		.cfi_startproc
  30              		@ args = 0, pretend = 0, frame = 0
  31              		@ frame_needed = 0, uses_anonymous_args = 0
  32              		@ link register save eliminated.
  33              	.LVL0:
  34 0000 70B4     		push	{r4, r5, r6}
  35              		.cfi_def_cfa_offset 12
  36              		.cfi_offset 4, -12
  37              		.cfi_offset 5, -8
  38              		.cfi_offset 6, -4
  39              		.loc 1 47 0
  40 0002 00F00304 		and	r4, r0, #3
  41 0006 E400     		lsls	r4, r4, #3
  42              	.LVL1:
  43              		.loc 1 49 0
  44 0008 8208     		lsrs	r2, r0, #2
  45 000a 0C4B     		ldr	r3, .L3
  46 000c C032     		adds	r2, r2, #192
  47 000e 53F82260 		ldr	r6, [r3, r2, lsl #2]
  48 0012 FF25     		movs	r5, #255
  49 0014 A540     		lsls	r5, r5, r4
  50 0016 26EA0505 		bic	r5, r6, r5
  51 001a A140     		lsls	r1, r1, r4
  52              	.LVL2:
  53 001c 2943     		orrs	r1, r1, r5
  54 001e 43F82210 		str	r1, [r3, r2, lsl #2]
  55              		.loc 1 50 0
  56 0022 4109     		lsrs	r1, r0, #5
  57 0024 00F01F00 		and	r0, r0, #31
ARM GAS  /tmp/ccaMlKJI.s 			page 2


  58              	.LVL3:
  59 0028 0122     		movs	r2, #1
  60 002a 8240     		lsls	r2, r2, r0
  61 002c 01F16000 		add	r0, r1, #96
  62 0030 43F82020 		str	r2, [r3, r0, lsl #2]
  63              		.loc 1 51 0
  64 0034 43F82120 		str	r2, [r3, r1, lsl #2]
  65              		.loc 1 52 0
  66 0038 70BC     		pop	{r4, r5, r6}
  67              		.cfi_restore 6
  68              		.cfi_restore 5
  69              		.cfi_restore 4
  70              		.cfi_def_cfa_offset 0
  71              	.LVL4:
  72 003a 7047     		bx	lr
  73              	.L4:
  74              		.align	2
  75              	.L3:
  76 003c 00E100E0 		.word	-536813312
  77              		.cfi_endproc
  78              	.LFE7:
  79              		.size	nvicEnableVector, .-nvicEnableVector
  80              		.section	.text.nvicDisableVector,"ax",%progbits
  81              		.align	2
  82              		.p2align 4,,15
  83              		.global	nvicDisableVector
  84              		.thumb
  85              		.thumb_func
  86              		.type	nvicDisableVector, %function
  87              	nvicDisableVector:
  88              	.LFB8:
  89              		.loc 1 60 0
  90              		.cfi_startproc
  91              		@ args = 0, pretend = 0, frame = 0
  92              		@ frame_needed = 0, uses_anonymous_args = 0
  93              		@ link register save eliminated.
  94              	.LVL5:
  95 0000 10B4     		push	{r4}
  96              		.cfi_def_cfa_offset 4
  97              		.cfi_offset 4, -4
  98              		.loc 1 61 0
  99 0002 00F00304 		and	r4, r0, #3
 100 0006 E400     		lsls	r4, r4, #3
 101              	.LVL6:
 102              		.loc 1 63 0
 103 0008 4209     		lsrs	r2, r0, #5
 104 000a 00F01F03 		and	r3, r0, #31
 105 000e 0121     		movs	r1, #1
 106 0010 9940     		lsls	r1, r1, r3
 107 0012 084B     		ldr	r3, .L7
 108 0014 2032     		adds	r2, r2, #32
 109 0016 43F82210 		str	r1, [r3, r2, lsl #2]
 110              		.loc 1 64 0
 111 001a 8008     		lsrs	r0, r0, #2
 112              	.LVL7:
 113 001c C030     		adds	r0, r0, #192
 114 001e 53F82010 		ldr	r1, [r3, r0, lsl #2]
ARM GAS  /tmp/ccaMlKJI.s 			page 3


 115 0022 FF22     		movs	r2, #255
 116 0024 A240     		lsls	r2, r2, r4
 117 0026 21EA0202 		bic	r2, r1, r2
 118 002a 43F82020 		str	r2, [r3, r0, lsl #2]
 119              		.loc 1 65 0
 120 002e 5DF8044B 		ldr	r4, [sp], #4
 121              		.cfi_restore 4
 122              		.cfi_def_cfa_offset 0
 123              	.LVL8:
 124 0032 7047     		bx	lr
 125              	.L8:
 126              		.align	2
 127              	.L7:
 128 0034 00E100E0 		.word	-536813312
 129              		.cfi_endproc
 130              	.LFE8:
 131              		.size	nvicDisableVector, .-nvicDisableVector
 132 0038 AFF30080 		.section	.text.nvicSetSystemHandlerPriority,"ax",%progbits
 132      AFF30080 
 133              		.align	2
 134              		.p2align 4,,15
 135              		.global	nvicSetSystemHandlerPriority
 136              		.thumb
 137              		.thumb_func
 138              		.type	nvicSetSystemHandlerPriority, %function
 139              	nvicSetSystemHandlerPriority:
 140              	.LFB9:
 141              		.loc 1 74 0
 142              		.cfi_startproc
 143              		@ args = 0, pretend = 0, frame = 0
 144              		@ frame_needed = 0, uses_anonymous_args = 0
 145              		@ link register save eliminated.
 146              	.LVL9:
 147 0000 30B4     		push	{r4, r5}
 148              		.cfi_def_cfa_offset 8
 149              		.cfi_offset 4, -8
 150              		.cfi_offset 5, -4
 151              		.loc 1 75 0
 152 0002 00F00303 		and	r3, r0, #3
 153 0006 DB00     		lsls	r3, r3, #3
 154              	.LVL10:
 155              		.loc 1 77 0
 156 0008 8008     		lsrs	r0, r0, #2
 157              	.LVL11:
 158 000a 074D     		ldr	r5, .L11
 159 000c 0630     		adds	r0, r0, #6
 160 000e 55F82040 		ldr	r4, [r5, r0, lsl #2]
 161              		.loc 1 78 0
 162 0012 FF22     		movs	r2, #255
 163 0014 9A40     		lsls	r2, r2, r3
 164              		.loc 1 77 0
 165 0016 24EA0202 		bic	r2, r4, r2
 166              		.loc 1 78 0
 167 001a 9940     		lsls	r1, r1, r3
 168              	.LVL12:
 169 001c 1143     		orrs	r1, r1, r2
 170              		.loc 1 77 0
ARM GAS  /tmp/ccaMlKJI.s 			page 4


 171 001e 45F82010 		str	r1, [r5, r0, lsl #2]
 172              		.loc 1 79 0
 173 0022 30BC     		pop	{r4, r5}
 174              		.cfi_restore 5
 175              		.cfi_restore 4
 176              		.cfi_def_cfa_offset 0
 177 0024 7047     		bx	lr
 178              	.L12:
 179 0026 00BF     		.align	2
 180              	.L11:
 181 0028 00ED00E0 		.word	-536810240
 182              		.cfi_endproc
 183              	.LFE9:
 184              		.size	nvicSetSystemHandlerPriority, .-nvicSetSystemHandlerPriority
 185 002c AFF30080 		.text
 186              	.Letext0:
 187              		.file 2 "/usr/arm-none-eabi/include/machine/_default_types.h"
 188              		.file 3 "/usr/arm-none-eabi/include/stdint.h"
 189              		.file 4 "../../ChibiOS-RT/os/ports/common/ARMCMx/nvic.h"