ARM GAS  /tmp/ccyg5ZNt.s 			page 1


   1              		.syntax unified
   2              		.cpu cortex-m4
   3              		.fpu softvfp
   4              		.eabi_attribute 20, 1
   5              		.eabi_attribute 21, 1
   6              		.eabi_attribute 23, 3
   7              		.eabi_attribute 24, 1
   8              		.eabi_attribute 25, 1
   9              		.eabi_attribute 26, 1
  10              		.eabi_attribute 30, 1
  11              		.eabi_attribute 34, 1
  12              		.eabi_attribute 18, 4
  13              		.thumb
  14              		.file	"pal.c"
  15              		.text
  16              	.Ltext0:
  17              		.cfi_sections	.debug_frame
  18              		.section	.text.palReadBus,"ax",%progbits
  19              		.align	2
  20              		.p2align 4,,15
  21              		.global	palReadBus
  22              		.thumb
  23              		.thumb_func
  24              		.type	palReadBus, %function
  25              	palReadBus:
  26              	.LFB118:
  27              		.file 1 "../../ChibiOS-RT/os/hal/src/pal.c"
  28              		.loc 1 77 0
  29              		.cfi_startproc
  30              		@ args = 0, pretend = 0, frame = 0
  31              		@ frame_needed = 0, uses_anonymous_args = 0
  32              		@ link register save eliminated.
  33              	.LVL0:
  34              		.loc 1 82 0
  35 0000 0368     		ldr	r3, [r0]
  36 0002 1B69     		ldr	r3, [r3, #16]
  37 0004 8268     		ldr	r2, [r0, #8]
  38 0006 D340     		lsrs	r3, r3, r2
  39 0008 4068     		ldr	r0, [r0, #4]
  40              	.LVL1:
  41              		.loc 1 83 0
  42 000a 1840     		ands	r0, r0, r3
  43 000c 7047     		bx	lr
  44              		.cfi_endproc
  45              	.LFE118:
  46              		.size	palReadBus, .-palReadBus
  47 000e 00BF     		.section	.text.palWriteBus,"ax",%progbits
  48              		.align	2
  49              		.p2align 4,,15
  50              		.global	palWriteBus
  51              		.thumb
  52              		.thumb_func
  53              		.type	palWriteBus, %function
  54              	palWriteBus:
  55              	.LFB119:
  56              		.loc 1 103 0
  57              		.cfi_startproc
ARM GAS  /tmp/ccyg5ZNt.s 			page 2


  58              		@ args = 0, pretend = 0, frame = 0
  59              		@ frame_needed = 0, uses_anonymous_args = 0
  60              		@ link register save eliminated.
  61              	.LVL2:
  62 0000 30B4     		push	{r4, r5}
  63              		.cfi_def_cfa_offset 8
  64              		.cfi_offset 4, -8
  65              		.cfi_offset 5, -4
  66              		.loc 1 108 0
  67 0002 0468     		ldr	r4, [r0]
  68 0004 4368     		ldr	r3, [r0, #4]
  69 0006 23EA0102 		bic	r2, r3, r1
  70 000a 8068     		ldr	r0, [r0, #8]
  71              	.LVL3:
  72 000c 00F11005 		add	r5, r0, #16
  73 0010 AA40     		lsls	r2, r2, r5
  74 0012 0B40     		ands	r3, r3, r1
  75 0014 8340     		lsls	r3, r3, r0
  76 0016 1343     		orrs	r3, r3, r2
  77 0018 A361     		str	r3, [r4, #24]
  78              		.loc 1 109 0
  79 001a 30BC     		pop	{r4, r5}
  80              		.cfi_restore 5
  81              		.cfi_restore 4
  82              		.cfi_def_cfa_offset 0
  83 001c 7047     		bx	lr
  84              		.cfi_endproc
  85              	.LFE119:
  86              		.size	palWriteBus, .-palWriteBus
  87 001e 00BF     		.section	.text.palSetBusMode,"ax",%progbits
  88              		.align	2
  89              		.p2align 4,,15
  90              		.global	palSetBusMode
  91              		.thumb
  92              		.thumb_func
  93              		.type	palSetBusMode, %function
  94              	palSetBusMode:
  95              	.LFB120:
  96              		.loc 1 127 0
  97              		.cfi_startproc
  98              		@ args = 0, pretend = 0, frame = 0
  99              		@ frame_needed = 0, uses_anonymous_args = 0
 100              	.LVL4:
 101 0000 08B5     		push	{r3, lr}
 102              		.cfi_def_cfa_offset 8
 103              		.cfi_offset 3, -8
 104              		.cfi_offset 14, -4
 105 0002 0A46     		mov	r2, r1
 106              		.loc 1 132 0
 107 0004 4168     		ldr	r1, [r0, #4]
 108              	.LVL5:
 109 0006 8368     		ldr	r3, [r0, #8]
 110 0008 0068     		ldr	r0, [r0]
 111              	.LVL6:
 112 000a 9940     		lsls	r1, r1, r3
 113 000c FFF7FEFF 		bl	_pal_lld_setgroupmode
 114              	.LVL7:
ARM GAS  /tmp/ccyg5ZNt.s 			page 3


 115 0010 08BD     		pop	{r3, pc}
 116              		.cfi_endproc
 117              	.LFE120:
 118              		.size	palSetBusMode, .-palSetBusMode
 119 0012 00BFAFF3 		.text
 119      0080AFF3 
 119      0080AFF3 
 119      0080
 120              	.Letext0:
 121              		.file 2 "/usr/arm-none-eabi/include/machine/_default_types.h"
 122              		.file 3 "/usr/arm-none-eabi/include/stdint.h"
 123              		.file 4 "../../ChibiOS-RT/os/hal/platforms/STM32/GPIOv2/pal_lld.h"
 124              		.file 5 "../../ChibiOS-RT/os/hal/include/pal.h"
 125              		.file 6 "../../ChibiOS-RT/os/ports/common/ARMCMx/CMSIS/include/core_cm4.h"