ARM GAS  /tmp/ccJSQkQn.s 			page 1


   1              		.syntax unified
   2              		.cpu cortex-m4
   3              		.fpu softvfp
   4              		.eabi_attribute 20, 1
   5              		.eabi_attribute 21, 1
   6              		.eabi_attribute 23, 3
   7              		.eabi_attribute 24, 1
   8              		.eabi_attribute 25, 1
   9              		.eabi_attribute 26, 1
  10              		.eabi_attribute 30, 1
  11              		.eabi_attribute 34, 1
  12              		.eabi_attribute 18, 4
  13              		.thumb
  14              		.file	"pal_lld.c"
  15              		.text
  16              	.Ltext0:
  17              		.cfi_sections	.debug_frame
  18              		.section	.text.initgpio,"ax",%progbits
  19              		.align	2
  20              		.p2align 4,,15
  21              		.thumb
  22              		.thumb_func
  23              		.type	initgpio, %function
  24              	initgpio:
  25              	.LFB118:
  26              		.file 1 "../../ChibiOS-RT/os/hal/platforms/STM32/GPIOv2/pal_lld.c"
  27              		.loc 1 92 0
  28              		.cfi_startproc
  29              		@ args = 0, pretend = 0, frame = 0
  30              		@ frame_needed = 0, uses_anonymous_args = 0
  31              		@ link register save eliminated.
  32              	.LVL0:
  33              		.loc 1 94 0
  34 0000 4B68     		ldr	r3, [r1, #4]
  35 0002 4360     		str	r3, [r0, #4]
  36              		.loc 1 95 0
  37 0004 8B68     		ldr	r3, [r1, #8]
  38 0006 8360     		str	r3, [r0, #8]
  39              		.loc 1 96 0
  40 0008 CB68     		ldr	r3, [r1, #12]
  41 000a C360     		str	r3, [r0, #12]
  42              		.loc 1 97 0
  43 000c 0B69     		ldr	r3, [r1, #16]
  44 000e 4361     		str	r3, [r0, #20]
  45              		.loc 1 98 0
  46 0010 4B69     		ldr	r3, [r1, #20]
  47 0012 0362     		str	r3, [r0, #32]
  48              		.loc 1 99 0
  49 0014 8B69     		ldr	r3, [r1, #24]
  50 0016 4362     		str	r3, [r0, #36]
  51              		.loc 1 100 0
  52 0018 0B68     		ldr	r3, [r1]
  53 001a 0360     		str	r3, [r0]
  54 001c 7047     		bx	lr
  55              		.cfi_endproc
  56              	.LFE118:
  57              		.size	initgpio, .-initgpio
ARM GAS  /tmp/ccJSQkQn.s 			page 2


  58 001e 00BF     		.section	.text._pal_lld_init,"ax",%progbits
  59              		.align	2
  60              		.p2align 4,,15
  61              		.global	_pal_lld_init
  62              		.thumb
  63              		.thumb_func
  64              		.type	_pal_lld_init, %function
  65              	_pal_lld_init:
  66              	.LFB119:
  67              		.loc 1 119 0
  68              		.cfi_startproc
  69              		@ args = 0, pretend = 0, frame = 0
  70              		@ frame_needed = 0, uses_anonymous_args = 0
  71              	.LVL1:
  72 0000 10B5     		push	{r4, lr}
  73              		.cfi_def_cfa_offset 8
  74              		.cfi_offset 4, -8
  75              		.cfi_offset 14, -4
  76 0002 0446     		mov	r4, r0
  77              		.loc 1 132 0
  78 0004 1A4B     		ldr	r3, .L4
  79 0006 196B     		ldr	r1, [r3, #48]
  80 0008 40F2FF12 		movw	r2, #511
  81 000c 1143     		orrs	r1, r1, r2
  82 000e 1963     		str	r1, [r3, #48]
  83              		.loc 1 133 0
  84 0010 196D     		ldr	r1, [r3, #80]
  85 0012 0A43     		orrs	r2, r2, r1
  86 0014 1A65     		str	r2, [r3, #80]
  87              		.loc 1 140 0
  88 0016 1748     		ldr	r0, .L4+4
  89              	.LVL2:
  90 0018 2146     		mov	r1, r4
  91 001a FFF7FEFF 		bl	initgpio
  92              	.LVL3:
  93              		.loc 1 143 0
  94 001e 1648     		ldr	r0, .L4+8
  95 0020 04F11C01 		add	r1, r4, #28
  96 0024 FFF7FEFF 		bl	initgpio
  97              	.LVL4:
  98              		.loc 1 146 0
  99 0028 1448     		ldr	r0, .L4+12
 100 002a 04F13801 		add	r1, r4, #56
 101 002e FFF7FEFF 		bl	initgpio
 102              	.LVL5:
 103              		.loc 1 149 0
 104 0032 1348     		ldr	r0, .L4+16
 105 0034 04F15401 		add	r1, r4, #84
 106 0038 FFF7FEFF 		bl	initgpio
 107              	.LVL6:
 108              		.loc 1 152 0
 109 003c 1148     		ldr	r0, .L4+20
 110 003e 04F17001 		add	r1, r4, #112
 111 0042 FFF7FEFF 		bl	initgpio
 112              	.LVL7:
 113              		.loc 1 155 0
 114 0046 1048     		ldr	r0, .L4+24
ARM GAS  /tmp/ccJSQkQn.s 			page 3


 115 0048 04F18C01 		add	r1, r4, #140
 116 004c FFF7FEFF 		bl	initgpio
 117              	.LVL8:
 118              		.loc 1 158 0
 119 0050 0E48     		ldr	r0, .L4+28
 120 0052 04F1A801 		add	r1, r4, #168
 121 0056 FFF7FEFF 		bl	initgpio
 122              	.LVL9:
 123              		.loc 1 161 0
 124 005a 0D48     		ldr	r0, .L4+32
 125 005c 04F1C401 		add	r1, r4, #196
 126 0060 FFF7FEFF 		bl	initgpio
 127              	.LVL10:
 128              		.loc 1 164 0
 129 0064 0B48     		ldr	r0, .L4+36
 130 0066 04F1E001 		add	r1, r4, #224
 131 006a FFF7FEFF 		bl	initgpio
 132              	.LVL11:
 133 006e 10BD     		pop	{r4, pc}
 134              	.LVL12:
 135              	.L5:
 136              		.align	2
 137              	.L4:
 138 0070 00380240 		.word	1073887232
 139 0074 00000240 		.word	1073872896
 140 0078 00040240 		.word	1073873920
 141 007c 00080240 		.word	1073874944
 142 0080 000C0240 		.word	1073875968
 143 0084 00100240 		.word	1073876992
 144 0088 00140240 		.word	1073878016
 145 008c 00180240 		.word	1073879040
 146 0090 001C0240 		.word	1073880064
 147 0094 00200240 		.word	1073881088
 148              		.cfi_endproc
 149              	.LFE119:
 150              		.size	_pal_lld_init, .-_pal_lld_init
 151 0098 AFF30080 		.section	.text._pal_lld_setgroupmode,"ax",%progbits
 151      AFF30080 
 152              		.align	2
 153              		.p2align 4,,15
 154              		.global	_pal_lld_setgroupmode
 155              		.thumb
 156              		.thumb_func
 157              		.type	_pal_lld_setgroupmode, %function
 158              	_pal_lld_setgroupmode:
 159              	.LFB120:
 160              		.loc 1 184 0
 161              		.cfi_startproc
 162              		@ args = 0, pretend = 0, frame = 0
 163              		@ frame_needed = 0, uses_anonymous_args = 0
 164              	.LVL13:
 165 0000 2DE9F041 		push	{r4, r5, r6, r7, r8, lr}
 166              		.cfi_def_cfa_offset 24
 167              		.cfi_offset 4, -24
 168              		.cfi_offset 5, -20
 169              		.cfi_offset 6, -16
 170              		.cfi_offset 7, -12
ARM GAS  /tmp/ccJSQkQn.s 			page 4


 171              		.cfi_offset 8, -8
 172              		.cfi_offset 14, -4
 173              		.loc 1 186 0
 174 0004 02F0030C 		and	ip, r2, #3
 175              	.LVL14:
 176              		.loc 1 187 0
 177 0008 C2F3800E 		ubfx	lr, r2, #2, #1
 178              	.LVL15:
 179              		.loc 1 188 0
 180 000c C2F3C107 		ubfx	r7, r2, #3, #2
 181              	.LVL16:
 182              		.loc 1 189 0
 183 0010 C2F34116 		ubfx	r6, r2, #5, #2
 184              	.LVL17:
 185              		.loc 1 190 0
 186 0014 C2F3C312 		ubfx	r2, r2, #7, #4
 187              	.LVL18:
 188              		.loc 1 191 0
 189 0018 0024     		movs	r4, #0
 190              	.LVL19:
 191              	.L11:
 192              		.loc 1 193 0
 193 001a 11F0010F 		tst	r1, #1
 194 001e 2FD0     		beq	.L7
 195              	.LBB2:
 196              		.loc 1 196 0
 197 0020 04F00703 		and	r3, r4, #7
 198 0024 9B00     		lsls	r3, r3, #2
 199 0026 02FA03F8 		lsl	r8, r2, r3
 200              	.LVL20:
 201              		.loc 1 197 0
 202 002a 0F25     		movs	r5, #15
 203 002c 05FA03F3 		lsl	r3, r5, r3
 204              	.LVL21:
 205              		.loc 1 198 0
 206 0030 072C     		cmp	r4, #7
 207 0032 06D8     		bhi	.L8
 208              		.loc 1 199 0
 209 0034 056A     		ldr	r5, [r0, #32]
 210 0036 25EA0303 		bic	r3, r5, r3
 211              	.LVL22:
 212 003a 43EA0803 		orr	r3, r3, r8
 213 003e 0362     		str	r3, [r0, #32]
 214 0040 05E0     		b	.L9
 215              	.LVL23:
 216              	.L8:
 217              		.loc 1 201 0
 218 0042 456A     		ldr	r5, [r0, #36]
 219 0044 25EA0303 		bic	r3, r5, r3
 220              	.LVL24:
 221 0048 43EA0803 		orr	r3, r3, r8
 222 004c 4362     		str	r3, [r0, #36]
 223              	.L9:
 224              		.loc 1 202 0
 225 004e 0123     		movs	r3, #1
 226 0050 A340     		lsls	r3, r3, r4
 227              	.LVL25:
ARM GAS  /tmp/ccJSQkQn.s 			page 5


 228              		.loc 1 203 0
 229 0052 4568     		ldr	r5, [r0, #4]
 230 0054 25EA0303 		bic	r3, r5, r3
 231              	.LVL26:
 232 0058 43EA0E03 		orr	r3, r3, lr
 233 005c 4360     		str	r3, [r0, #4]
 234              		.loc 1 204 0
 235 005e 6500     		lsls	r5, r4, #1
 236 0060 0323     		movs	r3, #3
 237 0062 AB40     		lsls	r3, r3, r5
 238              	.LVL27:
 239              		.loc 1 205 0
 240 0064 8568     		ldr	r5, [r0, #8]
 241 0066 DB43     		mvns	r3, r3
 242              	.LVL28:
 243 0068 1D40     		ands	r5, r5, r3
 244 006a 3D43     		orrs	r5, r5, r7
 245 006c 8560     		str	r5, [r0, #8]
 246              		.loc 1 206 0
 247 006e C568     		ldr	r5, [r0, #12]
 248 0070 1D40     		ands	r5, r5, r3
 249 0072 3543     		orrs	r5, r5, r6
 250 0074 C560     		str	r5, [r0, #12]
 251              		.loc 1 207 0
 252 0076 0568     		ldr	r5, [r0]
 253 0078 2B40     		ands	r3, r3, r5
 254              	.LVL29:
 255 007a 43EA0C03 		orr	r3, r3, ip
 256 007e 0360     		str	r3, [r0]
 257              	.LVL30:
 258              	.L7:
 259              	.LBE2:
 260              		.loc 1 210 0
 261 0080 4908     		lsrs	r1, r1, #1
 262              	.LVL31:
 263 0082 07D0     		beq	.L6
 264              		.loc 1 212 0
 265 0084 4FEA4E0E 		lsl	lr, lr, #1
 266              	.LVL32:
 267              		.loc 1 213 0
 268 0088 BF00     		lsls	r7, r7, #2
 269              	.LVL33:
 270              		.loc 1 214 0
 271 008a B600     		lsls	r6, r6, #2
 272              	.LVL34:
 273              		.loc 1 215 0
 274 008c 4FEA8C0C 		lsl	ip, ip, #2
 275              	.LVL35:
 276              		.loc 1 216 0
 277 0090 0134     		adds	r4, r4, #1
 278              	.LVL36:
 279              		.loc 1 217 0
 280 0092 C2E7     		b	.L11
 281              	.L6:
 282 0094 BDE8F081 		pop	{r4, r5, r6, r7, r8, pc}
 283              		.cfi_endproc
 284              	.LFE120:
ARM GAS  /tmp/ccJSQkQn.s 			page 6


 285              		.size	_pal_lld_setgroupmode, .-_pal_lld_setgroupmode
 286 0098 AFF30080 		.text
 286      AFF30080 
 287              	.Letext0:
 288              		.file 2 "/usr/arm-none-eabi/include/machine/_default_types.h"
 289              		.file 3 "/usr/arm-none-eabi/include/stdint.h"
 290              		.file 4 "../../ChibiOS-RT/os/hal/platforms/STM32F4xx/stm32f4xx.h"
 291              		.file 5 "../../ChibiOS-RT/os/hal/platforms/STM32/GPIOv2/pal_lld.h"
 292              		.file 6 "../../ChibiOS-RT/os/ports/common/ARMCMx/CMSIS/include/core_cm4.h"