ARM GAS  /tmp/ccZYFdDX.s 			page 1


   1              		.syntax unified
   2              		.cpu cortex-m4
   3              		.fpu softvfp
   4              		.eabi_attribute 20, 1
   5              		.eabi_attribute 21, 1
   6              		.eabi_attribute 23, 3
   7              		.eabi_attribute 24, 1
   8              		.eabi_attribute 25, 1
   9              		.eabi_attribute 26, 1
  10              		.eabi_attribute 30, 1
  11              		.eabi_attribute 34, 1
  12              		.eabi_attribute 18, 4
  13              		.thumb
  14              		.file	"tm.c"
  15              		.text
  16              	.Ltext0:
  17              		.cfi_sections	.debug_frame
  18              		.section	.text.tm_start,"ax",%progbits
  19              		.align	2
  20              		.p2align 4,,15
  21              		.thumb
  22              		.thumb_func
  23              		.type	tm_start, %function
  24              	tm_start:
  25              	.LFB118:
  26              		.file 1 "../../ChibiOS-RT/os/hal/src/tm.c"
  27              		.loc 1 69 0
  28              		.cfi_startproc
  29              		@ args = 0, pretend = 0, frame = 0
  30              		@ frame_needed = 0, uses_anonymous_args = 0
  31              		@ link register save eliminated.
  32              	.LVL0:
  33              		.loc 1 71 0
  34 0000 014B     		ldr	r3, .L2
  35 0002 5B68     		ldr	r3, [r3, #4]
  36 0004 8360     		str	r3, [r0, #8]
  37 0006 7047     		bx	lr
  38              	.L3:
  39              		.align	2
  40              	.L2:
  41 0008 001000E0 		.word	-536866816
  42              		.cfi_endproc
  43              	.LFE118:
  44              		.size	tm_start, .-tm_start
  45 000c AFF30080 		.section	.text.tm_stop,"ax",%progbits
  46              		.align	2
  47              		.p2align 4,,15
  48              		.thumb
  49              		.thumb_func
  50              		.type	tm_stop, %function
  51              	tm_stop:
  52              	.LFB119:
  53              		.loc 1 81 0
  54              		.cfi_startproc
  55              		@ args = 0, pretend = 0, frame = 0
  56              		@ frame_needed = 0, uses_anonymous_args = 0
  57              		@ link register save eliminated.
ARM GAS  /tmp/ccZYFdDX.s 			page 2


  58              	.LVL1:
  59              		.loc 1 83 0
  60 0000 084B     		ldr	r3, .L7
  61 0002 5B68     		ldr	r3, [r3, #4]
  62              	.LVL2:
  63              		.loc 1 84 0
  64 0004 8268     		ldr	r2, [r0, #8]
  65 0006 9B1A     		subs	r3, r3, r2
  66              	.LVL3:
  67 0008 074A     		ldr	r2, .L7+4
  68 000a 1268     		ldr	r2, [r2]
  69 000c 9B1A     		subs	r3, r3, r2
  70 000e 8360     		str	r3, [r0, #8]
  71              		.loc 1 85 0
  72 0010 C268     		ldr	r2, [r0, #12]
  73 0012 9342     		cmp	r3, r2
  74 0014 01D9     		bls	.L5
  75              		.loc 1 86 0
  76 0016 C360     		str	r3, [r0, #12]
  77 0018 7047     		bx	lr
  78              	.L5:
  79              		.loc 1 87 0
  80 001a 0269     		ldr	r2, [r0, #16]
  81 001c 9342     		cmp	r3, r2
  82 001e 00D2     		bcs	.L4
  83              		.loc 1 88 0
  84 0020 0361     		str	r3, [r0, #16]
  85              	.L4:
  86 0022 7047     		bx	lr
  87              	.L8:
  88              		.align	2
  89              	.L7:
  90 0024 001000E0 		.word	-536866816
  91 0028 00000000 		.word	.LANCHOR0
  92              		.cfi_endproc
  93              	.LFE119:
  94              		.size	tm_stop, .-tm_stop
  95 002c AFF30080 		.section	.text.tmObjectInit,"ax",%progbits
  96              		.align	2
  97              		.p2align 4,,15
  98              		.global	tmObjectInit
  99              		.thumb
 100              		.thumb_func
 101              		.type	tmObjectInit, %function
 102              	tmObjectInit:
 103              	.LFB121:
 104              		.loc 1 124 0
 105              		.cfi_startproc
 106              		@ args = 0, pretend = 0, frame = 0
 107              		@ frame_needed = 0, uses_anonymous_args = 0
 108              		@ link register save eliminated.
 109              	.LVL4:
 110              		.loc 1 126 0
 111 0000 054B     		ldr	r3, .L10
 112 0002 0360     		str	r3, [r0]
 113              		.loc 1 127 0
 114 0004 054B     		ldr	r3, .L10+4
ARM GAS  /tmp/ccZYFdDX.s 			page 3


 115 0006 4360     		str	r3, [r0, #4]
 116              		.loc 1 128 0
 117 0008 0023     		movs	r3, #0
 118 000a 8360     		str	r3, [r0, #8]
 119              		.loc 1 129 0
 120 000c C360     		str	r3, [r0, #12]
 121              		.loc 1 130 0
 122 000e 4FF0FF33 		mov	r3, #-1
 123 0012 0361     		str	r3, [r0, #16]
 124 0014 7047     		bx	lr
 125              	.L11:
 126 0016 00BF     		.align	2
 127              	.L10:
 128 0018 00000000 		.word	tm_start
 129 001c 00000000 		.word	tm_stop
 130              		.cfi_endproc
 131              	.LFE121:
 132              		.size	tmObjectInit, .-tmObjectInit
 133              		.section	.text.tmInit,"ax",%progbits
 134              		.align	2
 135              		.p2align 4,,15
 136              		.global	tmInit
 137              		.thumb
 138              		.thumb_func
 139              		.type	tmInit, %function
 140              	tmInit:
 141              	.LFB120:
 142              		.loc 1 104 0
 143              		.cfi_startproc
 144              		@ args = 0, pretend = 0, frame = 24
 145              		@ frame_needed = 0, uses_anonymous_args = 0
 146 0000 10B5     		push	{r4, lr}
 147              		.cfi_def_cfa_offset 8
 148              		.cfi_offset 4, -8
 149              		.cfi_offset 14, -4
 150 0002 86B0     		sub	sp, sp, #24
 151              		.cfi_def_cfa_offset 32
 152              		.loc 1 110 0
 153 0004 074C     		ldr	r4, .L14
 154 0006 0023     		movs	r3, #0
 155 0008 2360     		str	r3, [r4]
 156              		.loc 1 111 0
 157 000a 01A8     		add	r0, sp, #4
 158 000c FFF7FEFF 		bl	tmObjectInit
 159              	.LVL5:
 160              		.loc 1 112 0
 161 0010 01A8     		add	r0, sp, #4
 162 0012 019B     		ldr	r3, [sp, #4]
 163 0014 9847     		blx	r3
 164              	.LVL6:
 165              		.loc 1 113 0
 166 0016 01A8     		add	r0, sp, #4
 167 0018 029B     		ldr	r3, [sp, #8]
 168 001a 9847     		blx	r3
 169              	.LVL7:
 170              		.loc 1 114 0
 171 001c 039B     		ldr	r3, [sp, #12]
ARM GAS  /tmp/ccZYFdDX.s 			page 4


 172 001e 2360     		str	r3, [r4]
 173              		.loc 1 115 0
 174 0020 06B0     		add	sp, sp, #24
 175              		.cfi_def_cfa_offset 8
 176              		@ sp needed
 177 0022 10BD     		pop	{r4, pc}
 178              	.L15:
 179              		.align	2
 180              	.L14:
 181 0024 00000000 		.word	.LANCHOR0
 182              		.cfi_endproc
 183              	.LFE120:
 184              		.size	tmInit, .-tmInit
 185 0028 AFF30080 		.section	.bss.measurement_offset,"aw",%nobits
 185      AFF30080 
 186              		.align	2
 187              		.set	.LANCHOR0,. + 0
 188              		.type	measurement_offset, %object
 189              		.size	measurement_offset, 4
 190              	measurement_offset:
 191 0000 00000000 		.space	4
 192              		.text
 193              	.Letext0:
 194              		.file 2 "/usr/arm-none-eabi/include/machine/_default_types.h"
 195              		.file 3 "/usr/arm-none-eabi/include/stdint.h"
 196              		.file 4 "../../ChibiOS-RT/os/ports/common/ARMCMx/nvic.h"
 197              		.file 5 "../../ChibiOS-RT/os/hal/platforms/STM32F4xx/hal_lld.h"
 198              		.file 6 "../../ChibiOS-RT/os/hal/include/tm.h"
 199              		.file 7 "../../ChibiOS-RT/os/ports/common/ARMCMx/CMSIS/include/core_cm4.h"